TN:
SF:/home/runner/work/neml2/neml2/src/neml2/base/DiagnosticsInterface.cxx
FN:31,35,_ZN5neml210DiagnosingC2Eb
FN:37,37,_ZN5neml210DiagnosingD2Ev
FN:40,44,_ZN5neml224current_diagnostic_stateEv
FN:47,51,_ZN5neml217current_diagnosesEv
FN:54,77,_ZN5neml28diagnoseERKNS_20DiagnosticsInterfaceE
FN:80,94,_ZN5neml218diagnose_and_throwERKNS_20DiagnosticsInterfaceE
FN:96,99,_ZN5neml220DiagnosticsInterfaceC2EPNS_11NEML2ObjectE
FNDA:235,_ZN5neml210DiagnosingC2Eb
FNDA:235,_ZN5neml210DiagnosingD2Ev
FNDA:1144,_ZN5neml224current_diagnostic_stateEv
FNDA:439,_ZN5neml217current_diagnosesEv
FNDA:235,_ZN5neml28diagnoseERKNS_20DiagnosticsInterfaceE
FNDA:203,_ZN5neml218diagnose_and_throwERKNS_20DiagnosticsInterfaceE
FNDA:697,_ZN5neml220DiagnosticsInterfaceC2EPNS_11NEML2ObjectE
FNF:7
FNH:7
DA:31,235
DA:32,235
DA:34,235
DA:35,235
DA:37,235
DA:40,1144
DA:42,1144
DA:43,1144
DA:47,439
DA:49,439
DA:50,439
DA:54,235
DA:56,235
DA:57,235
DA:58,235
DA:62,235
DA:63,235
DA:64,235
DA:67,235
DA:70,235
DA:72,203
DA:73,203
DA:76,235
DA:77,0
DA:80,203
DA:82,203
DA:83,203
DA:85,203
DA:86,203
DA:88,1
DA:89,1
DA:90,2
DA:91,1
DA:92,1
DA:93,1
DA:94,203
DA:96,697
DA:97,697
DA:99,697
LF:39
LH:38
end_of_record
TN:
SF:/home/runner/work/neml2/neml2/src/neml2/base/EnumSelection.cxx
FN:31,35,_ZN5neml2lsERSoRKNS_13EnumSelectionE
FN:38,42,_ZN5neml2rsERNSt7__cxx1118basic_stringstreamIcSt11char_traitsIcESaIcEEERNS_13EnumSelectionE
FN:44,49,_ZN5neml213EnumSelectionC2ERKSt6vectorINSt7__cxx1112basic_stringIcSt11char_traitsIcESaIcEEESaIS7_EERKS7_
FN:51,57,_ZN5neml213EnumSelectionC2ERKSt6vectorINSt7__cxx1112basic_stringIcSt11char_traitsIcESaIcEEESaIS7_EERKS1_IiSaIiEERKS7_
FN:60,64,_ZNK5neml213EnumSelectioneqERKS0_
FN:67,70,_ZNK5neml213EnumSelectionneERKS0_
FN:73,76,_ZNK5neml213EnumSelectioneqERKNSt7__cxx1112basic_stringIcSt11char_traitsIcESaIcEEE
FN:79,82,_ZNK5neml213EnumSelectionneERKNSt7__cxx1112basic_stringIcSt11char_traitsIcESaIcEEE
FN:85,91,_ZN5neml213EnumSelection6selectERKNSt7__cxx1112basic_stringIcSt11char_traitsIcESaIcEEE
FNDA:1,_ZN5neml2lsERSoRKNS_13EnumSelectionE
FNDA:2,_ZN5neml2rsERNSt7__cxx1118basic_stringstreamIcSt11char_traitsIcESaIcEEERNS_13EnumSelectionE
FNDA:46,_ZN5neml213EnumSelectionC2ERKSt6vectorINSt7__cxx1112basic_stringIcSt11char_traitsIcESaIcEEESaIS7_EERKS7_
FNDA:20,_ZN5neml213EnumSelectionC2ERKSt6vectorINSt7__cxx1112basic_stringIcSt11char_traitsIcESaIcEEESaIS7_EERKS1_IiSaIiEERKS7_
FNDA:7,_ZNK5neml213EnumSelectioneqERKS0_
FNDA:5,_ZNK5neml213EnumSelectionneERKS0_
FNDA:185,_ZNK5neml213EnumSelectioneqERKNSt7__cxx1112basic_stringIcSt11char_traitsIcESaIcEEE
FNDA:0,_ZNK5neml213EnumSelectionneERKNSt7__cxx1112basic_stringIcSt11char_traitsIcESaIcEEE
FNDA:180,_ZN5neml213EnumSelection6selectERKNSt7__cxx1112basic_stringIcSt11char_traitsIcESaIcEEE
FNF:9
FNH:8
DA:31,1
DA:33,1
DA:34,1
DA:38,2
DA:40,2
DA:41,1
DA:44,46
DA:45,46
DA:46,91
DA:48,45
DA:49,46
DA:51,20
DA:53,20
DA:54,38
DA:56,18
DA:57,19
DA:60,7
DA:62,9
DA:63,9
DA:67,5
DA:69,5
DA:73,185
DA:75,185
DA:79,0
DA:81,0
DA:85,180
DA:87,180
DA:88,546
DA:89,177
DA:90,177
DA:91,177
LF:31
LH:29
end_of_record
TN:
SF:/home/runner/work/neml2/neml2/src/neml2/base/EnumSelectionBase.cxx
FN:32,41,_ZN5neml217EnumSelectionBaseC2ERKSt6vectorINSt7__cxx1112basic_stringIcSt11char_traitsIcESaIcEEESaIS7_EE
FN:43,58,_ZN5neml217EnumSelectionBaseC2ERKSt6vectorINSt7__cxx1112basic_stringIcSt11char_traitsIcESaIcEEESaIS7_EERKS1_IiSaIiEE
FN:61,73,_ZNK5neml217EnumSelectionBase4joinERKNSt7__cxx1112basic_stringIcSt11char_traitsIcESaIcEEE
FNDA:222,_ZN5neml217EnumSelectionBaseC2ERKSt6vectorINSt7__cxx1112basic_stringIcSt11char_traitsIcESaIcEEESaIS7_EE
FNDA:35,_ZN5neml217EnumSelectionBaseC2ERKSt6vectorINSt7__cxx1112basic_stringIcSt11char_traitsIcESaIcEEESaIS7_EERKS1_IiSaIiEE
FNDA:673,_ZNK5neml217EnumSelectionBase4joinERKNSt7__cxx1112basic_stringIcSt11char_traitsIcESaIcEEE
FNF:3
FNH:3
DA:32,222
DA:34,222
DA:35,222
DA:38,221
DA:39,2919
DA:40,2698
DA:41,223
DA:43,35
DA:44,35
DA:46,35
DA:49,34
DA:50,34
DA:53,34
DA:54,34
DA:56,156
DA:57,123
DA:58,37
DA:61,673
DA:63,673
DA:64,673
DA:65,7110
DA:67,6437
DA:68,6437
DA:69,5764
DA:70,6437
DA:72,1346
DA:73,673
LF:27
LH:27
end_of_record
TN:
SF:/home/runner/work/neml2/neml2/src/neml2/base/Factory.cxx
FN:33,37,_ZN5neml27FactoryC2ENS_9InputFileE
FN:40,43,_ZN5neml27Factory10has_objectERKNSt7__cxx1112basic_stringIcSt11char_traitsIcESaIcEEES8_
FN:46,67,_ZN5neml27Factory13create_objectERKNSt7__cxx1112basic_stringIcSt11char_traitsIcESaIcEEERKNS_9OptionSetE
FN:70,73,_ZNK5neml27Factory18options_compatibleERKSt10shared_ptrINS_11NEML2ObjectEERKNS_9OptionSetE
FN:90,93,_ZN5neml27Factory5clearEv
FNDA:341,_ZN5neml27FactoryC2ENS_9InputFileE
FNDA:213,_ZN5neml27Factory10has_objectERKNSt7__cxx1112basic_stringIcSt11char_traitsIcESaIcEEES8_
FNDA:1490,_ZN5neml27Factory13create_objectERKNSt7__cxx1112basic_stringIcSt11char_traitsIcESaIcEEERKNS_9OptionSetE
FNDA:6,_ZNK5neml27Factory18options_compatibleERKSt10shared_ptrINS_11NEML2ObjectEERKNS_9OptionSetE
FNDA:0,_ZN5neml27Factory5clearEv
FNF:5
FNH:4
DA:33,341
DA:34,341
DA:35,341
DA:37,341
DA:40,213
DA:42,213
DA:46,1490
DA:48,1490
DA:49,1490
DA:51,1490
DA:52,1490
DA:53,0
DA:54,1490
DA:55,1490
DA:56,1488
DA:60,1488
DA:62,22
DA:64,44
DA:65,66
DA:66,22
DA:67,1488
DA:70,6
DA:72,6
DA:90,0
DA:92,0
DA:93,0
LF:26
LH:22
end_of_record
TN:
SF:/home/runner/work/neml2/neml2/src/neml2/base/HITParser.cxx
FN:124,142,_ZN5neml2L15extract_optionsEPKN5nmhit4NodeERNS_9OptionSetE
FN:146,215,_ZN5neml2L14extract_optionEPKN5nmhit4NodeERNS_9OptionSetE
FN:49,63,_ZN5neml212_GLOBAL__N_114NMHITRegistrarC2Ev
FN:51,52,_ZZN5neml212_GLOBAL__N_114NMHITRegistrarC4EvENKUlRKNSt7__cxx1112basic_stringIcSt11char_traitsIcESaIcEEEE_clES9_
FN:53,54,_ZZN5neml212_GLOBAL__N_114NMHITRegistrarC4EvENKUlRKNSt7__cxx1112basic_stringIcSt11char_traitsIcESaIcEEEE0_clES9_
FN:60,60,_ZZN5neml212_GLOBAL__N_114NMHITRegistrarC4EvENKUlRKNSt7__cxx1112basic_stringIcSt11char_traitsIcESaIcEEEE10_clES9_
FN:60,60,_ZZN5neml212_GLOBAL__N_114NMHITRegistrarC4EvENKUlRKNSt7__cxx1112basic_stringIcSt11char_traitsIcESaIcEEEE11_clES9_
FN:60,60,_ZZN5neml212_GLOBAL__N_114NMHITRegistrarC4EvENKUlRKNSt7__cxx1112basic_stringIcSt11char_traitsIcESaIcEEEE12_clES9_
FN:60,60,_ZZN5neml212_GLOBAL__N_114NMHITRegistrarC4EvENKUlRKNSt7__cxx1112basic_stringIcSt11char_traitsIcESaIcEEEE13_clES9_
FN:60,60,_ZZN5neml212_GLOBAL__N_114NMHITRegistrarC4EvENKUlRKNSt7__cxx1112basic_stringIcSt11char_traitsIcESaIcEEEE14_clES9_
FN:60,60,_ZZN5neml212_GLOBAL__N_114NMHITRegistrarC4EvENKUlRKNSt7__cxx1112basic_stringIcSt11char_traitsIcESaIcEEEE15_clES9_
FN:60,60,_ZZN5neml212_GLOBAL__N_114NMHITRegistrarC4EvENKUlRKNSt7__cxx1112basic_stringIcSt11char_traitsIcESaIcEEEE16_clES9_
FN:60,60,_ZZN5neml212_GLOBAL__N_114NMHITRegistrarC4EvENKUlRKNSt7__cxx1112basic_stringIcSt11char_traitsIcESaIcEEEE17_clES9_
FN:60,60,_ZZN5neml212_GLOBAL__N_114NMHITRegistrarC4EvENKUlRKNSt7__cxx1112basic_stringIcSt11char_traitsIcESaIcEEEE18_clES9_
FN:60,60,_ZZN5neml212_GLOBAL__N_114NMHITRegistrarC4EvENKUlRKNSt7__cxx1112basic_stringIcSt11char_traitsIcESaIcEEEE1_clES9_
FN:60,60,_ZZN5neml212_GLOBAL__N_114NMHITRegistrarC4EvENKUlRKNSt7__cxx1112basic_stringIcSt11char_traitsIcESaIcEEEE2_clES9_
FN:60,60,_ZZN5neml212_GLOBAL__N_114NMHITRegistrarC4EvENKUlRKNSt7__cxx1112basic_stringIcSt11char_traitsIcESaIcEEEE3_clES9_
FN:60,60,_ZZN5neml212_GLOBAL__N_114NMHITRegistrarC4EvENKUlRKNSt7__cxx1112basic_stringIcSt11char_traitsIcESaIcEEEE4_clES9_
FN:60,60,_ZZN5neml212_GLOBAL__N_114NMHITRegistrarC4EvENKUlRKNSt7__cxx1112basic_stringIcSt11char_traitsIcESaIcEEEE5_clES9_
FN:60,60,_ZZN5neml212_GLOBAL__N_114NMHITRegistrarC4EvENKUlRKNSt7__cxx1112basic_stringIcSt11char_traitsIcESaIcEEEE6_clES9_
FN:60,60,_ZZN5neml212_GLOBAL__N_114NMHITRegistrarC4EvENKUlRKNSt7__cxx1112basic_stringIcSt11char_traitsIcESaIcEEEE7_clES9_
FN:60,60,_ZZN5neml212_GLOBAL__N_114NMHITRegistrarC4EvENKUlRKNSt7__cxx1112basic_stringIcSt11char_traitsIcESaIcEEEE8_clES9_
FN:60,60,_ZZN5neml212_GLOBAL__N_114NMHITRegistrarC4EvENKUlRKNSt7__cxx1112basic_stringIcSt11char_traitsIcESaIcEEEE9_clES9_
FN:61,61,_ZZN5neml212_GLOBAL__N_114NMHITRegistrarC4EvENKUlRKNSt7__cxx1112basic_stringIcSt11char_traitsIcESaIcEEEE19_clES9_
FN:74,79,_ZNK5neml29HITParser5parseERKNSt10filesystem7__cxx114pathERKNSt7__cxx1112basic_stringIcSt11char_traitsIcESaIcEEE
FN:82,121,_ZN5neml2L9parse_hitEPKN5nmhit4NodeE
FNDA:2418,_ZN5neml2L15extract_optionsEPKN5nmhit4NodeERNS_9OptionSetE
FNDA:5774,_ZN5neml2L14extract_optionEPKN5nmhit4NodeERNS_9OptionSetE
FNDA:1,_ZN5neml212_GLOBAL__N_114NMHITRegistrarC2Ev
FNDA:313,_ZZN5neml212_GLOBAL__N_114NMHITRegistrarC4EvENKUlRKNSt7__cxx1112basic_stringIcSt11char_traitsIcESaIcEEEE_clES9_
FNDA:90,_ZZN5neml212_GLOBAL__N_114NMHITRegistrarC4EvENKUlRKNSt7__cxx1112basic_stringIcSt11char_traitsIcESaIcEEEE0_clES9_
FNDA:0,_ZZN5neml212_GLOBAL__N_114NMHITRegistrarC4EvENKUlRKNSt7__cxx1112basic_stringIcSt11char_traitsIcESaIcEEEE10_clES9_
FNDA:11,_ZZN5neml212_GLOBAL__N_114NMHITRegistrarC4EvENKUlRKNSt7__cxx1112basic_stringIcSt11char_traitsIcESaIcEEEE11_clES9_
FNDA:0,_ZZN5neml212_GLOBAL__N_114NMHITRegistrarC4EvENKUlRKNSt7__cxx1112basic_stringIcSt11char_traitsIcESaIcEEEE12_clES9_
FNDA:0,_ZZN5neml212_GLOBAL__N_114NMHITRegistrarC4EvENKUlRKNSt7__cxx1112basic_stringIcSt11char_traitsIcESaIcEEEE13_clES9_
FNDA:0,_ZZN5neml212_GLOBAL__N_114NMHITRegistrarC4EvENKUlRKNSt7__cxx1112basic_stringIcSt11char_traitsIcESaIcEEEE14_clES9_
FNDA:0,_ZZN5neml212_GLOBAL__N_114NMHITRegistrarC4EvENKUlRKNSt7__cxx1112basic_stringIcSt11char_traitsIcESaIcEEEE15_clES9_
FNDA:54,_ZZN5neml212_GLOBAL__N_114NMHITRegistrarC4EvENKUlRKNSt7__cxx1112basic_stringIcSt11char_traitsIcESaIcEEEE16_clES9_
FNDA:6,_ZZN5neml212_GLOBAL__N_114NMHITRegistrarC4EvENKUlRKNSt7__cxx1112basic_stringIcSt11char_traitsIcESaIcEEEE17_clES9_
FNDA:1936,_ZZN5neml212_GLOBAL__N_114NMHITRegistrarC4EvENKUlRKNSt7__cxx1112basic_stringIcSt11char_traitsIcESaIcEEEE18_clES9_
FNDA:15,_ZZN5neml212_GLOBAL__N_114NMHITRegistrarC4EvENKUlRKNSt7__cxx1112basic_stringIcSt11char_traitsIcESaIcEEEE1_clES9_
FNDA:16,_ZZN5neml212_GLOBAL__N_114NMHITRegistrarC4EvENKUlRKNSt7__cxx1112basic_stringIcSt11char_traitsIcESaIcEEEE2_clES9_
FNDA:8,_ZZN5neml212_GLOBAL__N_114NMHITRegistrarC4EvENKUlRKNSt7__cxx1112basic_stringIcSt11char_traitsIcESaIcEEEE3_clES9_
FNDA:34,_ZZN5neml212_GLOBAL__N_114NMHITRegistrarC4EvENKUlRKNSt7__cxx1112basic_stringIcSt11char_traitsIcESaIcEEEE4_clES9_
FNDA:165,_ZZN5neml212_GLOBAL__N_114NMHITRegistrarC4EvENKUlRKNSt7__cxx1112basic_stringIcSt11char_traitsIcESaIcEEEE5_clES9_
FNDA:0,_ZZN5neml212_GLOBAL__N_114NMHITRegistrarC4EvENKUlRKNSt7__cxx1112basic_stringIcSt11char_traitsIcESaIcEEEE6_clES9_
FNDA:0,_ZZN5neml212_GLOBAL__N_114NMHITRegistrarC4EvENKUlRKNSt7__cxx1112basic_stringIcSt11char_traitsIcESaIcEEEE7_clES9_
FNDA:0,_ZZN5neml212_GLOBAL__N_114NMHITRegistrarC4EvENKUlRKNSt7__cxx1112basic_stringIcSt11char_traitsIcESaIcEEEE8_clES9_
FNDA:0,_ZZN5neml212_GLOBAL__N_114NMHITRegistrarC4EvENKUlRKNSt7__cxx1112basic_stringIcSt11char_traitsIcESaIcEEEE9_clES9_
FNDA:0,_ZZN5neml212_GLOBAL__N_114NMHITRegistrarC4EvENKUlRKNSt7__cxx1112basic_stringIcSt11char_traitsIcESaIcEEEE19_clES9_
FNDA:351,_ZNK5neml29HITParser5parseERKNSt10filesystem7__cxx114pathERKNSt7__cxx1112basic_stringIcSt11char_traitsIcESaIcEEE
FNDA:351,_ZN5neml2L9parse_hitEPKN5nmhit4NodeE
FNF:26
FNH:16
DA:49,1
DA:51,1
DA:52,313
DA:53,1
DA:54,90
DA:60,2246
DA:61,1
DA:63,1
DA:74,351
DA:77,1053
DA:78,701
DA:79,702
DA:82,351
DA:85,351
DA:86,1053
DA:87,13
DA:90,351
DA:91,2805
DA:93,2455
DA:94,2455
DA:96,778
DA:97,3182
DA:99,4810
DA:100,2405
DA:101,2405
DA:104,0
DA:105,0
DA:109,2405
DA:110,2405
DA:111,2405
DA:112,2405
DA:114,2405
DA:115,2404
DA:116,2406
DA:117,778
DA:120,700
DA:121,352
DA:124,2418
DA:126,10596
DA:127,8179
DA:128,8191
DA:131,2417
DA:132,54521
DA:133,52104
DA:134,0
DA:136,0
DA:137,0
DA:138,0
DA:139,0
DA:140,2417
DA:141,0
DA:142,2417
DA:146,5774
DA:160,5774
DA:161,0
DA:163,5774
DA:164,165620
DA:165,165620
DA:167,5774
DA:168,2
DA:170,3
DA:172,5773
DA:173,5773
DA:177,6245
DA:178,6255
DA:179,5406
DA:180,5626
DA:181,4783
DA:182,5043
DA:183,5709
DA:184,9627
DA:185,1434
DA:186,3734
DA:187,149
DA:188,149
DA:190,115
DA:191,115
DA:192,0
DA:193,0
DA:194,345
DA:196,34
DA:198,34
DA:199,34
DA:201,0
DA:202,102
DA:208,5773
DA:209,5773
DA:211,5773
DA:213,5773
DA:214,0
LF:90
LH:77
end_of_record
TN:
SF:/home/runner/work/neml2/neml2/src/neml2/base/InputFile.cxx
FN:32,36,_ZN5neml29InputFileC2ERKNS_9OptionSetE
FN:39,42,_ZN5neml29InputFileixERKNSt7__cxx1112basic_stringIcSt11char_traitsIcESaIcEEE
FN:45,48,_ZNK5neml29InputFileixERKNSt7__cxx1112basic_stringIcSt11char_traitsIcESaIcEEE
FNDA:352,_ZN5neml29InputFileC2ERKNS_9OptionSetE
FNDA:4118,_ZN5neml29InputFileixERKNSt7__cxx1112basic_stringIcSt11char_traitsIcESaIcEEE
FNDA:0,_ZNK5neml29InputFileixERKNSt7__cxx1112basic_stringIcSt11char_traitsIcESaIcEEE
FNF:3
FNH:2
DA:32,352
DA:33,352
DA:34,352
DA:36,352
DA:39,4118
DA:41,4118
DA:45,0
DA:47,0
LF:8
LH:6
end_of_record
TN:
SF:/home/runner/work/neml2/neml2/src/neml2/base/MultiEnumSelection.cxx
FN:101,104,_ZNK5neml218MultiEnumSelection4sizeEv
FN:34,46,_ZN5neml2lsERSoRKNS_18MultiEnumSelectionE
FN:49,55,_ZN5neml2rsERNSt7__cxx1118basic_stringstreamIcSt11char_traitsIcESaIcEEERNS_18MultiEnumSelectionE
FN:57,62,_ZN5neml218MultiEnumSelectionC2ERKSt6vectorINSt7__cxx1112basic_stringIcSt11char_traitsIcESaIcEEESaIS7_EESB_
FN:64,70,_ZN5neml218MultiEnumSelectionC2ERKSt6vectorINSt7__cxx1112basic_stringIcSt11char_traitsIcESaIcEEESaIS7_EERKS1_IiSaIiEESB_
FN:73,77,_ZNK5neml218MultiEnumSelectioneqERKS0_
FN:80,83,_ZNK5neml218MultiEnumSelectionneERKS0_
FN:86,98,_ZN5neml218MultiEnumSelection6selectERKSt6vectorINSt7__cxx1112basic_stringIcSt11char_traitsIcESaIcEEESaIS7_EE
FNDA:9,_ZNK5neml218MultiEnumSelection4sizeEv
FNDA:1,_ZN5neml2lsERSoRKNS_18MultiEnumSelectionE
FNDA:2,_ZN5neml2rsERNSt7__cxx1118basic_stringstreamIcSt11char_traitsIcESaIcEEERNS_18MultiEnumSelectionE
FNDA:176,_ZN5neml218MultiEnumSelectionC2ERKSt6vectorINSt7__cxx1112basic_stringIcSt11char_traitsIcESaIcEEESaIS7_EESB_
FNDA:15,_ZN5neml218MultiEnumSelectionC2ERKSt6vectorINSt7__cxx1112basic_stringIcSt11char_traitsIcESaIcEEESaIS7_EERKS1_IiSaIiEESB_
FNDA:4,_ZNK5neml218MultiEnumSelectioneqERKS0_
FNDA:3,_ZNK5neml218MultiEnumSelectionneERKS0_
FNDA:227,_ZN5neml218MultiEnumSelection6selectERKSt6vectorINSt7__cxx1112basic_stringIcSt11char_traitsIcESaIcEEESaIS7_EE
FNF:8
FNH:8
DA:34,1
DA:36,1
DA:37,1
DA:38,3
DA:40,2
DA:41,2
DA:42,1
DA:44,1
DA:45,1
DA:49,2
DA:51,2
DA:52,6
DA:53,2
DA:54,1
DA:55,2
DA:57,176
DA:58,176
DA:59,176
DA:61,176
DA:62,178
DA:64,15
DA:66,15
DA:67,15
DA:69,15
DA:70,17
DA:73,4
DA:75,5
DA:76,5
DA:80,3
DA:82,3
DA:86,227
DA:88,227
DA:89,227
DA:90,492
DA:92,268
DA:94,810
DA:95,265
DA:96,265
DA:98,224
DA:101,9
DA:103,9
LF:41
LH:41
end_of_record
TN:
SF:/home/runner/work/neml2/neml2/src/neml2/base/NEML2Object.cxx
FN:33,42,_ZN5neml211NEML2Object16expected_optionsEv
FN:44,50,_ZN5neml211NEML2ObjectC2ERKNS_9OptionSetE
FN:53,58,_ZNK5neml211NEML2Object12history_nameERKNSt7__cxx1112basic_stringIcSt11char_traitsIcESaIcEEEm
FN:61,64,_ZNK5neml211NEML2Object9rate_nameERKNSt7__cxx1112basic_stringIcSt11char_traitsIcESaIcEEE
FN:67,70,_ZNK5neml211NEML2Object13residual_nameERKNSt7__cxx1112basic_stringIcSt11char_traitsIcESaIcEEE
FN:74,80,_ZN5neml211NEML2Object14resolve_tensorINS_10QuaternionEEERKT_RKNSt7__cxx1112basic_stringIcSt11char_traitsIcESaIcEEE
FN:74,80,_ZN5neml211NEML2Object14resolve_tensorINS_11MillerIndexEEERKT_RKNSt7__cxx1112basic_stringIcSt11char_traitsIcESaIcEEE
FN:74,80,_ZN5neml211NEML2Object14resolve_tensorINS_2R2EEERKT_RKNSt7__cxx1112basic_stringIcSt11char_traitsIcESaIcEEE
FN:74,80,_ZN5neml211NEML2Object14resolve_tensorINS_2R3EEERKT_RKNSt7__cxx1112basic_stringIcSt11char_traitsIcESaIcEEE
FN:74,80,_ZN5neml211NEML2Object14resolve_tensorINS_2R4EEERKT_RKNSt7__cxx1112basic_stringIcSt11char_traitsIcESaIcEEE
FN:74,80,_ZN5neml211NEML2Object14resolve_tensorINS_3RotEEERKT_RKNSt7__cxx1112basic_stringIcSt11char_traitsIcESaIcEEE
FN:74,80,_ZN5neml211NEML2Object14resolve_tensorINS_3SR2EEERKT_RKNSt7__cxx1112basic_stringIcSt11char_traitsIcESaIcEEE
FN:74,80,_ZN5neml211NEML2Object14resolve_tensorINS_3VecEEERKT_RKNSt7__cxx1112basic_stringIcSt11char_traitsIcESaIcEEE
FN:74,80,_ZN5neml211NEML2Object14resolve_tensorINS_3WR2EEERKT_RKNSt7__cxx1112basic_stringIcSt11char_traitsIcESaIcEEE
FN:74,80,_ZN5neml211NEML2Object14resolve_tensorINS_4SFR3EEERKT_RKNSt7__cxx1112basic_stringIcSt11char_traitsIcESaIcEEE
FN:74,80,_ZN5neml211NEML2Object14resolve_tensorINS_4SSR4EEERKT_RKNSt7__cxx1112basic_stringIcSt11char_traitsIcESaIcEEE
FN:74,80,_ZN5neml211NEML2Object14resolve_tensorINS_4SWR4EEERKT_RKNSt7__cxx1112basic_stringIcSt11char_traitsIcESaIcEEE
FN:74,80,_ZN5neml211NEML2Object14resolve_tensorINS_4WSR4EEERKT_RKNSt7__cxx1112basic_stringIcSt11char_traitsIcESaIcEEE
FN:74,80,_ZN5neml211NEML2Object14resolve_tensorINS_4WWR4EEERKT_RKNSt7__cxx1112basic_stringIcSt11char_traitsIcESaIcEEE
FN:74,80,_ZN5neml211NEML2Object14resolve_tensorINS_5SFFR4EEERKT_RKNSt7__cxx1112basic_stringIcSt11char_traitsIcESaIcEEE
FN:74,80,_ZN5neml211NEML2Object14resolve_tensorINS_5WFFR4EEERKT_RKNSt7__cxx1112basic_stringIcSt11char_traitsIcESaIcEEE
FN:74,80,_ZN5neml211NEML2Object14resolve_tensorINS_6ScalarEEERKT_RKNSt7__cxx1112basic_stringIcSt11char_traitsIcESaIcEEE
FN:74,80,_ZN5neml211NEML2Object14resolve_tensorINS_6TensorEEERKT_RKNSt7__cxx1112basic_stringIcSt11char_traitsIcESaIcEEE
FNDA:528,_ZN5neml211NEML2Object16expected_optionsEv
FNDA:1490,_ZN5neml211NEML2ObjectC2ERKNS_9OptionSetE
FNDA:101,_ZNK5neml211NEML2Object12history_nameERKNSt7__cxx1112basic_stringIcSt11char_traitsIcESaIcEEEm
FNDA:118,_ZNK5neml211NEML2Object9rate_nameERKNSt7__cxx1112basic_stringIcSt11char_traitsIcESaIcEEE
FNDA:78,_ZNK5neml211NEML2Object13residual_nameERKNSt7__cxx1112basic_stringIcSt11char_traitsIcESaIcEEE
FNDA:0,_ZN5neml211NEML2Object14resolve_tensorINS_10QuaternionEEERKT_RKNSt7__cxx1112basic_stringIcSt11char_traitsIcESaIcEEE
FNDA:0,_ZN5neml211NEML2Object14resolve_tensorINS_11MillerIndexEEERKT_RKNSt7__cxx1112basic_stringIcSt11char_traitsIcESaIcEEE
FNDA:0,_ZN5neml211NEML2Object14resolve_tensorINS_2R2EEERKT_RKNSt7__cxx1112basic_stringIcSt11char_traitsIcESaIcEEE
FNDA:0,_ZN5neml211NEML2Object14resolve_tensorINS_2R3EEERKT_RKNSt7__cxx1112basic_stringIcSt11char_traitsIcESaIcEEE
FNDA:0,_ZN5neml211NEML2Object14resolve_tensorINS_2R4EEERKT_RKNSt7__cxx1112basic_stringIcSt11char_traitsIcESaIcEEE
FNDA:0,_ZN5neml211NEML2Object14resolve_tensorINS_3RotEEERKT_RKNSt7__cxx1112basic_stringIcSt11char_traitsIcESaIcEEE
FNDA:0,_ZN5neml211NEML2Object14resolve_tensorINS_3SR2EEERKT_RKNSt7__cxx1112basic_stringIcSt11char_traitsIcESaIcEEE
FNDA:0,_ZN5neml211NEML2Object14resolve_tensorINS_3VecEEERKT_RKNSt7__cxx1112basic_stringIcSt11char_traitsIcESaIcEEE
FNDA:0,_ZN5neml211NEML2Object14resolve_tensorINS_3WR2EEERKT_RKNSt7__cxx1112basic_stringIcSt11char_traitsIcESaIcEEE
FNDA:0,_ZN5neml211NEML2Object14resolve_tensorINS_4SFR3EEERKT_RKNSt7__cxx1112basic_stringIcSt11char_traitsIcESaIcEEE
FNDA:0,_ZN5neml211NEML2Object14resolve_tensorINS_4SSR4EEERKT_RKNSt7__cxx1112basic_stringIcSt11char_traitsIcESaIcEEE
FNDA:0,_ZN5neml211NEML2Object14resolve_tensorINS_4SWR4EEERKT_RKNSt7__cxx1112basic_stringIcSt11char_traitsIcESaIcEEE
FNDA:0,_ZN5neml211NEML2Object14resolve_tensorINS_4WSR4EEERKT_RKNSt7__cxx1112basic_stringIcSt11char_traitsIcESaIcEEE
FNDA:0,_ZN5neml211NEML2Object14resolve_tensorINS_4WWR4EEERKT_RKNSt7__cxx1112basic_stringIcSt11char_traitsIcESaIcEEE
FNDA:0,_ZN5neml211NEML2Object14resolve_tensorINS_5SFFR4EEERKT_RKNSt7__cxx1112basic_stringIcSt11char_traitsIcESaIcEEE
FNDA:0,_ZN5neml211NEML2Object14resolve_tensorINS_5WFFR4EEERKT_RKNSt7__cxx1112basic_stringIcSt11char_traitsIcESaIcEEE
FNDA:3,_ZN5neml211NEML2Object14resolve_tensorINS_6ScalarEEERKT_RKNSt7__cxx1112basic_stringIcSt11char_traitsIcESaIcEEE
FNDA:0,_ZN5neml211NEML2Object14resolve_tensorINS_6TensorEEERKT_RKNSt7__cxx1112basic_stringIcSt11char_traitsIcESaIcEEE
FNF:23
FNH:6
DA:33,528
DA:35,528
DA:37,1056
DA:38,1584
DA:39,1056
DA:41,528
DA:42,0
DA:44,1490
DA:45,1490
DA:46,2980
DA:47,2980
DA:48,2980
DA:50,1490
DA:53,101
DA:55,101
DA:56,0
DA:57,101
DA:61,118
DA:63,118
DA:67,78
DA:69,78
DA:74,3
DA:76,3
DA:77,0
DA:78,0
DA:79,3
LF:26
LH:22
end_of_record
TN:
SF:/home/runner/work/neml2/neml2/src/neml2/base/Option.cxx
FN:148,151,_ZN5neml27details13_print_helperIcEEvRSoPKT_
FN:155,158,_ZN5neml27details13_print_helperIhEEvRSoPKT_
FN:162,166,_ZN5neml27details13_print_helperIbEEvRSoPKSt6vectorIT_SaIS4_EE
FN:39,44,_ZN5neml26OptionIN3c1011SmallVectorIlLj8EEEEC2ERKNSt7__cxx1112basic_stringIcSt11char_traitsIcESaIcEEE
FN:39,44,_ZN5neml26OptionINS_10TensorNameIN2at6TensorEEEEC2ERKNSt7__cxx1112basic_stringIcSt11char_traitsIcESaIcEEE
FN:39,44,_ZN5neml26OptionINS_10TensorNameINS_10QuaternionEEEEC2ERKNSt7__cxx1112basic_stringIcSt11char_traitsIcESaIcEEE
FN:39,44,_ZN5neml26OptionINS_10TensorNameINS_11MillerIndexEEEEC2ERKNSt7__cxx1112basic_stringIcSt11char_traitsIcESaIcEEE
FN:39,44,_ZN5neml26OptionINS_10TensorNameINS_2R2EEEEC2ERKNSt7__cxx1112basic_stringIcSt11char_traitsIcESaIcEEE
FN:39,44,_ZN5neml26OptionINS_10TensorNameINS_2R3EEEEC2ERKNSt7__cxx1112basic_stringIcSt11char_traitsIcESaIcEEE
FN:39,44,_ZN5neml26OptionINS_10TensorNameINS_2R4EEEEC2ERKNSt7__cxx1112basic_stringIcSt11char_traitsIcESaIcEEE
FN:39,44,_ZN5neml26OptionINS_10TensorNameINS_3RotEEEEC2ERKNSt7__cxx1112basic_stringIcSt11char_traitsIcESaIcEEE
FN:39,44,_ZN5neml26OptionINS_10TensorNameINS_3SR2EEEEC2ERKNSt7__cxx1112basic_stringIcSt11char_traitsIcESaIcEEE
FN:39,44,_ZN5neml26OptionINS_10TensorNameINS_3VecEEEEC2ERKNSt7__cxx1112basic_stringIcSt11char_traitsIcESaIcEEE
FN:39,44,_ZN5neml26OptionINS_10TensorNameINS_3WR2EEEEC2ERKNSt7__cxx1112basic_stringIcSt11char_traitsIcESaIcEEE
FN:39,44,_ZN5neml26OptionINS_10TensorNameINS_4SFR3EEEEC2ERKNSt7__cxx1112basic_stringIcSt11char_traitsIcESaIcEEE
FN:39,44,_ZN5neml26OptionINS_10TensorNameINS_4SSR4EEEEC2ERKNSt7__cxx1112basic_stringIcSt11char_traitsIcESaIcEEE
FN:39,44,_ZN5neml26OptionINS_10TensorNameINS_4SWR4EEEEC2ERKNSt7__cxx1112basic_stringIcSt11char_traitsIcESaIcEEE
FN:39,44,_ZN5neml26OptionINS_10TensorNameINS_4WSR4EEEEC2ERKNSt7__cxx1112basic_stringIcSt11char_traitsIcESaIcEEE
FN:39,44,_ZN5neml26OptionINS_10TensorNameINS_4WWR4EEEEC2ERKNSt7__cxx1112basic_stringIcSt11char_traitsIcESaIcEEE
FN:39,44,_ZN5neml26OptionINS_10TensorNameINS_5SFFR4EEEEC2ERKNSt7__cxx1112basic_stringIcSt11char_traitsIcESaIcEEE
FN:39,44,_ZN5neml26OptionINS_10TensorNameINS_5WFFR4EEEEC2ERKNSt7__cxx1112basic_stringIcSt11char_traitsIcESaIcEEE
FN:39,44,_ZN5neml26OptionINS_10TensorNameINS_6ScalarEEEEC2ERKNSt7__cxx1112basic_stringIcSt11char_traitsIcESaIcEEE
FN:39,44,_ZN5neml26OptionINS_10TensorNameINS_6TensorEEEEC2ERKNSt7__cxx1112basic_stringIcSt11char_traitsIcESaIcEEE
FN:39,44,_ZN5neml26OptionINS_13EnumSelectionEEC2ERKNSt7__cxx1112basic_stringIcSt11char_traitsIcESaIcEEE
FN:39,44,_ZN5neml26OptionINS_18MultiEnumSelectionEEC2ERKNSt7__cxx1112basic_stringIcSt11char_traitsIcESaIcEEE
FN:39,44,_ZN5neml26OptionINSt7__cxx1112basic_stringIcSt11char_traitsIcESaIcEEEEC2ERKS6_
FN:39,44,_ZN5neml26OptionIPNS_11NEML2ObjectEEC2ERKNSt7__cxx1112basic_stringIcSt11char_traitsIcESaIcEEE
FN:39,44,_ZN5neml26OptionIPNS_7FactoryEEC2ERKNSt7__cxx1112basic_stringIcSt11char_traitsIcESaIcEEE
FN:39,44,_ZN5neml26OptionISt10shared_ptrINS_8SettingsEEEC2ERKNSt7__cxx1112basic_stringIcSt11char_traitsIcESaIcEEE
FN:39,44,_ZN5neml26OptionISt6vectorIN3c1011SmallVectorIlLj8EEESaIS4_EEEC2ERKNSt7__cxx1112basic_stringIcSt11char_traitsIcESaIcEEE
FN:39,44,_ZN5neml26OptionISt6vectorIN3c106DeviceESaIS3_EEEC2ERKNSt7__cxx1112basic_stringIcSt11char_traitsIcESaIcEEE
FN:39,44,_ZN5neml26OptionISt6vectorINS_10TensorNameIN2at6TensorEEESaIS5_EEEC2ERKNSt7__cxx1112basic_stringIcSt11char_traitsIcESaIcEEE
FN:39,44,_ZN5neml26OptionISt6vectorINS_10TensorNameINS_10QuaternionEEESaIS4_EEEC2ERKNSt7__cxx1112basic_stringIcSt11char_traitsIcESaIcEEE
FN:39,44,_ZN5neml26OptionISt6vectorINS_10TensorNameINS_11MillerIndexEEESaIS4_EEEC2ERKNSt7__cxx1112basic_stringIcSt11char_traitsIcESaIcEEE
FN:39,44,_ZN5neml26OptionISt6vectorINS_10TensorNameINS_2R2EEESaIS4_EEEC2ERKNSt7__cxx1112basic_stringIcSt11char_traitsIcESaIcEEE
FN:39,44,_ZN5neml26OptionISt6vectorINS_10TensorNameINS_2R3EEESaIS4_EEEC2ERKNSt7__cxx1112basic_stringIcSt11char_traitsIcESaIcEEE
FN:39,44,_ZN5neml26OptionISt6vectorINS_10TensorNameINS_2R4EEESaIS4_EEEC2ERKNSt7__cxx1112basic_stringIcSt11char_traitsIcESaIcEEE
FN:39,44,_ZN5neml26OptionISt6vectorINS_10TensorNameINS_3RotEEESaIS4_EEEC2ERKNSt7__cxx1112basic_stringIcSt11char_traitsIcESaIcEEE
FN:39,44,_ZN5neml26OptionISt6vectorINS_10TensorNameINS_3SR2EEESaIS4_EEEC2ERKNSt7__cxx1112basic_stringIcSt11char_traitsIcESaIcEEE
FN:39,44,_ZN5neml26OptionISt6vectorINS_10TensorNameINS_3VecEEESaIS4_EEEC2ERKNSt7__cxx1112basic_stringIcSt11char_traitsIcESaIcEEE
FN:39,44,_ZN5neml26OptionISt6vectorINS_10TensorNameINS_3WR2EEESaIS4_EEEC2ERKNSt7__cxx1112basic_stringIcSt11char_traitsIcESaIcEEE
FN:39,44,_ZN5neml26OptionISt6vectorINS_10TensorNameINS_4SFR3EEESaIS4_EEEC2ERKNSt7__cxx1112basic_stringIcSt11char_traitsIcESaIcEEE
FN:39,44,_ZN5neml26OptionISt6vectorINS_10TensorNameINS_4SSR4EEESaIS4_EEEC2ERKNSt7__cxx1112basic_stringIcSt11char_traitsIcESaIcEEE
FN:39,44,_ZN5neml26OptionISt6vectorINS_10TensorNameINS_4SWR4EEESaIS4_EEEC2ERKNSt7__cxx1112basic_stringIcSt11char_traitsIcESaIcEEE
FN:39,44,_ZN5neml26OptionISt6vectorINS_10TensorNameINS_4WSR4EEESaIS4_EEEC2ERKNSt7__cxx1112basic_stringIcSt11char_traitsIcESaIcEEE
FN:39,44,_ZN5neml26OptionISt6vectorINS_10TensorNameINS_4WWR4EEESaIS4_EEEC2ERKNSt7__cxx1112basic_stringIcSt11char_traitsIcESaIcEEE
FN:39,44,_ZN5neml26OptionISt6vectorINS_10TensorNameINS_5SFFR4EEESaIS4_EEEC2ERKNSt7__cxx1112basic_stringIcSt11char_traitsIcESaIcEEE
FN:39,44,_ZN5neml26OptionISt6vectorINS_10TensorNameINS_5WFFR4EEESaIS4_EEEC2ERKNSt7__cxx1112basic_stringIcSt11char_traitsIcESaIcEEE
FN:39,44,_ZN5neml26OptionISt6vectorINS_10TensorNameINS_6ScalarEEESaIS4_EEEC2ERKNSt7__cxx1112basic_stringIcSt11char_traitsIcESaIcEEE
FN:39,44,_ZN5neml26OptionISt6vectorINS_10TensorNameINS_6TensorEEESaIS4_EEEC2ERKNSt7__cxx1112basic_stringIcSt11char_traitsIcESaIcEEE
FN:39,44,_ZN5neml26OptionISt6vectorINSt7__cxx1112basic_stringIcSt11char_traitsIcESaIcEEESaIS7_EEEC2ERKS7_
FN:39,44,_ZN5neml26OptionISt6vectorIS1_IN3c1011SmallVectorIlLj8EEESaIS4_EESaIS6_EEEC2ERKNSt7__cxx1112basic_stringIcSt11char_traitsIcESaIcEEE
FN:39,44,_ZN5neml26OptionISt6vectorIS1_IN3c106DeviceESaIS3_EESaIS5_EEEC2ERKNSt7__cxx1112basic_stringIcSt11char_traitsIcESaIcEEE
FN:39,44,_ZN5neml26OptionISt6vectorIS1_INS_10TensorNameIN2at6TensorEEESaIS5_EESaIS7_EEEC2ERKNSt7__cxx1112basic_stringIcSt11char_traitsIcESaIcEEE
FN:39,44,_ZN5neml26OptionISt6vectorIS1_INS_10TensorNameINS_10QuaternionEEESaIS4_EESaIS6_EEEC2ERKNSt7__cxx1112basic_stringIcSt11char_traitsIcESaIcEEE
FN:39,44,_ZN5neml26OptionISt6vectorIS1_INS_10TensorNameINS_11MillerIndexEEESaIS4_EESaIS6_EEEC2ERKNSt7__cxx1112basic_stringIcSt11char_traitsIcESaIcEEE
FN:39,44,_ZN5neml26OptionISt6vectorIS1_INS_10TensorNameINS_2R2EEESaIS4_EESaIS6_EEEC2ERKNSt7__cxx1112basic_stringIcSt11char_traitsIcESaIcEEE
FN:39,44,_ZN5neml26OptionISt6vectorIS1_INS_10TensorNameINS_2R3EEESaIS4_EESaIS6_EEEC2ERKNSt7__cxx1112basic_stringIcSt11char_traitsIcESaIcEEE
FN:39,44,_ZN5neml26OptionISt6vectorIS1_INS_10TensorNameINS_2R4EEESaIS4_EESaIS6_EEEC2ERKNSt7__cxx1112basic_stringIcSt11char_traitsIcESaIcEEE
FN:39,44,_ZN5neml26OptionISt6vectorIS1_INS_10TensorNameINS_3RotEEESaIS4_EESaIS6_EEEC2ERKNSt7__cxx1112basic_stringIcSt11char_traitsIcESaIcEEE
FN:39,44,_ZN5neml26OptionISt6vectorIS1_INS_10TensorNameINS_3SR2EEESaIS4_EESaIS6_EEEC2ERKNSt7__cxx1112basic_stringIcSt11char_traitsIcESaIcEEE
FN:39,44,_ZN5neml26OptionISt6vectorIS1_INS_10TensorNameINS_3VecEEESaIS4_EESaIS6_EEEC2ERKNSt7__cxx1112basic_stringIcSt11char_traitsIcESaIcEEE
FN:39,44,_ZN5neml26OptionISt6vectorIS1_INS_10TensorNameINS_3WR2EEESaIS4_EESaIS6_EEEC2ERKNSt7__cxx1112basic_stringIcSt11char_traitsIcESaIcEEE
FN:39,44,_ZN5neml26OptionISt6vectorIS1_INS_10TensorNameINS_4SFR3EEESaIS4_EESaIS6_EEEC2ERKNSt7__cxx1112basic_stringIcSt11char_traitsIcESaIcEEE
FN:39,44,_ZN5neml26OptionISt6vectorIS1_INS_10TensorNameINS_4SSR4EEESaIS4_EESaIS6_EEEC2ERKNSt7__cxx1112basic_stringIcSt11char_traitsIcESaIcEEE
FN:39,44,_ZN5neml26OptionISt6vectorIS1_INS_10TensorNameINS_4SWR4EEESaIS4_EESaIS6_EEEC2ERKNSt7__cxx1112basic_stringIcSt11char_traitsIcESaIcEEE
FN:39,44,_ZN5neml26OptionISt6vectorIS1_INS_10TensorNameINS_4WSR4EEESaIS4_EESaIS6_EEEC2ERKNSt7__cxx1112basic_stringIcSt11char_traitsIcESaIcEEE
FN:39,44,_ZN5neml26OptionISt6vectorIS1_INS_10TensorNameINS_4WWR4EEESaIS4_EESaIS6_EEEC2ERKNSt7__cxx1112basic_stringIcSt11char_traitsIcESaIcEEE
FN:39,44,_ZN5neml26OptionISt6vectorIS1_INS_10TensorNameINS_5SFFR4EEESaIS4_EESaIS6_EEEC2ERKNSt7__cxx1112basic_stringIcSt11char_traitsIcESaIcEEE
FN:39,44,_ZN5neml26OptionISt6vectorIS1_INS_10TensorNameINS_5WFFR4EEESaIS4_EESaIS6_EEEC2ERKNSt7__cxx1112basic_stringIcSt11char_traitsIcESaIcEEE
FN:39,44,_ZN5neml26OptionISt6vectorIS1_INS_10TensorNameINS_6ScalarEEESaIS4_EESaIS6_EEEC2ERKNSt7__cxx1112basic_stringIcSt11char_traitsIcESaIcEEE
FN:39,44,_ZN5neml26OptionISt6vectorIS1_INS_10TensorNameINS_6TensorEEESaIS4_EESaIS6_EEEC2ERKNSt7__cxx1112basic_stringIcSt11char_traitsIcESaIcEEE
FN:39,44,_ZN5neml26OptionISt6vectorIS1_INSt7__cxx1112basic_stringIcSt11char_traitsIcESaIcEEESaIS7_EESaIS9_EEEC2ERKS7_
FN:39,44,_ZN5neml26OptionISt6vectorIS1_IbSaIbEESaIS3_EEEC2ERKNSt7__cxx1112basic_stringIcSt11char_traitsIcESaIcEEE
FN:39,44,_ZN5neml26OptionISt6vectorIS1_IdSaIdEESaIS3_EEEC2ERKNSt7__cxx1112basic_stringIcSt11char_traitsIcESaIcEEE
FN:39,44,_ZN5neml26OptionISt6vectorIS1_IiSaIiEESaIS3_EEEC2ERKNSt7__cxx1112basic_stringIcSt11char_traitsIcESaIcEEE
FN:39,44,_ZN5neml26OptionISt6vectorIS1_IjSaIjEESaIS3_EEEC2ERKNSt7__cxx1112basic_stringIcSt11char_traitsIcESaIcEEE
FN:39,44,_ZN5neml26OptionISt6vectorIS1_IlSaIlEESaIS3_EEEC2ERKNSt7__cxx1112basic_stringIcSt11char_traitsIcESaIcEEE
FN:39,44,_ZN5neml26OptionISt6vectorIS1_ImSaImEESaIS3_EEEC2ERKNSt7__cxx1112basic_stringIcSt11char_traitsIcESaIcEEE
FN:39,44,_ZN5neml26OptionISt6vectorIbSaIbEEEC2ERKNSt7__cxx1112basic_stringIcSt11char_traitsIcESaIcEEE
FN:39,44,_ZN5neml26OptionISt6vectorIdSaIdEEEC2ERKNSt7__cxx1112basic_stringIcSt11char_traitsIcESaIcEEE
FN:39,44,_ZN5neml26OptionISt6vectorIiSaIiEEEC2ERKNSt7__cxx1112basic_stringIcSt11char_traitsIcESaIcEEE
FN:39,44,_ZN5neml26OptionISt6vectorIjSaIjEEEC2ERKNSt7__cxx1112basic_stringIcSt11char_traitsIcESaIcEEE
FN:39,44,_ZN5neml26OptionISt6vectorIlSaIlEEEC2ERKNSt7__cxx1112basic_stringIcSt11char_traitsIcESaIcEEE
FN:39,44,_ZN5neml26OptionISt6vectorImSaImEEEC2ERKNSt7__cxx1112basic_stringIcSt11char_traitsIcESaIcEEE
FN:39,44,_ZN5neml26OptionIbEC2ERKNSt7__cxx1112basic_stringIcSt11char_traitsIcESaIcEEE
FN:39,44,_ZN5neml26OptionIdEC2ERKNSt7__cxx1112basic_stringIcSt11char_traitsIcESaIcEEE
FN:39,44,_ZN5neml26OptionIiEC2ERKNSt7__cxx1112basic_stringIcSt11char_traitsIcESaIcEEE
FN:39,44,_ZN5neml26OptionIjEC2ERKNSt7__cxx1112basic_stringIcSt11char_traitsIcESaIcEEE
FN:39,44,_ZN5neml26OptionIlEC2ERKNSt7__cxx1112basic_stringIcSt11char_traitsIcESaIcEEE
FN:39,44,_ZN5neml26OptionImEC2ERKNSt7__cxx1112basic_stringIcSt11char_traitsIcESaIcEEE
FN:47,52,_ZN5neml26OptionIN3c106DeviceEEC2ERKNSt7__cxx1112basic_stringIcSt11char_traitsIcESaIcEEE
FN:56,63,_ZNK5neml26OptionIN3c1011SmallVectorIlLj8EEEEeqERKNS_10OptionBaseE
FN:56,63,_ZNK5neml26OptionIN3c106DeviceEEeqERKNS_10OptionBaseE
FN:56,63,_ZNK5neml26OptionINS_10TensorNameIN2at6TensorEEEEeqERKNS_10OptionBaseE
FN:56,63,_ZNK5neml26OptionINS_10TensorNameINS_10QuaternionEEEEeqERKNS_10OptionBaseE
FN:56,63,_ZNK5neml26OptionINS_10TensorNameINS_11MillerIndexEEEEeqERKNS_10OptionBaseE
FN:56,63,_ZNK5neml26OptionINS_10TensorNameINS_2R2EEEEeqERKNS_10OptionBaseE
FN:56,63,_ZNK5neml26OptionINS_10TensorNameINS_2R3EEEEeqERKNS_10OptionBaseE
FN:56,63,_ZNK5neml26OptionINS_10TensorNameINS_2R4EEEEeqERKNS_10OptionBaseE
FN:56,63,_ZNK5neml26OptionINS_10TensorNameINS_3RotEEEEeqERKNS_10OptionBaseE
FN:56,63,_ZNK5neml26OptionINS_10TensorNameINS_3SR2EEEEeqERKNS_10OptionBaseE
FN:56,63,_ZNK5neml26OptionINS_10TensorNameINS_3VecEEEEeqERKNS_10OptionBaseE
FN:56,63,_ZNK5neml26OptionINS_10TensorNameINS_3WR2EEEEeqERKNS_10OptionBaseE
FN:56,63,_ZNK5neml26OptionINS_10TensorNameINS_4SFR3EEEEeqERKNS_10OptionBaseE
FN:56,63,_ZNK5neml26OptionINS_10TensorNameINS_4SSR4EEEEeqERKNS_10OptionBaseE
FN:56,63,_ZNK5neml26OptionINS_10TensorNameINS_4SWR4EEEEeqERKNS_10OptionBaseE
FN:56,63,_ZNK5neml26OptionINS_10TensorNameINS_4WSR4EEEEeqERKNS_10OptionBaseE
FN:56,63,_ZNK5neml26OptionINS_10TensorNameINS_4WWR4EEEEeqERKNS_10OptionBaseE
FN:56,63,_ZNK5neml26OptionINS_10TensorNameINS_5SFFR4EEEEeqERKNS_10OptionBaseE
FN:56,63,_ZNK5neml26OptionINS_10TensorNameINS_5WFFR4EEEEeqERKNS_10OptionBaseE
FN:56,63,_ZNK5neml26OptionINS_10TensorNameINS_6ScalarEEEEeqERKNS_10OptionBaseE
FN:56,63,_ZNK5neml26OptionINS_10TensorNameINS_6TensorEEEEeqERKNS_10OptionBaseE
FN:56,63,_ZNK5neml26OptionINS_13EnumSelectionEEeqERKNS_10OptionBaseE
FN:56,63,_ZNK5neml26OptionINS_18MultiEnumSelectionEEeqERKNS_10OptionBaseE
FN:56,63,_ZNK5neml26OptionINSt7__cxx1112basic_stringIcSt11char_traitsIcESaIcEEEEeqERKNS_10OptionBaseE
FN:56,63,_ZNK5neml26OptionIPNS_11NEML2ObjectEEeqERKNS_10OptionBaseE
FN:56,63,_ZNK5neml26OptionIPNS_7FactoryEEeqERKNS_10OptionBaseE
FN:56,63,_ZNK5neml26OptionISt10shared_ptrINS_8SettingsEEEeqERKNS_10OptionBaseE
FN:56,63,_ZNK5neml26OptionISt6vectorIN3c1011SmallVectorIlLj8EEESaIS4_EEEeqERKNS_10OptionBaseE
FN:56,63,_ZNK5neml26OptionISt6vectorIN3c106DeviceESaIS3_EEEeqERKNS_10OptionBaseE
FN:56,63,_ZNK5neml26OptionISt6vectorINS_10TensorNameIN2at6TensorEEESaIS5_EEEeqERKNS_10OptionBaseE
FN:56,63,_ZNK5neml26OptionISt6vectorINS_10TensorNameINS_10QuaternionEEESaIS4_EEEeqERKNS_10OptionBaseE
FN:56,63,_ZNK5neml26OptionISt6vectorINS_10TensorNameINS_11MillerIndexEEESaIS4_EEEeqERKNS_10OptionBaseE
FN:56,63,_ZNK5neml26OptionISt6vectorINS_10TensorNameINS_2R2EEESaIS4_EEEeqERKNS_10OptionBaseE
FN:56,63,_ZNK5neml26OptionISt6vectorINS_10TensorNameINS_2R3EEESaIS4_EEEeqERKNS_10OptionBaseE
FN:56,63,_ZNK5neml26OptionISt6vectorINS_10TensorNameINS_2R4EEESaIS4_EEEeqERKNS_10OptionBaseE
FN:56,63,_ZNK5neml26OptionISt6vectorINS_10TensorNameINS_3RotEEESaIS4_EEEeqERKNS_10OptionBaseE
FN:56,63,_ZNK5neml26OptionISt6vectorINS_10TensorNameINS_3SR2EEESaIS4_EEEeqERKNS_10OptionBaseE
FN:56,63,_ZNK5neml26OptionISt6vectorINS_10TensorNameINS_3VecEEESaIS4_EEEeqERKNS_10OptionBaseE
FN:56,63,_ZNK5neml26OptionISt6vectorINS_10TensorNameINS_3WR2EEESaIS4_EEEeqERKNS_10OptionBaseE
FN:56,63,_ZNK5neml26OptionISt6vectorINS_10TensorNameINS_4SFR3EEESaIS4_EEEeqERKNS_10OptionBaseE
FN:56,63,_ZNK5neml26OptionISt6vectorINS_10TensorNameINS_4SSR4EEESaIS4_EEEeqERKNS_10OptionBaseE
FN:56,63,_ZNK5neml26OptionISt6vectorINS_10TensorNameINS_4SWR4EEESaIS4_EEEeqERKNS_10OptionBaseE
FN:56,63,_ZNK5neml26OptionISt6vectorINS_10TensorNameINS_4WSR4EEESaIS4_EEEeqERKNS_10OptionBaseE
FN:56,63,_ZNK5neml26OptionISt6vectorINS_10TensorNameINS_4WWR4EEESaIS4_EEEeqERKNS_10OptionBaseE
FN:56,63,_ZNK5neml26OptionISt6vectorINS_10TensorNameINS_5SFFR4EEESaIS4_EEEeqERKNS_10OptionBaseE
FN:56,63,_ZNK5neml26OptionISt6vectorINS_10TensorNameINS_5WFFR4EEESaIS4_EEEeqERKNS_10OptionBaseE
FN:56,63,_ZNK5neml26OptionISt6vectorINS_10TensorNameINS_6ScalarEEESaIS4_EEEeqERKNS_10OptionBaseE
FN:56,63,_ZNK5neml26OptionISt6vectorINS_10TensorNameINS_6TensorEEESaIS4_EEEeqERKNS_10OptionBaseE
FN:56,63,_ZNK5neml26OptionISt6vectorINSt7__cxx1112basic_stringIcSt11char_traitsIcESaIcEEESaIS7_EEEeqERKNS_10OptionBaseE
FN:56,63,_ZNK5neml26OptionISt6vectorIS1_IN3c1011SmallVectorIlLj8EEESaIS4_EESaIS6_EEEeqERKNS_10OptionBaseE
FN:56,63,_ZNK5neml26OptionISt6vectorIS1_IN3c106DeviceESaIS3_EESaIS5_EEEeqERKNS_10OptionBaseE
FN:56,63,_ZNK5neml26OptionISt6vectorIS1_INS_10TensorNameIN2at6TensorEEESaIS5_EESaIS7_EEEeqERKNS_10OptionBaseE
FN:56,63,_ZNK5neml26OptionISt6vectorIS1_INS_10TensorNameINS_10QuaternionEEESaIS4_EESaIS6_EEEeqERKNS_10OptionBaseE
FN:56,63,_ZNK5neml26OptionISt6vectorIS1_INS_10TensorNameINS_11MillerIndexEEESaIS4_EESaIS6_EEEeqERKNS_10OptionBaseE
FN:56,63,_ZNK5neml26OptionISt6vectorIS1_INS_10TensorNameINS_2R2EEESaIS4_EESaIS6_EEEeqERKNS_10OptionBaseE
FN:56,63,_ZNK5neml26OptionISt6vectorIS1_INS_10TensorNameINS_2R3EEESaIS4_EESaIS6_EEEeqERKNS_10OptionBaseE
FN:56,63,_ZNK5neml26OptionISt6vectorIS1_INS_10TensorNameINS_2R4EEESaIS4_EESaIS6_EEEeqERKNS_10OptionBaseE
FN:56,63,_ZNK5neml26OptionISt6vectorIS1_INS_10TensorNameINS_3RotEEESaIS4_EESaIS6_EEEeqERKNS_10OptionBaseE
FN:56,63,_ZNK5neml26OptionISt6vectorIS1_INS_10TensorNameINS_3SR2EEESaIS4_EESaIS6_EEEeqERKNS_10OptionBaseE
FN:56,63,_ZNK5neml26OptionISt6vectorIS1_INS_10TensorNameINS_3VecEEESaIS4_EESaIS6_EEEeqERKNS_10OptionBaseE
FN:56,63,_ZNK5neml26OptionISt6vectorIS1_INS_10TensorNameINS_3WR2EEESaIS4_EESaIS6_EEEeqERKNS_10OptionBaseE
FN:56,63,_ZNK5neml26OptionISt6vectorIS1_INS_10TensorNameINS_4SFR3EEESaIS4_EESaIS6_EEEeqERKNS_10OptionBaseE
FN:56,63,_ZNK5neml26OptionISt6vectorIS1_INS_10TensorNameINS_4SSR4EEESaIS4_EESaIS6_EEEeqERKNS_10OptionBaseE
FN:56,63,_ZNK5neml26OptionISt6vectorIS1_INS_10TensorNameINS_4SWR4EEESaIS4_EESaIS6_EEEeqERKNS_10OptionBaseE
FN:56,63,_ZNK5neml26OptionISt6vectorIS1_INS_10TensorNameINS_4WSR4EEESaIS4_EESaIS6_EEEeqERKNS_10OptionBaseE
FN:56,63,_ZNK5neml26OptionISt6vectorIS1_INS_10TensorNameINS_4WWR4EEESaIS4_EESaIS6_EEEeqERKNS_10OptionBaseE
FN:56,63,_ZNK5neml26OptionISt6vectorIS1_INS_10TensorNameINS_5SFFR4EEESaIS4_EESaIS6_EEEeqERKNS_10OptionBaseE
FN:56,63,_ZNK5neml26OptionISt6vectorIS1_INS_10TensorNameINS_5WFFR4EEESaIS4_EESaIS6_EEEeqERKNS_10OptionBaseE
FN:56,63,_ZNK5neml26OptionISt6vectorIS1_INS_10TensorNameINS_6ScalarEEESaIS4_EESaIS6_EEEeqERKNS_10OptionBaseE
FN:56,63,_ZNK5neml26OptionISt6vectorIS1_INS_10TensorNameINS_6TensorEEESaIS4_EESaIS6_EEEeqERKNS_10OptionBaseE
FN:56,63,_ZNK5neml26OptionISt6vectorIS1_INSt7__cxx1112basic_stringIcSt11char_traitsIcESaIcEEESaIS7_EESaIS9_EEEeqERKNS_10OptionBaseE
FN:56,63,_ZNK5neml26OptionISt6vectorIS1_IbSaIbEESaIS3_EEEeqERKNS_10OptionBaseE
FN:56,63,_ZNK5neml26OptionISt6vectorIS1_IdSaIdEESaIS3_EEEeqERKNS_10OptionBaseE
FN:56,63,_ZNK5neml26OptionISt6vectorIS1_IiSaIiEESaIS3_EEEeqERKNS_10OptionBaseE
FN:56,63,_ZNK5neml26OptionISt6vectorIS1_IjSaIjEESaIS3_EEEeqERKNS_10OptionBaseE
FN:56,63,_ZNK5neml26OptionISt6vectorIS1_IlSaIlEESaIS3_EEEeqERKNS_10OptionBaseE
FN:56,63,_ZNK5neml26OptionISt6vectorIS1_ImSaImEESaIS3_EEEeqERKNS_10OptionBaseE
FN:56,63,_ZNK5neml26OptionISt6vectorIbSaIbEEEeqERKNS_10OptionBaseE
FN:56,63,_ZNK5neml26OptionISt6vectorIdSaIdEEEeqERKNS_10OptionBaseE
FN:56,63,_ZNK5neml26OptionISt6vectorIiSaIiEEEeqERKNS_10OptionBaseE
FN:56,63,_ZNK5neml26OptionISt6vectorIjSaIjEEEeqERKNS_10OptionBaseE
FN:56,63,_ZNK5neml26OptionISt6vectorIlSaIlEEEeqERKNS_10OptionBaseE
FN:56,63,_ZNK5neml26OptionISt6vectorImSaImEEEeqERKNS_10OptionBaseE
FN:56,63,_ZNK5neml26OptionIbEeqERKNS_10OptionBaseE
FN:56,63,_ZNK5neml26OptionIdEeqERKNS_10OptionBaseE
FN:56,63,_ZNK5neml26OptionIiEeqERKNS_10OptionBaseE
FN:56,63,_ZNK5neml26OptionIjEeqERKNS_10OptionBaseE
FN:56,63,_ZNK5neml26OptionIlEeqERKNS_10OptionBaseE
FN:56,63,_ZNK5neml26OptionImEeqERKNS_10OptionBaseE
FN:67,70,_ZNK5neml26OptionIN3c1011SmallVectorIlLj8EEEEneERKNS_10OptionBaseE
FN:67,70,_ZNK5neml26OptionIN3c106DeviceEEneERKNS_10OptionBaseE
FN:67,70,_ZNK5neml26OptionINS_10TensorNameIN2at6TensorEEEEneERKNS_10OptionBaseE
FN:67,70,_ZNK5neml26OptionINS_10TensorNameINS_10QuaternionEEEEneERKNS_10OptionBaseE
FN:67,70,_ZNK5neml26OptionINS_10TensorNameINS_11MillerIndexEEEEneERKNS_10OptionBaseE
FN:67,70,_ZNK5neml26OptionINS_10TensorNameINS_2R2EEEEneERKNS_10OptionBaseE
FN:67,70,_ZNK5neml26OptionINS_10TensorNameINS_2R3EEEEneERKNS_10OptionBaseE
FN:67,70,_ZNK5neml26OptionINS_10TensorNameINS_2R4EEEEneERKNS_10OptionBaseE
FN:67,70,_ZNK5neml26OptionINS_10TensorNameINS_3RotEEEEneERKNS_10OptionBaseE
FN:67,70,_ZNK5neml26OptionINS_10TensorNameINS_3SR2EEEEneERKNS_10OptionBaseE
FN:67,70,_ZNK5neml26OptionINS_10TensorNameINS_3VecEEEEneERKNS_10OptionBaseE
FN:67,70,_ZNK5neml26OptionINS_10TensorNameINS_3WR2EEEEneERKNS_10OptionBaseE
FN:67,70,_ZNK5neml26OptionINS_10TensorNameINS_4SFR3EEEEneERKNS_10OptionBaseE
FN:67,70,_ZNK5neml26OptionINS_10TensorNameINS_4SSR4EEEEneERKNS_10OptionBaseE
FN:67,70,_ZNK5neml26OptionINS_10TensorNameINS_4SWR4EEEEneERKNS_10OptionBaseE
FN:67,70,_ZNK5neml26OptionINS_10TensorNameINS_4WSR4EEEEneERKNS_10OptionBaseE
FN:67,70,_ZNK5neml26OptionINS_10TensorNameINS_4WWR4EEEEneERKNS_10OptionBaseE
FN:67,70,_ZNK5neml26OptionINS_10TensorNameINS_5SFFR4EEEEneERKNS_10OptionBaseE
FN:67,70,_ZNK5neml26OptionINS_10TensorNameINS_5WFFR4EEEEneERKNS_10OptionBaseE
FN:67,70,_ZNK5neml26OptionINS_10TensorNameINS_6ScalarEEEEneERKNS_10OptionBaseE
FN:67,70,_ZNK5neml26OptionINS_10TensorNameINS_6TensorEEEEneERKNS_10OptionBaseE
FN:67,70,_ZNK5neml26OptionINS_13EnumSelectionEEneERKNS_10OptionBaseE
FN:67,70,_ZNK5neml26OptionINS_18MultiEnumSelectionEEneERKNS_10OptionBaseE
FN:67,70,_ZNK5neml26OptionINSt7__cxx1112basic_stringIcSt11char_traitsIcESaIcEEEEneERKNS_10OptionBaseE
FN:67,70,_ZNK5neml26OptionIPNS_11NEML2ObjectEEneERKNS_10OptionBaseE
FN:67,70,_ZNK5neml26OptionIPNS_7FactoryEEneERKNS_10OptionBaseE
FN:67,70,_ZNK5neml26OptionISt10shared_ptrINS_8SettingsEEEneERKNS_10OptionBaseE
FN:67,70,_ZNK5neml26OptionISt6vectorIN3c1011SmallVectorIlLj8EEESaIS4_EEEneERKNS_10OptionBaseE
FN:67,70,_ZNK5neml26OptionISt6vectorIN3c106DeviceESaIS3_EEEneERKNS_10OptionBaseE
FN:67,70,_ZNK5neml26OptionISt6vectorINS_10TensorNameIN2at6TensorEEESaIS5_EEEneERKNS_10OptionBaseE
FN:67,70,_ZNK5neml26OptionISt6vectorINS_10TensorNameINS_10QuaternionEEESaIS4_EEEneERKNS_10OptionBaseE
FN:67,70,_ZNK5neml26OptionISt6vectorINS_10TensorNameINS_11MillerIndexEEESaIS4_EEEneERKNS_10OptionBaseE
FN:67,70,_ZNK5neml26OptionISt6vectorINS_10TensorNameINS_2R2EEESaIS4_EEEneERKNS_10OptionBaseE
FN:67,70,_ZNK5neml26OptionISt6vectorINS_10TensorNameINS_2R3EEESaIS4_EEEneERKNS_10OptionBaseE
FN:67,70,_ZNK5neml26OptionISt6vectorINS_10TensorNameINS_2R4EEESaIS4_EEEneERKNS_10OptionBaseE
FN:67,70,_ZNK5neml26OptionISt6vectorINS_10TensorNameINS_3RotEEESaIS4_EEEneERKNS_10OptionBaseE
FN:67,70,_ZNK5neml26OptionISt6vectorINS_10TensorNameINS_3SR2EEESaIS4_EEEneERKNS_10OptionBaseE
FN:67,70,_ZNK5neml26OptionISt6vectorINS_10TensorNameINS_3VecEEESaIS4_EEEneERKNS_10OptionBaseE
FN:67,70,_ZNK5neml26OptionISt6vectorINS_10TensorNameINS_3WR2EEESaIS4_EEEneERKNS_10OptionBaseE
FN:67,70,_ZNK5neml26OptionISt6vectorINS_10TensorNameINS_4SFR3EEESaIS4_EEEneERKNS_10OptionBaseE
FN:67,70,_ZNK5neml26OptionISt6vectorINS_10TensorNameINS_4SSR4EEESaIS4_EEEneERKNS_10OptionBaseE
FN:67,70,_ZNK5neml26OptionISt6vectorINS_10TensorNameINS_4SWR4EEESaIS4_EEEneERKNS_10OptionBaseE
FN:67,70,_ZNK5neml26OptionISt6vectorINS_10TensorNameINS_4WSR4EEESaIS4_EEEneERKNS_10OptionBaseE
FN:67,70,_ZNK5neml26OptionISt6vectorINS_10TensorNameINS_4WWR4EEESaIS4_EEEneERKNS_10OptionBaseE
FN:67,70,_ZNK5neml26OptionISt6vectorINS_10TensorNameINS_5SFFR4EEESaIS4_EEEneERKNS_10OptionBaseE
FN:67,70,_ZNK5neml26OptionISt6vectorINS_10TensorNameINS_5WFFR4EEESaIS4_EEEneERKNS_10OptionBaseE
FN:67,70,_ZNK5neml26OptionISt6vectorINS_10TensorNameINS_6ScalarEEESaIS4_EEEneERKNS_10OptionBaseE
FN:67,70,_ZNK5neml26OptionISt6vectorINS_10TensorNameINS_6TensorEEESaIS4_EEEneERKNS_10OptionBaseE
FN:67,70,_ZNK5neml26OptionISt6vectorINSt7__cxx1112basic_stringIcSt11char_traitsIcESaIcEEESaIS7_EEEneERKNS_10OptionBaseE
FN:67,70,_ZNK5neml26OptionISt6vectorIS1_IN3c1011SmallVectorIlLj8EEESaIS4_EESaIS6_EEEneERKNS_10OptionBaseE
FN:67,70,_ZNK5neml26OptionISt6vectorIS1_IN3c106DeviceESaIS3_EESaIS5_EEEneERKNS_10OptionBaseE
FN:67,70,_ZNK5neml26OptionISt6vectorIS1_INS_10TensorNameIN2at6TensorEEESaIS5_EESaIS7_EEEneERKNS_10OptionBaseE
FN:67,70,_ZNK5neml26OptionISt6vectorIS1_INS_10TensorNameINS_10QuaternionEEESaIS4_EESaIS6_EEEneERKNS_10OptionBaseE
FN:67,70,_ZNK5neml26OptionISt6vectorIS1_INS_10TensorNameINS_11MillerIndexEEESaIS4_EESaIS6_EEEneERKNS_10OptionBaseE
FN:67,70,_ZNK5neml26OptionISt6vectorIS1_INS_10TensorNameINS_2R2EEESaIS4_EESaIS6_EEEneERKNS_10OptionBaseE
FN:67,70,_ZNK5neml26OptionISt6vectorIS1_INS_10TensorNameINS_2R3EEESaIS4_EESaIS6_EEEneERKNS_10OptionBaseE
FN:67,70,_ZNK5neml26OptionISt6vectorIS1_INS_10TensorNameINS_2R4EEESaIS4_EESaIS6_EEEneERKNS_10OptionBaseE
FN:67,70,_ZNK5neml26OptionISt6vectorIS1_INS_10TensorNameINS_3RotEEESaIS4_EESaIS6_EEEneERKNS_10OptionBaseE
FN:67,70,_ZNK5neml26OptionISt6vectorIS1_INS_10TensorNameINS_3SR2EEESaIS4_EESaIS6_EEEneERKNS_10OptionBaseE
FN:67,70,_ZNK5neml26OptionISt6vectorIS1_INS_10TensorNameINS_3VecEEESaIS4_EESaIS6_EEEneERKNS_10OptionBaseE
FN:67,70,_ZNK5neml26OptionISt6vectorIS1_INS_10TensorNameINS_3WR2EEESaIS4_EESaIS6_EEEneERKNS_10OptionBaseE
FN:67,70,_ZNK5neml26OptionISt6vectorIS1_INS_10TensorNameINS_4SFR3EEESaIS4_EESaIS6_EEEneERKNS_10OptionBaseE
FN:67,70,_ZNK5neml26OptionISt6vectorIS1_INS_10TensorNameINS_4SSR4EEESaIS4_EESaIS6_EEEneERKNS_10OptionBaseE
FN:67,70,_ZNK5neml26OptionISt6vectorIS1_INS_10TensorNameINS_4SWR4EEESaIS4_EESaIS6_EEEneERKNS_10OptionBaseE
FN:67,70,_ZNK5neml26OptionISt6vectorIS1_INS_10TensorNameINS_4WSR4EEESaIS4_EESaIS6_EEEneERKNS_10OptionBaseE
FN:67,70,_ZNK5neml26OptionISt6vectorIS1_INS_10TensorNameINS_4WWR4EEESaIS4_EESaIS6_EEEneERKNS_10OptionBaseE
FN:67,70,_ZNK5neml26OptionISt6vectorIS1_INS_10TensorNameINS_5SFFR4EEESaIS4_EESaIS6_EEEneERKNS_10OptionBaseE
FN:67,70,_ZNK5neml26OptionISt6vectorIS1_INS_10TensorNameINS_5WFFR4EEESaIS4_EESaIS6_EEEneERKNS_10OptionBaseE
FN:67,70,_ZNK5neml26OptionISt6vectorIS1_INS_10TensorNameINS_6ScalarEEESaIS4_EESaIS6_EEEneERKNS_10OptionBaseE
FN:67,70,_ZNK5neml26OptionISt6vectorIS1_INS_10TensorNameINS_6TensorEEESaIS4_EESaIS6_EEEneERKNS_10OptionBaseE
FN:67,70,_ZNK5neml26OptionISt6vectorIS1_INSt7__cxx1112basic_stringIcSt11char_traitsIcESaIcEEESaIS7_EESaIS9_EEEneERKNS_10OptionBaseE
FN:67,70,_ZNK5neml26OptionISt6vectorIS1_IbSaIbEESaIS3_EEEneERKNS_10OptionBaseE
FN:67,70,_ZNK5neml26OptionISt6vectorIS1_IdSaIdEESaIS3_EEEneERKNS_10OptionBaseE
FN:67,70,_ZNK5neml26OptionISt6vectorIS1_IiSaIiEESaIS3_EEEneERKNS_10OptionBaseE
FN:67,70,_ZNK5neml26OptionISt6vectorIS1_IjSaIjEESaIS3_EEEneERKNS_10OptionBaseE
FN:67,70,_ZNK5neml26OptionISt6vectorIS1_IlSaIlEESaIS3_EEEneERKNS_10OptionBaseE
FN:67,70,_ZNK5neml26OptionISt6vectorIS1_ImSaImEESaIS3_EEEneERKNS_10OptionBaseE
FN:67,70,_ZNK5neml26OptionISt6vectorIbSaIbEEEneERKNS_10OptionBaseE
FN:67,70,_ZNK5neml26OptionISt6vectorIdSaIdEEEneERKNS_10OptionBaseE
FN:67,70,_ZNK5neml26OptionISt6vectorIiSaIiEEEneERKNS_10OptionBaseE
FN:67,70,_ZNK5neml26OptionISt6vectorIjSaIjEEEneERKNS_10OptionBaseE
FN:67,70,_ZNK5neml26OptionISt6vectorIlSaIlEEEneERKNS_10OptionBaseE
FN:67,70,_ZNK5neml26OptionISt6vectorImSaImEEEneERKNS_10OptionBaseE
FN:67,70,_ZNK5neml26OptionIbEneERKNS_10OptionBaseE
FN:67,70,_ZNK5neml26OptionIdEneERKNS_10OptionBaseE
FN:67,70,_ZNK5neml26OptionIiEneERKNS_10OptionBaseE
FN:67,70,_ZNK5neml26OptionIjEneERKNS_10OptionBaseE
FN:67,70,_ZNK5neml26OptionIlEneERKNS_10OptionBaseE
FN:67,70,_ZNK5neml26OptionImEneERKNS_10OptionBaseE
FN:83,89,_ZNK5neml26OptionIN3c1011SmallVectorIlLj8EEEE5cloneEv
FN:83,89,_ZNK5neml26OptionIN3c106DeviceEE5cloneEv
FN:83,89,_ZNK5neml26OptionINS_10TensorNameIN2at6TensorEEEE5cloneEv
FN:83,89,_ZNK5neml26OptionINS_10TensorNameINS_10QuaternionEEEE5cloneEv
FN:83,89,_ZNK5neml26OptionINS_10TensorNameINS_11MillerIndexEEEE5cloneEv
FN:83,89,_ZNK5neml26OptionINS_10TensorNameINS_2R2EEEE5cloneEv
FN:83,89,_ZNK5neml26OptionINS_10TensorNameINS_2R3EEEE5cloneEv
FN:83,89,_ZNK5neml26OptionINS_10TensorNameINS_2R4EEEE5cloneEv
FN:83,89,_ZNK5neml26OptionINS_10TensorNameINS_3RotEEEE5cloneEv
FN:83,89,_ZNK5neml26OptionINS_10TensorNameINS_3SR2EEEE5cloneEv
FN:83,89,_ZNK5neml26OptionINS_10TensorNameINS_3VecEEEE5cloneEv
FN:83,89,_ZNK5neml26OptionINS_10TensorNameINS_3WR2EEEE5cloneEv
FN:83,89,_ZNK5neml26OptionINS_10TensorNameINS_4SFR3EEEE5cloneEv
FN:83,89,_ZNK5neml26OptionINS_10TensorNameINS_4SSR4EEEE5cloneEv
FN:83,89,_ZNK5neml26OptionINS_10TensorNameINS_4SWR4EEEE5cloneEv
FN:83,89,_ZNK5neml26OptionINS_10TensorNameINS_4WSR4EEEE5cloneEv
FN:83,89,_ZNK5neml26OptionINS_10TensorNameINS_4WWR4EEEE5cloneEv
FN:83,89,_ZNK5neml26OptionINS_10TensorNameINS_5SFFR4EEEE5cloneEv
FN:83,89,_ZNK5neml26OptionINS_10TensorNameINS_5WFFR4EEEE5cloneEv
FN:83,89,_ZNK5neml26OptionINS_10TensorNameINS_6ScalarEEEE5cloneEv
FN:83,89,_ZNK5neml26OptionINS_10TensorNameINS_6TensorEEEE5cloneEv
FN:83,89,_ZNK5neml26OptionINS_13EnumSelectionEE5cloneEv
FN:83,89,_ZNK5neml26OptionINS_18MultiEnumSelectionEE5cloneEv
FN:83,89,_ZNK5neml26OptionINSt7__cxx1112basic_stringIcSt11char_traitsIcESaIcEEEE5cloneEv
FN:83,89,_ZNK5neml26OptionIPNS_11NEML2ObjectEE5cloneEv
FN:83,89,_ZNK5neml26OptionIPNS_7FactoryEE5cloneEv
FN:83,89,_ZNK5neml26OptionISt10shared_ptrINS_8SettingsEEE5cloneEv
FN:83,89,_ZNK5neml26OptionISt6vectorIN3c1011SmallVectorIlLj8EEESaIS4_EEE5cloneEv
FN:83,89,_ZNK5neml26OptionISt6vectorIN3c106DeviceESaIS3_EEE5cloneEv
FN:83,89,_ZNK5neml26OptionISt6vectorINS_10TensorNameIN2at6TensorEEESaIS5_EEE5cloneEv
FN:83,89,_ZNK5neml26OptionISt6vectorINS_10TensorNameINS_10QuaternionEEESaIS4_EEE5cloneEv
FN:83,89,_ZNK5neml26OptionISt6vectorINS_10TensorNameINS_11MillerIndexEEESaIS4_EEE5cloneEv
FN:83,89,_ZNK5neml26OptionISt6vectorINS_10TensorNameINS_2R2EEESaIS4_EEE5cloneEv
FN:83,89,_ZNK5neml26OptionISt6vectorINS_10TensorNameINS_2R3EEESaIS4_EEE5cloneEv
FN:83,89,_ZNK5neml26OptionISt6vectorINS_10TensorNameINS_2R4EEESaIS4_EEE5cloneEv
FN:83,89,_ZNK5neml26OptionISt6vectorINS_10TensorNameINS_3RotEEESaIS4_EEE5cloneEv
FN:83,89,_ZNK5neml26OptionISt6vectorINS_10TensorNameINS_3SR2EEESaIS4_EEE5cloneEv
FN:83,89,_ZNK5neml26OptionISt6vectorINS_10TensorNameINS_3VecEEESaIS4_EEE5cloneEv
FN:83,89,_ZNK5neml26OptionISt6vectorINS_10TensorNameINS_3WR2EEESaIS4_EEE5cloneEv
FN:83,89,_ZNK5neml26OptionISt6vectorINS_10TensorNameINS_4SFR3EEESaIS4_EEE5cloneEv
FN:83,89,_ZNK5neml26OptionISt6vectorINS_10TensorNameINS_4SSR4EEESaIS4_EEE5cloneEv
FN:83,89,_ZNK5neml26OptionISt6vectorINS_10TensorNameINS_4SWR4EEESaIS4_EEE5cloneEv
FN:83,89,_ZNK5neml26OptionISt6vectorINS_10TensorNameINS_4WSR4EEESaIS4_EEE5cloneEv
FN:83,89,_ZNK5neml26OptionISt6vectorINS_10TensorNameINS_4WWR4EEESaIS4_EEE5cloneEv
FN:83,89,_ZNK5neml26OptionISt6vectorINS_10TensorNameINS_5SFFR4EEESaIS4_EEE5cloneEv
FN:83,89,_ZNK5neml26OptionISt6vectorINS_10TensorNameINS_5WFFR4EEESaIS4_EEE5cloneEv
FN:83,89,_ZNK5neml26OptionISt6vectorINS_10TensorNameINS_6ScalarEEESaIS4_EEE5cloneEv
FN:83,89,_ZNK5neml26OptionISt6vectorINS_10TensorNameINS_6TensorEEESaIS4_EEE5cloneEv
FN:83,89,_ZNK5neml26OptionISt6vectorINSt7__cxx1112basic_stringIcSt11char_traitsIcESaIcEEESaIS7_EEE5cloneEv
FN:83,89,_ZNK5neml26OptionISt6vectorIS1_IN3c1011SmallVectorIlLj8EEESaIS4_EESaIS6_EEE5cloneEv
FN:83,89,_ZNK5neml26OptionISt6vectorIS1_IN3c106DeviceESaIS3_EESaIS5_EEE5cloneEv
FN:83,89,_ZNK5neml26OptionISt6vectorIS1_INS_10TensorNameIN2at6TensorEEESaIS5_EESaIS7_EEE5cloneEv
FN:83,89,_ZNK5neml26OptionISt6vectorIS1_INS_10TensorNameINS_10QuaternionEEESaIS4_EESaIS6_EEE5cloneEv
FN:83,89,_ZNK5neml26OptionISt6vectorIS1_INS_10TensorNameINS_11MillerIndexEEESaIS4_EESaIS6_EEE5cloneEv
FN:83,89,_ZNK5neml26OptionISt6vectorIS1_INS_10TensorNameINS_2R2EEESaIS4_EESaIS6_EEE5cloneEv
FN:83,89,_ZNK5neml26OptionISt6vectorIS1_INS_10TensorNameINS_2R3EEESaIS4_EESaIS6_EEE5cloneEv
FN:83,89,_ZNK5neml26OptionISt6vectorIS1_INS_10TensorNameINS_2R4EEESaIS4_EESaIS6_EEE5cloneEv
FN:83,89,_ZNK5neml26OptionISt6vectorIS1_INS_10TensorNameINS_3RotEEESaIS4_EESaIS6_EEE5cloneEv
FN:83,89,_ZNK5neml26OptionISt6vectorIS1_INS_10TensorNameINS_3SR2EEESaIS4_EESaIS6_EEE5cloneEv
FN:83,89,_ZNK5neml26OptionISt6vectorIS1_INS_10TensorNameINS_3VecEEESaIS4_EESaIS6_EEE5cloneEv
FN:83,89,_ZNK5neml26OptionISt6vectorIS1_INS_10TensorNameINS_3WR2EEESaIS4_EESaIS6_EEE5cloneEv
FN:83,89,_ZNK5neml26OptionISt6vectorIS1_INS_10TensorNameINS_4SFR3EEESaIS4_EESaIS6_EEE5cloneEv
FN:83,89,_ZNK5neml26OptionISt6vectorIS1_INS_10TensorNameINS_4SSR4EEESaIS4_EESaIS6_EEE5cloneEv
FN:83,89,_ZNK5neml26OptionISt6vectorIS1_INS_10TensorNameINS_4SWR4EEESaIS4_EESaIS6_EEE5cloneEv
FN:83,89,_ZNK5neml26OptionISt6vectorIS1_INS_10TensorNameINS_4WSR4EEESaIS4_EESaIS6_EEE5cloneEv
FN:83,89,_ZNK5neml26OptionISt6vectorIS1_INS_10TensorNameINS_4WWR4EEESaIS4_EESaIS6_EEE5cloneEv
FN:83,89,_ZNK5neml26OptionISt6vectorIS1_INS_10TensorNameINS_5SFFR4EEESaIS4_EESaIS6_EEE5cloneEv
FN:83,89,_ZNK5neml26OptionISt6vectorIS1_INS_10TensorNameINS_5WFFR4EEESaIS4_EESaIS6_EEE5cloneEv
FN:83,89,_ZNK5neml26OptionISt6vectorIS1_INS_10TensorNameINS_6ScalarEEESaIS4_EESaIS6_EEE5cloneEv
FN:83,89,_ZNK5neml26OptionISt6vectorIS1_INS_10TensorNameINS_6TensorEEESaIS4_EESaIS6_EEE5cloneEv
FN:83,89,_ZNK5neml26OptionISt6vectorIS1_INSt7__cxx1112basic_stringIcSt11char_traitsIcESaIcEEESaIS7_EESaIS9_EEE5cloneEv
FN:83,89,_ZNK5neml26OptionISt6vectorIS1_IbSaIbEESaIS3_EEE5cloneEv
FN:83,89,_ZNK5neml26OptionISt6vectorIS1_IdSaIdEESaIS3_EEE5cloneEv
FN:83,89,_ZNK5neml26OptionISt6vectorIS1_IiSaIiEESaIS3_EEE5cloneEv
FN:83,89,_ZNK5neml26OptionISt6vectorIS1_IjSaIjEESaIS3_EEE5cloneEv
FN:83,89,_ZNK5neml26OptionISt6vectorIS1_IlSaIlEESaIS3_EEE5cloneEv
FN:83,89,_ZNK5neml26OptionISt6vectorIS1_ImSaImEESaIS3_EEE5cloneEv
FN:83,89,_ZNK5neml26OptionISt6vectorIbSaIbEEE5cloneEv
FN:83,89,_ZNK5neml26OptionISt6vectorIdSaIdEEE5cloneEv
FN:83,89,_ZNK5neml26OptionISt6vectorIiSaIiEEE5cloneEv
FN:83,89,_ZNK5neml26OptionISt6vectorIjSaIjEEE5cloneEv
FN:83,89,_ZNK5neml26OptionISt6vectorIlSaIlEEE5cloneEv
FN:83,89,_ZNK5neml26OptionISt6vectorImSaImEEE5cloneEv
FN:83,89,_ZNK5neml26OptionIbE5cloneEv
FN:83,89,_ZNK5neml26OptionIdE5cloneEv
FN:83,89,_ZNK5neml26OptionIiE5cloneEv
FN:83,89,_ZNK5neml26OptionIjE5cloneEv
FN:83,89,_ZNK5neml26OptionIlE5cloneEv
FN:83,89,_ZNK5neml26OptionImE5cloneEv
FNDA:0,_ZN5neml27details13_print_helperIcEEvRSoPKT_
FNDA:0,_ZN5neml27details13_print_helperIhEEvRSoPKT_
FNDA:0,_ZN5neml27details13_print_helperIbEEvRSoPKSt6vectorIT_SaIS4_EE
FNDA:3691,_ZN5neml26OptionIN3c1011SmallVectorIlLj8EEEEC2ERKNSt7__cxx1112basic_stringIcSt11char_traitsIcESaIcEEE
FNDA:0,_ZN5neml26OptionINS_10TensorNameIN2at6TensorEEEEC2ERKNSt7__cxx1112basic_stringIcSt11char_traitsIcESaIcEEE
FNDA:24,_ZN5neml26OptionINS_10TensorNameINS_10QuaternionEEEEC2ERKNSt7__cxx1112basic_stringIcSt11char_traitsIcESaIcEEE
FNDA:302,_ZN5neml26OptionINS_10TensorNameINS_11MillerIndexEEEEC2ERKNSt7__cxx1112basic_stringIcSt11char_traitsIcESaIcEEE
FNDA:163,_ZN5neml26OptionINS_10TensorNameINS_2R2EEEEC2ERKNSt7__cxx1112basic_stringIcSt11char_traitsIcESaIcEEE
FNDA:24,_ZN5neml26OptionINS_10TensorNameINS_2R3EEEEC2ERKNSt7__cxx1112basic_stringIcSt11char_traitsIcESaIcEEE
FNDA:24,_ZN5neml26OptionINS_10TensorNameINS_2R4EEEEC2ERKNSt7__cxx1112basic_stringIcSt11char_traitsIcESaIcEEE
FNDA:24,_ZN5neml26OptionINS_10TensorNameINS_3RotEEEEC2ERKNSt7__cxx1112basic_stringIcSt11char_traitsIcESaIcEEE
FNDA:153,_ZN5neml26OptionINS_10TensorNameINS_3SR2EEEEC2ERKNSt7__cxx1112basic_stringIcSt11char_traitsIcESaIcEEE
FNDA:189,_ZN5neml26OptionINS_10TensorNameINS_3VecEEEEC2ERKNSt7__cxx1112basic_stringIcSt11char_traitsIcESaIcEEE
FNDA:24,_ZN5neml26OptionINS_10TensorNameINS_3WR2EEEEC2ERKNSt7__cxx1112basic_stringIcSt11char_traitsIcESaIcEEE
FNDA:24,_ZN5neml26OptionINS_10TensorNameINS_4SFR3EEEEC2ERKNSt7__cxx1112basic_stringIcSt11char_traitsIcESaIcEEE
FNDA:52,_ZN5neml26OptionINS_10TensorNameINS_4SSR4EEEEC2ERKNSt7__cxx1112basic_stringIcSt11char_traitsIcESaIcEEE
FNDA:24,_ZN5neml26OptionINS_10TensorNameINS_4SWR4EEEEC2ERKNSt7__cxx1112basic_stringIcSt11char_traitsIcESaIcEEE
FNDA:24,_ZN5neml26OptionINS_10TensorNameINS_4WSR4EEEEC2ERKNSt7__cxx1112basic_stringIcSt11char_traitsIcESaIcEEE
FNDA:24,_ZN5neml26OptionINS_10TensorNameINS_4WWR4EEEEC2ERKNSt7__cxx1112basic_stringIcSt11char_traitsIcESaIcEEE
FNDA:24,_ZN5neml26OptionINS_10TensorNameINS_5SFFR4EEEEC2ERKNSt7__cxx1112basic_stringIcSt11char_traitsIcESaIcEEE
FNDA:24,_ZN5neml26OptionINS_10TensorNameINS_5WFFR4EEEEC2ERKNSt7__cxx1112basic_stringIcSt11char_traitsIcESaIcEEE
FNDA:2437,_ZN5neml26OptionINS_10TensorNameINS_6ScalarEEEEC2ERKNSt7__cxx1112basic_stringIcSt11char_traitsIcESaIcEEE
FNDA:62,_ZN5neml26OptionINS_10TensorNameINS_6TensorEEEEC2ERKNSt7__cxx1112basic_stringIcSt11char_traitsIcESaIcEEE
FNDA:3141,_ZN5neml26OptionINS_13EnumSelectionEEC2ERKNSt7__cxx1112basic_stringIcSt11char_traitsIcESaIcEEE
FNDA:7203,_ZN5neml26OptionINS_18MultiEnumSelectionEEC2ERKNSt7__cxx1112basic_stringIcSt11char_traitsIcESaIcEEE
FNDA:14320,_ZN5neml26OptionINSt7__cxx1112basic_stringIcSt11char_traitsIcESaIcEEEEC2ERKS6_
FNDA:12345,_ZN5neml26OptionIPNS_11NEML2ObjectEEC2ERKNSt7__cxx1112basic_stringIcSt11char_traitsIcESaIcEEE
FNDA:11707,_ZN5neml26OptionIPNS_7FactoryEEC2ERKNSt7__cxx1112basic_stringIcSt11char_traitsIcESaIcEEE
FNDA:11707,_ZN5neml26OptionISt10shared_ptrINS_8SettingsEEEC2ERKNSt7__cxx1112basic_stringIcSt11char_traitsIcESaIcEEE
FNDA:6940,_ZN5neml26OptionISt6vectorIN3c1011SmallVectorIlLj8EEESaIS4_EEEC2ERKNSt7__cxx1112basic_stringIcSt11char_traitsIcESaIcEEE
FNDA:39,_ZN5neml26OptionISt6vectorIN3c106DeviceESaIS3_EEEC2ERKNSt7__cxx1112basic_stringIcSt11char_traitsIcESaIcEEE
FNDA:0,_ZN5neml26OptionISt6vectorINS_10TensorNameIN2at6TensorEEESaIS5_EEEC2ERKNSt7__cxx1112basic_stringIcSt11char_traitsIcESaIcEEE
FNDA:3156,_ZN5neml26OptionISt6vectorINS_10TensorNameINS_10QuaternionEEESaIS4_EEEC2ERKNSt7__cxx1112basic_stringIcSt11char_traitsIcESaIcEEE
FNDA:3156,_ZN5neml26OptionISt6vectorINS_10TensorNameINS_11MillerIndexEEESaIS4_EEEC2ERKNSt7__cxx1112basic_stringIcSt11char_traitsIcESaIcEEE
FNDA:3156,_ZN5neml26OptionISt6vectorINS_10TensorNameINS_2R2EEESaIS4_EEEC2ERKNSt7__cxx1112basic_stringIcSt11char_traitsIcESaIcEEE
FNDA:3156,_ZN5neml26OptionISt6vectorINS_10TensorNameINS_2R3EEESaIS4_EEEC2ERKNSt7__cxx1112basic_stringIcSt11char_traitsIcESaIcEEE
FNDA:3156,_ZN5neml26OptionISt6vectorINS_10TensorNameINS_2R4EEESaIS4_EEEC2ERKNSt7__cxx1112basic_stringIcSt11char_traitsIcESaIcEEE
FNDA:3156,_ZN5neml26OptionISt6vectorINS_10TensorNameINS_3RotEEESaIS4_EEEC2ERKNSt7__cxx1112basic_stringIcSt11char_traitsIcESaIcEEE
FNDA:3156,_ZN5neml26OptionISt6vectorINS_10TensorNameINS_3SR2EEESaIS4_EEEC2ERKNSt7__cxx1112basic_stringIcSt11char_traitsIcESaIcEEE
FNDA:3156,_ZN5neml26OptionISt6vectorINS_10TensorNameINS_3VecEEESaIS4_EEEC2ERKNSt7__cxx1112basic_stringIcSt11char_traitsIcESaIcEEE
FNDA:3156,_ZN5neml26OptionISt6vectorINS_10TensorNameINS_3WR2EEESaIS4_EEEC2ERKNSt7__cxx1112basic_stringIcSt11char_traitsIcESaIcEEE
FNDA:3156,_ZN5neml26OptionISt6vectorINS_10TensorNameINS_4SFR3EEESaIS4_EEEC2ERKNSt7__cxx1112basic_stringIcSt11char_traitsIcESaIcEEE
FNDA:3156,_ZN5neml26OptionISt6vectorINS_10TensorNameINS_4SSR4EEESaIS4_EEEC2ERKNSt7__cxx1112basic_stringIcSt11char_traitsIcESaIcEEE
FNDA:3156,_ZN5neml26OptionISt6vectorINS_10TensorNameINS_4SWR4EEESaIS4_EEEC2ERKNSt7__cxx1112basic_stringIcSt11char_traitsIcESaIcEEE
FNDA:3156,_ZN5neml26OptionISt6vectorINS_10TensorNameINS_4WSR4EEESaIS4_EEEC2ERKNSt7__cxx1112basic_stringIcSt11char_traitsIcESaIcEEE
FNDA:3156,_ZN5neml26OptionISt6vectorINS_10TensorNameINS_4WWR4EEESaIS4_EEEC2ERKNSt7__cxx1112basic_stringIcSt11char_traitsIcESaIcEEE
FNDA:3156,_ZN5neml26OptionISt6vectorINS_10TensorNameINS_5SFFR4EEESaIS4_EEEC2ERKNSt7__cxx1112basic_stringIcSt11char_traitsIcESaIcEEE
FNDA:3156,_ZN5neml26OptionISt6vectorINS_10TensorNameINS_5WFFR4EEESaIS4_EEEC2ERKNSt7__cxx1112basic_stringIcSt11char_traitsIcESaIcEEE
FNDA:4428,_ZN5neml26OptionISt6vectorINS_10TensorNameINS_6ScalarEEESaIS4_EEEC2ERKNSt7__cxx1112basic_stringIcSt11char_traitsIcESaIcEEE
FNDA:3156,_ZN5neml26OptionISt6vectorINS_10TensorNameINS_6TensorEEESaIS4_EEEC2ERKNSt7__cxx1112basic_stringIcSt11char_traitsIcESaIcEEE
FNDA:62398,_ZN5neml26OptionISt6vectorINSt7__cxx1112basic_stringIcSt11char_traitsIcESaIcEEESaIS7_EEEC2ERKS7_
FNDA:33,_ZN5neml26OptionISt6vectorIS1_IN3c1011SmallVectorIlLj8EEESaIS4_EESaIS6_EEEC2ERKNSt7__cxx1112basic_stringIcSt11char_traitsIcESaIcEEE
FNDA:33,_ZN5neml26OptionISt6vectorIS1_IN3c106DeviceESaIS3_EESaIS5_EEEC2ERKNSt7__cxx1112basic_stringIcSt11char_traitsIcESaIcEEE
FNDA:0,_ZN5neml26OptionISt6vectorIS1_INS_10TensorNameIN2at6TensorEEESaIS5_EESaIS7_EEEC2ERKNSt7__cxx1112basic_stringIcSt11char_traitsIcESaIcEEE
FNDA:0,_ZN5neml26OptionISt6vectorIS1_INS_10TensorNameINS_10QuaternionEEESaIS4_EESaIS6_EEEC2ERKNSt7__cxx1112basic_stringIcSt11char_traitsIcESaIcEEE
FNDA:0,_ZN5neml26OptionISt6vectorIS1_INS_10TensorNameINS_11MillerIndexEEESaIS4_EESaIS6_EEEC2ERKNSt7__cxx1112basic_stringIcSt11char_traitsIcESaIcEEE
FNDA:0,_ZN5neml26OptionISt6vectorIS1_INS_10TensorNameINS_2R2EEESaIS4_EESaIS6_EEEC2ERKNSt7__cxx1112basic_stringIcSt11char_traitsIcESaIcEEE
FNDA:0,_ZN5neml26OptionISt6vectorIS1_INS_10TensorNameINS_2R3EEESaIS4_EESaIS6_EEEC2ERKNSt7__cxx1112basic_stringIcSt11char_traitsIcESaIcEEE
FNDA:0,_ZN5neml26OptionISt6vectorIS1_INS_10TensorNameINS_2R4EEESaIS4_EESaIS6_EEEC2ERKNSt7__cxx1112basic_stringIcSt11char_traitsIcESaIcEEE
FNDA:0,_ZN5neml26OptionISt6vectorIS1_INS_10TensorNameINS_3RotEEESaIS4_EESaIS6_EEEC2ERKNSt7__cxx1112basic_stringIcSt11char_traitsIcESaIcEEE
FNDA:0,_ZN5neml26OptionISt6vectorIS1_INS_10TensorNameINS_3SR2EEESaIS4_EESaIS6_EEEC2ERKNSt7__cxx1112basic_stringIcSt11char_traitsIcESaIcEEE
FNDA:0,_ZN5neml26OptionISt6vectorIS1_INS_10TensorNameINS_3VecEEESaIS4_EESaIS6_EEEC2ERKNSt7__cxx1112basic_stringIcSt11char_traitsIcESaIcEEE
FNDA:0,_ZN5neml26OptionISt6vectorIS1_INS_10TensorNameINS_3WR2EEESaIS4_EESaIS6_EEEC2ERKNSt7__cxx1112basic_stringIcSt11char_traitsIcESaIcEEE
FNDA:0,_ZN5neml26OptionISt6vectorIS1_INS_10TensorNameINS_4SFR3EEESaIS4_EESaIS6_EEEC2ERKNSt7__cxx1112basic_stringIcSt11char_traitsIcESaIcEEE
FNDA:0,_ZN5neml26OptionISt6vectorIS1_INS_10TensorNameINS_4SSR4EEESaIS4_EESaIS6_EEEC2ERKNSt7__cxx1112basic_stringIcSt11char_traitsIcESaIcEEE
FNDA:0,_ZN5neml26OptionISt6vectorIS1_INS_10TensorNameINS_4SWR4EEESaIS4_EESaIS6_EEEC2ERKNSt7__cxx1112basic_stringIcSt11char_traitsIcESaIcEEE
FNDA:0,_ZN5neml26OptionISt6vectorIS1_INS_10TensorNameINS_4WSR4EEESaIS4_EESaIS6_EEEC2ERKNSt7__cxx1112basic_stringIcSt11char_traitsIcESaIcEEE
FNDA:0,_ZN5neml26OptionISt6vectorIS1_INS_10TensorNameINS_4WWR4EEESaIS4_EESaIS6_EEEC2ERKNSt7__cxx1112basic_stringIcSt11char_traitsIcESaIcEEE
FNDA:0,_ZN5neml26OptionISt6vectorIS1_INS_10TensorNameINS_5SFFR4EEESaIS4_EESaIS6_EEEC2ERKNSt7__cxx1112basic_stringIcSt11char_traitsIcESaIcEEE
FNDA:0,_ZN5neml26OptionISt6vectorIS1_INS_10TensorNameINS_5WFFR4EEESaIS4_EESaIS6_EEEC2ERKNSt7__cxx1112basic_stringIcSt11char_traitsIcESaIcEEE
FNDA:0,_ZN5neml26OptionISt6vectorIS1_INS_10TensorNameINS_6ScalarEEESaIS4_EESaIS6_EEEC2ERKNSt7__cxx1112basic_stringIcSt11char_traitsIcESaIcEEE
FNDA:0,_ZN5neml26OptionISt6vectorIS1_INS_10TensorNameINS_6TensorEEESaIS4_EESaIS6_EEEC2ERKNSt7__cxx1112basic_stringIcSt11char_traitsIcESaIcEEE
FNDA:285,_ZN5neml26OptionISt6vectorIS1_INSt7__cxx1112basic_stringIcSt11char_traitsIcESaIcEEESaIS7_EESaIS9_EEEC2ERKS7_
FNDA:33,_ZN5neml26OptionISt6vectorIS1_IbSaIbEESaIS3_EEEC2ERKNSt7__cxx1112basic_stringIcSt11char_traitsIcESaIcEEE
FNDA:33,_ZN5neml26OptionISt6vectorIS1_IdSaIdEESaIS3_EEEC2ERKNSt7__cxx1112basic_stringIcSt11char_traitsIcESaIcEEE
FNDA:33,_ZN5neml26OptionISt6vectorIS1_IiSaIiEESaIS3_EEEC2ERKNSt7__cxx1112basic_stringIcSt11char_traitsIcESaIcEEE
FNDA:33,_ZN5neml26OptionISt6vectorIS1_IjSaIjEESaIS3_EEEC2ERKNSt7__cxx1112basic_stringIcSt11char_traitsIcESaIcEEE
FNDA:0,_ZN5neml26OptionISt6vectorIS1_IlSaIlEESaIS3_EEEC2ERKNSt7__cxx1112basic_stringIcSt11char_traitsIcESaIcEEE
FNDA:0,_ZN5neml26OptionISt6vectorIS1_ImSaImEESaIS3_EEEC2ERKNSt7__cxx1112basic_stringIcSt11char_traitsIcESaIcEEE
FNDA:398,_ZN5neml26OptionISt6vectorIbSaIbEEEC2ERKNSt7__cxx1112basic_stringIcSt11char_traitsIcESaIcEEE
FNDA:1586,_ZN5neml26OptionISt6vectorIdSaIdEEEC2ERKNSt7__cxx1112basic_stringIcSt11char_traitsIcESaIcEEE
FNDA:33,_ZN5neml26OptionISt6vectorIiSaIiEEEC2ERKNSt7__cxx1112basic_stringIcSt11char_traitsIcESaIcEEE
FNDA:1667,_ZN5neml26OptionISt6vectorIjSaIjEEEC2ERKNSt7__cxx1112basic_stringIcSt11char_traitsIcESaIcEEE
FNDA:2078,_ZN5neml26OptionISt6vectorIlSaIlEEEC2ERKNSt7__cxx1112basic_stringIcSt11char_traitsIcESaIcEEE
FNDA:18717,_ZN5neml26OptionISt6vectorImSaImEEEC2ERKNSt7__cxx1112basic_stringIcSt11char_traitsIcESaIcEEE
FNDA:25441,_ZN5neml26OptionIbEC2ERKNSt7__cxx1112basic_stringIcSt11char_traitsIcESaIcEEE
FNDA:9304,_ZN5neml26OptionIdEC2ERKNSt7__cxx1112basic_stringIcSt11char_traitsIcESaIcEEE
FNDA:1667,_ZN5neml26OptionIiEC2ERKNSt7__cxx1112basic_stringIcSt11char_traitsIcESaIcEEE
FNDA:2188,_ZN5neml26OptionIjEC2ERKNSt7__cxx1112basic_stringIcSt11char_traitsIcESaIcEEE
FNDA:2400,_ZN5neml26OptionIlEC2ERKNSt7__cxx1112basic_stringIcSt11char_traitsIcESaIcEEE
FNDA:6,_ZN5neml26OptionImEC2ERKNSt7__cxx1112basic_stringIcSt11char_traitsIcESaIcEEE
FNDA:33,_ZN5neml26OptionIN3c106DeviceEEC2ERKNSt7__cxx1112basic_stringIcSt11char_traitsIcESaIcEEE
FNDA:0,_ZNK5neml26OptionIN3c1011SmallVectorIlLj8EEEEeqERKNS_10OptionBaseE
FNDA:0,_ZNK5neml26OptionIN3c106DeviceEEeqERKNS_10OptionBaseE
FNDA:0,_ZNK5neml26OptionINS_10TensorNameIN2at6TensorEEEEeqERKNS_10OptionBaseE
FNDA:0,_ZNK5neml26OptionINS_10TensorNameINS_10QuaternionEEEEeqERKNS_10OptionBaseE
FNDA:0,_ZNK5neml26OptionINS_10TensorNameINS_11MillerIndexEEEEeqERKNS_10OptionBaseE
FNDA:0,_ZNK5neml26OptionINS_10TensorNameINS_2R2EEEEeqERKNS_10OptionBaseE
FNDA:0,_ZNK5neml26OptionINS_10TensorNameINS_2R3EEEEeqERKNS_10OptionBaseE
FNDA:0,_ZNK5neml26OptionINS_10TensorNameINS_2R4EEEEeqERKNS_10OptionBaseE
FNDA:0,_ZNK5neml26OptionINS_10TensorNameINS_3RotEEEEeqERKNS_10OptionBaseE
FNDA:0,_ZNK5neml26OptionINS_10TensorNameINS_3SR2EEEEeqERKNS_10OptionBaseE
FNDA:0,_ZNK5neml26OptionINS_10TensorNameINS_3VecEEEEeqERKNS_10OptionBaseE
FNDA:0,_ZNK5neml26OptionINS_10TensorNameINS_3WR2EEEEeqERKNS_10OptionBaseE
FNDA:0,_ZNK5neml26OptionINS_10TensorNameINS_4SFR3EEEEeqERKNS_10OptionBaseE
FNDA:0,_ZNK5neml26OptionINS_10TensorNameINS_4SSR4EEEEeqERKNS_10OptionBaseE
FNDA:0,_ZNK5neml26OptionINS_10TensorNameINS_4SWR4EEEEeqERKNS_10OptionBaseE
FNDA:0,_ZNK5neml26OptionINS_10TensorNameINS_4WSR4EEEEeqERKNS_10OptionBaseE
FNDA:0,_ZNK5neml26OptionINS_10TensorNameINS_4WWR4EEEEeqERKNS_10OptionBaseE
FNDA:0,_ZNK5neml26OptionINS_10TensorNameINS_5SFFR4EEEEeqERKNS_10OptionBaseE
FNDA:0,_ZNK5neml26OptionINS_10TensorNameINS_5WFFR4EEEEeqERKNS_10OptionBaseE
FNDA:0,_ZNK5neml26OptionINS_10TensorNameINS_6ScalarEEEEeqERKNS_10OptionBaseE
FNDA:0,_ZNK5neml26OptionINS_10TensorNameINS_6TensorEEEEeqERKNS_10OptionBaseE
FNDA:0,_ZNK5neml26OptionINS_13EnumSelectionEEeqERKNS_10OptionBaseE
FNDA:0,_ZNK5neml26OptionINS_18MultiEnumSelectionEEeqERKNS_10OptionBaseE
FNDA:4,_ZNK5neml26OptionINSt7__cxx1112basic_stringIcSt11char_traitsIcESaIcEEEEeqERKNS_10OptionBaseE
FNDA:8,_ZNK5neml26OptionIPNS_11NEML2ObjectEEeqERKNS_10OptionBaseE
FNDA:2,_ZNK5neml26OptionIPNS_7FactoryEEeqERKNS_10OptionBaseE
FNDA:2,_ZNK5neml26OptionISt10shared_ptrINS_8SettingsEEEeqERKNS_10OptionBaseE
FNDA:0,_ZNK5neml26OptionISt6vectorIN3c1011SmallVectorIlLj8EEESaIS4_EEEeqERKNS_10OptionBaseE
FNDA:0,_ZNK5neml26OptionISt6vectorIN3c106DeviceESaIS3_EEEeqERKNS_10OptionBaseE
FNDA:0,_ZNK5neml26OptionISt6vectorINS_10TensorNameIN2at6TensorEEESaIS5_EEEeqERKNS_10OptionBaseE
FNDA:0,_ZNK5neml26OptionISt6vectorINS_10TensorNameINS_10QuaternionEEESaIS4_EEEeqERKNS_10OptionBaseE
FNDA:0,_ZNK5neml26OptionISt6vectorINS_10TensorNameINS_11MillerIndexEEESaIS4_EEEeqERKNS_10OptionBaseE
FNDA:0,_ZNK5neml26OptionISt6vectorINS_10TensorNameINS_2R2EEESaIS4_EEEeqERKNS_10OptionBaseE
FNDA:0,_ZNK5neml26OptionISt6vectorINS_10TensorNameINS_2R3EEESaIS4_EEEeqERKNS_10OptionBaseE
FNDA:0,_ZNK5neml26OptionISt6vectorINS_10TensorNameINS_2R4EEESaIS4_EEEeqERKNS_10OptionBaseE
FNDA:0,_ZNK5neml26OptionISt6vectorINS_10TensorNameINS_3RotEEESaIS4_EEEeqERKNS_10OptionBaseE
FNDA:0,_ZNK5neml26OptionISt6vectorINS_10TensorNameINS_3SR2EEESaIS4_EEEeqERKNS_10OptionBaseE
FNDA:0,_ZNK5neml26OptionISt6vectorINS_10TensorNameINS_3VecEEESaIS4_EEEeqERKNS_10OptionBaseE
FNDA:0,_ZNK5neml26OptionISt6vectorINS_10TensorNameINS_3WR2EEESaIS4_EEEeqERKNS_10OptionBaseE
FNDA:0,_ZNK5neml26OptionISt6vectorINS_10TensorNameINS_4SFR3EEESaIS4_EEEeqERKNS_10OptionBaseE
FNDA:0,_ZNK5neml26OptionISt6vectorINS_10TensorNameINS_4SSR4EEESaIS4_EEEeqERKNS_10OptionBaseE
FNDA:0,_ZNK5neml26OptionISt6vectorINS_10TensorNameINS_4SWR4EEESaIS4_EEEeqERKNS_10OptionBaseE
FNDA:0,_ZNK5neml26OptionISt6vectorINS_10TensorNameINS_4WSR4EEESaIS4_EEEeqERKNS_10OptionBaseE
FNDA:0,_ZNK5neml26OptionISt6vectorINS_10TensorNameINS_4WWR4EEESaIS4_EEEeqERKNS_10OptionBaseE
FNDA:0,_ZNK5neml26OptionISt6vectorINS_10TensorNameINS_5SFFR4EEESaIS4_EEEeqERKNS_10OptionBaseE
FNDA:0,_ZNK5neml26OptionISt6vectorINS_10TensorNameINS_5WFFR4EEESaIS4_EEEeqERKNS_10OptionBaseE
FNDA:0,_ZNK5neml26OptionISt6vectorINS_10TensorNameINS_6ScalarEEESaIS4_EEEeqERKNS_10OptionBaseE
FNDA:0,_ZNK5neml26OptionISt6vectorINS_10TensorNameINS_6TensorEEESaIS4_EEEeqERKNS_10OptionBaseE
FNDA:0,_ZNK5neml26OptionISt6vectorINSt7__cxx1112basic_stringIcSt11char_traitsIcESaIcEEESaIS7_EEEeqERKNS_10OptionBaseE
FNDA:0,_ZNK5neml26OptionISt6vectorIS1_IN3c1011SmallVectorIlLj8EEESaIS4_EESaIS6_EEEeqERKNS_10OptionBaseE
FNDA:0,_ZNK5neml26OptionISt6vectorIS1_IN3c106DeviceESaIS3_EESaIS5_EEEeqERKNS_10OptionBaseE
FNDA:0,_ZNK5neml26OptionISt6vectorIS1_INS_10TensorNameIN2at6TensorEEESaIS5_EESaIS7_EEEeqERKNS_10OptionBaseE
FNDA:0,_ZNK5neml26OptionISt6vectorIS1_INS_10TensorNameINS_10QuaternionEEESaIS4_EESaIS6_EEEeqERKNS_10OptionBaseE
FNDA:0,_ZNK5neml26OptionISt6vectorIS1_INS_10TensorNameINS_11MillerIndexEEESaIS4_EESaIS6_EEEeqERKNS_10OptionBaseE
FNDA:0,_ZNK5neml26OptionISt6vectorIS1_INS_10TensorNameINS_2R2EEESaIS4_EESaIS6_EEEeqERKNS_10OptionBaseE
FNDA:0,_ZNK5neml26OptionISt6vectorIS1_INS_10TensorNameINS_2R3EEESaIS4_EESaIS6_EEEeqERKNS_10OptionBaseE
FNDA:0,_ZNK5neml26OptionISt6vectorIS1_INS_10TensorNameINS_2R4EEESaIS4_EESaIS6_EEEeqERKNS_10OptionBaseE
FNDA:0,_ZNK5neml26OptionISt6vectorIS1_INS_10TensorNameINS_3RotEEESaIS4_EESaIS6_EEEeqERKNS_10OptionBaseE
FNDA:0,_ZNK5neml26OptionISt6vectorIS1_INS_10TensorNameINS_3SR2EEESaIS4_EESaIS6_EEEeqERKNS_10OptionBaseE
FNDA:0,_ZNK5neml26OptionISt6vectorIS1_INS_10TensorNameINS_3VecEEESaIS4_EESaIS6_EEEeqERKNS_10OptionBaseE
FNDA:0,_ZNK5neml26OptionISt6vectorIS1_INS_10TensorNameINS_3WR2EEESaIS4_EESaIS6_EEEeqERKNS_10OptionBaseE
FNDA:0,_ZNK5neml26OptionISt6vectorIS1_INS_10TensorNameINS_4SFR3EEESaIS4_EESaIS6_EEEeqERKNS_10OptionBaseE
FNDA:0,_ZNK5neml26OptionISt6vectorIS1_INS_10TensorNameINS_4SSR4EEESaIS4_EESaIS6_EEEeqERKNS_10OptionBaseE
FNDA:0,_ZNK5neml26OptionISt6vectorIS1_INS_10TensorNameINS_4SWR4EEESaIS4_EESaIS6_EEEeqERKNS_10OptionBaseE
FNDA:0,_ZNK5neml26OptionISt6vectorIS1_INS_10TensorNameINS_4WSR4EEESaIS4_EESaIS6_EEEeqERKNS_10OptionBaseE
FNDA:0,_ZNK5neml26OptionISt6vectorIS1_INS_10TensorNameINS_4WWR4EEESaIS4_EESaIS6_EEEeqERKNS_10OptionBaseE
FNDA:0,_ZNK5neml26OptionISt6vectorIS1_INS_10TensorNameINS_5SFFR4EEESaIS4_EESaIS6_EEEeqERKNS_10OptionBaseE
FNDA:0,_ZNK5neml26OptionISt6vectorIS1_INS_10TensorNameINS_5WFFR4EEESaIS4_EESaIS6_EEEeqERKNS_10OptionBaseE
FNDA:0,_ZNK5neml26OptionISt6vectorIS1_INS_10TensorNameINS_6ScalarEEESaIS4_EESaIS6_EEEeqERKNS_10OptionBaseE
FNDA:0,_ZNK5neml26OptionISt6vectorIS1_INS_10TensorNameINS_6TensorEEESaIS4_EESaIS6_EEEeqERKNS_10OptionBaseE
FNDA:0,_ZNK5neml26OptionISt6vectorIS1_INSt7__cxx1112basic_stringIcSt11char_traitsIcESaIcEEESaIS7_EESaIS9_EEEeqERKNS_10OptionBaseE
FNDA:0,_ZNK5neml26OptionISt6vectorIS1_IbSaIbEESaIS3_EEEeqERKNS_10OptionBaseE
FNDA:0,_ZNK5neml26OptionISt6vectorIS1_IdSaIdEESaIS3_EEEeqERKNS_10OptionBaseE
FNDA:0,_ZNK5neml26OptionISt6vectorIS1_IiSaIiEESaIS3_EEEeqERKNS_10OptionBaseE
FNDA:0,_ZNK5neml26OptionISt6vectorIS1_IjSaIjEESaIS3_EEEeqERKNS_10OptionBaseE
FNDA:0,_ZNK5neml26OptionISt6vectorIS1_IlSaIlEESaIS3_EEEeqERKNS_10OptionBaseE
FNDA:0,_ZNK5neml26OptionISt6vectorIS1_ImSaImEESaIS3_EEEeqERKNS_10OptionBaseE
FNDA:0,_ZNK5neml26OptionISt6vectorIbSaIbEEEeqERKNS_10OptionBaseE
FNDA:0,_ZNK5neml26OptionISt6vectorIdSaIdEEEeqERKNS_10OptionBaseE
FNDA:0,_ZNK5neml26OptionISt6vectorIiSaIiEEEeqERKNS_10OptionBaseE
FNDA:0,_ZNK5neml26OptionISt6vectorIjSaIjEEEeqERKNS_10OptionBaseE
FNDA:0,_ZNK5neml26OptionISt6vectorIlSaIlEEEeqERKNS_10OptionBaseE
FNDA:0,_ZNK5neml26OptionISt6vectorImSaImEEEeqERKNS_10OptionBaseE
FNDA:10,_ZNK5neml26OptionIbEeqERKNS_10OptionBaseE
FNDA:0,_ZNK5neml26OptionIdEeqERKNS_10OptionBaseE
FNDA:0,_ZNK5neml26OptionIiEeqERKNS_10OptionBaseE
FNDA:0,_ZNK5neml26OptionIjEeqERKNS_10OptionBaseE
FNDA:0,_ZNK5neml26OptionIlEeqERKNS_10OptionBaseE
FNDA:0,_ZNK5neml26OptionImEeqERKNS_10OptionBaseE
FNDA:0,_ZNK5neml26OptionIN3c1011SmallVectorIlLj8EEEEneERKNS_10OptionBaseE
FNDA:0,_ZNK5neml26OptionIN3c106DeviceEEneERKNS_10OptionBaseE
FNDA:0,_ZNK5neml26OptionINS_10TensorNameIN2at6TensorEEEEneERKNS_10OptionBaseE
FNDA:0,_ZNK5neml26OptionINS_10TensorNameINS_10QuaternionEEEEneERKNS_10OptionBaseE
FNDA:0,_ZNK5neml26OptionINS_10TensorNameINS_11MillerIndexEEEEneERKNS_10OptionBaseE
FNDA:0,_ZNK5neml26OptionINS_10TensorNameINS_2R2EEEEneERKNS_10OptionBaseE
FNDA:0,_ZNK5neml26OptionINS_10TensorNameINS_2R3EEEEneERKNS_10OptionBaseE
FNDA:0,_ZNK5neml26OptionINS_10TensorNameINS_2R4EEEEneERKNS_10OptionBaseE
FNDA:0,_ZNK5neml26OptionINS_10TensorNameINS_3RotEEEEneERKNS_10OptionBaseE
FNDA:0,_ZNK5neml26OptionINS_10TensorNameINS_3SR2EEEEneERKNS_10OptionBaseE
FNDA:0,_ZNK5neml26OptionINS_10TensorNameINS_3VecEEEEneERKNS_10OptionBaseE
FNDA:0,_ZNK5neml26OptionINS_10TensorNameINS_3WR2EEEEneERKNS_10OptionBaseE
FNDA:0,_ZNK5neml26OptionINS_10TensorNameINS_4SFR3EEEEneERKNS_10OptionBaseE
FNDA:0,_ZNK5neml26OptionINS_10TensorNameINS_4SSR4EEEEneERKNS_10OptionBaseE
FNDA:0,_ZNK5neml26OptionINS_10TensorNameINS_4SWR4EEEEneERKNS_10OptionBaseE
FNDA:0,_ZNK5neml26OptionINS_10TensorNameINS_4WSR4EEEEneERKNS_10OptionBaseE
FNDA:0,_ZNK5neml26OptionINS_10TensorNameINS_4WWR4EEEEneERKNS_10OptionBaseE
FNDA:0,_ZNK5neml26OptionINS_10TensorNameINS_5SFFR4EEEEneERKNS_10OptionBaseE
FNDA:0,_ZNK5neml26OptionINS_10TensorNameINS_5WFFR4EEEEneERKNS_10OptionBaseE
FNDA:0,_ZNK5neml26OptionINS_10TensorNameINS_6ScalarEEEEneERKNS_10OptionBaseE
FNDA:0,_ZNK5neml26OptionINS_10TensorNameINS_6TensorEEEEneERKNS_10OptionBaseE
FNDA:0,_ZNK5neml26OptionINS_13EnumSelectionEEneERKNS_10OptionBaseE
FNDA:0,_ZNK5neml26OptionINS_18MultiEnumSelectionEEneERKNS_10OptionBaseE
FNDA:4,_ZNK5neml26OptionINSt7__cxx1112basic_stringIcSt11char_traitsIcESaIcEEEEneERKNS_10OptionBaseE
FNDA:8,_ZNK5neml26OptionIPNS_11NEML2ObjectEEneERKNS_10OptionBaseE
FNDA:2,_ZNK5neml26OptionIPNS_7FactoryEEneERKNS_10OptionBaseE
FNDA:2,_ZNK5neml26OptionISt10shared_ptrINS_8SettingsEEEneERKNS_10OptionBaseE
FNDA:0,_ZNK5neml26OptionISt6vectorIN3c1011SmallVectorIlLj8EEESaIS4_EEEneERKNS_10OptionBaseE
FNDA:0,_ZNK5neml26OptionISt6vectorIN3c106DeviceESaIS3_EEEneERKNS_10OptionBaseE
FNDA:0,_ZNK5neml26OptionISt6vectorINS_10TensorNameIN2at6TensorEEESaIS5_EEEneERKNS_10OptionBaseE
FNDA:0,_ZNK5neml26OptionISt6vectorINS_10TensorNameINS_10QuaternionEEESaIS4_EEEneERKNS_10OptionBaseE
FNDA:0,_ZNK5neml26OptionISt6vectorINS_10TensorNameINS_11MillerIndexEEESaIS4_EEEneERKNS_10OptionBaseE
FNDA:0,_ZNK5neml26OptionISt6vectorINS_10TensorNameINS_2R2EEESaIS4_EEEneERKNS_10OptionBaseE
FNDA:0,_ZNK5neml26OptionISt6vectorINS_10TensorNameINS_2R3EEESaIS4_EEEneERKNS_10OptionBaseE
FNDA:0,_ZNK5neml26OptionISt6vectorINS_10TensorNameINS_2R4EEESaIS4_EEEneERKNS_10OptionBaseE
FNDA:0,_ZNK5neml26OptionISt6vectorINS_10TensorNameINS_3RotEEESaIS4_EEEneERKNS_10OptionBaseE
FNDA:0,_ZNK5neml26OptionISt6vectorINS_10TensorNameINS_3SR2EEESaIS4_EEEneERKNS_10OptionBaseE
FNDA:0,_ZNK5neml26OptionISt6vectorINS_10TensorNameINS_3VecEEESaIS4_EEEneERKNS_10OptionBaseE
FNDA:0,_ZNK5neml26OptionISt6vectorINS_10TensorNameINS_3WR2EEESaIS4_EEEneERKNS_10OptionBaseE
FNDA:0,_ZNK5neml26OptionISt6vectorINS_10TensorNameINS_4SFR3EEESaIS4_EEEneERKNS_10OptionBaseE
FNDA:0,_ZNK5neml26OptionISt6vectorINS_10TensorNameINS_4SSR4EEESaIS4_EEEneERKNS_10OptionBaseE
FNDA:0,_ZNK5neml26OptionISt6vectorINS_10TensorNameINS_4SWR4EEESaIS4_EEEneERKNS_10OptionBaseE
FNDA:0,_ZNK5neml26OptionISt6vectorINS_10TensorNameINS_4WSR4EEESaIS4_EEEneERKNS_10OptionBaseE
FNDA:0,_ZNK5neml26OptionISt6vectorINS_10TensorNameINS_4WWR4EEESaIS4_EEEneERKNS_10OptionBaseE
FNDA:0,_ZNK5neml26OptionISt6vectorINS_10TensorNameINS_5SFFR4EEESaIS4_EEEneERKNS_10OptionBaseE
FNDA:0,_ZNK5neml26OptionISt6vectorINS_10TensorNameINS_5WFFR4EEESaIS4_EEEneERKNS_10OptionBaseE
FNDA:0,_ZNK5neml26OptionISt6vectorINS_10TensorNameINS_6ScalarEEESaIS4_EEEneERKNS_10OptionBaseE
FNDA:0,_ZNK5neml26OptionISt6vectorINS_10TensorNameINS_6TensorEEESaIS4_EEEneERKNS_10OptionBaseE
FNDA:0,_ZNK5neml26OptionISt6vectorINSt7__cxx1112basic_stringIcSt11char_traitsIcESaIcEEESaIS7_EEEneERKNS_10OptionBaseE
FNDA:0,_ZNK5neml26OptionISt6vectorIS1_IN3c1011SmallVectorIlLj8EEESaIS4_EESaIS6_EEEneERKNS_10OptionBaseE
FNDA:0,_ZNK5neml26OptionISt6vectorIS1_IN3c106DeviceESaIS3_EESaIS5_EEEneERKNS_10OptionBaseE
FNDA:0,_ZNK5neml26OptionISt6vectorIS1_INS_10TensorNameIN2at6TensorEEESaIS5_EESaIS7_EEEneERKNS_10OptionBaseE
FNDA:0,_ZNK5neml26OptionISt6vectorIS1_INS_10TensorNameINS_10QuaternionEEESaIS4_EESaIS6_EEEneERKNS_10OptionBaseE
FNDA:0,_ZNK5neml26OptionISt6vectorIS1_INS_10TensorNameINS_11MillerIndexEEESaIS4_EESaIS6_EEEneERKNS_10OptionBaseE
FNDA:0,_ZNK5neml26OptionISt6vectorIS1_INS_10TensorNameINS_2R2EEESaIS4_EESaIS6_EEEneERKNS_10OptionBaseE
FNDA:0,_ZNK5neml26OptionISt6vectorIS1_INS_10TensorNameINS_2R3EEESaIS4_EESaIS6_EEEneERKNS_10OptionBaseE
FNDA:0,_ZNK5neml26OptionISt6vectorIS1_INS_10TensorNameINS_2R4EEESaIS4_EESaIS6_EEEneERKNS_10OptionBaseE
FNDA:0,_ZNK5neml26OptionISt6vectorIS1_INS_10TensorNameINS_3RotEEESaIS4_EESaIS6_EEEneERKNS_10OptionBaseE
FNDA:0,_ZNK5neml26OptionISt6vectorIS1_INS_10TensorNameINS_3SR2EEESaIS4_EESaIS6_EEEneERKNS_10OptionBaseE
FNDA:0,_ZNK5neml26OptionISt6vectorIS1_INS_10TensorNameINS_3VecEEESaIS4_EESaIS6_EEEneERKNS_10OptionBaseE
FNDA:0,_ZNK5neml26OptionISt6vectorIS1_INS_10TensorNameINS_3WR2EEESaIS4_EESaIS6_EEEneERKNS_10OptionBaseE
FNDA:0,_ZNK5neml26OptionISt6vectorIS1_INS_10TensorNameINS_4SFR3EEESaIS4_EESaIS6_EEEneERKNS_10OptionBaseE
FNDA:0,_ZNK5neml26OptionISt6vectorIS1_INS_10TensorNameINS_4SSR4EEESaIS4_EESaIS6_EEEneERKNS_10OptionBaseE
FNDA:0,_ZNK5neml26OptionISt6vectorIS1_INS_10TensorNameINS_4SWR4EEESaIS4_EESaIS6_EEEneERKNS_10OptionBaseE
FNDA:0,_ZNK5neml26OptionISt6vectorIS1_INS_10TensorNameINS_4WSR4EEESaIS4_EESaIS6_EEEneERKNS_10OptionBaseE
FNDA:0,_ZNK5neml26OptionISt6vectorIS1_INS_10TensorNameINS_4WWR4EEESaIS4_EESaIS6_EEEneERKNS_10OptionBaseE
FNDA:0,_ZNK5neml26OptionISt6vectorIS1_INS_10TensorNameINS_5SFFR4EEESaIS4_EESaIS6_EEEneERKNS_10OptionBaseE
FNDA:0,_ZNK5neml26OptionISt6vectorIS1_INS_10TensorNameINS_5WFFR4EEESaIS4_EESaIS6_EEEneERKNS_10OptionBaseE
FNDA:0,_ZNK5neml26OptionISt6vectorIS1_INS_10TensorNameINS_6ScalarEEESaIS4_EESaIS6_EEEneERKNS_10OptionBaseE
FNDA:0,_ZNK5neml26OptionISt6vectorIS1_INS_10TensorNameINS_6TensorEEESaIS4_EESaIS6_EEEneERKNS_10OptionBaseE
FNDA:0,_ZNK5neml26OptionISt6vectorIS1_INSt7__cxx1112basic_stringIcSt11char_traitsIcESaIcEEESaIS7_EESaIS9_EEEneERKNS_10OptionBaseE
FNDA:0,_ZNK5neml26OptionISt6vectorIS1_IbSaIbEESaIS3_EEEneERKNS_10OptionBaseE
FNDA:0,_ZNK5neml26OptionISt6vectorIS1_IdSaIdEESaIS3_EEEneERKNS_10OptionBaseE
FNDA:0,_ZNK5neml26OptionISt6vectorIS1_IiSaIiEESaIS3_EEEneERKNS_10OptionBaseE
FNDA:0,_ZNK5neml26OptionISt6vectorIS1_IjSaIjEESaIS3_EEEneERKNS_10OptionBaseE
FNDA:0,_ZNK5neml26OptionISt6vectorIS1_IlSaIlEESaIS3_EEEneERKNS_10OptionBaseE
FNDA:0,_ZNK5neml26OptionISt6vectorIS1_ImSaImEESaIS3_EEEneERKNS_10OptionBaseE
FNDA:0,_ZNK5neml26OptionISt6vectorIbSaIbEEEneERKNS_10OptionBaseE
FNDA:0,_ZNK5neml26OptionISt6vectorIdSaIdEEEneERKNS_10OptionBaseE
FNDA:0,_ZNK5neml26OptionISt6vectorIiSaIiEEEneERKNS_10OptionBaseE
FNDA:0,_ZNK5neml26OptionISt6vectorIjSaIjEEEneERKNS_10OptionBaseE
FNDA:0,_ZNK5neml26OptionISt6vectorIlSaIlEEEneERKNS_10OptionBaseE
FNDA:0,_ZNK5neml26OptionISt6vectorImSaImEEEneERKNS_10OptionBaseE
FNDA:10,_ZNK5neml26OptionIbEneERKNS_10OptionBaseE
FNDA:0,_ZNK5neml26OptionIdEneERKNS_10OptionBaseE
FNDA:0,_ZNK5neml26OptionIiEneERKNS_10OptionBaseE
FNDA:0,_ZNK5neml26OptionIjEneERKNS_10OptionBaseE
FNDA:0,_ZNK5neml26OptionIlEneERKNS_10OptionBaseE
FNDA:0,_ZNK5neml26OptionImEneERKNS_10OptionBaseE
FNDA:3547,_ZNK5neml26OptionIN3c1011SmallVectorIlLj8EEEE5cloneEv
FNDA:32,_ZNK5neml26OptionIN3c106DeviceEE5cloneEv
FNDA:0,_ZNK5neml26OptionINS_10TensorNameIN2at6TensorEEEE5cloneEv
FNDA:16,_ZNK5neml26OptionINS_10TensorNameINS_10QuaternionEEEE5cloneEv
FNDA:290,_ZNK5neml26OptionINS_10TensorNameINS_11MillerIndexEEEE5cloneEv
FNDA:153,_ZNK5neml26OptionINS_10TensorNameINS_2R2EEEE5cloneEv
FNDA:16,_ZNK5neml26OptionINS_10TensorNameINS_2R3EEEE5cloneEv
FNDA:16,_ZNK5neml26OptionINS_10TensorNameINS_2R4EEEE5cloneEv
FNDA:16,_ZNK5neml26OptionINS_10TensorNameINS_3RotEEEE5cloneEv
FNDA:142,_ZNK5neml26OptionINS_10TensorNameINS_3SR2EEEE5cloneEv
FNDA:177,_ZNK5neml26OptionINS_10TensorNameINS_3VecEEEE5cloneEv
FNDA:16,_ZNK5neml26OptionINS_10TensorNameINS_3WR2EEEE5cloneEv
FNDA:16,_ZNK5neml26OptionINS_10TensorNameINS_4SFR3EEEE5cloneEv
FNDA:43,_ZNK5neml26OptionINS_10TensorNameINS_4SSR4EEEE5cloneEv
FNDA:16,_ZNK5neml26OptionINS_10TensorNameINS_4SWR4EEEE5cloneEv
FNDA:16,_ZNK5neml26OptionINS_10TensorNameINS_4WSR4EEEE5cloneEv
FNDA:16,_ZNK5neml26OptionINS_10TensorNameINS_4WWR4EEEE5cloneEv
FNDA:16,_ZNK5neml26OptionINS_10TensorNameINS_5SFFR4EEEE5cloneEv
FNDA:16,_ZNK5neml26OptionINS_10TensorNameINS_5WFFR4EEEE5cloneEv
FNDA:2299,_ZNK5neml26OptionINS_10TensorNameINS_6ScalarEEEE5cloneEv
FNDA:48,_ZNK5neml26OptionINS_10TensorNameINS_6TensorEEEE5cloneEv
FNDA:3092,_ZNK5neml26OptionINS_13EnumSelectionEE5cloneEv
FNDA:7024,_ZNK5neml26OptionINS_18MultiEnumSelectionEE5cloneEv
FNDA:11050,_ZNK5neml26OptionINSt7__cxx1112basic_stringIcSt11char_traitsIcESaIcEEEE5cloneEv
FNDA:11495,_ZNK5neml26OptionIPNS_11NEML2ObjectEE5cloneEv
FNDA:11179,_ZNK5neml26OptionIPNS_7FactoryEE5cloneEv
FNDA:11179,_ZNK5neml26OptionISt10shared_ptrINS_8SettingsEEE5cloneEv
FNDA:6766,_ZNK5neml26OptionISt6vectorIN3c1011SmallVectorIlLj8EEESaIS4_EEE5cloneEv
FNDA:36,_ZNK5neml26OptionISt6vectorIN3c106DeviceESaIS3_EEE5cloneEv
FNDA:0,_ZNK5neml26OptionISt6vectorINS_10TensorNameIN2at6TensorEEESaIS5_EEE5cloneEv
FNDA:3150,_ZNK5neml26OptionISt6vectorINS_10TensorNameINS_10QuaternionEEESaIS4_EEE5cloneEv
FNDA:3150,_ZNK5neml26OptionISt6vectorINS_10TensorNameINS_11MillerIndexEEESaIS4_EEE5cloneEv
FNDA:3150,_ZNK5neml26OptionISt6vectorINS_10TensorNameINS_2R2EEESaIS4_EEE5cloneEv
FNDA:3150,_ZNK5neml26OptionISt6vectorINS_10TensorNameINS_2R3EEESaIS4_EEE5cloneEv
FNDA:3150,_ZNK5neml26OptionISt6vectorINS_10TensorNameINS_2R4EEESaIS4_EEE5cloneEv
FNDA:3150,_ZNK5neml26OptionISt6vectorINS_10TensorNameINS_3RotEEESaIS4_EEE5cloneEv
FNDA:3150,_ZNK5neml26OptionISt6vectorINS_10TensorNameINS_3SR2EEESaIS4_EEE5cloneEv
FNDA:3150,_ZNK5neml26OptionISt6vectorINS_10TensorNameINS_3VecEEESaIS4_EEE5cloneEv
FNDA:3150,_ZNK5neml26OptionISt6vectorINS_10TensorNameINS_3WR2EEESaIS4_EEE5cloneEv
FNDA:3150,_ZNK5neml26OptionISt6vectorINS_10TensorNameINS_4SFR3EEESaIS4_EEE5cloneEv
FNDA:3150,_ZNK5neml26OptionISt6vectorINS_10TensorNameINS_4SSR4EEESaIS4_EEE5cloneEv
FNDA:3150,_ZNK5neml26OptionISt6vectorINS_10TensorNameINS_4SWR4EEESaIS4_EEE5cloneEv
FNDA:3150,_ZNK5neml26OptionISt6vectorINS_10TensorNameINS_4WSR4EEESaIS4_EEE5cloneEv
FNDA:3150,_ZNK5neml26OptionISt6vectorINS_10TensorNameINS_4WWR4EEESaIS4_EEE5cloneEv
FNDA:3150,_ZNK5neml26OptionISt6vectorINS_10TensorNameINS_5SFFR4EEESaIS4_EEE5cloneEv
FNDA:3150,_ZNK5neml26OptionISt6vectorINS_10TensorNameINS_5WFFR4EEESaIS4_EEE5cloneEv
FNDA:4407,_ZNK5neml26OptionISt6vectorINS_10TensorNameINS_6ScalarEEESaIS4_EEE5cloneEv
FNDA:3150,_ZNK5neml26OptionISt6vectorINS_10TensorNameINS_6TensorEEESaIS4_EEE5cloneEv
FNDA:61915,_ZNK5neml26OptionISt6vectorINSt7__cxx1112basic_stringIcSt11char_traitsIcESaIcEEESaIS7_EEE5cloneEv
FNDA:32,_ZNK5neml26OptionISt6vectorIS1_IN3c1011SmallVectorIlLj8EEESaIS4_EESaIS6_EEE5cloneEv
FNDA:32,_ZNK5neml26OptionISt6vectorIS1_IN3c106DeviceESaIS3_EESaIS5_EEE5cloneEv
FNDA:0,_ZNK5neml26OptionISt6vectorIS1_INS_10TensorNameIN2at6TensorEEESaIS5_EESaIS7_EEE5cloneEv
FNDA:0,_ZNK5neml26OptionISt6vectorIS1_INS_10TensorNameINS_10QuaternionEEESaIS4_EESaIS6_EEE5cloneEv
FNDA:0,_ZNK5neml26OptionISt6vectorIS1_INS_10TensorNameINS_11MillerIndexEEESaIS4_EESaIS6_EEE5cloneEv
FNDA:0,_ZNK5neml26OptionISt6vectorIS1_INS_10TensorNameINS_2R2EEESaIS4_EESaIS6_EEE5cloneEv
FNDA:0,_ZNK5neml26OptionISt6vectorIS1_INS_10TensorNameINS_2R3EEESaIS4_EESaIS6_EEE5cloneEv
FNDA:0,_ZNK5neml26OptionISt6vectorIS1_INS_10TensorNameINS_2R4EEESaIS4_EESaIS6_EEE5cloneEv
FNDA:0,_ZNK5neml26OptionISt6vectorIS1_INS_10TensorNameINS_3RotEEESaIS4_EESaIS6_EEE5cloneEv
FNDA:0,_ZNK5neml26OptionISt6vectorIS1_INS_10TensorNameINS_3SR2EEESaIS4_EESaIS6_EEE5cloneEv
FNDA:0,_ZNK5neml26OptionISt6vectorIS1_INS_10TensorNameINS_3VecEEESaIS4_EESaIS6_EEE5cloneEv
FNDA:0,_ZNK5neml26OptionISt6vectorIS1_INS_10TensorNameINS_3WR2EEESaIS4_EESaIS6_EEE5cloneEv
FNDA:0,_ZNK5neml26OptionISt6vectorIS1_INS_10TensorNameINS_4SFR3EEESaIS4_EESaIS6_EEE5cloneEv
FNDA:0,_ZNK5neml26OptionISt6vectorIS1_INS_10TensorNameINS_4SSR4EEESaIS4_EESaIS6_EEE5cloneEv
FNDA:0,_ZNK5neml26OptionISt6vectorIS1_INS_10TensorNameINS_4SWR4EEESaIS4_EESaIS6_EEE5cloneEv
FNDA:0,_ZNK5neml26OptionISt6vectorIS1_INS_10TensorNameINS_4WSR4EEESaIS4_EESaIS6_EEE5cloneEv
FNDA:0,_ZNK5neml26OptionISt6vectorIS1_INS_10TensorNameINS_4WWR4EEESaIS4_EESaIS6_EEE5cloneEv
FNDA:0,_ZNK5neml26OptionISt6vectorIS1_INS_10TensorNameINS_5SFFR4EEESaIS4_EESaIS6_EEE5cloneEv
FNDA:0,_ZNK5neml26OptionISt6vectorIS1_INS_10TensorNameINS_5WFFR4EEESaIS4_EESaIS6_EEE5cloneEv
FNDA:0,_ZNK5neml26OptionISt6vectorIS1_INS_10TensorNameINS_6ScalarEEESaIS4_EESaIS6_EEE5cloneEv
FNDA:0,_ZNK5neml26OptionISt6vectorIS1_INS_10TensorNameINS_6TensorEEESaIS4_EESaIS6_EEE5cloneEv
FNDA:282,_ZNK5neml26OptionISt6vectorIS1_INSt7__cxx1112basic_stringIcSt11char_traitsIcESaIcEEESaIS7_EESaIS9_EEE5cloneEv
FNDA:32,_ZNK5neml26OptionISt6vectorIS1_IbSaIbEESaIS3_EEE5cloneEv
FNDA:32,_ZNK5neml26OptionISt6vectorIS1_IdSaIdEESaIS3_EEE5cloneEv
FNDA:32,_ZNK5neml26OptionISt6vectorIS1_IiSaIiEESaIS3_EEE5cloneEv
FNDA:32,_ZNK5neml26OptionISt6vectorIS1_IjSaIjEESaIS3_EEE5cloneEv
FNDA:0,_ZNK5neml26OptionISt6vectorIS1_IlSaIlEESaIS3_EEE5cloneEv
FNDA:0,_ZNK5neml26OptionISt6vectorIS1_ImSaImEESaIS3_EEE5cloneEv
FNDA:386,_ZNK5neml26OptionISt6vectorIbSaIbEEE5cloneEv
FNDA:1561,_ZNK5neml26OptionISt6vectorIdSaIdEEE5cloneEv
FNDA:32,_ZNK5neml26OptionISt6vectorIiSaIiEEE5cloneEv
FNDA:1662,_ZNK5neml26OptionISt6vectorIjSaIjEEE5cloneEv
FNDA:2076,_ZNK5neml26OptionISt6vectorIlSaIlEEE5cloneEv
FNDA:18694,_ZNK5neml26OptionISt6vectorImSaImEEE5cloneEv
FNDA:22643,_ZNK5neml26OptionIbE5cloneEv
FNDA:9193,_ZNK5neml26OptionIdE5cloneEv
FNDA:1662,_ZNK5neml26OptionIiE5cloneEv
FNDA:2106,_ZNK5neml26OptionIjE5cloneEv
FNDA:2216,_ZNK5neml26OptionIlE5cloneEv
FNDA:4,_ZNK5neml26OptionImE5cloneEv
FNF:359
FNH:142
DA:39,261161
DA:40,261161
DA:42,261161
DA:43,261161
DA:44,261161
DA:47,33
DA:48,33
DA:50,33
DA:51,33
DA:52,33
DA:56,26
DA:58,26
DA:59,26
DA:60,0
DA:62,26
DA:67,26
DA:69,26
DA:83,251309
DA:85,251309
DA:86,251309
DA:87,251309
DA:88,502618
DA:89,251309
DA:148,0
DA:150,0
DA:151,0
DA:155,0
DA:157,0
DA:158,0
DA:162,0
DA:164,0
DA:165,0
DA:166,0
LF:33
LH:22
end_of_record
TN:
SF:/home/runner/work/neml2/neml2/src/neml2/base/OptionBase.cxx
FN:30,34,_ZN5neml2lsERSoRKNS_10OptionBaseE
FNDA:0,_ZN5neml2lsERSoRKNS_10OptionBaseE
FNF:1
FNH:0
DA:30,0
DA:32,0
DA:33,0
LF:3
LH:0
end_of_record
TN:
SF:/home/runner/work/neml2/neml2/src/neml2/base/OptionSet.cxx
FN:104,107,_ZN5neml29OptionSet5clearEv
FN:109,109,_ZN5neml29OptionSetC2ERKS0_
FN:111,111,_ZN5neml29OptionSetC2EOS0_
FN:114,120,_ZN5neml29OptionSetaSERKS0_
FN:123,129,_ZN5neml29OptionSetaSEOS0_
FN:132,136,_ZN5neml29OptionSetpLERKS0_
FN:139,143,_ZN5neml29OptionSetpLEOS0_
FN:146,149,_ZN5neml29OptionSet9add_inputERKNSt7__cxx1112basic_stringIcSt11char_traitsIcESaIcEEES8_S6_
FN:152,155,_ZN5neml29OptionSet9add_inputERKNSt7__cxx1112basic_stringIcSt11char_traitsIcESaIcEEES6_
FN:158,161,_ZN5neml29OptionSet18add_optional_inputERKNSt7__cxx1112basic_stringIcSt11char_traitsIcESaIcEEES6_
FN:164,167,_ZN5neml29OptionSet10add_outputERKNSt7__cxx1112basic_stringIcSt11char_traitsIcESaIcEEES8_S6_
FN:170,173,_ZN5neml29OptionSet10add_outputERKNSt7__cxx1112basic_stringIcSt11char_traitsIcESaIcEEES6_
FN:176,179,_ZN5neml29OptionSet19add_optional_outputERKNSt7__cxx1112basic_stringIcSt11char_traitsIcESaIcEEES6_
FN:231,234,_ZN5neml29OptionSet5beginB5cxx11Ev
FN:237,240,_ZNK5neml29OptionSet5beginB5cxx11Ev
FN:243,246,_ZN5neml29OptionSet3endB5cxx11Ev
FN:249,252,_ZNK5neml29OptionSet3endB5cxx11Ev
FN:33,43,_ZN5neml218options_compatibleERKNS_9OptionSetES2_
FN:46,49,_ZNK5neml29OptionSet8containsERKNSt7__cxx1112basic_stringIcSt11char_traitsIcESaIcEEE
FN:52,60,_ZNK5neml29OptionSet14user_specifiedERKNSt7__cxx1112basic_stringIcSt11char_traitsIcESaIcEEE
FN:63,71,_ZNK5neml29OptionSet7definedERKNSt7__cxx1112basic_stringIcSt11char_traitsIcESaIcEEE
FN:74,85,_ZN5neml29OptionSet8suppressERKNSt7__cxx1112basic_stringIcSt11char_traitsIcESaIcEEE
FN:88,101,_ZNK5neml29OptionSet3getERKNSt7__cxx1112basic_stringIcSt11char_traitsIcESaIcEEE
FNDA:11180,_ZN5neml29OptionSet5clearEv
FNDA:8250,_ZN5neml29OptionSetC2ERKS0_
FNDA:0,_ZN5neml29OptionSetC2EOS0_
FNDA:10655,_ZN5neml29OptionSetaSERKS0_
FNDA:525,_ZN5neml29OptionSetaSEOS0_
FNDA:12670,_ZN5neml29OptionSetpLERKS0_
FNDA:7,_ZN5neml29OptionSetpLEOS0_
FNDA:15,_ZN5neml29OptionSet9add_inputERKNSt7__cxx1112basic_stringIcSt11char_traitsIcESaIcEEES8_S6_
FNDA:347,_ZN5neml29OptionSet9add_inputERKNSt7__cxx1112basic_stringIcSt11char_traitsIcESaIcEEES6_
FNDA:13,_ZN5neml29OptionSet18add_optional_inputERKNSt7__cxx1112basic_stringIcSt11char_traitsIcESaIcEEES6_
FNDA:1,_ZN5neml29OptionSet10add_outputERKNSt7__cxx1112basic_stringIcSt11char_traitsIcESaIcEEES8_S6_
FNDA:291,_ZN5neml29OptionSet10add_outputERKNSt7__cxx1112basic_stringIcSt11char_traitsIcESaIcEEES6_
FNDA:26,_ZN5neml29OptionSet19add_optional_outputERKNSt7__cxx1112basic_stringIcSt11char_traitsIcESaIcEEES6_
FNDA:8191,_ZN5neml29OptionSet5beginB5cxx11Ev
FNDA:8,_ZNK5neml29OptionSet5beginB5cxx11Ev
FNDA:8191,_ZN5neml29OptionSet3endB5cxx11Ev
FNDA:8,_ZNK5neml29OptionSet3endB5cxx11Ev
FNDA:8,_ZN5neml218options_compatibleERKNS_9OptionSetES2_
FNDA:60784,_ZNK5neml29OptionSet8containsERKNSt7__cxx1112basic_stringIcSt11char_traitsIcESaIcEEE
FNDA:3528,_ZNK5neml29OptionSet14user_specifiedERKNSt7__cxx1112basic_stringIcSt11char_traitsIcESaIcEEE
FNDA:408,_ZNK5neml29OptionSet7definedERKNSt7__cxx1112basic_stringIcSt11char_traitsIcESaIcEEE
FNDA:73,_ZN5neml29OptionSet8suppressERKNSt7__cxx1112basic_stringIcSt11char_traitsIcESaIcEEE
FNDA:30,_ZNK5neml29OptionSet3getERKNSt7__cxx1112basic_stringIcSt11char_traitsIcESaIcEEE
FNF:23
FNH:22
DA:33,8
DA:35,34
DA:37,26
DA:38,0
DA:39,26
DA:40,0
DA:42,8
DA:46,60784
DA:48,60784
DA:52,3528
DA:54,3528
DA:59,3528
DA:63,408
DA:65,408
DA:70,408
DA:74,73
DA:76,73
DA:81,73
DA:82,73
DA:83,73
DA:84,73
DA:85,73
DA:88,30
DA:90,30
DA:96,30
DA:97,30
DA:98,0
DA:99,0
DA:100,30
DA:104,11180
DA:106,11180
DA:107,11180
DA:109,8250
DA:111,0
DA:114,10655
DA:116,10655
DA:117,10655
DA:118,10655
DA:119,10655
DA:123,525
DA:125,525
DA:126,525
DA:127,525
DA:128,525
DA:132,12670
DA:134,263952
DA:135,251282
DA:136,12670
DA:139,7
DA:141,34
DA:142,27
DA:143,7
DA:146,15
DA:148,15
DA:149,15
DA:152,347
DA:154,347
DA:155,347
DA:158,13
DA:160,13
DA:161,13
DA:164,1
DA:166,1
DA:167,1
DA:170,291
DA:172,291
DA:173,291
DA:176,26
DA:178,26
DA:179,26
DA:231,8191
DA:233,8191
DA:237,8
DA:239,8
DA:243,8191
DA:245,8191
DA:249,8
DA:251,8
LF:78
LH:73
end_of_record
TN:
SF:/home/runner/work/neml2/neml2/src/neml2/base/Parser.cxx
FN:40,67,_ZN5neml25utils5parseIN3c1011SmallVectorIlLj8EEEEET_RKNSt7__cxx1112basic_stringIcSt11char_traitsIcESaIcEEE
FN:71,81,_ZN5neml25utils5parseIN3c106DeviceEEET_RKNSt7__cxx1112basic_stringIcSt11char_traitsIcESaIcEEE
FNDA:318,_ZN5neml25utils5parseIN3c1011SmallVectorIlLj8EEEEET_RKNSt7__cxx1112basic_stringIcSt11char_traitsIcESaIcEEE
FNDA:90,_ZN5neml25utils5parseIN3c106DeviceEEET_RKNSt7__cxx1112basic_stringIcSt11char_traitsIcESaIcEEE
FNF:2
FNH:2
DA:40,318
DA:42,318
DA:43,2
DA:44,3
DA:46,634
DA:47,317
DA:49,317
DA:50,791
DA:52,474
DA:55,474
DA:56,474
DA:57,0
DA:58,0
DA:60,0
DA:62,0
DA:63,0
DA:64,0
DA:66,634
DA:67,317
DA:71,90
DA:75,90
DA:77,0
DA:79,0
DA:80,0
LF:24
LH:15
end_of_record
TN:
SF:/home/runner/work/neml2/neml2/src/neml2/base/Registry.cxx
FN:36,40,_ZN5neml28Registry3getEv
FN:43,67,_ZN5neml28Registry4loadERKNSt10filesystem7__cxx114pathE
FN:70,73,_ZN5neml28Registry4infoB5cxx11Ev
FN:76,83,_ZN5neml28Registry4infoERKNSt7__cxx1112basic_stringIcSt11char_traitsIcESaIcEEE
FN:86,98,_ZN5neml28Registry9add_innerERKNSt7__cxx1112basic_stringIcSt11char_traitsIcESaIcEEES8_NS_9OptionSetEPFSt10shared_ptrINS_11NEML2ObjectEERKS9_E
FNDA:4355,_ZN5neml28Registry3getEv
FNDA:0,_ZN5neml28Registry4loadERKNSt10filesystem7__cxx114pathE
FNDA:0,_ZN5neml28Registry4infoB5cxx11Ev
FNDA:3895,_ZN5neml28Registry4infoERKNSt7__cxx1112basic_stringIcSt11char_traitsIcESaIcEEE
FNDA:460,_ZN5neml28Registry9add_innerERKNSt7__cxx1112basic_stringIcSt11char_traitsIcESaIcEEES8_NS_9OptionSetEPFSt10shared_ptrINS_11NEML2ObjectEERKS9_E
FNF:5
FNH:3
DA:36,4355
DA:38,4355
DA:39,4355
DA:43,0
DA:48,0
DA:51,0
DA:52,0
DA:53,0
DA:54,0
DA:56,0
DA:59,0
DA:60,0
DA:62,0
DA:66,0
DA:67,0
DA:70,0
DA:72,0
DA:76,3895
DA:78,3895
DA:79,3895
DA:80,3895
DA:81,0
DA:82,3895
DA:86,460
DA:91,460
DA:92,460
DA:93,460
DA:97,460
DA:98,460
LF:29
LH:14
end_of_record
TN:
SF:/home/runner/work/neml2/neml2/src/neml2/base/Settings.cxx
FN:116,132,_ZN5neml28SettingsC2ERKNS_9OptionSetE
FN:32,114,_ZN5neml28Settings16expected_optionsEv
FNDA:352,_ZN5neml28SettingsC2ERKNS_9OptionSetE
FNDA:352,_ZN5neml28Settings16expected_optionsEv
FNF:2
FNH:2
DA:32,352
DA:34,352
DA:35,352
DA:38,352
DA:40,352
DA:42,2112
DA:48,2112
DA:54,2112
DA:61,2112
DA:66,2112
DA:72,2112
DA:78,2112
DA:84,1056
DA:85,704
DA:90,1408
DA:98,1056
DA:100,704
DA:106,704
DA:108,704
DA:113,352
DA:114,0
DA:116,352
DA:117,704
DA:118,704
DA:119,704
DA:120,704
DA:121,704
DA:122,704
DA:123,704
DA:124,704
DA:125,704
DA:126,704
DA:127,352
DA:130,352
DA:131,0
DA:132,352
LF:36
LH:34
end_of_record
TN:
SF:/home/runner/work/neml2/neml2/src/neml2/base/TensorName.cxx
FN:35,80,_ZNK5neml210TensorNameINS_10QuaternionEE7resolveEPNS_7FactoryE
FN:35,80,_ZNK5neml210TensorNameINS_11MillerIndexEE7resolveEPNS_7FactoryE
FN:35,80,_ZNK5neml210TensorNameINS_2R2EE7resolveEPNS_7FactoryE
FN:35,80,_ZNK5neml210TensorNameINS_2R3EE7resolveEPNS_7FactoryE
FN:35,80,_ZNK5neml210TensorNameINS_2R4EE7resolveEPNS_7FactoryE
FN:35,80,_ZNK5neml210TensorNameINS_3RotEE7resolveEPNS_7FactoryE
FN:35,80,_ZNK5neml210TensorNameINS_3SR2EE7resolveEPNS_7FactoryE
FN:35,80,_ZNK5neml210TensorNameINS_3VecEE7resolveEPNS_7FactoryE
FN:35,80,_ZNK5neml210TensorNameINS_3WR2EE7resolveEPNS_7FactoryE
FN:35,80,_ZNK5neml210TensorNameINS_4SFR3EE7resolveEPNS_7FactoryE
FN:35,80,_ZNK5neml210TensorNameINS_4SSR4EE7resolveEPNS_7FactoryE
FN:35,80,_ZNK5neml210TensorNameINS_4SWR4EE7resolveEPNS_7FactoryE
FN:35,80,_ZNK5neml210TensorNameINS_4WSR4EE7resolveEPNS_7FactoryE
FN:35,80,_ZNK5neml210TensorNameINS_4WWR4EE7resolveEPNS_7FactoryE
FN:35,80,_ZNK5neml210TensorNameINS_5SFFR4EE7resolveEPNS_7FactoryE
FN:35,80,_ZNK5neml210TensorNameINS_5WFFR4EE7resolveEPNS_7FactoryE
FN:35,80,_ZNK5neml210TensorNameINS_6ScalarEE7resolveEPNS_7FactoryE
FN:35,80,_ZNK5neml210TensorNameINS_6TensorEE7resolveEPNS_7FactoryE
FN:84,90,_ZNK5neml210TensorNameINS_10QuaternionEE14resolve_numberEd
FN:84,90,_ZNK5neml210TensorNameINS_11MillerIndexEE14resolve_numberEd
FN:84,90,_ZNK5neml210TensorNameINS_2R2EE14resolve_numberEd
FN:84,90,_ZNK5neml210TensorNameINS_2R3EE14resolve_numberEd
FN:84,90,_ZNK5neml210TensorNameINS_2R4EE14resolve_numberEd
FN:84,90,_ZNK5neml210TensorNameINS_3RotEE14resolve_numberEd
FN:84,90,_ZNK5neml210TensorNameINS_3SR2EE14resolve_numberEd
FN:84,90,_ZNK5neml210TensorNameINS_3VecEE14resolve_numberEd
FN:84,90,_ZNK5neml210TensorNameINS_3WR2EE14resolve_numberEd
FN:84,90,_ZNK5neml210TensorNameINS_4SFR3EE14resolve_numberEd
FN:84,90,_ZNK5neml210TensorNameINS_4SSR4EE14resolve_numberEd
FN:84,90,_ZNK5neml210TensorNameINS_4SWR4EE14resolve_numberEd
FN:84,90,_ZNK5neml210TensorNameINS_4WSR4EE14resolve_numberEd
FN:84,90,_ZNK5neml210TensorNameINS_4WWR4EE14resolve_numberEd
FN:84,90,_ZNK5neml210TensorNameINS_5SFFR4EE14resolve_numberEd
FN:84,90,_ZNK5neml210TensorNameINS_5WFFR4EE14resolve_numberEd
FN:84,90,_ZNK5neml210TensorNameINS_6ScalarEE14resolve_numberEd
FN:84,90,_ZNK5neml210TensorNameINS_6TensorEE14resolve_numberEd
FNDA:0,_ZNK5neml210TensorNameINS_10QuaternionEE7resolveEPNS_7FactoryE
FNDA:104,_ZNK5neml210TensorNameINS_11MillerIndexEE7resolveEPNS_7FactoryE
FNDA:34,_ZNK5neml210TensorNameINS_2R2EE7resolveEPNS_7FactoryE
FNDA:0,_ZNK5neml210TensorNameINS_2R3EE7resolveEPNS_7FactoryE
FNDA:0,_ZNK5neml210TensorNameINS_2R4EE7resolveEPNS_7FactoryE
FNDA:16,_ZNK5neml210TensorNameINS_3RotEE7resolveEPNS_7FactoryE
FNDA:158,_ZNK5neml210TensorNameINS_3SR2EE7resolveEPNS_7FactoryE
FNDA:15,_ZNK5neml210TensorNameINS_3VecEE7resolveEPNS_7FactoryE
FNDA:8,_ZNK5neml210TensorNameINS_3WR2EE7resolveEPNS_7FactoryE
FNDA:0,_ZNK5neml210TensorNameINS_4SFR3EE7resolveEPNS_7FactoryE
FNDA:11,_ZNK5neml210TensorNameINS_4SSR4EE7resolveEPNS_7FactoryE
FNDA:0,_ZNK5neml210TensorNameINS_4SWR4EE7resolveEPNS_7FactoryE
FNDA:0,_ZNK5neml210TensorNameINS_4WSR4EE7resolveEPNS_7FactoryE
FNDA:0,_ZNK5neml210TensorNameINS_4WWR4EE7resolveEPNS_7FactoryE
FNDA:0,_ZNK5neml210TensorNameINS_5SFFR4EE7resolveEPNS_7FactoryE
FNDA:0,_ZNK5neml210TensorNameINS_5WFFR4EE7resolveEPNS_7FactoryE
FNDA:1933,_ZNK5neml210TensorNameINS_6ScalarEE7resolveEPNS_7FactoryE
FNDA:6,_ZNK5neml210TensorNameINS_6TensorEE7resolveEPNS_7FactoryE
FNDA:0,_ZNK5neml210TensorNameINS_10QuaternionEE14resolve_numberEd
FNDA:0,_ZNK5neml210TensorNameINS_11MillerIndexEE14resolve_numberEd
FNDA:1,_ZNK5neml210TensorNameINS_2R2EE14resolve_numberEd
FNDA:0,_ZNK5neml210TensorNameINS_2R3EE14resolve_numberEd
FNDA:0,_ZNK5neml210TensorNameINS_2R4EE14resolve_numberEd
FNDA:0,_ZNK5neml210TensorNameINS_3RotEE14resolve_numberEd
FNDA:13,_ZNK5neml210TensorNameINS_3SR2EE14resolve_numberEd
FNDA:0,_ZNK5neml210TensorNameINS_3VecEE14resolve_numberEd
FNDA:0,_ZNK5neml210TensorNameINS_3WR2EE14resolve_numberEd
FNDA:0,_ZNK5neml210TensorNameINS_4SFR3EE14resolve_numberEd
FNDA:0,_ZNK5neml210TensorNameINS_4SSR4EE14resolve_numberEd
FNDA:0,_ZNK5neml210TensorNameINS_4SWR4EE14resolve_numberEd
FNDA:0,_ZNK5neml210TensorNameINS_4WSR4EE14resolve_numberEd
FNDA:0,_ZNK5neml210TensorNameINS_4WWR4EE14resolve_numberEd
FNDA:0,_ZNK5neml210TensorNameINS_5SFFR4EE14resolve_numberEd
FNDA:0,_ZNK5neml210TensorNameINS_5WFFR4EE14resolve_numberEd
FNDA:1578,_ZNK5neml210TensorNameINS_6ScalarEE14resolve_numberEd
FNDA:1,_ZNK5neml210TensorNameINS_6TensorEE14resolve_numberEd
FNF:36
FNH:13
DA:35,2285
DA:38,2285
DA:39,18
DA:42,2267
DA:43,2267
DA:44,1593
DA:45,1593
DA:48,674
DA:53,674
DA:54,0
DA:56,674
DA:57,0
DA:62,2102
DA:63,594
DA:65,160
DA:67,80
DA:68,240
DA:70,80
DA:74,240
DA:75,0
DA:78,80
DA:79,80
DA:84,1593
DA:87,1
DA:89,1592
LF:25
LH:22
end_of_record
TN:
SF:/home/runner/work/neml2/neml2/src/neml2/base/TracingInterface.cxx
FN:106,114,_ZN5neml211TraceWriter20trace_duration_beginERKNSt7__cxx1112basic_stringIcSt11char_traitsIcESaIcEEES8_RKN8nlohmann16json_abi_v3_11_310basic_jsonISt3mapSt6vectorS6_blmdSaNSA_14adl_serializerESD_IhSaIhEEvEEj
FN:117,125,_ZN5neml211TraceWriter18trace_duration_endERKNSt7__cxx1112basic_stringIcSt11char_traitsIcESaIcEEES8_RKN8nlohmann16json_abi_v3_11_310basic_jsonISt3mapSt6vectorS6_blmdSaNSA_14adl_serializerESD_IhSaIhEEvEEj
FN:128,138,_ZN5neml211TraceWriter13trace_instantERKNSt7__cxx1112basic_stringIcSt11char_traitsIcESaIcEEES8_RKN8nlohmann16json_abi_v3_11_310basic_jsonISt3mapSt6vectorS6_blmdSaNSA_14adl_serializerESD_IhSaIhEEvEES8_j
FN:142,148,_ZN5neml216TracingInterface16expected_optionsEv
FN:150,153,_ZN5neml216TracingInterfaceC2ENSt7__cxx1112basic_stringIcSt11char_traitsIcESaIcEEE
FN:155,159,_ZN5neml216TracingInterfaceC2ERKNS_9OptionSetE
FN:162,182,_ZN5neml216TracingInterface11init_writerENSt7__cxx1112basic_stringIcSt11char_traitsIcESaIcEEE
FN:185,189,_ZNK5neml216TracingInterface18event_trace_writerEv
FN:36,40,_ZN5neml219event_trace_writersB5cxx11Ev
FN:42,60,_ZN5neml211TraceWriterC2ERKNSt10filesystem7__cxx114pathE
FN:62,72,_ZN5neml211TraceWriterD2Ev
FN:76,93,_ZN5neml211TraceWriter18write_event_commonERN8nlohmann16json_abi_v3_11_310basic_jsonISt3mapSt6vectorNSt7__cxx1112basic_stringIcSt11char_traitsIcESaIcEEEblmdSaNS2_14adl_serializerES5_IhSaIhEEvEERKSB_SI_RKSF_SI_j
FN:96,103,_ZN5neml211TraceWriter10dump_eventERKN8nlohmann16json_abi_v3_11_310basic_jsonISt3mapSt6vectorNSt7__cxx1112basic_stringIcSt11char_traitsIcESaIcEEEblmdSaNS2_14adl_serializerES5_IhSaIhEEvEEb
FNDA:7,_ZN5neml211TraceWriter20trace_duration_beginERKNSt7__cxx1112basic_stringIcSt11char_traitsIcESaIcEEES8_RKN8nlohmann16json_abi_v3_11_310basic_jsonISt3mapSt6vectorS6_blmdSaNSA_14adl_serializerESD_IhSaIhEEvEEj
FNDA:4,_ZN5neml211TraceWriter18trace_duration_endERKNSt7__cxx1112basic_stringIcSt11char_traitsIcESaIcEEES8_RKN8nlohmann16json_abi_v3_11_310basic_jsonISt3mapSt6vectorS6_blmdSaNSA_14adl_serializerESD_IhSaIhEEvEEj
FNDA:4,_ZN5neml211TraceWriter13trace_instantERKNSt7__cxx1112basic_stringIcSt11char_traitsIcESaIcEEES8_RKN8nlohmann16json_abi_v3_11_310basic_jsonISt3mapSt6vectorS6_blmdSaNSA_14adl_serializerESD_IhSaIhEEvEES8_j
FNDA:3,_ZN5neml216TracingInterface16expected_optionsEv
FNDA:4,_ZN5neml216TracingInterfaceC2ENSt7__cxx1112basic_stringIcSt11char_traitsIcESaIcEEE
FNDA:0,_ZN5neml216TracingInterfaceC2ERKNS_9OptionSetE
FNDA:4,_ZN5neml216TracingInterface11init_writerENSt7__cxx1112basic_stringIcSt11char_traitsIcESaIcEEE
FNDA:4,_ZNK5neml216TracingInterface18event_trace_writerEv
FNDA:8,_ZN5neml219event_trace_writersB5cxx11Ev
FNDA:3,_ZN5neml211TraceWriterC2ERKNSt10filesystem7__cxx114pathE
FNDA:3,_ZN5neml211TraceWriterD2Ev
FNDA:18,_ZN5neml211TraceWriter18write_event_commonERN8nlohmann16json_abi_v3_11_310basic_jsonISt3mapSt6vectorNSt7__cxx1112basic_stringIcSt11char_traitsIcESaIcEEEblmdSaNS2_14adl_serializerES5_IhSaIhEEvEERKSB_SI_RKSF_SI_j
FNDA:18,_ZN5neml211TraceWriter10dump_eventERKN8nlohmann16json_abi_v3_11_310basic_jsonISt3mapSt6vectorNSt7__cxx1112basic_stringIcSt11char_traitsIcESaIcEEEblmdSaNS2_14adl_serializerES5_IhSaIhEEvEEb
FNF:13
FNH:12
DA:36,8
DA:38,8
DA:39,8
DA:42,3
DA:43,3
DA:44,3
DA:48,3
DA:49,3
DA:50,3
DA:55,3
DA:56,3
DA:58,24
DA:60,15
DA:62,6
DA:65,3
DA:66,24
DA:67,3
DA:68,3
DA:69,3
DA:70,3
DA:72,15
DA:76,18
DA:83,18
DA:84,18
DA:85,18
DA:86,36
DA:87,18
DA:88,36
DA:89,18
DA:90,18
DA:91,36
DA:92,18
DA:93,18
DA:96,18
DA:98,18
DA:99,18
DA:100,18
DA:101,15
DA:102,18
DA:103,18
DA:106,7
DA:111,7
DA:112,7
DA:113,7
DA:114,7
DA:117,4
DA:122,4
DA:123,4
DA:124,4
DA:125,4
DA:128,4
DA:134,4
DA:135,4
DA:136,4
DA:137,4
DA:138,4
DA:142,3
DA:144,3
DA:145,9
DA:147,3
DA:148,0
DA:150,4
DA:151,4
DA:153,4
DA:155,0
DA:156,0
DA:157,0
DA:159,0
DA:162,4
DA:169,4
DA:171,4
DA:172,4
DA:173,4
DA:174,4
DA:175,1
DA:178,3
DA:179,3
DA:180,3
DA:181,3
DA:182,4
DA:185,4
DA:187,4
DA:188,4
LF:83
LH:78
end_of_record
TN:
SF:/home/runner/work/neml2/neml2/src/neml2/dispatchers/SimpleMPIScheduler.cxx
FN:107,132,_ZN5neml218SimpleMPIScheduler19determine_my_deviceEv
FN:135,143,_ZNK5neml218SimpleMPIScheduler18schedule_work_implERN3c106DeviceERm
FN:146,149,_ZN5neml218SimpleMPIScheduler20dispatched_work_implEN3c106DeviceEm
FN:152,156,_ZN5neml218SimpleMPIScheduler19completed_work_implEN3c106DeviceEm
FN:159,162,_ZNK5neml218SimpleMPIScheduler18all_work_completedEv
FN:38,50,_ZN5neml218SimpleMPIScheduler16expected_optionsEv
FN:52,65,_ZN5neml218SimpleMPISchedulerC2ERKNS_9OptionSetE
FN:68,104,_ZN5neml218SimpleMPIScheduler5setupEv
FNDA:0,_ZN5neml218SimpleMPIScheduler19determine_my_deviceEv
FNDA:0,_ZNK5neml218SimpleMPIScheduler18schedule_work_implERN3c106DeviceERm
FNDA:0,_ZN5neml218SimpleMPIScheduler20dispatched_work_implEN3c106DeviceEm
FNDA:0,_ZN5neml218SimpleMPIScheduler19completed_work_implEN3c106DeviceEm
FNDA:0,_ZNK5neml218SimpleMPIScheduler18all_work_completedEv
FNDA:1,_ZN5neml218SimpleMPIScheduler16expected_optionsEv
FNDA:0,_ZN5neml218SimpleMPISchedulerC2ERKNS_9OptionSetE
FNDA:0,_ZN5neml218SimpleMPIScheduler5setupEv
FNF:8
FNH:1
DA:38,1
DA:40,1
DA:41,1
DA:42,1
DA:44,4
DA:45,4
DA:46,3
DA:49,1
DA:50,0
DA:52,0
DA:54,0
DA:55,0
DA:56,0
DA:57,0
DA:58,0
DA:60,0
DA:62,0
DA:63,0
DA:65,0
DA:68,0
DA:70,0
DA:75,0
DA:76,0
DA:78,0
DA:79,0
DA:80,0
DA:82,0
DA:88,0
DA:89,0
DA:91,0
DA:92,0
DA:94,0
DA:95,0
DA:96,0
DA:99,0
DA:101,0
DA:103,0
DA:104,0
DA:107,0
DA:111,0
DA:112,0
DA:113,0
DA:116,0
DA:119,0
DA:120,0
DA:121,0
DA:122,0
DA:124,0
DA:125,0
DA:126,0
DA:127,0
DA:128,0
DA:129,0
DA:132,0
DA:135,0
DA:137,0
DA:138,0
DA:140,0
DA:141,0
DA:142,0
DA:146,0
DA:148,0
DA:149,0
DA:152,0
DA:154,0
DA:155,0
DA:156,0
DA:159,0
DA:161,0
LF:69
LH:8
end_of_record
TN:
SF:/home/runner/work/neml2/neml2/src/neml2/dispatchers/SimpleScheduler.cxx
FN:34,46,_ZN5neml215SimpleScheduler16expected_optionsEv
FN:48,54,_ZN5neml215SimpleSchedulerC2ERKNS_9OptionSetE
FN:57,65,_ZNK5neml215SimpleScheduler18schedule_work_implERN3c106DeviceERm
FN:68,71,_ZN5neml215SimpleScheduler20dispatched_work_implEN3c106DeviceEm
FN:74,78,_ZN5neml215SimpleScheduler19completed_work_implEN3c106DeviceEm
FN:81,84,_ZNK5neml215SimpleScheduler18all_work_completedEv
FNDA:1,_ZN5neml215SimpleScheduler16expected_optionsEv
FNDA:0,_ZN5neml215SimpleSchedulerC2ERKNS_9OptionSetE
FNDA:0,_ZNK5neml215SimpleScheduler18schedule_work_implERN3c106DeviceERm
FNDA:0,_ZN5neml215SimpleScheduler20dispatched_work_implEN3c106DeviceEm
FNDA:0,_ZN5neml215SimpleScheduler19completed_work_implEN3c106DeviceEm
FNDA:0,_ZNK5neml215SimpleScheduler18all_work_completedEv
FNF:6
FNH:1
DA:34,1
DA:36,1
DA:37,1
DA:39,4
DA:40,4
DA:41,3
DA:45,1
DA:46,0
DA:48,0
DA:50,0
DA:51,0
DA:52,0
DA:54,0
DA:57,0
DA:59,0
DA:60,0
DA:62,0
DA:63,0
DA:64,0
DA:68,0
DA:70,0
DA:71,0
DA:74,0
DA:76,0
DA:77,0
DA:78,0
DA:81,0
DA:83,0
LF:28
LH:7
end_of_record
TN:
SF:/home/runner/work/neml2/neml2/src/neml2/dispatchers/SliceGenerator.cxx
FN:30,39,_ZN5neml214SliceGeneratorC2Emm
FN:42,45,_ZNK5neml214SliceGenerator5totalEv
FN:48,53,_ZN5neml214SliceGenerator8generateEm
FNDA:0,_ZN5neml214SliceGeneratorC2Emm
FNDA:0,_ZNK5neml214SliceGenerator5totalEv
FNDA:0,_ZN5neml214SliceGenerator8generateEm
FNF:3
FNH:0
DA:30,0
DA:31,0
DA:32,0
DA:34,0
DA:36,0
DA:38,0
DA:39,0
DA:42,0
DA:44,0
DA:48,0
DA:50,0
DA:51,0
DA:52,0
DA:53,0
LF:14
LH:0
end_of_record
TN:
SF:/home/runner/work/neml2/neml2/src/neml2/dispatchers/StaticHybridScheduler.cxx
FN:138,141,_ZN5neml221StaticHybridScheduler27set_availability_calculatorESt8functionIFdRKNS0_12DeviceStatusEEE
FN:144,163,_ZNK5neml221StaticHybridScheduler18schedule_work_implERN3c106DeviceERm
FN:166,178,_ZN5neml221StaticHybridScheduler20dispatched_work_implEN3c106DeviceEm
FN:181,192,_ZN5neml221StaticHybridScheduler19completed_work_implEN3c106DeviceEm
FN:195,201,_ZNK5neml221StaticHybridScheduler18all_work_completedEv
FN:36,48,_ZN5neml221StaticHybridScheduler16expected_optionsEv
FN:50,54,_ZN5neml221StaticHybridSchedulerC2ERKNS_9OptionSetE
FN:57,135,_ZN5neml221StaticHybridScheduler5setupEv
FNDA:0,_ZN5neml221StaticHybridScheduler27set_availability_calculatorESt8functionIFdRKNS0_12DeviceStatusEEE
FNDA:0,_ZNK5neml221StaticHybridScheduler18schedule_work_implERN3c106DeviceERm
FNDA:0,_ZN5neml221StaticHybridScheduler20dispatched_work_implEN3c106DeviceEm
FNDA:0,_ZN5neml221StaticHybridScheduler19completed_work_implEN3c106DeviceEm
FNDA:0,_ZNK5neml221StaticHybridScheduler18all_work_completedEv
FNDA:1,_ZN5neml221StaticHybridScheduler16expected_optionsEv
FNDA:0,_ZN5neml221StaticHybridSchedulerC2ERKNS_9OptionSetE
FNDA:0,_ZN5neml221StaticHybridScheduler5setupEv
FNF:8
FNH:1
DA:36,1
DA:38,1
DA:39,1
DA:41,4
DA:42,4
DA:43,4
DA:45,3
DA:47,1
DA:48,0
DA:50,0
DA:52,0
DA:54,0
DA:57,0
DA:59,0
DA:61,0
DA:62,0
DA:63,0
DA:64,0
DA:65,0
DA:66,0
DA:67,0
DA:68,0
DA:74,0
DA:75,0
DA:77,0
DA:78,0
DA:80,0
DA:81,0
DA:83,0
DA:88,0
DA:89,0
DA:91,0
DA:92,0
DA:94,0
DA:95,0
DA:96,0
DA:97,0
DA:98,0
DA:101,0
DA:103,0
DA:106,0
DA:107,0
DA:108,0
DA:110,0
DA:114,0
DA:115,0
DA:116,0
DA:117,0
DA:118,0
DA:120,0
DA:124,0
DA:125,0
DA:126,0
DA:128,0
DA:132,0
DA:133,0
DA:134,0
DA:135,0
DA:138,0
DA:140,0
DA:141,0
DA:144,0
DA:146,0
DA:147,0
DA:149,0
DA:150,0
DA:153,0
DA:154,0
DA:156,0
DA:157,0
DA:158,0
DA:162,0
DA:166,0
DA:168,0
DA:169,0
DA:171,0
DA:173,0
DA:174,0
DA:177,0
DA:181,0
DA:183,0
DA:184,0
DA:186,0
DA:187,0
DA:188,0
DA:191,0
DA:195,0
DA:197,0
DA:198,0
DA:199,0
DA:200,0
LF:91
LH:8
end_of_record
TN:
SF:/home/runner/work/neml2/neml2/src/neml2/dispatchers/TensorLoader.cxx
FN:29,34,_ZN5neml212TensorLoaderC2ERKNS_6TensorEl
FN:37,40,_ZNK5neml212TensorLoader5totalEv
FN:43,48,_ZN5neml212TensorLoader8generateEm
FNDA:0,_ZN5neml212TensorLoaderC2ERKNS_6TensorEl
FNDA:0,_ZNK5neml212TensorLoader5totalEv
FNDA:0,_ZN5neml212TensorLoader8generateEm
FNF:3
FNH:0
DA:29,0
DA:30,0
DA:31,0
DA:32,0
DA:34,0
DA:37,0
DA:39,0
DA:43,0
DA:45,0
DA:46,0
DA:47,0
DA:48,0
LF:12
LH:0
end_of_record
TN:
SF:/home/runner/work/neml2/neml2/src/neml2/dispatchers/ValueMapLoader.cxx
FN:31,54,_ZN5neml2L22broadcast_dynamic_sizeERKSt3mapINSt7__cxx1112basic_stringIcSt11char_traitsIcESaIcEEENS_6TensorESt4lessIS6_ESaISt4pairIKS6_S7_EEEl
FN:56,61,_ZN5neml214ValueMapLoaderC2ERKSt3mapINSt7__cxx1112basic_stringIcSt11char_traitsIcESaIcEEENS_6TensorESt4lessIS7_ESaISt4pairIKS7_S8_EEEl
FN:64,67,_ZNK5neml214ValueMapLoader5totalEv
FN:70,89,_ZN5neml214ValueMapLoader8generateB5cxx11Em
FNDA:0,_ZN5neml2L22broadcast_dynamic_sizeERKSt3mapINSt7__cxx1112basic_stringIcSt11char_traitsIcESaIcEEENS_6TensorESt4lessIS6_ESaISt4pairIKS6_S7_EEEl
FNDA:0,_ZN5neml214ValueMapLoaderC2ERKSt3mapINSt7__cxx1112basic_stringIcSt11char_traitsIcESaIcEEENS_6TensorESt4lessIS7_ESaISt4pairIKS7_S8_EEEl
FNDA:0,_ZNK5neml214ValueMapLoader5totalEv
FNDA:0,_ZN5neml214ValueMapLoader8generateB5cxx11Em
FNF:4
FNH:0
DA:31,0
DA:33,0
DA:35,0
DA:36,0
DA:37,0
DA:39,0
DA:40,0
DA:42,0
DA:43,0
DA:53,0
DA:56,0
DA:57,0
DA:58,0
DA:59,0
DA:61,0
DA:64,0
DA:66,0
DA:70,0
DA:72,0
DA:74,0
DA:75,0
DA:77,0
DA:79,0
DA:80,0
DA:82,0
DA:85,0
DA:88,0
DA:89,0
LF:28
LH:0
end_of_record
TN:
SF:/home/runner/work/neml2/neml2/src/neml2/dispatchers/WorkScheduler.cxx
FN:105,114,_ZN5neml213WorkScheduler14completed_workEN3c106DeviceEm
FN:117,134,_ZN5neml213WorkScheduler19wait_for_completionEv
FN:128,128,_ZZN5neml213WorkScheduler19wait_for_completionEvENKUlvE_clEv
FN:32,39,_ZN5neml213WorkScheduler16expected_optionsEv
FN:41,45,_ZN5neml213WorkSchedulerC2ERKNS_9OptionSetE
FN:49,55,_ZN5neml2L7to_jsonERKN3c106DeviceERKm
FN:59,85,_ZN5neml213WorkScheduler13schedule_workERN3c106DeviceERm
FN:78,78,_ZZN5neml213WorkScheduler13schedule_workERN3c106DeviceERmENKUlvE_clEv
FN:88,102,_ZN5neml213WorkScheduler15dispatched_workEN3c106DeviceEm
FNDA:0,_ZN5neml213WorkScheduler14completed_workEN3c106DeviceEm
FNDA:0,_ZN5neml213WorkScheduler19wait_for_completionEv
FNDA:0,_ZZN5neml213WorkScheduler19wait_for_completionEvENKUlvE_clEv
FNDA:3,_ZN5neml213WorkScheduler16expected_optionsEv
FNDA:0,_ZN5neml213WorkSchedulerC2ERKNS_9OptionSetE
FNDA:0,_ZN5neml2L7to_jsonERKN3c106DeviceERKm
FNDA:0,_ZN5neml213WorkScheduler13schedule_workERN3c106DeviceERm
FNDA:0,_ZZN5neml213WorkScheduler13schedule_workERN3c106DeviceERmENKUlvE_clEv
FNDA:0,_ZN5neml213WorkScheduler15dispatched_workEN3c106DeviceEm
FNF:9
FNH:1
DA:32,3
DA:34,3
DA:35,3
DA:36,3
DA:38,3
DA:39,0
DA:41,0
DA:43,0
DA:45,0
DA:49,0
DA:51,0
DA:52,0
DA:53,0
DA:54,0
DA:55,0
DA:59,0
DA:61,0
DA:64,0
DA:65,0
DA:68,0
DA:71,0
DA:72,0
DA:73,0
DA:75,0
DA:77,0
DA:78,0
DA:81,0
DA:82,0
DA:83,0
DA:85,0
DA:88,0
DA:91,0
DA:92,0
DA:95,0
DA:96,0
DA:99,0
DA:100,0
DA:102,0
DA:105,0
DA:108,0
DA:109,0
DA:111,0
DA:112,0
DA:113,0
DA:114,0
DA:117,0
DA:119,0
DA:120,0
DA:123,0
DA:124,0
DA:126,0
DA:128,0
DA:131,0
DA:132,0
DA:134,0
LF:55
LH:5
end_of_record
TN:
SF:/home/runner/work/neml2/neml2/src/neml2/dispatchers/derivmap_helpers.cxx
FN:33,62,_ZN5neml219derivmap_cat_reduceEOSt6vectorISt3mapINSt7__cxx1112basic_stringIcSt11char_traitsIcESaIcEEES1_IS7_NS_6TensorESt4lessIS7_ESaISt4pairIKS7_S8_EEESA_SaISB_ISC_SF_EEESaISI_EEl
FN:65,72,_ZN5neml220derivmap_move_deviceEOSt3mapINSt7__cxx1112basic_stringIcSt11char_traitsIcESaIcEEES0_IS6_NS_6TensorESt4lessIS6_ESaISt4pairIKS6_S7_EEES9_SaISA_ISB_SE_EEEN3c106DeviceE
FN:75,78,_ZN5neml221derivmap_no_operationEOSt3mapINSt7__cxx1112basic_stringIcSt11char_traitsIcESaIcEEES0_IS6_NS_6TensorESt4lessIS6_ESaISt4pairIKS6_S7_EEES9_SaISA_ISB_SE_EEE
FNDA:0,_ZN5neml219derivmap_cat_reduceEOSt6vectorISt3mapINSt7__cxx1112basic_stringIcSt11char_traitsIcESaIcEEES1_IS7_NS_6TensorESt4lessIS7_ESaISt4pairIKS7_S8_EEESA_SaISB_ISC_SF_EEESaISI_EEl
FNDA:0,_ZN5neml220derivmap_move_deviceEOSt3mapINSt7__cxx1112basic_stringIcSt11char_traitsIcESaIcEEES0_IS6_NS_6TensorESt4lessIS6_ESaISt4pairIKS6_S7_EEES9_SaISA_ISB_SE_EEEN3c106DeviceE
FNDA:0,_ZN5neml221derivmap_no_operationEOSt3mapINSt7__cxx1112basic_stringIcSt11char_traitsIcESaIcEEES0_IS6_NS_6TensorESt4lessIS6_ESaISt4pairIKS6_S7_EEES9_SaISA_ISB_SE_EEE
FNF:3
FNH:0
DA:33,0
DA:36,0
DA:37,0
DA:38,0
DA:39,0
DA:40,0
DA:43,0
DA:44,0
DA:45,0
DA:47,0
DA:50,0
DA:51,0
DA:52,0
DA:53,0
DA:55,0
DA:58,0
DA:61,0
DA:62,0
DA:65,0
DA:68,0
DA:69,0
DA:70,0
DA:71,0
DA:75,0
DA:77,0
LF:25
LH:0
end_of_record
TN:
SF:/home/runner/work/neml2/neml2/src/neml2/dispatchers/valuemap_helpers.cxx
FN:34,87,_ZN5neml219valuemap_cat_reduceERKSt6vectorISt3mapINSt7__cxx1112basic_stringIcSt11char_traitsIcESaIcEEENS_6TensorESt4lessIS7_ESaISt4pairIKS7_S8_EEESaISF_EEl
FN:90,96,_ZN5neml220valuemap_move_deviceEOSt3mapINSt7__cxx1112basic_stringIcSt11char_traitsIcESaIcEEENS_6TensorESt4lessIS6_ESaISt4pairIKS6_S7_EEEN3c106DeviceE
FN:99,102,_ZN5neml221valuemap_no_operationEOSt3mapINSt7__cxx1112basic_stringIcSt11char_traitsIcESaIcEEENS_6TensorESt4lessIS6_ESaISt4pairIKS6_S7_EEE
FNDA:0,_ZN5neml219valuemap_cat_reduceERKSt6vectorISt3mapINSt7__cxx1112basic_stringIcSt11char_traitsIcESaIcEEENS_6TensorESt4lessIS7_ESaISt4pairIKS7_S8_EEESaISF_EEl
FNDA:0,_ZN5neml220valuemap_move_deviceEOSt3mapINSt7__cxx1112basic_stringIcSt11char_traitsIcESaIcEEENS_6TensorESt4lessIS6_ESaISt4pairIKS6_S7_EEEN3c106DeviceE
FNDA:0,_ZN5neml221valuemap_no_operationEOSt3mapINSt7__cxx1112basic_stringIcSt11char_traitsIcESaIcEEENS_6TensorESt4lessIS6_ESaISt4pairIKS6_S7_EEE
FNF:3
FNH:0
DA:34,0
DA:37,0
DA:38,0
DA:40,0
DA:41,0
DA:43,0
DA:44,0
DA:45,0
DA:47,0
DA:51,0
DA:59,0
DA:66,0
DA:67,0
DA:71,0
DA:72,0
DA:73,0
DA:75,0
DA:76,0
DA:78,0
DA:82,0
DA:83,0
DA:84,0
DA:86,0
DA:87,0
DA:90,0
DA:93,0
DA:94,0
DA:95,0
DA:99,0
DA:101,0
LF:30
LH:0
end_of_record
TN:
SF:/home/runner/work/neml2/neml2/src/neml2/drivers/Driver.cxx
FN:33,42,_ZN5neml26Driver16expected_optionsEv
FN:44,51,_ZN5neml26DriverC2ERKNS_9OptionSetE
FNDA:4,_ZN5neml26Driver16expected_optionsEv
FNDA:203,_ZN5neml26DriverC2ERKNS_9OptionSetE
FNF:2
FNH:2
DA:33,4
DA:35,4
DA:36,4
DA:38,16
DA:39,12
DA:41,4
DA:42,0
DA:44,203
DA:47,609
DA:49,406
DA:50,0
DA:51,203
LF:12
LH:10
end_of_record
TN:
SF:/home/runner/work/neml2/neml2/src/neml2/drivers/ModelDriver.cxx
FN:106,117,_ZZN5neml211ModelDriver5setupEvENKUlRKSt3mapINSt7__cxx1112basic_stringIcSt11char_traitsIcESaIcEEENS_6TensorESt4lessIS7_ESaISt4pairIKS7_S8_EEEN3c106DeviceEE_clESH_SJ_
FN:127,134,_ZNK5neml211ModelDriver8diagnoseEv
FN:36,59,_ZN5neml211ModelDriver16expected_optionsEv
FN:61,76,_ZN5neml211ModelDriverC2ERKNS_9OptionSetE
FN:79,124,_ZN5neml211ModelDriver5setupEv
FN:89,90,_ZZN5neml211ModelDriver5setupEvENKUlRKSt6vectorISt3mapINSt7__cxx1112basic_stringIcSt11char_traitsIcESaIcEEENS_6TensorESt4lessIS8_ESaISt4pairIKS8_S9_EEESaISG_EEE_clESK_
FN:92,93,_ZZN5neml211ModelDriver5setupEvENKUlOSt3mapINSt7__cxx1112basic_stringIcSt11char_traitsIcESaIcEEENS_6TensorESt4lessIS7_ESaISt4pairIKS7_S8_EEEE_clESG_
FN:95,101,_ZZN5neml211ModelDriver5setupEvENKUlN3c106DeviceEE_clES2_
FNDA:0,_ZZN5neml211ModelDriver5setupEvENKUlRKSt3mapINSt7__cxx1112basic_stringIcSt11char_traitsIcESaIcEEENS_6TensorESt4lessIS7_ESaISt4pairIKS7_S8_EEEN3c106DeviceEE_clESH_SJ_
FNDA:2,_ZNK5neml211ModelDriver8diagnoseEv
FNDA:1,_ZN5neml211ModelDriver16expected_optionsEv
FNDA:3,_ZN5neml211ModelDriverC2ERKNS_9OptionSetE
FNDA:3,_ZN5neml211ModelDriver5setupEv
FNDA:0,_ZZN5neml211ModelDriver5setupEvENKUlRKSt6vectorISt3mapINSt7__cxx1112basic_stringIcSt11char_traitsIcESaIcEEENS_6TensorESt4lessIS8_ESaISt4pairIKS8_S9_EEESaISG_EEE_clESK_
FNDA:0,_ZZN5neml211ModelDriver5setupEvENKUlOSt3mapINSt7__cxx1112basic_stringIcSt11char_traitsIcESaIcEEENS_6TensorESt4lessIS7_ESaISt4pairIKS7_S8_EEEE_clESG_
FNDA:0,_ZZN5neml211ModelDriver5setupEvENKUlN3c106DeviceEE_clES2_
FNF:8
FNH:4
DA:36,1
DA:38,1
DA:40,4
DA:41,4
DA:44,6
DA:54,4
DA:55,3
DA:58,1
DA:59,0
DA:61,3
DA:63,6
DA:64,6
DA:65,6
DA:67,9
DA:70,6
DA:71,6
DA:73,12
DA:76,3
DA:79,3
DA:81,3
DA:84,3
DA:87,3
DA:89,0
DA:90,0
DA:92,0
DA:93,0
DA:95,0
DA:97,0
DA:98,0
DA:99,0
DA:100,0
DA:101,0
DA:103,0
DA:104,0
DA:105,0
DA:106,0
DA:108,0
DA:112,0
DA:113,0
DA:115,0
DA:116,0
DA:119,0
DA:121,0
DA:124,3
DA:127,2
DA:129,2
DA:130,2
DA:132,2
DA:133,0
DA:134,2
LF:50
LH:27
end_of_record
TN:
SF:/home/runner/work/neml2/neml2/src/neml2/drivers/TransientDriver.cxx
FN:105,154,_ZN5neml215TransientDriver16expected_optionsEv
FN:156,180,_ZN5neml215TransientDriverC2ERKNS_9OptionSetE
FN:183,186,_ZN5neml215TransientDriver5setupEv
FN:189,213,_ZNK5neml215TransientDriver8diagnoseEv
FN:216,224,_ZN5neml215TransientDriver3runEv
FN:227,259,_ZN5neml215TransientDriver5solveEv
FN:262,291,_ZN5neml215TransientDriver12advance_stepEv
FN:294,301,_ZN5neml215TransientDriver13update_forcesEv
FN:304,314,_ZN5neml215TransientDriver8apply_icEv
FN:317,360,_ZN5neml215TransientDriver15apply_predictorEv
FN:363,375,_ZN5neml215TransientDriver10solve_stepEv
FN:378,396,_ZN5neml215TransientDriver11postprocessEv
FN:399,402,_ZN5neml215TransientDriver11store_inputEv
FN:405,408,_ZNK5neml215TransientDriver12save_as_pathB5cxx11Ev
FN:411,439,_ZNK5neml215TransientDriver6resultEv
FN:442,463,_ZNK5neml215TransientDriver6outputEv
FN:46,70,_ZN5neml2L6set_icINS_10QuaternionEEEvRSt3mapINSt7__cxx1112basic_stringIcSt11char_traitsIcESaIcEEENS_6TensorESt4lessIS8_ESaISt4pairIKS8_S9_EEERKNS_9OptionSetERSD_SL_RKN3c106DeviceE
FN:46,70,_ZN5neml2L6set_icINS_11MillerIndexEEEvRSt3mapINSt7__cxx1112basic_stringIcSt11char_traitsIcESaIcEEENS_6TensorESt4lessIS8_ESaISt4pairIKS8_S9_EEERKNS_9OptionSetERSD_SL_RKN3c106DeviceE
FN:46,70,_ZN5neml2L6set_icINS_2R2EEEvRSt3mapINSt7__cxx1112basic_stringIcSt11char_traitsIcESaIcEEENS_6TensorESt4lessIS8_ESaISt4pairIKS8_S9_EEERKNS_9OptionSetERSD_SL_RKN3c106DeviceE
FN:46,70,_ZN5neml2L6set_icINS_2R3EEEvRSt3mapINSt7__cxx1112basic_stringIcSt11char_traitsIcESaIcEEENS_6TensorESt4lessIS8_ESaISt4pairIKS8_S9_EEERKNS_9OptionSetERSD_SL_RKN3c106DeviceE
FN:46,70,_ZN5neml2L6set_icINS_2R4EEEvRSt3mapINSt7__cxx1112basic_stringIcSt11char_traitsIcESaIcEEENS_6TensorESt4lessIS8_ESaISt4pairIKS8_S9_EEERKNS_9OptionSetERSD_SL_RKN3c106DeviceE
FN:46,70,_ZN5neml2L6set_icINS_3RotEEEvRSt3mapINSt7__cxx1112basic_stringIcSt11char_traitsIcESaIcEEENS_6TensorESt4lessIS8_ESaISt4pairIKS8_S9_EEERKNS_9OptionSetERSD_SL_RKN3c106DeviceE
FN:46,70,_ZN5neml2L6set_icINS_3SR2EEEvRSt3mapINSt7__cxx1112basic_stringIcSt11char_traitsIcESaIcEEENS_6TensorESt4lessIS8_ESaISt4pairIKS8_S9_EEERKNS_9OptionSetERSD_SL_RKN3c106DeviceE
FN:46,70,_ZN5neml2L6set_icINS_3VecEEEvRSt3mapINSt7__cxx1112basic_stringIcSt11char_traitsIcESaIcEEENS_6TensorESt4lessIS8_ESaISt4pairIKS8_S9_EEERKNS_9OptionSetERSD_SL_RKN3c106DeviceE
FN:46,70,_ZN5neml2L6set_icINS_3WR2EEEvRSt3mapINSt7__cxx1112basic_stringIcSt11char_traitsIcESaIcEEENS_6TensorESt4lessIS8_ESaISt4pairIKS8_S9_EEERKNS_9OptionSetERSD_SL_RKN3c106DeviceE
FN:46,70,_ZN5neml2L6set_icINS_4SFR3EEEvRSt3mapINSt7__cxx1112basic_stringIcSt11char_traitsIcESaIcEEENS_6TensorESt4lessIS8_ESaISt4pairIKS8_S9_EEERKNS_9OptionSetERSD_SL_RKN3c106DeviceE
FN:46,70,_ZN5neml2L6set_icINS_4SSR4EEEvRSt3mapINSt7__cxx1112basic_stringIcSt11char_traitsIcESaIcEEENS_6TensorESt4lessIS8_ESaISt4pairIKS8_S9_EEERKNS_9OptionSetERSD_SL_RKN3c106DeviceE
FN:46,70,_ZN5neml2L6set_icINS_4SWR4EEEvRSt3mapINSt7__cxx1112basic_stringIcSt11char_traitsIcESaIcEEENS_6TensorESt4lessIS8_ESaISt4pairIKS8_S9_EEERKNS_9OptionSetERSD_SL_RKN3c106DeviceE
FN:46,70,_ZN5neml2L6set_icINS_4WSR4EEEvRSt3mapINSt7__cxx1112basic_stringIcSt11char_traitsIcESaIcEEENS_6TensorESt4lessIS8_ESaISt4pairIKS8_S9_EEERKNS_9OptionSetERSD_SL_RKN3c106DeviceE
FN:46,70,_ZN5neml2L6set_icINS_4WWR4EEEvRSt3mapINSt7__cxx1112basic_stringIcSt11char_traitsIcESaIcEEENS_6TensorESt4lessIS8_ESaISt4pairIKS8_S9_EEERKNS_9OptionSetERSD_SL_RKN3c106DeviceE
FN:46,70,_ZN5neml2L6set_icINS_5SFFR4EEEvRSt3mapINSt7__cxx1112basic_stringIcSt11char_traitsIcESaIcEEENS_6TensorESt4lessIS8_ESaISt4pairIKS8_S9_EEERKNS_9OptionSetERSD_SL_RKN3c106DeviceE
FN:46,70,_ZN5neml2L6set_icINS_5WFFR4EEEvRSt3mapINSt7__cxx1112basic_stringIcSt11char_traitsIcESaIcEEENS_6TensorESt4lessIS8_ESaISt4pairIKS8_S9_EEERKNS_9OptionSetERSD_SL_RKN3c106DeviceE
FN:46,70,_ZN5neml2L6set_icINS_6ScalarEEEvRSt3mapINSt7__cxx1112basic_stringIcSt11char_traitsIcESaIcEEENS_6TensorESt4lessIS8_ESaISt4pairIKS8_S9_EEERKNS_9OptionSetERSD_SL_RKN3c106DeviceE
FN:46,70,_ZN5neml2L6set_icINS_6TensorEEEvRSt3mapINSt7__cxx1112basic_stringIcSt11char_traitsIcESaIcEEES1_St4lessIS8_ESaISt4pairIKS8_S1_EEERKNS_9OptionSetERSC_SK_RKN3c106DeviceE
FN:466,469,_ZNK5neml215TransientDriver9output_ptERKNSt10filesystem7__cxx114pathE
FN:74,102,_ZN5neml2L9get_forceINS_10QuaternionEEEvRSt6vectorINSt7__cxx1112basic_stringIcSt11char_traitsIcESaIcEEESaIS8_EERS2_INS_6TensorESaISC_EERKNS_9OptionSetERKS8_SK_RKN3c106DeviceE
FN:74,102,_ZN5neml2L9get_forceINS_11MillerIndexEEEvRSt6vectorINSt7__cxx1112basic_stringIcSt11char_traitsIcESaIcEEESaIS8_EERS2_INS_6TensorESaISC_EERKNS_9OptionSetERKS8_SK_RKN3c106DeviceE
FN:74,102,_ZN5neml2L9get_forceINS_2R2EEEvRSt6vectorINSt7__cxx1112basic_stringIcSt11char_traitsIcESaIcEEESaIS8_EERS2_INS_6TensorESaISC_EERKNS_9OptionSetERKS8_SK_RKN3c106DeviceE
FN:74,102,_ZN5neml2L9get_forceINS_2R3EEEvRSt6vectorINSt7__cxx1112basic_stringIcSt11char_traitsIcESaIcEEESaIS8_EERS2_INS_6TensorESaISC_EERKNS_9OptionSetERKS8_SK_RKN3c106DeviceE
FN:74,102,_ZN5neml2L9get_forceINS_2R4EEEvRSt6vectorINSt7__cxx1112basic_stringIcSt11char_traitsIcESaIcEEESaIS8_EERS2_INS_6TensorESaISC_EERKNS_9OptionSetERKS8_SK_RKN3c106DeviceE
FN:74,102,_ZN5neml2L9get_forceINS_3RotEEEvRSt6vectorINSt7__cxx1112basic_stringIcSt11char_traitsIcESaIcEEESaIS8_EERS2_INS_6TensorESaISC_EERKNS_9OptionSetERKS8_SK_RKN3c106DeviceE
FN:74,102,_ZN5neml2L9get_forceINS_3SR2EEEvRSt6vectorINSt7__cxx1112basic_stringIcSt11char_traitsIcESaIcEEESaIS8_EERS2_INS_6TensorESaISC_EERKNS_9OptionSetERKS8_SK_RKN3c106DeviceE
FN:74,102,_ZN5neml2L9get_forceINS_3VecEEEvRSt6vectorINSt7__cxx1112basic_stringIcSt11char_traitsIcESaIcEEESaIS8_EERS2_INS_6TensorESaISC_EERKNS_9OptionSetERKS8_SK_RKN3c106DeviceE
FN:74,102,_ZN5neml2L9get_forceINS_3WR2EEEvRSt6vectorINSt7__cxx1112basic_stringIcSt11char_traitsIcESaIcEEESaIS8_EERS2_INS_6TensorESaISC_EERKNS_9OptionSetERKS8_SK_RKN3c106DeviceE
FN:74,102,_ZN5neml2L9get_forceINS_4SFR3EEEvRSt6vectorINSt7__cxx1112basic_stringIcSt11char_traitsIcESaIcEEESaIS8_EERS2_INS_6TensorESaISC_EERKNS_9OptionSetERKS8_SK_RKN3c106DeviceE
FN:74,102,_ZN5neml2L9get_forceINS_4SSR4EEEvRSt6vectorINSt7__cxx1112basic_stringIcSt11char_traitsIcESaIcEEESaIS8_EERS2_INS_6TensorESaISC_EERKNS_9OptionSetERKS8_SK_RKN3c106DeviceE
FN:74,102,_ZN5neml2L9get_forceINS_4SWR4EEEvRSt6vectorINSt7__cxx1112basic_stringIcSt11char_traitsIcESaIcEEESaIS8_EERS2_INS_6TensorESaISC_EERKNS_9OptionSetERKS8_SK_RKN3c106DeviceE
FN:74,102,_ZN5neml2L9get_forceINS_4WSR4EEEvRSt6vectorINSt7__cxx1112basic_stringIcSt11char_traitsIcESaIcEEESaIS8_EERS2_INS_6TensorESaISC_EERKNS_9OptionSetERKS8_SK_RKN3c106DeviceE
FN:74,102,_ZN5neml2L9get_forceINS_4WWR4EEEvRSt6vectorINSt7__cxx1112basic_stringIcSt11char_traitsIcESaIcEEESaIS8_EERS2_INS_6TensorESaISC_EERKNS_9OptionSetERKS8_SK_RKN3c106DeviceE
FN:74,102,_ZN5neml2L9get_forceINS_5SFFR4EEEvRSt6vectorINSt7__cxx1112basic_stringIcSt11char_traitsIcESaIcEEESaIS8_EERS2_INS_6TensorESaISC_EERKNS_9OptionSetERKS8_SK_RKN3c106DeviceE
FN:74,102,_ZN5neml2L9get_forceINS_5WFFR4EEEvRSt6vectorINSt7__cxx1112basic_stringIcSt11char_traitsIcESaIcEEESaIS8_EERS2_INS_6TensorESaISC_EERKNS_9OptionSetERKS8_SK_RKN3c106DeviceE
FN:74,102,_ZN5neml2L9get_forceINS_6ScalarEEEvRSt6vectorINSt7__cxx1112basic_stringIcSt11char_traitsIcESaIcEEESaIS8_EERS2_INS_6TensorESaISC_EERKNS_9OptionSetERKS8_SK_RKN3c106DeviceE
FN:74,102,_ZN5neml2L9get_forceINS_6TensorEEEvRSt6vectorINSt7__cxx1112basic_stringIcSt11char_traitsIcESaIcEEESaIS8_EERS2_IS1_SaIS1_EERKNS_9OptionSetERKS8_SJ_RKN3c106DeviceE
FNDA:1,_ZN5neml215TransientDriver16expected_optionsEv
FNDA:3,_ZN5neml215TransientDriverC2ERKNS_9OptionSetE
FNDA:3,_ZN5neml215TransientDriver5setupEv
FNDA:2,_ZNK5neml215TransientDriver8diagnoseEv
FNDA:3,_ZN5neml215TransientDriver3runEv
FNDA:3,_ZN5neml215TransientDriver5solveEv
FNDA:21,_ZN5neml215TransientDriver12advance_stepEv
FNDA:24,_ZN5neml215TransientDriver13update_forcesEv
FNDA:3,_ZN5neml215TransientDriver8apply_icEv
FNDA:21,_ZN5neml215TransientDriver15apply_predictorEv
FNDA:21,_ZN5neml215TransientDriver10solve_stepEv
FNDA:20,_ZN5neml215TransientDriver11postprocessEv
FNDA:24,_ZN5neml215TransientDriver11store_inputEv
FNDA:2,_ZNK5neml215TransientDriver12save_as_pathB5cxx11Ev
FNDA:0,_ZNK5neml215TransientDriver6resultEv
FNDA:0,_ZNK5neml215TransientDriver6outputEv
FNDA:3,_ZN5neml2L6set_icINS_10QuaternionEEEvRSt3mapINSt7__cxx1112basic_stringIcSt11char_traitsIcESaIcEEENS_6TensorESt4lessIS8_ESaISt4pairIKS8_S9_EEERKNS_9OptionSetERSD_SL_RKN3c106DeviceE
FNDA:3,_ZN5neml2L6set_icINS_11MillerIndexEEEvRSt3mapINSt7__cxx1112basic_stringIcSt11char_traitsIcESaIcEEENS_6TensorESt4lessIS8_ESaISt4pairIKS8_S9_EEERKNS_9OptionSetERSD_SL_RKN3c106DeviceE
FNDA:3,_ZN5neml2L6set_icINS_2R2EEEvRSt3mapINSt7__cxx1112basic_stringIcSt11char_traitsIcESaIcEEENS_6TensorESt4lessIS8_ESaISt4pairIKS8_S9_EEERKNS_9OptionSetERSD_SL_RKN3c106DeviceE
FNDA:3,_ZN5neml2L6set_icINS_2R3EEEvRSt3mapINSt7__cxx1112basic_stringIcSt11char_traitsIcESaIcEEENS_6TensorESt4lessIS8_ESaISt4pairIKS8_S9_EEERKNS_9OptionSetERSD_SL_RKN3c106DeviceE
FNDA:3,_ZN5neml2L6set_icINS_2R4EEEvRSt3mapINSt7__cxx1112basic_stringIcSt11char_traitsIcESaIcEEENS_6TensorESt4lessIS8_ESaISt4pairIKS8_S9_EEERKNS_9OptionSetERSD_SL_RKN3c106DeviceE
FNDA:3,_ZN5neml2L6set_icINS_3RotEEEvRSt3mapINSt7__cxx1112basic_stringIcSt11char_traitsIcESaIcEEENS_6TensorESt4lessIS8_ESaISt4pairIKS8_S9_EEERKNS_9OptionSetERSD_SL_RKN3c106DeviceE
FNDA:3,_ZN5neml2L6set_icINS_3SR2EEEvRSt3mapINSt7__cxx1112basic_stringIcSt11char_traitsIcESaIcEEENS_6TensorESt4lessIS8_ESaISt4pairIKS8_S9_EEERKNS_9OptionSetERSD_SL_RKN3c106DeviceE
FNDA:3,_ZN5neml2L6set_icINS_3VecEEEvRSt3mapINSt7__cxx1112basic_stringIcSt11char_traitsIcESaIcEEENS_6TensorESt4lessIS8_ESaISt4pairIKS8_S9_EEERKNS_9OptionSetERSD_SL_RKN3c106DeviceE
FNDA:3,_ZN5neml2L6set_icINS_3WR2EEEvRSt3mapINSt7__cxx1112basic_stringIcSt11char_traitsIcESaIcEEENS_6TensorESt4lessIS8_ESaISt4pairIKS8_S9_EEERKNS_9OptionSetERSD_SL_RKN3c106DeviceE
FNDA:3,_ZN5neml2L6set_icINS_4SFR3EEEvRSt3mapINSt7__cxx1112basic_stringIcSt11char_traitsIcESaIcEEENS_6TensorESt4lessIS8_ESaISt4pairIKS8_S9_EEERKNS_9OptionSetERSD_SL_RKN3c106DeviceE
FNDA:3,_ZN5neml2L6set_icINS_4SSR4EEEvRSt3mapINSt7__cxx1112basic_stringIcSt11char_traitsIcESaIcEEENS_6TensorESt4lessIS8_ESaISt4pairIKS8_S9_EEERKNS_9OptionSetERSD_SL_RKN3c106DeviceE
FNDA:3,_ZN5neml2L6set_icINS_4SWR4EEEvRSt3mapINSt7__cxx1112basic_stringIcSt11char_traitsIcESaIcEEENS_6TensorESt4lessIS8_ESaISt4pairIKS8_S9_EEERKNS_9OptionSetERSD_SL_RKN3c106DeviceE
FNDA:3,_ZN5neml2L6set_icINS_4WSR4EEEvRSt3mapINSt7__cxx1112basic_stringIcSt11char_traitsIcESaIcEEENS_6TensorESt4lessIS8_ESaISt4pairIKS8_S9_EEERKNS_9OptionSetERSD_SL_RKN3c106DeviceE
FNDA:3,_ZN5neml2L6set_icINS_4WWR4EEEvRSt3mapINSt7__cxx1112basic_stringIcSt11char_traitsIcESaIcEEENS_6TensorESt4lessIS8_ESaISt4pairIKS8_S9_EEERKNS_9OptionSetERSD_SL_RKN3c106DeviceE
FNDA:3,_ZN5neml2L6set_icINS_5SFFR4EEEvRSt3mapINSt7__cxx1112basic_stringIcSt11char_traitsIcESaIcEEENS_6TensorESt4lessIS8_ESaISt4pairIKS8_S9_EEERKNS_9OptionSetERSD_SL_RKN3c106DeviceE
FNDA:3,_ZN5neml2L6set_icINS_5WFFR4EEEvRSt3mapINSt7__cxx1112basic_stringIcSt11char_traitsIcESaIcEEENS_6TensorESt4lessIS8_ESaISt4pairIKS8_S9_EEERKNS_9OptionSetERSD_SL_RKN3c106DeviceE
FNDA:3,_ZN5neml2L6set_icINS_6ScalarEEEvRSt3mapINSt7__cxx1112basic_stringIcSt11char_traitsIcESaIcEEENS_6TensorESt4lessIS8_ESaISt4pairIKS8_S9_EEERKNS_9OptionSetERSD_SL_RKN3c106DeviceE
FNDA:3,_ZN5neml2L6set_icINS_6TensorEEEvRSt3mapINSt7__cxx1112basic_stringIcSt11char_traitsIcESaIcEEES1_St4lessIS8_ESaISt4pairIKS8_S1_EEERKNS_9OptionSetERSC_SK_RKN3c106DeviceE
FNDA:0,_ZNK5neml215TransientDriver9output_ptERKNSt10filesystem7__cxx114pathE
FNDA:3,_ZN5neml2L9get_forceINS_10QuaternionEEEvRSt6vectorINSt7__cxx1112basic_stringIcSt11char_traitsIcESaIcEEESaIS8_EERS2_INS_6TensorESaISC_EERKNS_9OptionSetERKS8_SK_RKN3c106DeviceE
FNDA:3,_ZN5neml2L9get_forceINS_11MillerIndexEEEvRSt6vectorINSt7__cxx1112basic_stringIcSt11char_traitsIcESaIcEEESaIS8_EERS2_INS_6TensorESaISC_EERKNS_9OptionSetERKS8_SK_RKN3c106DeviceE
FNDA:3,_ZN5neml2L9get_forceINS_2R2EEEvRSt6vectorINSt7__cxx1112basic_stringIcSt11char_traitsIcESaIcEEESaIS8_EERS2_INS_6TensorESaISC_EERKNS_9OptionSetERKS8_SK_RKN3c106DeviceE
FNDA:3,_ZN5neml2L9get_forceINS_2R3EEEvRSt6vectorINSt7__cxx1112basic_stringIcSt11char_traitsIcESaIcEEESaIS8_EERS2_INS_6TensorESaISC_EERKNS_9OptionSetERKS8_SK_RKN3c106DeviceE
FNDA:3,_ZN5neml2L9get_forceINS_2R4EEEvRSt6vectorINSt7__cxx1112basic_stringIcSt11char_traitsIcESaIcEEESaIS8_EERS2_INS_6TensorESaISC_EERKNS_9OptionSetERKS8_SK_RKN3c106DeviceE
FNDA:3,_ZN5neml2L9get_forceINS_3RotEEEvRSt6vectorINSt7__cxx1112basic_stringIcSt11char_traitsIcESaIcEEESaIS8_EERS2_INS_6TensorESaISC_EERKNS_9OptionSetERKS8_SK_RKN3c106DeviceE
FNDA:3,_ZN5neml2L9get_forceINS_3SR2EEEvRSt6vectorINSt7__cxx1112basic_stringIcSt11char_traitsIcESaIcEEESaIS8_EERS2_INS_6TensorESaISC_EERKNS_9OptionSetERKS8_SK_RKN3c106DeviceE
FNDA:3,_ZN5neml2L9get_forceINS_3VecEEEvRSt6vectorINSt7__cxx1112basic_stringIcSt11char_traitsIcESaIcEEESaIS8_EERS2_INS_6TensorESaISC_EERKNS_9OptionSetERKS8_SK_RKN3c106DeviceE
FNDA:3,_ZN5neml2L9get_forceINS_3WR2EEEvRSt6vectorINSt7__cxx1112basic_stringIcSt11char_traitsIcESaIcEEESaIS8_EERS2_INS_6TensorESaISC_EERKNS_9OptionSetERKS8_SK_RKN3c106DeviceE
FNDA:3,_ZN5neml2L9get_forceINS_4SFR3EEEvRSt6vectorINSt7__cxx1112basic_stringIcSt11char_traitsIcESaIcEEESaIS8_EERS2_INS_6TensorESaISC_EERKNS_9OptionSetERKS8_SK_RKN3c106DeviceE
FNDA:3,_ZN5neml2L9get_forceINS_4SSR4EEEvRSt6vectorINSt7__cxx1112basic_stringIcSt11char_traitsIcESaIcEEESaIS8_EERS2_INS_6TensorESaISC_EERKNS_9OptionSetERKS8_SK_RKN3c106DeviceE
FNDA:3,_ZN5neml2L9get_forceINS_4SWR4EEEvRSt6vectorINSt7__cxx1112basic_stringIcSt11char_traitsIcESaIcEEESaIS8_EERS2_INS_6TensorESaISC_EERKNS_9OptionSetERKS8_SK_RKN3c106DeviceE
FNDA:3,_ZN5neml2L9get_forceINS_4WSR4EEEvRSt6vectorINSt7__cxx1112basic_stringIcSt11char_traitsIcESaIcEEESaIS8_EERS2_INS_6TensorESaISC_EERKNS_9OptionSetERKS8_SK_RKN3c106DeviceE
FNDA:3,_ZN5neml2L9get_forceINS_4WWR4EEEvRSt6vectorINSt7__cxx1112basic_stringIcSt11char_traitsIcESaIcEEESaIS8_EERS2_INS_6TensorESaISC_EERKNS_9OptionSetERKS8_SK_RKN3c106DeviceE
FNDA:3,_ZN5neml2L9get_forceINS_5SFFR4EEEvRSt6vectorINSt7__cxx1112basic_stringIcSt11char_traitsIcESaIcEEESaIS8_EERS2_INS_6TensorESaISC_EERKNS_9OptionSetERKS8_SK_RKN3c106DeviceE
FNDA:3,_ZN5neml2L9get_forceINS_5WFFR4EEEvRSt6vectorINSt7__cxx1112basic_stringIcSt11char_traitsIcESaIcEEESaIS8_EERS2_INS_6TensorESaISC_EERKNS_9OptionSetERKS8_SK_RKN3c106DeviceE
FNDA:3,_ZN5neml2L9get_forceINS_6ScalarEEEvRSt6vectorINSt7__cxx1112basic_stringIcSt11char_traitsIcESaIcEEESaIS8_EERS2_INS_6TensorESaISC_EERKNS_9OptionSetERKS8_SK_RKN3c106DeviceE
FNDA:3,_ZN5neml2L9get_forceINS_6TensorEEEvRSt6vectorINSt7__cxx1112basic_stringIcSt11char_traitsIcESaIcEEESaIS8_EERS2_IS1_SaIS1_EERKNS_9OptionSetERKS8_SJ_RKN3c106DeviceE
FNF:53
FNH:50
DA:46,54
DA:52,54
DA:53,54
DA:54,54
DA:60,54
DA:62,108
DA:64,54
DA:65,54
DA:68,54
DA:69,0
DA:70,54
DA:74,54
DA:81,54
DA:82,54
DA:83,54
DA:89,54
DA:91,108
DA:93,54
DA:94,54
DA:97,57
DA:99,3
DA:100,3
DA:102,54
DA:105,1
DA:107,1
DA:108,1
DA:110,6
DA:111,4
DA:116,4
DA:117,1
DA:120,2
DA:121,3
DA:128,144
DA:135,144
DA:137,4
DA:140,4
DA:145,4
DA:146,1
DA:150,2
DA:151,2
DA:153,2
DA:154,1
DA:156,3
DA:158,3
DA:159,6
DA:160,3
DA:161,6
DA:162,9
DA:163,6
DA:165,3
DA:166,6
DA:167,6
DA:168,21
DA:170,3
DA:179,216
DA:180,3
DA:183,3
DA:185,3
DA:186,3
DA:189,2
DA:191,2
DA:193,2
DA:194,2
DA:196,2
DA:198,4
DA:200,2
DA:202,2
DA:204,2
DA:205,4
DA:207,2
DA:210,2
DA:213,2
DA:216,3
DA:218,3
DA:220,2
DA:221,0
DA:223,2
DA:227,3
DA:229,26
DA:231,24
DA:236,24
DA:237,21
DA:238,24
DA:239,24
DA:241,3
DA:242,3
DA:246,21
DA:247,21
DA:248,21
DA:249,20
DA:252,23
DA:258,2
DA:262,21
DA:264,21
DA:265,21
DA:267,147
DA:269,126
DA:270,126
DA:271,63
DA:273,63
DA:274,63
DA:277,63
DA:278,21
DA:279,42
DA:280,42
DA:285,0
DA:286,0
DA:287,0
DA:288,0
DA:289,0
DA:291,21
DA:294,24
DA:296,24
DA:297,48
DA:299,48
DA:300,72
DA:301,72
DA:304,3
DA:308,216
DA:311,6
DA:312,3
DA:313,3
DA:314,3
DA:317,21
DA:319,147
DA:320,126
DA:322,42
DA:323,12
DA:324,18
DA:327,9
DA:328,1
DA:332,8
DA:333,8
DA:334,8
DA:335,8
DA:336,8
DA:338,8
DA:339,8
DA:340,8
DA:341,8
DA:344,0
DA:347,21
DA:350,0
DA:351,0
DA:352,0
DA:353,0
DA:355,0
DA:356,0
DA:357,0
DA:358,0
DA:359,0
DA:360,21
DA:363,21
DA:366,21
DA:368,0
DA:369,0
DA:370,0
DA:371,0
DA:374,21
DA:378,20
DA:380,20
DA:381,20
DA:383,0
DA:384,0
DA:386,0
DA:390,0
DA:393,0
DA:394,0
DA:395,0
DA:396,0
DA:399,24
DA:401,24
DA:402,24
DA:405,2
DA:407,2
DA:411,0
DA:414,0
DA:415,0
DA:418,0
DA:419,0
DA:420,0
DA:421,0
DA:422,0
DA:425,0
DA:426,0
DA:429,0
DA:430,0
DA:431,0
DA:432,0
DA:433,0
DA:436,0
DA:437,0
DA:438,0
DA:439,0
DA:442,0
DA:444,0
DA:449,0
DA:450,0
DA:452,0
DA:453,0
DA:459,0
DA:463,0
DA:466,0
DA:468,0
DA:469,0
LF:205
LH:146
end_of_record
TN:
SF:/home/runner/work/neml2/neml2/src/neml2/drivers/link_anchor.cxx
FN:30,34,_neml2_force_link_drivers
FNDA:340,_neml2_force_link_drivers
FNF:1
FNH:1
DA:30,340
DA:33,340
DA:34,340
LF:3
LH:3
end_of_record
TN:
SF:/home/runner/work/neml2/neml2/src/neml2/equation_systems/AssembledMatrix.cxx
FN:127,135,_ZN5neml2ngERKNS_15AssembledMatrixE
FN:138,157,_ZN5neml2plERKNS_15AssembledMatrixES2_
FN:160,179,_ZN5neml2miERKNS_15AssembledMatrixES2_
FN:182,224,_ZN5neml2mlERKNS_15AssembledMatrixES2_
FN:227,266,_ZN5neml2mlERKNS_15AssembledMatrixERKNS_15AssembledVectorE
FN:38,43,_ZN5neml215AssembledMatrixC2ENS_10AxisLayoutES1_
FN:45,55,_ZN5neml215AssembledMatrixC2ENS_10AxisLayoutES1_St6vectorIS2_INS_6TensorESaIS3_EESaIS5_EE
FN:58,65,_ZNK5neml215AssembledMatrix7optionsEv
FN:68,73,_ZNK5neml215AssembledMatrix5groupEmm
FN:76,124,_ZNK5neml215AssembledMatrix11disassembleEv
FNDA:4,_ZN5neml2ngERKNS_15AssembledMatrixE
FNDA:0,_ZN5neml2plERKNS_15AssembledMatrixES2_
FNDA:142,_ZN5neml2miERKNS_15AssembledMatrixES2_
FNDA:142,_ZN5neml2mlERKNS_15AssembledMatrixES2_
FNDA:278,_ZN5neml2mlERKNS_15AssembledMatrixERKNS_15AssembledVectorE
FNDA:730,_ZN5neml215AssembledMatrixC2ENS_10AxisLayoutES1_
FNDA:1669,_ZN5neml215AssembledMatrixC2ENS_10AxisLayoutES1_St6vectorIS2_INS_6TensorESaIS3_EESaIS5_EE
FNDA:0,_ZNK5neml215AssembledMatrix7optionsEv
FNDA:562,_ZNK5neml215AssembledMatrix5groupEmm
FNDA:4,_ZNK5neml215AssembledMatrix11disassembleEv
FNF:10
FNH:8
DA:38,730
DA:39,2190
DA:40,730
DA:41,730
DA:43,730
DA:45,1669
DA:46,1669
DA:47,1669
DA:48,1669
DA:50,1669
DA:52,3462
DA:53,1793
DA:55,1669
DA:58,0
DA:60,0
DA:61,0
DA:62,0
DA:63,0
DA:64,0
DA:68,562
DA:70,562
DA:71,562
DA:72,3934
DA:73,2810
DA:76,4
DA:79,8
DA:81,9
DA:82,10
DA:84,5
DA:85,5
DA:86,5
DA:87,5
DA:88,5
DA:89,5
DA:90,5
DA:92,5
DA:94,5
DA:95,5
DA:99,5
DA:100,5
DA:101,5
DA:102,5
DA:104,5
DA:105,15
DA:107,10
DA:108,67
DA:110,57
DA:111,57
DA:112,0
DA:113,0
DA:115,57
DA:116,57
DA:117,228
DA:118,57
DA:119,57
DA:120,10
DA:121,5
DA:123,8
DA:124,61
DA:127,4
DA:129,4
DA:130,9
DA:131,10
DA:132,5
DA:133,5
DA:134,4
DA:135,0
DA:138,0
DA:140,0
DA:141,0
DA:143,0
DA:144,0
DA:145,0
DA:147,0
DA:148,0
DA:149,0
DA:150,0
DA:151,0
DA:152,0
DA:153,0
DA:154,0
DA:156,0
DA:157,0
DA:160,142
DA:162,142
DA:163,142
DA:165,284
DA:166,284
DA:167,284
DA:169,142
DA:170,142
DA:171,142
DA:172,142
DA:173,0
DA:174,0
DA:175,0
DA:176,0
DA:178,284
DA:179,142
DA:182,142
DA:184,142
DA:186,284
DA:188,284
DA:189,284
DA:191,142
DA:192,284
DA:194,142
DA:195,142
DA:196,142
DA:197,0
DA:198,142
DA:202,142
DA:203,142
DA:205,0
DA:209,0
DA:210,0
DA:211,0
DA:212,0
DA:215,142
DA:216,142
DA:218,0
DA:219,142
DA:221,142
DA:222,142
DA:223,284
DA:224,142
DA:227,278
DA:229,278
DA:230,278
DA:232,556
DA:234,278
DA:235,556
DA:237,278
DA:238,278
DA:239,278
DA:240,0
DA:241,278
DA:245,278
DA:246,278
DA:248,0
DA:252,0
DA:253,0
DA:254,0
DA:255,0
DA:258,278
DA:259,278
DA:261,0
DA:262,278
DA:263,278
DA:264,278
DA:265,556
DA:266,278
LF:152
LH:109
end_of_record
TN:
SF:/home/runner/work/neml2/neml2/src/neml2/equation_systems/AssembledVector.cxx
FN:107,114,_ZN5neml2ngERKNS_15AssembledVectorE
FN:117,131,_ZN5neml2plERKNS_15AssembledVectorES2_
FN:134,148,_ZN5neml2miERKNS_15AssembledVectorES2_
FN:151,158,_ZN5neml2mlERKNS_6ScalarERKNS_15AssembledVectorE
FN:161,164,_ZN5neml2mlERKNS_15AssembledVectorERKNS_6ScalarE
FN:167,198,_ZN5neml2mlERKNS_15AssembledVectorES2_
FN:201,204,_ZN5neml27norm_sqERKNS_15AssembledVectorE
FN:207,210,_ZN5neml24normERKNS_15AssembledVectorE
FN:39,43,_ZN5neml215AssembledVectorC2ENS_10AxisLayoutE
FN:45,51,_ZN5neml215AssembledVectorC2ENS_10AxisLayoutESt6vectorINS_6TensorESaIS3_EE
FN:54,60,_ZNK5neml215AssembledVector7optionsEv
FN:63,67,_ZNK5neml215AssembledVector5groupEm
FN:70,104,_ZNK5neml215AssembledVector11disassembleEv
FNDA:1519,_ZN5neml2ngERKNS_15AssembledVectorE
FNDA:726,_ZN5neml2plERKNS_15AssembledVectorES2_
FNDA:278,_ZN5neml2miERKNS_15AssembledVectorES2_
FNDA:23,_ZN5neml2mlERKNS_6ScalarERKNS_15AssembledVectorE
FNDA:0,_ZN5neml2mlERKNS_15AssembledVectorERKNS_6ScalarE
FNDA:970,_ZN5neml2mlERKNS_15AssembledVectorES2_
FNDA:947,_ZN5neml27norm_sqERKNS_15AssembledVectorE
FNDA:906,_ZN5neml24normERKNS_15AssembledVectorE
FNDA:1814,_ZN5neml215AssembledVectorC2ENS_10AxisLayoutE
FNDA:4850,_ZN5neml215AssembledVectorC2ENS_10AxisLayoutESt6vectorINS_6TensorESaIS3_EE
FNDA:1651,_ZNK5neml215AssembledVector7optionsEv
FNDA:278,_ZNK5neml215AssembledVector5groupEm
FNDA:882,_ZNK5neml215AssembledVector11disassembleEv
FNF:13
FNH:12
DA:39,1814
DA:40,3628
DA:41,1814
DA:43,1814
DA:45,4850
DA:46,4850
DA:47,4850
DA:49,4850
DA:51,4850
DA:54,1651
DA:56,1651
DA:57,1651
DA:58,1651
DA:59,0
DA:63,278
DA:65,278
DA:66,1112
DA:67,278
DA:70,882
DA:72,882
DA:74,1923
DA:76,1041
DA:77,1041
DA:78,1041
DA:79,1041
DA:81,1041
DA:83,1041
DA:84,1041
DA:88,1041
DA:89,1041
DA:90,1041
DA:91,1041
DA:93,3435
DA:95,2394
DA:96,2394
DA:97,0
DA:99,2394
DA:100,2394
DA:101,1041
DA:103,1764
DA:104,3276
DA:107,1519
DA:109,1519
DA:110,3312
DA:111,1793
DA:112,1793
DA:113,1519
DA:114,0
DA:117,726
DA:119,726
DA:120,726
DA:121,1591
DA:123,865
DA:124,865
DA:125,0
DA:126,0
DA:127,0
DA:128,0
DA:130,1452
DA:131,726
DA:134,278
DA:136,278
DA:137,278
DA:138,556
DA:140,278
DA:141,278
DA:142,0
DA:143,0
DA:144,0
DA:145,0
DA:147,556
DA:148,278
DA:151,23
DA:153,23
DA:154,46
DA:155,23
DA:156,23
DA:157,46
DA:158,23
DA:161,0
DA:163,0
DA:167,970
DA:169,970
DA:171,970
DA:173,970
DA:174,970
DA:175,2111
DA:176,1141
DA:178,1141
DA:182,1141
DA:183,1141
DA:185,0
DA:189,0
DA:190,0
DA:191,0
DA:192,0
DA:195,1141
DA:196,1141
DA:197,970
DA:198,0
DA:201,947
DA:203,947
DA:207,906
DA:209,906
LF:104
LH:85
end_of_record
TN:
SF:/home/runner/work/neml2/neml2/src/neml2/equation_systems/AxisLayout.cxx
FN:109,112,_ZNK5neml210AxisLayout4viewEv
FN:115,118,_ZNK5neml210AxisLayout4nvarEv
FN:121,132,_ZNK5neml210AxisLayout13storage_sizesEb
FN:135,141,_ZNK5neml210AxisLayout4varsB5cxx11Ev
FN:144,148,_ZNK5neml210AxisLayout3varB5cxx11Em
FN:151,155,_ZNK5neml210AxisLayout11intmd_sizesEm
FN:158,162,_ZNK5neml210AxisLayout10base_sizesEm
FN:165,171,_ZN5neml210AxisLayout19update_intmd_shapesERKSt6vectorIN3c1011SmallVectorIlLj8EEESaIS4_EE
FN:174,199,_ZN5neml2eqERKNS_10AxisLayoutES2_
FN:32,53,_ZN5neml210AxisLayoutC2ERKSt6vectorIS1_INSt7__cxx1112basic_stringIcSt11char_traitsIcESaIcEEESaIS7_EESaIS9_EES1_IN3c1011SmallVectorIlLj8EEESaISG_EESI_S1_INS0_10IStructureESaISJ_EE
FN:55,67,_ZN5neml210AxisLayoutC2EPKS0_mmmSt6vectorImSaImEE
FN:70,75,_ZNK5neml210AxisLayout6ngroupEv
FN:78,87,_ZNK5neml210AxisLayout13group_offsetsEm
FN:90,94,_ZNK5neml210AxisLayout5groupEm
FN:97,106,_ZNK5neml210AxisLayout4istrEm
FNDA:7953,_ZNK5neml210AxisLayout4viewEv
FNDA:353241,_ZNK5neml210AxisLayout4nvarEv
FNDA:5984,_ZNK5neml210AxisLayout13storage_sizesEb
FNDA:0,_ZNK5neml210AxisLayout4varsB5cxx11Ev
FNDA:112025,_ZNK5neml210AxisLayout3varB5cxx11Em
FNDA:81402,_ZNK5neml210AxisLayout11intmd_sizesEm
FNDA:81423,_ZNK5neml210AxisLayout10base_sizesEm
FNDA:24,_ZN5neml210AxisLayout19update_intmd_shapesERKSt6vectorIN3c1011SmallVectorIlLj8EEESaIS4_EE
FNDA:1708,_ZN5neml2eqERKNS_10AxisLayoutES2_
FNDA:92,_ZN5neml210AxisLayoutC2ERKSt6vectorIS1_INSt7__cxx1112basic_stringIcSt11char_traitsIcESaIcEEESaIS7_EESaIS9_EES1_IN3c1011SmallVectorIlLj8EEESaISG_EESI_S1_INS0_10IStructureESaISJ_EE
FNDA:16926,_ZN5neml210AxisLayoutC2EPKS0_mmmSt6vectorImSaImEE
FNDA:88644,_ZNK5neml210AxisLayout6ngroupEv
FNDA:18663,_ZNK5neml210AxisLayout13group_offsetsEm
FNDA:8976,_ZNK5neml210AxisLayout5groupEm
FNDA:22474,_ZNK5neml210AxisLayout4istrEm
FNF:15
FNH:14
DA:32,92
DA:35,92
DA:36,92
DA:37,92
DA:38,184
DA:40,92
DA:41,212
DA:43,120
DA:44,120
DA:45,120
DA:47,92
DA:49,92
DA:51,92
DA:53,92
DA:55,16926
DA:59,16926
DA:60,16926
DA:61,16926
DA:62,16926
DA:63,16926
DA:64,33852
DA:66,16926
DA:67,16926
DA:70,88644
DA:72,88644
DA:73,13772
DA:74,74872
DA:78,18663
DA:80,18663
DA:82,1964
DA:83,1964
DA:85,16699
DA:86,16696
DA:90,8976
DA:92,8976
DA:93,8973
DA:97,22474
DA:99,22474
DA:101,2384
DA:102,2384
DA:104,20090
DA:105,20090
DA:109,7953
DA:111,7953
DA:115,353241
DA:117,353241
DA:121,5984
DA:123,5984
DA:124,19367
DA:126,13383
DA:127,13383
DA:128,13378
DA:129,13383
DA:131,5984
DA:132,0
DA:135,0
DA:137,0
DA:138,0
DA:139,0
DA:140,0
DA:141,0
DA:144,112025
DA:146,112025
DA:147,112025
DA:151,81402
DA:153,81402
DA:154,81402
DA:158,81423
DA:160,81423
DA:161,81423
DA:165,24
DA:167,24
DA:168,24
DA:170,24
DA:171,24
DA:174,1708
DA:177,1708
DA:178,0
DA:179,3555
DA:181,1847
DA:182,0
DA:183,1847
DA:184,0
DA:187,1708
DA:188,0
DA:189,5521
DA:191,3813
DA:192,0
DA:193,3813
DA:194,0
DA:195,3813
DA:196,0
DA:198,1708
LF:93
LH:79
end_of_record
TN:
SF:/home/runner/work/neml2/neml2/src/neml2/equation_systems/EquationSystem.cxx
FN:30,35,_ZN5neml214EquationSystem16expected_optionsEv
FN:37,40,_ZN5neml214EquationSystemC2ERKNS_9OptionSetE
FNDA:1,_ZN5neml214EquationSystem16expected_optionsEv
FNDA:15,_ZN5neml214EquationSystemC2ERKNS_9OptionSetE
FNF:2
FNH:2
DA:30,1
DA:32,1
DA:33,1
DA:34,1
DA:35,0
DA:37,15
DA:38,15
DA:40,15
LF:8
LH:7
end_of_record
TN:
SF:/home/runner/work/neml2/neml2/src/neml2/equation_systems/LinearSystem.cxx
FN:108,111,_ZNK5neml212LinearSystem7ulayoutEv
FN:114,117,_ZNK5neml212LinearSystem7glayoutEv
FN:120,123,_ZNK5neml212LinearSystem7blayoutEv
FN:126,128,_ZN5neml212LinearSystem12pre_assembleEbbb
FN:131,136,_ZN5neml212LinearSystem13post_assembleEbbb
FN:33,38,_ZN5neml212LinearSystem4initEv
FN:41,43,_ZN5neml212LinearSystem9u_changedEv
FN:46,51,_ZN5neml212LinearSystem9g_changedEv
FN:54,61,_ZN5neml212LinearSystem1AEv
FN:64,71,_ZN5neml212LinearSystem1bEv
FN:74,82,_ZN5neml212LinearSystem7A_and_bEv
FN:85,93,_ZN5neml212LinearSystem7A_and_BEv
FN:96,105,_ZN5neml212LinearSystem13A_and_B_and_bEv
FNDA:1869,_ZNK5neml212LinearSystem7ulayoutEv
FNDA:4,_ZNK5neml212LinearSystem7glayoutEv
FNDA:2949,_ZNK5neml212LinearSystem7blayoutEv
FNDA:1673,_ZN5neml212LinearSystem12pre_assembleEbbb
FNDA:1672,_ZN5neml212LinearSystem13post_assembleEbbb
FNDA:21,_ZN5neml212LinearSystem4initEv
FNDA:0,_ZN5neml212LinearSystem9u_changedEv
FNDA:213,_ZN5neml212LinearSystem9g_changedEv
FNDA:0,_ZN5neml212LinearSystem1AEv
FNDA:948,_ZN5neml212LinearSystem1bEv
FNDA:721,_ZN5neml212LinearSystem7A_and_bEv
FNDA:4,_ZN5neml212LinearSystem7A_and_BEv
FNDA:0,_ZN5neml212LinearSystem13A_and_B_and_bEv
FNF:13
FNH:10
DA:33,21
DA:35,21
DA:36,20
DA:37,20
DA:38,20
DA:41,0
DA:43,0
DA:46,213
DA:48,213
DA:49,213
DA:50,213
DA:51,213
DA:54,0
DA:56,0
DA:57,0
DA:58,0
DA:59,0
DA:60,0
DA:61,0
DA:64,948
DA:66,948
DA:67,948
DA:68,948
DA:69,947
DA:70,947
DA:71,1
DA:74,721
DA:76,721
DA:77,721
DA:78,721
DA:79,721
DA:80,721
DA:81,1442
DA:82,721
DA:85,4
DA:87,4
DA:88,4
DA:89,4
DA:90,4
DA:91,4
DA:92,8
DA:93,4
DA:96,0
DA:98,0
DA:99,0
DA:100,0
DA:101,0
DA:102,0
DA:103,0
DA:104,0
DA:105,0
DA:108,1869
DA:110,1869
DA:114,4
DA:116,4
DA:120,2949
DA:122,2949
DA:126,1673
DA:128,1673
DA:131,1672
DA:133,1672
DA:134,1672
DA:135,1672
DA:136,1672
LF:64
LH:46
end_of_record
TN:
SF:/home/runner/work/neml2/neml2/src/neml2/equation_systems/NonlinearSystem.cxx
FN:30,35,_ZN5neml215NonlinearSystem9u_changedEv
FNDA:883,_ZN5neml215NonlinearSystem9u_changedEv
FNF:1
FNH:1
DA:30,883
DA:32,883
DA:33,883
DA:34,883
DA:35,883
LF:5
LH:5
end_of_record
TN:
SF:/home/runner/work/neml2/neml2/src/neml2/equation_systems/SparseMatrix.cxx
FN:39,44,_ZN5neml212SparseMatrixC2ENS_10AxisLayoutES1_
FN:46,56,_ZN5neml212SparseMatrixC2ENS_10AxisLayoutES1_St6vectorIS2_INS_6TensorESaIS3_EESaIS5_EE
FN:59,66,_ZNK5neml212SparseMatrix7optionsEv
FN:69,84,_ZNK5neml212SparseMatrix5groupEmm
FN:87,167,_ZNK5neml212SparseMatrix8assembleEv
FNDA:1,_ZN5neml212SparseMatrixC2ENS_10AxisLayoutES1_
FNDA:690,_ZN5neml212SparseMatrixC2ENS_10AxisLayoutES1_St6vectorIS2_INS_6TensorESaIS3_EESaIS5_EE
FNDA:1,_ZNK5neml212SparseMatrix7optionsEv
FNDA:4,_ZNK5neml212SparseMatrix5groupEmm
FNDA:678,_ZNK5neml212SparseMatrix8assembleEv
FNF:5
FNH:5
DA:39,1
DA:40,3
DA:41,1
DA:42,1
DA:44,1
DA:46,690
DA:47,690
DA:48,690
DA:49,690
DA:51,690
DA:53,2552
DA:54,1862
DA:56,690
DA:59,1
DA:61,1
DA:62,1
DA:63,1
DA:64,1
DA:65,0
DA:69,4
DA:71,4
DA:72,4
DA:73,4
DA:74,4
DA:75,4
DA:76,4
DA:77,8
DA:79,4
DA:80,8
DA:81,4
DA:82,4
DA:83,8
DA:84,4
DA:87,678
DA:90,1356
DA:92,1480
DA:93,1850
DA:95,1048
DA:96,1048
DA:97,1048
DA:98,1048
DA:99,1048
DA:100,1048
DA:101,1048
DA:102,1048
DA:104,1048
DA:105,1048
DA:106,1048
DA:107,1048
DA:109,1048
DA:110,1048
DA:112,1048
DA:113,3257
DA:115,2209
DA:116,7564
DA:118,5355
DA:119,5355
DA:120,18
DA:122,5337
DA:124,1048
DA:125,1048
DA:128,5337
DA:129,0
DA:130,0
DA:132,10674
DA:133,21348
DA:134,5337
DA:137,2209
DA:138,2209
DA:139,7564
DA:141,5355
DA:142,5355
DA:143,5337
DA:145,18
DA:148,2209
DA:149,2209
DA:151,1048
DA:152,1048
DA:153,1048
DA:154,3257
DA:156,2209
DA:157,2209
DA:158,2209
DA:160,0
DA:163,1048
DA:164,1048
DA:166,1356
DA:167,6015
LF:88
LH:84
end_of_record
TN:
SF:/home/runner/work/neml2/neml2/src/neml2/equation_systems/SparseVector.cxx
FN:36,40,_ZN5neml212SparseVectorC2ENS_10AxisLayoutE
FN:42,47,_ZN5neml212SparseVectorC2ENS_10AxisLayoutESt6vectorINS_6TensorESaIS3_EE
FN:50,56,_ZNK5neml212SparseVector7optionsEv
FN:59,64,_ZNK5neml212SparseVector5groupEm
FN:67,118,_ZNK5neml212SparseVector8assembleEv
FNDA:3,_ZN5neml212SparseVectorC2ENS_10AxisLayoutE
FNDA:3286,_ZN5neml212SparseVectorC2ENS_10AxisLayoutESt6vectorINS_6TensorESaIS3_EE
FNDA:1,_ZNK5neml212SparseVector7optionsEv
FNDA:2,_ZNK5neml212SparseVector5groupEm
FNDA:2401,_ZNK5neml212SparseVector8assembleEv
FNF:5
FNH:5
DA:36,3
DA:37,6
DA:38,3
DA:40,3
DA:42,3286
DA:43,3286
DA:44,3286
DA:46,3286
DA:47,3286
DA:50,1
DA:52,2
DA:53,2
DA:54,1
DA:55,0
DA:59,2
DA:61,2
DA:62,2
DA:63,4
DA:64,2
DA:67,2401
DA:69,2401
DA:71,5235
DA:73,2834
DA:74,2834
DA:75,2834
DA:76,2834
DA:79,2834
DA:80,9343
DA:82,6509
DA:83,6509
DA:84,0
DA:85,6509
DA:86,0
DA:88,6509
DA:92,2834
DA:93,2834
DA:94,2834
DA:96,2834
DA:97,2834
DA:102,2834
DA:103,2834
DA:104,2834
DA:105,9343
DA:107,6509
DA:108,6509
DA:109,6509
DA:111,0
DA:114,2834
DA:115,2834
DA:117,4802
DA:118,8910
LF:51
LH:47
end_of_record
TN:
SF:/home/runner/work/neml2/neml2/src/neml2/equation_systems/assembly.cxx
FN:102,102,_ZZN5neml220pop_intrsc_intmd_dimILm1EEENS_6TensorERKS1_RKSt5arrayImXT_EERKS4_IN3c1011SmallVectorIlLj8EEEXT_EERKNSt7__cxx1112basic_stringIcSt11char_traitsIcESaIcEEEENKUlDpRKT_E_clIJSA_EEEDaSP_
FN:102,102,_ZZN5neml220pop_intrsc_intmd_dimILm2EEENS_6TensorERKS1_RKSt5arrayImXT_EERKS4_IN3c1011SmallVectorIlLj8EEEXT_EERKNSt7__cxx1112basic_stringIcSt11char_traitsIcESaIcEEEENKUlDpRKT_E_clIJSA_SA_EEEDaSP_
FN:102,102,_ZZN5neml220pop_intrsc_intmd_dimILm3EEENS_6TensorERKS1_RKSt5arrayImXT_EERKS4_IN3c1011SmallVectorIlLj8EEEXT_EERKNSt7__cxx1112basic_stringIcSt11char_traitsIcESaIcEEEENKUlDpRKT_E_clIJSA_SA_SA_EEEDaSP_
FN:144,164,_ZN5neml221push_intrsc_intmd_dimILm1EEENS_6TensorERKS1_RKSt5arrayImXT_EERKS4_IN3c1011SmallVectorIlLj8EEEXT_EERKNSt7__cxx1112basic_stringIcSt11char_traitsIcESaIcEEE
FN:144,164,_ZN5neml221push_intrsc_intmd_dimILm2EEENS_6TensorERKS1_RKSt5arrayImXT_EERKS4_IN3c1011SmallVectorIlLj8EEEXT_EERKNSt7__cxx1112basic_stringIcSt11char_traitsIcESaIcEEE
FN:144,164,_ZN5neml221push_intrsc_intmd_dimILm3EEENS_6TensorERKS1_RKSt5arrayImXT_EERKS4_IN3c1011SmallVectorIlLj8EEEXT_EERKNSt7__cxx1112basic_stringIcSt11char_traitsIcESaIcEEE
FN:182,242,_ZN5neml211to_assemblyILm1EEENS_6TensorERKS1_RKSt5arrayIN3c1011SmallVectorIlLj8EEEXT_EESA_
FN:182,242,_ZN5neml211to_assemblyILm2EEENS_6TensorERKS1_RKSt5arrayIN3c1011SmallVectorIlLj8EEEXT_EESA_
FN:190,190,_ZZN5neml211to_assemblyILm1EEENS_6TensorERKS1_RKSt5arrayIN3c1011SmallVectorIlLj8EEEXT_EESA_ENKUlDpRKT_E_clIJS7_EEEDaSE_
FN:190,190,_ZZN5neml211to_assemblyILm2EEENS_6TensorERKS1_RKSt5arrayIN3c1011SmallVectorIlLj8EEEXT_EESA_ENKUlDpRKT_E_clIJS7_S7_EEEDaSE_
FN:201,201,_ZZN5neml211to_assemblyILm1EEENS_6TensorERKS1_RKSt5arrayIN3c1011SmallVectorIlLj8EEEXT_EESA_ENKUlDpRKT_E0_clIJS7_EEEDaSE_
FN:201,201,_ZZN5neml211to_assemblyILm2EEENS_6TensorERKS1_RKSt5arrayIN3c1011SmallVectorIlLj8EEEXT_EESA_ENKUlDpRKT_E0_clIJS7_S7_EEEDaSE_
FN:254,316,_ZN5neml213from_assemblyILm1EEENS_6TensorERKS1_RKSt5arrayIN3c1011SmallVectorIlLj8EEEXT_EESA_
FN:254,316,_ZN5neml213from_assemblyILm2EEENS_6TensorERKS1_RKSt5arrayIN3c1011SmallVectorIlLj8EEEXT_EESA_
FN:38,49,_ZN5neml220pop_intrsc_intmd_dimERKNS_6TensorEl
FN:52,63,_ZN5neml221push_intrsc_intmd_dimERKNS_6TensorEl
FN:66,76,_ZN5neml220pop_intrsc_intmd_dimERKNS_10DerivativeILm1EEE
FN:80,126,_ZN5neml220pop_intrsc_intmd_dimILm1EEENS_6TensorERKS1_RKSt5arrayImXT_EERKS4_IN3c1011SmallVectorIlLj8EEEXT_EERKNSt7__cxx1112basic_stringIcSt11char_traitsIcESaIcEEE
FN:80,126,_ZN5neml220pop_intrsc_intmd_dimILm2EEENS_6TensorERKS1_RKSt5arrayImXT_EERKS4_IN3c1011SmallVectorIlLj8EEEXT_EERKNSt7__cxx1112basic_stringIcSt11char_traitsIcESaIcEEE
FN:80,126,_ZN5neml220pop_intrsc_intmd_dimILm3EEENS_6TensorERKS1_RKSt5arrayImXT_EERKS4_IN3c1011SmallVectorIlLj8EEEXT_EERKNSt7__cxx1112basic_stringIcSt11char_traitsIcESaIcEEE
FNDA:0,_ZZN5neml220pop_intrsc_intmd_dimILm1EEENS_6TensorERKS1_RKSt5arrayImXT_EERKS4_IN3c1011SmallVectorIlLj8EEEXT_EERKNSt7__cxx1112basic_stringIcSt11char_traitsIcESaIcEEEENKUlDpRKT_E_clIJSA_EEEDaSP_
FNDA:470,_ZZN5neml220pop_intrsc_intmd_dimILm2EEENS_6TensorERKS1_RKSt5arrayImXT_EERKS4_IN3c1011SmallVectorIlLj8EEEXT_EERKNSt7__cxx1112basic_stringIcSt11char_traitsIcESaIcEEEENKUlDpRKT_E_clIJSA_SA_EEEDaSP_
FNDA:0,_ZZN5neml220pop_intrsc_intmd_dimILm3EEENS_6TensorERKS1_RKSt5arrayImXT_EERKS4_IN3c1011SmallVectorIlLj8EEEXT_EERKNSt7__cxx1112basic_stringIcSt11char_traitsIcESaIcEEEENKUlDpRKT_E_clIJSA_SA_SA_EEEDaSP_
FNDA:0,_ZN5neml221push_intrsc_intmd_dimILm1EEENS_6TensorERKS1_RKSt5arrayImXT_EERKS4_IN3c1011SmallVectorIlLj8EEEXT_EERKNSt7__cxx1112basic_stringIcSt11char_traitsIcESaIcEEE
FNDA:1,_ZN5neml221push_intrsc_intmd_dimILm2EEENS_6TensorERKS1_RKSt5arrayImXT_EERKS4_IN3c1011SmallVectorIlLj8EEEXT_EERKNSt7__cxx1112basic_stringIcSt11char_traitsIcESaIcEEE
FNDA:0,_ZN5neml221push_intrsc_intmd_dimILm3EEENS_6TensorERKS1_RKSt5arrayImXT_EERKS4_IN3c1011SmallVectorIlLj8EEEXT_EERKNSt7__cxx1112basic_stringIcSt11char_traitsIcESaIcEEE
FNDA:6511,_ZN5neml211to_assemblyILm1EEENS_6TensorERKS1_RKSt5arrayIN3c1011SmallVectorIlLj8EEEXT_EESA_
FNDA:5338,_ZN5neml211to_assemblyILm2EEENS_6TensorERKS1_RKSt5arrayIN3c1011SmallVectorIlLj8EEEXT_EESA_
FNDA:6511,_ZZN5neml211to_assemblyILm1EEENS_6TensorERKS1_RKSt5arrayIN3c1011SmallVectorIlLj8EEEXT_EESA_ENKUlDpRKT_E_clIJS7_EEEDaSE_
FNDA:5338,_ZZN5neml211to_assemblyILm2EEENS_6TensorERKS1_RKSt5arrayIN3c1011SmallVectorIlLj8EEEXT_EESA_ENKUlDpRKT_E_clIJS7_S7_EEEDaSE_
FNDA:6511,_ZZN5neml211to_assemblyILm1EEENS_6TensorERKS1_RKSt5arrayIN3c1011SmallVectorIlLj8EEEXT_EESA_ENKUlDpRKT_E0_clIJS7_EEEDaSE_
FNDA:5338,_ZZN5neml211to_assemblyILm2EEENS_6TensorERKS1_RKSt5arrayIN3c1011SmallVectorIlLj8EEEXT_EESA_ENKUlDpRKT_E0_clIJS7_S7_EEEDaSE_
FNDA:2396,_ZN5neml213from_assemblyILm1EEENS_6TensorERKS1_RKSt5arrayIN3c1011SmallVectorIlLj8EEEXT_EESA_
FNDA:58,_ZN5neml213from_assemblyILm2EEENS_6TensorERKS1_RKSt5arrayIN3c1011SmallVectorIlLj8EEEXT_EESA_
FNDA:2339,_ZN5neml220pop_intrsc_intmd_dimERKNS_6TensorEl
FNDA:1842,_ZN5neml221push_intrsc_intmd_dimERKNS_6TensorEl
FNDA:469,_ZN5neml220pop_intrsc_intmd_dimERKNS_10DerivativeILm1EEE
FNDA:0,_ZN5neml220pop_intrsc_intmd_dimILm1EEENS_6TensorERKS1_RKSt5arrayImXT_EERKS4_IN3c1011SmallVectorIlLj8EEEXT_EERKNSt7__cxx1112basic_stringIcSt11char_traitsIcESaIcEEE
FNDA:470,_ZN5neml220pop_intrsc_intmd_dimILm2EEENS_6TensorERKS1_RKSt5arrayImXT_EERKS4_IN3c1011SmallVectorIlLj8EEEXT_EERKNSt7__cxx1112basic_stringIcSt11char_traitsIcESaIcEEE
FNDA:0,_ZN5neml220pop_intrsc_intmd_dimILm3EEENS_6TensorERKS1_RKSt5arrayImXT_EERKS4_IN3c1011SmallVectorIlLj8EEEXT_EERKNSt7__cxx1112basic_stringIcSt11char_traitsIcESaIcEEE
FNF:20
FNH:14
DA:38,2339
DA:40,2339
DA:41,2262
DA:42,77
DA:48,77
DA:52,1842
DA:54,1842
DA:55,1695
DA:56,147
DA:62,147
DA:66,469
DA:68,469
DA:70,469
DA:71,469
DA:72,469
DA:73,469
DA:75,1407
DA:76,938
DA:80,470
DA:85,470
DA:93,470
DA:101,470
DA:102,470
DA:103,470
DA:113,470
DA:114,470
DA:115,27
DA:116,470
DA:117,470
DA:118,1410
DA:120,981
DA:121,41
DA:122,940
DA:125,940
DA:126,470
DA:144,1
DA:152,1
DA:153,1
DA:154,1
DA:155,1
DA:156,3
DA:158,4
DA:159,2
DA:160,2
DA:161,2
DA:163,2
DA:164,1
DA:182,11849
DA:189,11849
DA:190,11849
DA:191,11849
DA:200,11849
DA:201,11849
DA:202,11849
DA:210,11849
DA:222,11849
DA:223,11849
DA:224,11849
DA:225,11849
DA:226,11849
DA:227,11849
DA:228,29036
DA:230,17187
DA:231,17187
DA:233,4
DA:234,4
DA:236,17187
DA:240,11849
DA:241,23698
DA:242,11849
DA:254,2454
DA:259,2454
DA:260,4966
DA:261,2512
DA:262,2454
DA:264,2454
DA:272,2454
DA:273,4966
DA:275,2512
DA:276,2512
DA:280,2454
DA:295,2454
DA:296,2454
DA:297,2454
DA:298,2454
DA:299,2454
DA:300,2454
DA:301,2512
DA:303,58
DA:305,1
DA:306,1
DA:307,1
DA:308,1
DA:309,1
DA:311,58
DA:315,4908
DA:316,2454
LF:97
LH:97
end_of_record
TN:
SF:/home/runner/work/neml2/neml2/src/neml2/equation_systems/link_anchor.cxx
FN:30,34,_neml2_force_link_equation_systems
FNDA:340,_neml2_force_link_equation_systems
FNF:1
FNH:1
DA:30,340
DA:33,340
DA:34,340
LF:3
LH:3
end_of_record
TN:
SF:/home/runner/work/neml2/neml2/src/neml2/misc/defaults.cxx
FN:30,33,_ZN5neml217set_default_dtypeEN3c1010ScalarTypeE
FN:36,39,_ZN5neml217get_default_dtypeEv
FN:42,45,_ZN5neml222default_tensor_optionsEv
FN:48,51,_ZN5neml225set_default_integer_dtypeEN3c1010ScalarTypeE
FN:54,57,_ZN5neml225get_default_integer_dtypeEv
FN:60,63,_ZN5neml230default_integer_tensor_optionsEv
FN:68,72,_ZN5neml27details21default_integer_dtypeEv
FNDA:6,_ZN5neml217set_default_dtypeEN3c1010ScalarTypeE
FNDA:468,_ZN5neml217get_default_dtypeEv
FNDA:7517,_ZN5neml222default_tensor_optionsEv
FNDA:0,_ZN5neml225set_default_integer_dtypeEN3c1010ScalarTypeE
FNDA:4960,_ZN5neml225get_default_integer_dtypeEv
FNDA:11,_ZN5neml230default_integer_tensor_optionsEv
FNDA:4960,_ZN5neml27details21default_integer_dtypeEv
FNF:7
FNH:6
DA:30,6
DA:32,6
DA:33,6
DA:36,468
DA:38,468
DA:42,7517
DA:44,7517
DA:48,0
DA:50,0
DA:51,0
DA:54,4960
DA:56,4960
DA:60,11
DA:62,11
DA:68,4960
DA:71,4960
LF:16
LH:13
end_of_record
TN:
SF:/home/runner/work/neml2/neml2/src/neml2/misc/errors.cxx
FN:30,33,_ZNK5neml213NEMLException4whatEv
FN:36,39,_ZNK5neml214SetupException4whatEv
FNDA:35,_ZNK5neml213NEMLException4whatEv
FNDA:105,_ZNK5neml214SetupException4whatEv
FNF:2
FNH:2
DA:30,35
DA:32,35
DA:36,105
DA:38,105
LF:4
LH:4
end_of_record
TN:
SF:/home/runner/work/neml2/neml2/src/neml2/misc/string_utils.cxx
FN:32,36,_ZN5neml25utils8demangleB5cxx11EPKc
FN:39,49,_ZN5neml25utils4joinERKSt6vectorINSt7__cxx1112basic_stringIcSt11char_traitsIcESaIcEEESaIS7_EERKS7_
FN:52,70,_ZN5neml25utils5splitERKNSt7__cxx1112basic_stringIcSt11char_traitsIcESaIcEEES8_
FN:73,80,_ZN5neml25utils4trimERKNSt7__cxx1112basic_stringIcSt11char_traitsIcESaIcEEES8_
FN:83,86,_ZN5neml25utils10start_withESt17basic_string_viewIcSt11char_traitsIcEES4_
FN:89,93,_ZN5neml25utils8end_withESt17basic_string_viewIcSt11char_traitsIcEES4_
FNDA:440541,_ZN5neml25utils8demangleB5cxx11EPKc
FNDA:0,_ZN5neml25utils4joinERKSt6vectorINSt7__cxx1112basic_stringIcSt11char_traitsIcESaIcEEESaIS7_EERKS7_
FNDA:401,_ZN5neml25utils5splitERKNSt7__cxx1112basic_stringIcSt11char_traitsIcESaIcEEES8_
FNDA:319,_ZN5neml25utils4trimERKNSt7__cxx1112basic_stringIcSt11char_traitsIcESaIcEEES8_
FNDA:41120,_ZN5neml25utils10start_withESt17basic_string_viewIcSt11char_traitsIcEES4_
FNDA:659,_ZN5neml25utils8end_withESt17basic_string_viewIcSt11char_traitsIcEES4_
FNF:6
FNH:5
DA:32,440541
DA:35,440541
DA:39,0
DA:41,0
DA:42,0
DA:44,0
DA:45,0
DA:46,0
DA:48,0
DA:49,0
DA:52,401
DA:54,401
DA:56,401
DA:57,401
DA:59,578
DA:61,560
DA:63,560
DA:64,560
DA:65,383
DA:66,177
DA:69,401
DA:70,0
DA:73,319
DA:75,319
DA:76,319
DA:77,32
DA:78,303
DA:79,303
DA:83,41120
DA:85,41120
DA:89,659
DA:91,1318
DA:92,1318
LF:33
LH:24
end_of_record
TN:
SF:/home/runner/work/neml2/neml2/src/neml2/misc/types.cxx
FN:34,48,_ZN5neml217machine_precisionEN3c1010ScalarTypeE
FN:51,67,_ZN5neml2lsERSoNS_5FTypeE
FNDA:18555,_ZN5neml217machine_precisionEN3c1010ScalarTypeE
FNDA:0,_ZN5neml2lsERSoNS_5FTypeE
FNF:2
FNH:1
DA:34,18555
DA:36,18555
DA:38,10259
DA:39,10259
DA:40,4184
DA:41,4184
DA:42,4112
DA:44,4112
DA:45,0
DA:46,0
DA:51,0
DA:53,0
DA:54,0
DA:55,0
DA:56,0
DA:57,0
DA:58,0
DA:59,0
DA:60,0
DA:61,0
DA:62,0
DA:64,0
DA:66,0
LF:23
LH:8
end_of_record
TN:
SF:/home/runner/work/neml2/neml2/src/neml2/models/BufferStore.cxx
FN:101,110,_ZN5neml211BufferStore14declare_bufferINS_10QuaternionEvEERKT_RKNSt7__cxx1112basic_stringIcSt11char_traitsIcESaIcEEESD_
FN:101,110,_ZN5neml211BufferStore14declare_bufferINS_11MillerIndexEvEERKT_RKNSt7__cxx1112basic_stringIcSt11char_traitsIcESaIcEEESD_
FN:101,110,_ZN5neml211BufferStore14declare_bufferINS_2R2EvEERKT_RKNSt7__cxx1112basic_stringIcSt11char_traitsIcESaIcEEESD_
FN:101,110,_ZN5neml211BufferStore14declare_bufferINS_2R3EvEERKT_RKNSt7__cxx1112basic_stringIcSt11char_traitsIcESaIcEEESD_
FN:101,110,_ZN5neml211BufferStore14declare_bufferINS_2R4EvEERKT_RKNSt7__cxx1112basic_stringIcSt11char_traitsIcESaIcEEESD_
FN:101,110,_ZN5neml211BufferStore14declare_bufferINS_3RotEvEERKT_RKNSt7__cxx1112basic_stringIcSt11char_traitsIcESaIcEEESD_
FN:101,110,_ZN5neml211BufferStore14declare_bufferINS_3SR2EvEERKT_RKNSt7__cxx1112basic_stringIcSt11char_traitsIcESaIcEEESD_
FN:101,110,_ZN5neml211BufferStore14declare_bufferINS_3VecEvEERKT_RKNSt7__cxx1112basic_stringIcSt11char_traitsIcESaIcEEESD_
FN:101,110,_ZN5neml211BufferStore14declare_bufferINS_3WR2EvEERKT_RKNSt7__cxx1112basic_stringIcSt11char_traitsIcESaIcEEESD_
FN:101,110,_ZN5neml211BufferStore14declare_bufferINS_4SFR3EvEERKT_RKNSt7__cxx1112basic_stringIcSt11char_traitsIcESaIcEEESD_
FN:101,110,_ZN5neml211BufferStore14declare_bufferINS_4SSR4EvEERKT_RKNSt7__cxx1112basic_stringIcSt11char_traitsIcESaIcEEESD_
FN:101,110,_ZN5neml211BufferStore14declare_bufferINS_4SWR4EvEERKT_RKNSt7__cxx1112basic_stringIcSt11char_traitsIcESaIcEEESD_
FN:101,110,_ZN5neml211BufferStore14declare_bufferINS_4WSR4EvEERKT_RKNSt7__cxx1112basic_stringIcSt11char_traitsIcESaIcEEESD_
FN:101,110,_ZN5neml211BufferStore14declare_bufferINS_4WWR4EvEERKT_RKNSt7__cxx1112basic_stringIcSt11char_traitsIcESaIcEEESD_
FN:101,110,_ZN5neml211BufferStore14declare_bufferINS_5SFFR4EvEERKT_RKNSt7__cxx1112basic_stringIcSt11char_traitsIcESaIcEEESD_
FN:101,110,_ZN5neml211BufferStore14declare_bufferINS_5WFFR4EvEERKT_RKNSt7__cxx1112basic_stringIcSt11char_traitsIcESaIcEEESD_
FN:101,110,_ZN5neml211BufferStore14declare_bufferINS_6ScalarEvEERKT_RKNSt7__cxx1112basic_stringIcSt11char_traitsIcESaIcEEESD_
FN:101,110,_ZN5neml211BufferStore14declare_bufferINS_6TensorEvEERKT_RKNSt7__cxx1112basic_stringIcSt11char_traitsIcESaIcEEESD_
FN:119,143,_ZN5neml211BufferStore19assign_buffer_stackERSt6vectorIN3c106IValueESaIS3_EE
FN:146,154,_ZNK5neml211BufferStore20collect_buffer_stackEv
FN:35,38,_ZN5neml211BufferStoreC2EPNS_11NEML2ObjectE
FN:41,46,_ZN5neml211BufferStore13named_buffersB5cxx11Ev
FN:49,54,_ZN5neml211BufferStore10get_bufferERKNSt7__cxx1112basic_stringIcSt11char_traitsIcESaIcEEE
FN:57,61,_ZN5neml211BufferStore15send_buffers_toERKN3c1013TensorOptionsE
FN:65,86,_ZN5neml211BufferStore14declare_bufferINS_10QuaternionEvEERKT_RKNSt7__cxx1112basic_stringIcSt11char_traitsIcESaIcEEES5_
FN:65,86,_ZN5neml211BufferStore14declare_bufferINS_11MillerIndexEvEERKT_RKNSt7__cxx1112basic_stringIcSt11char_traitsIcESaIcEEES5_
FN:65,86,_ZN5neml211BufferStore14declare_bufferINS_2R2EvEERKT_RKNSt7__cxx1112basic_stringIcSt11char_traitsIcESaIcEEES5_
FN:65,86,_ZN5neml211BufferStore14declare_bufferINS_2R3EvEERKT_RKNSt7__cxx1112basic_stringIcSt11char_traitsIcESaIcEEES5_
FN:65,86,_ZN5neml211BufferStore14declare_bufferINS_2R4EvEERKT_RKNSt7__cxx1112basic_stringIcSt11char_traitsIcESaIcEEES5_
FN:65,86,_ZN5neml211BufferStore14declare_bufferINS_3RotEvEERKT_RKNSt7__cxx1112basic_stringIcSt11char_traitsIcESaIcEEES5_
FN:65,86,_ZN5neml211BufferStore14declare_bufferINS_3SR2EvEERKT_RKNSt7__cxx1112basic_stringIcSt11char_traitsIcESaIcEEES5_
FN:65,86,_ZN5neml211BufferStore14declare_bufferINS_3VecEvEERKT_RKNSt7__cxx1112basic_stringIcSt11char_traitsIcESaIcEEES5_
FN:65,86,_ZN5neml211BufferStore14declare_bufferINS_3WR2EvEERKT_RKNSt7__cxx1112basic_stringIcSt11char_traitsIcESaIcEEES5_
FN:65,86,_ZN5neml211BufferStore14declare_bufferINS_4SFR3EvEERKT_RKNSt7__cxx1112basic_stringIcSt11char_traitsIcESaIcEEES5_
FN:65,86,_ZN5neml211BufferStore14declare_bufferINS_4SSR4EvEERKT_RKNSt7__cxx1112basic_stringIcSt11char_traitsIcESaIcEEES5_
FN:65,86,_ZN5neml211BufferStore14declare_bufferINS_4SWR4EvEERKT_RKNSt7__cxx1112basic_stringIcSt11char_traitsIcESaIcEEES5_
FN:65,86,_ZN5neml211BufferStore14declare_bufferINS_4WSR4EvEERKT_RKNSt7__cxx1112basic_stringIcSt11char_traitsIcESaIcEEES5_
FN:65,86,_ZN5neml211BufferStore14declare_bufferINS_4WWR4EvEERKT_RKNSt7__cxx1112basic_stringIcSt11char_traitsIcESaIcEEES5_
FN:65,86,_ZN5neml211BufferStore14declare_bufferINS_5SFFR4EvEERKT_RKNSt7__cxx1112basic_stringIcSt11char_traitsIcESaIcEEES5_
FN:65,86,_ZN5neml211BufferStore14declare_bufferINS_5WFFR4EvEERKT_RKNSt7__cxx1112basic_stringIcSt11char_traitsIcESaIcEEES5_
FN:65,86,_ZN5neml211BufferStore14declare_bufferINS_6ScalarEvEERKT_RKNSt7__cxx1112basic_stringIcSt11char_traitsIcESaIcEEES5_
FN:65,86,_ZN5neml211BufferStore14declare_bufferINS_6TensorEvEERKT_RKNSt7__cxx1112basic_stringIcSt11char_traitsIcESaIcEEES5_
FN:90,97,_ZN5neml211BufferStore14declare_bufferINS_10QuaternionEvEERKT_RKNSt7__cxx1112basic_stringIcSt11char_traitsIcESaIcEEERKNS_10TensorNameIS3_EE
FN:90,97,_ZN5neml211BufferStore14declare_bufferINS_11MillerIndexEvEERKT_RKNSt7__cxx1112basic_stringIcSt11char_traitsIcESaIcEEERKNS_10TensorNameIS3_EE
FN:90,97,_ZN5neml211BufferStore14declare_bufferINS_2R2EvEERKT_RKNSt7__cxx1112basic_stringIcSt11char_traitsIcESaIcEEERKNS_10TensorNameIS3_EE
FN:90,97,_ZN5neml211BufferStore14declare_bufferINS_2R3EvEERKT_RKNSt7__cxx1112basic_stringIcSt11char_traitsIcESaIcEEERKNS_10TensorNameIS3_EE
FN:90,97,_ZN5neml211BufferStore14declare_bufferINS_2R4EvEERKT_RKNSt7__cxx1112basic_stringIcSt11char_traitsIcESaIcEEERKNS_10TensorNameIS3_EE
FN:90,97,_ZN5neml211BufferStore14declare_bufferINS_3RotEvEERKT_RKNSt7__cxx1112basic_stringIcSt11char_traitsIcESaIcEEERKNS_10TensorNameIS3_EE
FN:90,97,_ZN5neml211BufferStore14declare_bufferINS_3SR2EvEERKT_RKNSt7__cxx1112basic_stringIcSt11char_traitsIcESaIcEEERKNS_10TensorNameIS3_EE
FN:90,97,_ZN5neml211BufferStore14declare_bufferINS_3VecEvEERKT_RKNSt7__cxx1112basic_stringIcSt11char_traitsIcESaIcEEERKNS_10TensorNameIS3_EE
FN:90,97,_ZN5neml211BufferStore14declare_bufferINS_3WR2EvEERKT_RKNSt7__cxx1112basic_stringIcSt11char_traitsIcESaIcEEERKNS_10TensorNameIS3_EE
FN:90,97,_ZN5neml211BufferStore14declare_bufferINS_4SFR3EvEERKT_RKNSt7__cxx1112basic_stringIcSt11char_traitsIcESaIcEEERKNS_10TensorNameIS3_EE
FN:90,97,_ZN5neml211BufferStore14declare_bufferINS_4SSR4EvEERKT_RKNSt7__cxx1112basic_stringIcSt11char_traitsIcESaIcEEERKNS_10TensorNameIS3_EE
FN:90,97,_ZN5neml211BufferStore14declare_bufferINS_4SWR4EvEERKT_RKNSt7__cxx1112basic_stringIcSt11char_traitsIcESaIcEEERKNS_10TensorNameIS3_EE
FN:90,97,_ZN5neml211BufferStore14declare_bufferINS_4WSR4EvEERKT_RKNSt7__cxx1112basic_stringIcSt11char_traitsIcESaIcEEERKNS_10TensorNameIS3_EE
FN:90,97,_ZN5neml211BufferStore14declare_bufferINS_4WWR4EvEERKT_RKNSt7__cxx1112basic_stringIcSt11char_traitsIcESaIcEEERKNS_10TensorNameIS3_EE
FN:90,97,_ZN5neml211BufferStore14declare_bufferINS_5SFFR4EvEERKT_RKNSt7__cxx1112basic_stringIcSt11char_traitsIcESaIcEEERKNS_10TensorNameIS3_EE
FN:90,97,_ZN5neml211BufferStore14declare_bufferINS_5WFFR4EvEERKT_RKNSt7__cxx1112basic_stringIcSt11char_traitsIcESaIcEEERKNS_10TensorNameIS3_EE
FN:90,97,_ZN5neml211BufferStore14declare_bufferINS_6ScalarEvEERKT_RKNSt7__cxx1112basic_stringIcSt11char_traitsIcESaIcEEERKNS_10TensorNameIS3_EE
FN:90,97,_ZN5neml211BufferStore14declare_bufferINS_6TensorEvEERKT_RKNSt7__cxx1112basic_stringIcSt11char_traitsIcESaIcEEERKNS_10TensorNameIS3_EE
FNDA:0,_ZN5neml211BufferStore14declare_bufferINS_10QuaternionEvEERKT_RKNSt7__cxx1112basic_stringIcSt11char_traitsIcESaIcEEESD_
FNDA:52,_ZN5neml211BufferStore14declare_bufferINS_11MillerIndexEvEERKT_RKNSt7__cxx1112basic_stringIcSt11char_traitsIcESaIcEEESD_
FNDA:0,_ZN5neml211BufferStore14declare_bufferINS_2R2EvEERKT_RKNSt7__cxx1112basic_stringIcSt11char_traitsIcESaIcEEESD_
FNDA:0,_ZN5neml211BufferStore14declare_bufferINS_2R3EvEERKT_RKNSt7__cxx1112basic_stringIcSt11char_traitsIcESaIcEEESD_
FNDA:0,_ZN5neml211BufferStore14declare_bufferINS_2R4EvEERKT_RKNSt7__cxx1112basic_stringIcSt11char_traitsIcESaIcEEESD_
FNDA:0,_ZN5neml211BufferStore14declare_bufferINS_3RotEvEERKT_RKNSt7__cxx1112basic_stringIcSt11char_traitsIcESaIcEEESD_
FNDA:1,_ZN5neml211BufferStore14declare_bufferINS_3SR2EvEERKT_RKNSt7__cxx1112basic_stringIcSt11char_traitsIcESaIcEEESD_
FNDA:0,_ZN5neml211BufferStore14declare_bufferINS_3VecEvEERKT_RKNSt7__cxx1112basic_stringIcSt11char_traitsIcESaIcEEESD_
FNDA:0,_ZN5neml211BufferStore14declare_bufferINS_3WR2EvEERKT_RKNSt7__cxx1112basic_stringIcSt11char_traitsIcESaIcEEESD_
FNDA:0,_ZN5neml211BufferStore14declare_bufferINS_4SFR3EvEERKT_RKNSt7__cxx1112basic_stringIcSt11char_traitsIcESaIcEEESD_
FNDA:0,_ZN5neml211BufferStore14declare_bufferINS_4SSR4EvEERKT_RKNSt7__cxx1112basic_stringIcSt11char_traitsIcESaIcEEESD_
FNDA:0,_ZN5neml211BufferStore14declare_bufferINS_4SWR4EvEERKT_RKNSt7__cxx1112basic_stringIcSt11char_traitsIcESaIcEEESD_
FNDA:0,_ZN5neml211BufferStore14declare_bufferINS_4WSR4EvEERKT_RKNSt7__cxx1112basic_stringIcSt11char_traitsIcESaIcEEESD_
FNDA:0,_ZN5neml211BufferStore14declare_bufferINS_4WWR4EvEERKT_RKNSt7__cxx1112basic_stringIcSt11char_traitsIcESaIcEEESD_
FNDA:0,_ZN5neml211BufferStore14declare_bufferINS_5SFFR4EvEERKT_RKNSt7__cxx1112basic_stringIcSt11char_traitsIcESaIcEEESD_
FNDA:0,_ZN5neml211BufferStore14declare_bufferINS_5WFFR4EvEERKT_RKNSt7__cxx1112basic_stringIcSt11char_traitsIcESaIcEEESD_
FNDA:38,_ZN5neml211BufferStore14declare_bufferINS_6ScalarEvEERKT_RKNSt7__cxx1112basic_stringIcSt11char_traitsIcESaIcEEESD_
FNDA:0,_ZN5neml211BufferStore14declare_bufferINS_6TensorEvEERKT_RKNSt7__cxx1112basic_stringIcSt11char_traitsIcESaIcEEESD_
FNDA:0,_ZN5neml211BufferStore19assign_buffer_stackERSt6vectorIN3c106IValueESaIS3_EE
FNDA:0,_ZNK5neml211BufferStore20collect_buffer_stackEv
FNDA:535,_ZN5neml211BufferStoreC2EPNS_11NEML2ObjectE
FNDA:306232,_ZN5neml211BufferStore13named_buffersB5cxx11Ev
FNDA:0,_ZN5neml211BufferStore10get_bufferERKNSt7__cxx1112basic_stringIcSt11char_traitsIcESaIcEEE
FNDA:94,_ZN5neml211BufferStore15send_buffers_toERKN3c1013TensorOptionsE
FNDA:0,_ZN5neml211BufferStore14declare_bufferINS_10QuaternionEvEERKT_RKNSt7__cxx1112basic_stringIcSt11char_traitsIcESaIcEEES5_
FNDA:60,_ZN5neml211BufferStore14declare_bufferINS_11MillerIndexEvEERKT_RKNSt7__cxx1112basic_stringIcSt11char_traitsIcESaIcEEES5_
FNDA:30,_ZN5neml211BufferStore14declare_bufferINS_2R2EvEERKT_RKNSt7__cxx1112basic_stringIcSt11char_traitsIcESaIcEEES5_
FNDA:0,_ZN5neml211BufferStore14declare_bufferINS_2R3EvEERKT_RKNSt7__cxx1112basic_stringIcSt11char_traitsIcESaIcEEES5_
FNDA:0,_ZN5neml211BufferStore14declare_bufferINS_2R4EvEERKT_RKNSt7__cxx1112basic_stringIcSt11char_traitsIcESaIcEEES5_
FNDA:0,_ZN5neml211BufferStore14declare_bufferINS_3RotEvEERKT_RKNSt7__cxx1112basic_stringIcSt11char_traitsIcESaIcEEES5_
FNDA:31,_ZN5neml211BufferStore14declare_bufferINS_3SR2EvEERKT_RKNSt7__cxx1112basic_stringIcSt11char_traitsIcESaIcEEES5_
FNDA:120,_ZN5neml211BufferStore14declare_bufferINS_3VecEvEERKT_RKNSt7__cxx1112basic_stringIcSt11char_traitsIcESaIcEEES5_
FNDA:30,_ZN5neml211BufferStore14declare_bufferINS_3WR2EvEERKT_RKNSt7__cxx1112basic_stringIcSt11char_traitsIcESaIcEEES5_
FNDA:0,_ZN5neml211BufferStore14declare_bufferINS_4SFR3EvEERKT_RKNSt7__cxx1112basic_stringIcSt11char_traitsIcESaIcEEES5_
FNDA:0,_ZN5neml211BufferStore14declare_bufferINS_4SSR4EvEERKT_RKNSt7__cxx1112basic_stringIcSt11char_traitsIcESaIcEEES5_
FNDA:0,_ZN5neml211BufferStore14declare_bufferINS_4SWR4EvEERKT_RKNSt7__cxx1112basic_stringIcSt11char_traitsIcESaIcEEES5_
FNDA:0,_ZN5neml211BufferStore14declare_bufferINS_4WSR4EvEERKT_RKNSt7__cxx1112basic_stringIcSt11char_traitsIcESaIcEEES5_
FNDA:0,_ZN5neml211BufferStore14declare_bufferINS_4WWR4EvEERKT_RKNSt7__cxx1112basic_stringIcSt11char_traitsIcESaIcEEES5_
FNDA:0,_ZN5neml211BufferStore14declare_bufferINS_5SFFR4EvEERKT_RKNSt7__cxx1112basic_stringIcSt11char_traitsIcESaIcEEES5_
FNDA:0,_ZN5neml211BufferStore14declare_bufferINS_5WFFR4EvEERKT_RKNSt7__cxx1112basic_stringIcSt11char_traitsIcESaIcEEES5_
FNDA:155,_ZN5neml211BufferStore14declare_bufferINS_6ScalarEvEERKT_RKNSt7__cxx1112basic_stringIcSt11char_traitsIcESaIcEEES5_
FNDA:0,_ZN5neml211BufferStore14declare_bufferINS_6TensorEvEERKT_RKNSt7__cxx1112basic_stringIcSt11char_traitsIcESaIcEEES5_
FNDA:0,_ZN5neml211BufferStore14declare_bufferINS_10QuaternionEvEERKT_RKNSt7__cxx1112basic_stringIcSt11char_traitsIcESaIcEEERKNS_10TensorNameIS3_EE
FNDA:52,_ZN5neml211BufferStore14declare_bufferINS_11MillerIndexEvEERKT_RKNSt7__cxx1112basic_stringIcSt11char_traitsIcESaIcEEERKNS_10TensorNameIS3_EE
FNDA:0,_ZN5neml211BufferStore14declare_bufferINS_2R2EvEERKT_RKNSt7__cxx1112basic_stringIcSt11char_traitsIcESaIcEEERKNS_10TensorNameIS3_EE
FNDA:0,_ZN5neml211BufferStore14declare_bufferINS_2R3EvEERKT_RKNSt7__cxx1112basic_stringIcSt11char_traitsIcESaIcEEERKNS_10TensorNameIS3_EE
FNDA:0,_ZN5neml211BufferStore14declare_bufferINS_2R4EvEERKT_RKNSt7__cxx1112basic_stringIcSt11char_traitsIcESaIcEEERKNS_10TensorNameIS3_EE
FNDA:0,_ZN5neml211BufferStore14declare_bufferINS_3RotEvEERKT_RKNSt7__cxx1112basic_stringIcSt11char_traitsIcESaIcEEERKNS_10TensorNameIS3_EE
FNDA:1,_ZN5neml211BufferStore14declare_bufferINS_3SR2EvEERKT_RKNSt7__cxx1112basic_stringIcSt11char_traitsIcESaIcEEERKNS_10TensorNameIS3_EE
FNDA:0,_ZN5neml211BufferStore14declare_bufferINS_3VecEvEERKT_RKNSt7__cxx1112basic_stringIcSt11char_traitsIcESaIcEEERKNS_10TensorNameIS3_EE
FNDA:0,_ZN5neml211BufferStore14declare_bufferINS_3WR2EvEERKT_RKNSt7__cxx1112basic_stringIcSt11char_traitsIcESaIcEEERKNS_10TensorNameIS3_EE
FNDA:0,_ZN5neml211BufferStore14declare_bufferINS_4SFR3EvEERKT_RKNSt7__cxx1112basic_stringIcSt11char_traitsIcESaIcEEERKNS_10TensorNameIS3_EE
FNDA:0,_ZN5neml211BufferStore14declare_bufferINS_4SSR4EvEERKT_RKNSt7__cxx1112basic_stringIcSt11char_traitsIcESaIcEEERKNS_10TensorNameIS3_EE
FNDA:0,_ZN5neml211BufferStore14declare_bufferINS_4SWR4EvEERKT_RKNSt7__cxx1112basic_stringIcSt11char_traitsIcESaIcEEERKNS_10TensorNameIS3_EE
FNDA:0,_ZN5neml211BufferStore14declare_bufferINS_4WSR4EvEERKT_RKNSt7__cxx1112basic_stringIcSt11char_traitsIcESaIcEEERKNS_10TensorNameIS3_EE
FNDA:0,_ZN5neml211BufferStore14declare_bufferINS_4WWR4EvEERKT_RKNSt7__cxx1112basic_stringIcSt11char_traitsIcESaIcEEERKNS_10TensorNameIS3_EE
FNDA:0,_ZN5neml211BufferStore14declare_bufferINS_5SFFR4EvEERKT_RKNSt7__cxx1112basic_stringIcSt11char_traitsIcESaIcEEERKNS_10TensorNameIS3_EE
FNDA:0,_ZN5neml211BufferStore14declare_bufferINS_5WFFR4EvEERKT_RKNSt7__cxx1112basic_stringIcSt11char_traitsIcESaIcEEERKNS_10TensorNameIS3_EE
FNDA:87,_ZN5neml211BufferStore14declare_bufferINS_6ScalarEvEERKT_RKNSt7__cxx1112basic_stringIcSt11char_traitsIcESaIcEEERKNS_10TensorNameIS3_EE
FNDA:0,_ZN5neml211BufferStore14declare_bufferINS_6TensorEvEERKT_RKNSt7__cxx1112basic_stringIcSt11char_traitsIcESaIcEEERKNS_10TensorNameIS3_EE
FNF:60
FNH:15
DA:35,535
DA:36,535
DA:38,535
DA:41,306232
DA:43,306232
DA:45,306232
DA:49,0
DA:51,0
DA:52,0
DA:53,0
DA:57,94
DA:59,101
DA:60,7
DA:61,94
DA:65,426
DA:67,426
DA:68,234
DA:69,156
DA:71,348
DA:74,348
DA:75,0
DA:78,348
DA:79,348
DA:80,348
DA:81,348
DA:83,348
DA:84,348
DA:85,348
DA:90,140
DA:92,140
DA:93,140
DA:96,140
DA:101,91
DA:103,91
DA:104,91
DA:106,0
DA:119,0
DA:121,0
DA:123,0
DA:131,0
DA:132,0
DA:134,0
DA:135,0
DA:136,0
DA:137,0
DA:138,0
DA:139,0
DA:142,0
DA:143,0
DA:146,0
DA:148,0
DA:149,0
DA:150,0
DA:151,0
DA:152,0
DA:153,0
DA:154,0
LF:57
LH:30
end_of_record
TN:
SF:/home/runner/work/neml2/neml2/src/neml2/models/ComposedModel.cxx
FN:179,182,_ZNK5neml213ComposedModel26named_nonlinear_parametersB5cxx11Eb
FN:185,197,_ZN5neml213ComposedModel20link_input_variablesEPNS_5ModelE
FN:200,205,_ZN5neml213ComposedModel21link_output_variablesEPNS_5ModelE
FN:208,227,_ZN5neml213ComposedModel9set_valueEbbb
FN:33,59,_ZN5neml213ComposedModel16expected_optionsEv
FN:61,176,_ZN5neml213ComposedModelC2ERKNS_9OptionSetE
FNDA:32,_ZNK5neml213ComposedModel26named_nonlinear_parametersB5cxx11Eb
FNDA:254,_ZN5neml213ComposedModel20link_input_variablesEPNS_5ModelE
FNDA:254,_ZN5neml213ComposedModel21link_output_variablesEPNS_5ModelE
FNDA:248,_ZN5neml213ComposedModel9set_valueEbbb
FNDA:1,_ZN5neml213ComposedModel16expected_optionsEv
FNDA:82,_ZN5neml213ComposedModelC2ERKNS_9OptionSetE
FNF:6
FNH:6
DA:33,1
DA:35,1
DA:36,1
DA:39,1
DA:41,4
DA:43,4
DA:49,4
DA:54,2
DA:55,2
DA:58,1
DA:59,0
DA:61,82
DA:63,164
DA:64,246
DA:69,345
DA:70,263
DA:80,82
DA:81,82
DA:82,263
DA:83,260
DA:84,79
DA:85,158
DA:86,258
DA:89,340
DA:90,258
DA:91,82
DA:92,0
DA:95,82
DA:96,82
DA:97,82
DA:98,82
DA:99,82
DA:100,0
DA:103,82
DA:104,82
DA:105,82
DA:106,82
DA:109,82
DA:110,340
DA:111,258
DA:112,82
DA:115,523
DA:116,441
DA:117,341
DA:120,193
DA:121,111
DA:124,263
DA:125,260
DA:126,79
DA:127,181
DA:130,82
DA:131,340
DA:132,258
DA:134,0
DA:135,0
DA:136,0
DA:137,0
DA:141,82
DA:143,82
DA:144,340
DA:145,258
DA:147,0
DA:148,0
DA:149,0
DA:154,82
DA:156,82
DA:157,199
DA:158,173
DA:160,56
DA:161,56
DA:166,82
DA:169,82
DA:170,325
DA:171,248
DA:173,3
DA:174,3
DA:176,82
DA:179,32
DA:181,32
DA:185,254
DA:187,1871
DA:188,1617
DA:189,425
DA:191,1053
DA:192,799
DA:194,178
DA:195,178
DA:197,254
DA:200,254
DA:202,606
DA:203,352
DA:204,108
DA:205,254
DA:208,248
DA:210,1084
DA:211,836
DA:213,248
DA:214,206
DA:215,535
DA:216,424
DA:218,248
DA:219,44
DA:220,129
DA:221,151
DA:222,107
DA:224,248
DA:225,230
DA:226,123
DA:227,248
LF:109
LH:99
end_of_record
TN:
SF:/home/runner/work/neml2/neml2/src/neml2/models/Data.cxx
FN:31,36,_ZN5neml24Data16expected_optionsEv
FN:38,42,_ZN5neml24DataC2ERKNS_9OptionSetE
FNDA:343,_ZN5neml24Data16expected_optionsEv
FNDA:520,_ZN5neml24DataC2ERKNS_9OptionSetE
FNF:2
FNH:2
DA:31,343
DA:33,343
DA:34,343
DA:35,343
DA:36,0
DA:38,520
DA:40,520
DA:42,520
LF:8
LH:7
end_of_record
TN:
SF:/home/runner/work/neml2/neml2/src/neml2/models/ImplicitUpdate.cxx
FN:111,116,_ZN5neml214ImplicitUpdate2toERKN3c1013TensorOptionsE
FN:119,143,_ZN5neml214ImplicitUpdate9set_valueEbbb
FN:37,55,_ZN5neml214ImplicitUpdate16expected_optionsEv
FN:57,108,_ZN5neml214ImplicitUpdateC2ERKNS_9OptionSetE
FNDA:3,_ZN5neml214ImplicitUpdate2toERKN3c1013TensorOptionsE
FNDA:213,_ZN5neml214ImplicitUpdate9set_valueEbbb
FNDA:1,_ZN5neml214ImplicitUpdate16expected_optionsEv
FNDA:9,_ZN5neml214ImplicitUpdateC2ERKNS_9OptionSetE
FNF:4
FNH:4
DA:37,1
DA:39,1
DA:40,1
DA:41,1
DA:43,4
DA:44,3
DA:47,3
DA:48,2
DA:51,3
DA:54,1
DA:55,0
DA:57,9
DA:59,9
DA:60,36
DA:62,9
DA:67,9
DA:68,9
DA:69,9
DA:70,9
DA:73,9
DA:75,9
DA:77,9
DA:80,9
DA:82,9
DA:89,9
DA:90,9
DA:91,28
DA:93,19
DA:94,19
DA:102,9
DA:103,9
DA:104,28
DA:105,68
DA:106,49
DA:107,9
DA:108,9
DA:111,3
DA:113,3
DA:114,3
DA:115,3
DA:116,3
DA:119,213
DA:123,213
DA:124,213
DA:127,213
DA:128,212
DA:129,212
DA:131,212
DA:132,212
DA:135,212
DA:137,4
DA:138,4
DA:141,4
DA:142,4
DA:143,212
LF:55
LH:54
end_of_record
TN:
SF:/home/runner/work/neml2/neml2/src/neml2/models/Model.cxx
FN:106,117,_ZN5neml25ModelC2ERKNS_9OptionSetE
FN:120,131,_ZN5neml25Model2toERKN3c1013TensorOptionsE
FN:134,143,_ZN5neml25Model5setupEv
FN:146,156,_ZNK5neml25Model8diagnoseEv
FN:159,166,_ZN5neml25Model20link_input_variablesEv
FN:169,173,_ZN5neml25Model20link_input_variablesEPS0_
FN:176,183,_ZN5neml25Model21link_output_variablesEv
FN:186,188,_ZN5neml25Model21link_output_variablesEPS0_
FN:191,195,_ZNK5neml25Model27failed_graph_execution_hintB5cxx11Ev
FN:198,209,_ZN5neml25Model10request_ADERNS_12VariableBaseERKS1_
FN:212,223,_ZN5neml25Model10request_ADERNS_12VariableBaseERKS1_S4_
FN:226,231,_ZN5neml25Model11clear_inputEv
FN:234,239,_ZN5neml25Model12clear_outputEv
FN:242,247,_ZN5neml25Model20zero_undefined_inputEv
FN:250,268,_ZNK5neml25Model21calculate_eval_schemaEv
FN:271,274,_ZNK5neml25Model22forward_operator_indexEbbb
FN:277,311,_ZN5neml25Model7forwardEbbb
FN:314,388,_ZN5neml25Model17forward_maybe_jitEbbb
FN:359,364,_ZZN5neml25Model17forward_maybe_jitEbbbENKUlSt6vectorIN3c106IValueESaIS3_EEE_clES5_
FN:368,368,_ZZN5neml25Model17forward_maybe_jitEbbbENKUlRKN2at6TensorEE_clES4_
FN:391,420,_ZNK5neml25Model20variable_name_lookupB5cxx11ERKN2at6TensorE
FN:423,433,_ZNK5neml25Model15check_precisionEv
FN:43,47,_ZN5neml237currently_assembling_nonlinear_systemEv
FN:436,440,_ZN5neml25Model5valueERKSt3mapINSt7__cxx1112basic_stringIcSt11char_traitsIcESaIcEEENS_6TensorESt4lessIS7_ESaISt4pairIKS7_S8_EEE
FN:443,447,_ZN5neml25Model6dvalueERKSt3mapINSt7__cxx1112basic_stringIcSt11char_traitsIcESaIcEEENS_6TensorESt4lessIS7_ESaISt4pairIKS7_S8_EEE
FN:450,454,_ZN5neml25Model16value_and_dvalueERKSt3mapINSt7__cxx1112basic_stringIcSt11char_traitsIcESaIcEEENS_6TensorESt4lessIS7_ESaISt4pairIKS7_S8_EEE
FN:457,467,_ZN5neml25Model28set_output_derivative_filterERKSt6vectorISt4pairINSt7__cxx1112basic_stringIcSt11char_traitsIcESaIcEEES8_ESaIS9_EE
FN:470,479,_ZN5neml25Model35set_output_derivative_filter_nl_sysERKSt6vectorISt4pairINSt7__cxx1112basic_stringIcSt11char_traitsIcESaIcEEES8_ESaIS9_EE
FN:482,490,_ZNK5neml25Model16registered_modelERKNSt7__cxx1112basic_stringIcSt11char_traitsIcESaIcEEE
FN:49,53,_ZN5neml226AssemblyingNonlinearSystemC2Eb
FN:493,500,_ZN5neml25Model28register_nonlinear_parameterERKNSt7__cxx1112basic_stringIcSt11char_traitsIcESaIcEEERKNS_18NonlinearParameterE
FN:503,513,_ZNK5neml25Model12has_nl_paramEb
FN:516,519,_ZNK5neml25Model8nl_paramERKNSt7__cxx1112basic_stringIcSt11char_traitsIcESaIcEEE
FN:522,539,_ZNK5neml25Model26named_nonlinear_parametersB5cxx11Eb
FN:542,548,_ZNK5neml25Model14consumed_itemsB5cxx11Ev
FN:55,58,_ZN5neml226AssemblyingNonlinearSystemD2Ev
FN:551,557,_ZNK5neml25Model14provided_itemsB5cxx11Ev
FN:560,575,_ZN5neml25Model18assign_input_stackERSt6vectorIN3c106IValueESaIS3_EE
FN:578,588,_ZNK5neml25Model19collect_input_stackEv
FN:591,595,_ZN5neml25Model9enable_ADEv
FN:598,664,_ZN5neml25Model22extract_AD_derivativesEbb
FN:61,65,_ZNK5neml25Model16EvaluationSchemaeqERKS1_
FN:68,71,_ZNK5neml25Model16EvaluationSchemaneERKS1_
FN:74,81,_ZNK5neml25Model16EvaluationSchemaltERKS1_
FN:84,104,_ZN5neml25Model16expected_optionsEv
FNDA:494,_ZN5neml25ModelC2ERKNS_9OptionSetE
FNDA:91,_ZN5neml25Model2toERKN3c1013TensorOptionsE
FNDA:493,_ZN5neml25Model5setupEv
FNDA:33,_ZNK5neml25Model8diagnoseEv
FNDA:489,_ZN5neml25Model20link_input_variablesEv
FNDA:13,_ZN5neml25Model20link_input_variablesEPS0_
FNDA:489,_ZN5neml25Model21link_output_variablesEv
FNDA:13,_ZN5neml25Model21link_output_variablesEPS0_
FNDA:1,_ZNK5neml25Model27failed_graph_execution_hintB5cxx11Ev
FNDA:14,_ZN5neml25Model10request_ADERNS_12VariableBaseERKS1_
FNDA:48,_ZN5neml25Model10request_ADERNS_12VariableBaseERKS1_S4_
FNDA:3025,_ZN5neml25Model11clear_inputEv
FNDA:0,_ZN5neml25Model12clear_outputEv
FNDA:3739,_ZN5neml25Model20zero_undefined_inputEv
FNDA:5696,_ZNK5neml25Model21calculate_eval_schemaEv
FNDA:5696,_ZNK5neml25Model22forward_operator_indexEbbb
FNDA:1429,_ZN5neml25Model7forwardEbbb
FNDA:6630,_ZN5neml25Model17forward_maybe_jitEbbb
FNDA:495,_ZZN5neml25Model17forward_maybe_jitEbbbENKUlSt6vectorIN3c106IValueESaIS3_EEE_clES5_
FNDA:66198,_ZZN5neml25Model17forward_maybe_jitEbbbENKUlRKN2at6TensorEE_clES4_
FNDA:309566,_ZNK5neml25Model20variable_name_lookupB5cxx11ERKN2at6TensorE
FNDA:230,_ZNK5neml25Model15check_precisionEv
FNDA:13716,_ZN5neml237currently_assembling_nonlinear_systemEv
FNDA:224,_ZN5neml25Model5valueERKSt3mapINSt7__cxx1112basic_stringIcSt11char_traitsIcESaIcEEENS_6TensorESt4lessIS7_ESaISt4pairIKS7_S8_EEE
FNDA:5,_ZN5neml25Model6dvalueERKSt3mapINSt7__cxx1112basic_stringIcSt11char_traitsIcESaIcEEENS_6TensorESt4lessIS7_ESaISt4pairIKS7_S8_EEE
FNDA:1,_ZN5neml25Model16value_and_dvalueERKSt3mapINSt7__cxx1112basic_stringIcSt11char_traitsIcESaIcEEENS_6TensorESt4lessIS7_ESaISt4pairIKS7_S8_EEE
FNDA:6,_ZN5neml25Model28set_output_derivative_filterERKSt6vectorISt4pairINSt7__cxx1112basic_stringIcSt11char_traitsIcESaIcEEES8_ESaIS9_EE
FNDA:9,_ZN5neml25Model35set_output_derivative_filter_nl_sysERKSt6vectorISt4pairINSt7__cxx1112basic_stringIcSt11char_traitsIcESaIcEEES8_ESaIS9_EE
FNDA:258,_ZNK5neml25Model16registered_modelERKNSt7__cxx1112basic_stringIcSt11char_traitsIcESaIcEEE
FNDA:1544,_ZN5neml226AssemblyingNonlinearSystemC2Eb
FNDA:79,_ZN5neml25Model28register_nonlinear_parameterERKNSt7__cxx1112basic_stringIcSt11char_traitsIcESaIcEEERKNS_18NonlinearParameterE
FNDA:0,_ZNK5neml25Model12has_nl_paramEb
FNDA:459,_ZNK5neml25Model8nl_paramERKNSt7__cxx1112basic_stringIcSt11char_traitsIcESaIcEEE
FNDA:591,_ZNK5neml25Model26named_nonlinear_parametersB5cxx11Eb
FNDA:258,_ZNK5neml25Model14consumed_itemsB5cxx11Ev
FNDA:1544,_ZN5neml226AssemblyingNonlinearSystemD2Ev
FNDA:258,_ZNK5neml25Model14provided_itemsB5cxx11Ev
FNDA:495,_ZN5neml25Model18assign_input_stackERSt6vectorIN3c106IValueESaIS3_EE
FNDA:5696,_ZNK5neml25Model19collect_input_stackEv
FNDA:664,_ZN5neml25Model9enable_ADEv
FNDA:664,_ZN5neml25Model22extract_AD_derivativesEbb
FNDA:0,_ZNK5neml25Model16EvaluationSchemaeqERKS1_
FNDA:0,_ZNK5neml25Model16EvaluationSchemaneERKS1_
FNDA:10649,_ZNK5neml25Model16EvaluationSchemaltERKS1_
FNDA:341,_ZN5neml25Model16expected_optionsEv
FNF:45
FNH:41
DA:43,13716
DA:46,13716
DA:49,1544
DA:50,1544
DA:52,1544
DA:53,1544
DA:55,1544
DA:57,1544
DA:58,1544
DA:61,0
DA:63,0
DA:64,0
DA:68,0
DA:70,0
DA:74,10649
DA:76,10649
DA:77,0
DA:78,10649
DA:79,247
DA:80,10402
DA:84,341
DA:86,341
DA:88,341
DA:91,682
DA:92,682
DA:93,1023
DA:95,1364
DA:96,682
DA:98,682
DA:103,341
DA:104,0
DA:106,494
DA:111,988
DA:112,988
DA:113,494
DA:114,1470
DA:115,1976
DA:117,494
DA:120,91
DA:122,91
DA:123,91
DA:124,91
DA:126,174
DA:127,83
DA:129,93
DA:130,93
DA:131,91
DA:134,493
DA:136,493
DA:138,217
DA:139,217
DA:142,493
DA:143,493
DA:146,33
DA:148,63
DA:149,30
DA:151,33
DA:152,9
DA:153,3
DA:156,33
DA:159,489
DA:161,756
DA:163,267
DA:164,267
DA:166,489
DA:169,13
DA:171,86
DA:172,73
DA:173,13
DA:176,489
DA:178,756
DA:180,267
DA:181,267
DA:183,489
DA:186,13
DA:188,13
DA:191,1
DA:194,2
DA:198,14
DA:200,14
DA:202,28
DA:205,14
DA:206,14
DA:208,14
DA:209,14
DA:212,48
DA:214,48
DA:216,96
DA:219,48
DA:220,48
DA:222,48
DA:223,48
DA:226,3025
DA:228,3025
DA:229,4828
DA:230,1803
DA:231,3025
DA:234,0
DA:236,0
DA:237,0
DA:238,0
DA:239,0
DA:242,3739
DA:244,3739
DA:245,6026
DA:246,2287
DA:247,3739
DA:250,5696
DA:252,5696
DA:253,5696
DA:254,29682
DA:256,23986
DA:257,23986
DA:259,15110
DA:261,9414
DA:262,9414
DA:265,5696
DA:267,11392
DA:268,5696
DA:271,5696
DA:273,5696
DA:277,1429
DA:279,1429
DA:283,1429
DA:287,1429
DA:292,1429
DA:294,1429
DA:296,1429
DA:297,664
DA:299,1429
DA:301,1428
DA:302,664
DA:304,1428
DA:305,447
DA:307,1428
DA:308,113
DA:310,2856
DA:311,1429
DA:314,6630
DA:316,6630
DA:317,933
DA:319,6630
DA:321,934
DA:322,933
DA:326,5696
DA:328,5696
DA:329,5696
DA:330,5696
DA:332,5696
DA:334,5201
DA:335,5201
DA:336,5201
DA:339,5201
DA:341,1
DA:343,2
DA:344,3
DA:345,1
DA:346,5200
DA:347,1805
DA:348,5200
DA:349,5202
DA:354,495
DA:356,495
DA:359,495
DA:361,495
DA:362,495
DA:363,495
DA:364,495
DA:365,2475
DA:366,990
DA:368,67188
DA:370,495
DA:372,0
DA:374,0
DA:375,0
DA:376,0
DA:377,495
DA:379,990
DA:380,495
DA:381,0
DA:382,990
DA:383,495
DA:386,495
DA:387,495
DA:388,5696
DA:391,309566
DA:394,1014067
DA:395,706400
DA:396,692104
DA:397,1899
DA:398,640479
DA:399,333432
DA:400,276454
DA:401,620
DA:404,1339430
DA:405,1033198
DA:406,815
DA:407,878136
DA:408,572295
DA:409,391
DA:412,548511
DA:414,243368
DA:415,243368
DA:416,698
DA:417,243368
DA:419,610286
DA:423,230
DA:425,230
DA:426,230
DA:427,460
DA:433,230
DA:436,224
DA:438,224
DA:439,223
DA:443,5
DA:445,5
DA:446,5
DA:450,1
DA:452,1
DA:453,1
DA:457,6
DA:461,6
DA:465,30
DA:466,24
DA:467,6
DA:470,9
DA:474,9
DA:477,45
DA:478,36
DA:479,9
DA:482,258
DA:484,645
DA:485,645
DA:486,258
DA:488,0
DA:489,0
DA:493,79
DA:495,79
DA:499,79
DA:500,79
DA:503,0
DA:505,0
DA:506,0
DA:508,0
DA:509,0
DA:510,0
DA:512,0
DA:516,459
DA:518,459
DA:522,591
DA:524,591
DA:525,79
DA:527,512
DA:529,670
DA:530,158
DA:531,0
DA:532,158
DA:534,524
DA:535,12
DA:536,12
DA:538,512
DA:539,512
DA:542,258
DA:544,258
DA:545,880
DA:546,622
DA:547,258
DA:548,0
DA:551,258
DA:553,258
DA:554,547
DA:555,289
DA:556,258
DA:557,0
DA:560,495
DA:563,495
DA:564,495
DA:573,495
DA:574,495
DA:575,495
DA:578,5696
DA:580,5696
DA:581,5696
DA:586,5696
DA:587,11392
DA:588,5696
DA:591,664
DA:593,670
DA:594,6
DA:595,664
DA:598,664
DA:600,664
DA:602,668
DA:604,4
DA:605,0
DA:606,0
DA:609,4
DA:610,18
DA:611,14
DA:614,4
DA:615,18
DA:616,14
DA:617,0
DA:618,0
DA:620,4
DA:624,4
DA:626,4
DA:627,18
DA:629,14
DA:630,14
DA:631,14
DA:633,4
DA:635,664
DA:637,131
DA:638,0
DA:640,0
DA:642,0
DA:643,0
DA:645,0
DA:646,0
DA:647,0
DA:653,0
DA:655,0
DA:656,0
DA:658,0
DA:659,0
DA:660,0
DA:662,0
DA:664,664
LF:329
LH:282
end_of_record
TN:
SF:/home/runner/work/neml2/neml2/src/neml2/models/ModelNonlinearSystem.cxx
FN:100,105,_ZN5neml220ModelNonlinearSystem2toERKN3c1013TensorOptionsE
FN:108,126,_ZN5neml220ModelNonlinearSystem13setup_ulayoutEv
FN:129,155,_ZN5neml220ModelNonlinearSystem13setup_glayoutEv
FN:158,197,_ZN5neml220ModelNonlinearSystem13setup_blayoutEv
FN:200,223,_ZN5neml220ModelNonlinearSystem14update_layoutsEv
FN:226,230,_ZN5neml220ModelNonlinearSystem5set_uERKNS_15AssembledVectorE
FN:233,237,_ZN5neml220ModelNonlinearSystem5set_gERKNS_15AssembledVectorE
FN:240,243,_ZNK5neml220ModelNonlinearSystem1uEv
FN:246,249,_ZNK5neml220ModelNonlinearSystem1gEv
FN:252,271,_ZN5neml220ModelNonlinearSystem8assembleEPNS_15AssembledMatrixES2_PNS_15AssembledVectorE
FN:274,280,_ZN5neml220ModelNonlinearSystem12pre_assembleEbbb
FN:283,294,_ZN5neml220ModelNonlinearSystem13post_assembleEbbb
FN:40,65,_ZN5neml220ModelNonlinearSystem16expected_optionsEv
FN:67,79,_ZN5neml220ModelNonlinearSystemC2ERKNS_9OptionSetE
FN:82,97,_ZN5neml220ModelNonlinearSystem5setupEv
FNDA:3,_ZN5neml220ModelNonlinearSystem2toERKN3c1013TensorOptionsE
FNDA:15,_ZN5neml220ModelNonlinearSystem13setup_ulayoutEv
FNDA:14,_ZN5neml220ModelNonlinearSystem13setup_glayoutEv
FNDA:14,_ZN5neml220ModelNonlinearSystem13setup_blayoutEv
FNDA:1523,_ZN5neml220ModelNonlinearSystem14update_layoutsEv
FNDA:670,_ZN5neml220ModelNonlinearSystem5set_uERKNS_15AssembledVectorE
FNDA:0,_ZN5neml220ModelNonlinearSystem5set_gERKNS_15AssembledVectorE
FNDA:882,_ZNK5neml220ModelNonlinearSystem1uEv
FNDA:0,_ZNK5neml220ModelNonlinearSystem1gEv
FNDA:1524,_ZN5neml220ModelNonlinearSystem8assembleEPNS_15AssembledMatrixES2_PNS_15AssembledVectorE
FNDA:1524,_ZN5neml220ModelNonlinearSystem12pre_assembleEbbb
FNDA:1523,_ZN5neml220ModelNonlinearSystem13post_assembleEbbb
FNDA:1,_ZN5neml220ModelNonlinearSystem16expected_optionsEv
FNDA:15,_ZN5neml220ModelNonlinearSystemC2ERKNS_9OptionSetE
FNDA:15,_ZN5neml220ModelNonlinearSystem5setupEv
FNF:15
FNH:13
DA:40,1
DA:42,1
DA:44,1
DA:46,4
DA:48,4
DA:50,3
DA:57,7
DA:58,3
DA:64,2
DA:65,1
DA:67,15
DA:71,30
DA:72,45
DA:73,15
DA:75,30
DA:76,15
DA:77,45
DA:79,15
DA:82,15
DA:84,15
DA:85,15
DA:87,14
DA:89,5
DA:90,5
DA:94,14
DA:95,48
DA:96,34
DA:97,14
DA:100,3
DA:102,3
DA:103,3
DA:104,3
DA:105,3
DA:108,15
DA:111,15
DA:112,35
DA:113,58
DA:115,38
DA:116,37
DA:117,37
DA:121,14
DA:122,14
DA:123,5
DA:125,28
DA:126,16
DA:129,14
DA:131,14
DA:132,14
DA:133,126
DA:136,112
DA:137,234
DA:138,156
DA:140,34
DA:141,34
DA:143,112
DA:144,34
DA:146,78
DA:147,78
DA:148,78
DA:152,14
DA:154,28
DA:155,14
DA:158,14
DA:161,14
DA:163,14
DA:164,34
DA:165,54
DA:167,34
DA:169,34
DA:172,0
DA:173,0
DA:177,0
DA:182,14
DA:183,34
DA:184,54
DA:186,34
DA:187,34
DA:188,34
DA:192,14
DA:193,14
DA:194,5
DA:196,28
DA:197,14
DA:200,1523
DA:202,1523
DA:203,1515
DA:208,8
DA:209,8
DA:210,8
DA:211,8
DA:212,40
DA:213,24
DA:214,16
DA:215,50
DA:216,42
DA:217,24
DA:218,16
DA:219,8
DA:220,8
DA:221,8
DA:222,8
DA:223,8
DA:226,670
DA:228,670
DA:229,670
DA:230,670
DA:233,0
DA:235,0
DA:236,0
DA:237,0
DA:240,882
DA:242,882
DA:246,0
DA:248,0
DA:252,1524
DA:255,1524
DA:256,3048
DA:257,1524
DA:258,1524
DA:260,1523
DA:262,1523
DA:264,1519
DA:266,1523
DA:267,674
DA:269,1523
DA:270,4
DA:271,1523
DA:274,1524
DA:276,1524
DA:278,1524
DA:279,0
DA:280,1524
DA:283,1523
DA:285,1523
DA:287,1523
DA:289,0
DA:290,0
DA:291,0
DA:292,0
DA:294,1523
LF:140
LH:126
end_of_record
TN:
SF:/home/runner/work/neml2/neml2/src/neml2/models/ParameterStore.cxx
FN:109,259,_ZN5neml219resolve_tensor_nameINS_10QuaternionEEERKT_RKNS_10TensorNameIS2_EEPNS_5ModelERKNSt7__cxx1112basic_stringIcSt11char_traitsIcESaIcEEE
FN:109,259,_ZN5neml219resolve_tensor_nameINS_11MillerIndexEEERKT_RKNS_10TensorNameIS2_EEPNS_5ModelERKNSt7__cxx1112basic_stringIcSt11char_traitsIcESaIcEEE
FN:109,259,_ZN5neml219resolve_tensor_nameINS_2R2EEERKT_RKNS_10TensorNameIS2_EEPNS_5ModelERKNSt7__cxx1112basic_stringIcSt11char_traitsIcESaIcEEE
FN:109,259,_ZN5neml219resolve_tensor_nameINS_2R3EEERKT_RKNS_10TensorNameIS2_EEPNS_5ModelERKNSt7__cxx1112basic_stringIcSt11char_traitsIcESaIcEEE
FN:109,259,_ZN5neml219resolve_tensor_nameINS_2R4EEERKT_RKNS_10TensorNameIS2_EEPNS_5ModelERKNSt7__cxx1112basic_stringIcSt11char_traitsIcESaIcEEE
FN:109,259,_ZN5neml219resolve_tensor_nameINS_3RotEEERKT_RKNS_10TensorNameIS2_EEPNS_5ModelERKNSt7__cxx1112basic_stringIcSt11char_traitsIcESaIcEEE
FN:109,259,_ZN5neml219resolve_tensor_nameINS_3SR2EEERKT_RKNS_10TensorNameIS2_EEPNS_5ModelERKNSt7__cxx1112basic_stringIcSt11char_traitsIcESaIcEEE
FN:109,259,_ZN5neml219resolve_tensor_nameINS_3VecEEERKT_RKNS_10TensorNameIS2_EEPNS_5ModelERKNSt7__cxx1112basic_stringIcSt11char_traitsIcESaIcEEE
FN:109,259,_ZN5neml219resolve_tensor_nameINS_3WR2EEERKT_RKNS_10TensorNameIS2_EEPNS_5ModelERKNSt7__cxx1112basic_stringIcSt11char_traitsIcESaIcEEE
FN:109,259,_ZN5neml219resolve_tensor_nameINS_4SFR3EEERKT_RKNS_10TensorNameIS2_EEPNS_5ModelERKNSt7__cxx1112basic_stringIcSt11char_traitsIcESaIcEEE
FN:109,259,_ZN5neml219resolve_tensor_nameINS_4SSR4EEERKT_RKNS_10TensorNameIS2_EEPNS_5ModelERKNSt7__cxx1112basic_stringIcSt11char_traitsIcESaIcEEE
FN:109,259,_ZN5neml219resolve_tensor_nameINS_4SWR4EEERKT_RKNS_10TensorNameIS2_EEPNS_5ModelERKNSt7__cxx1112basic_stringIcSt11char_traitsIcESaIcEEE
FN:109,259,_ZN5neml219resolve_tensor_nameINS_4WSR4EEERKT_RKNS_10TensorNameIS2_EEPNS_5ModelERKNSt7__cxx1112basic_stringIcSt11char_traitsIcESaIcEEE
FN:109,259,_ZN5neml219resolve_tensor_nameINS_4WWR4EEERKT_RKNS_10TensorNameIS2_EEPNS_5ModelERKNSt7__cxx1112basic_stringIcSt11char_traitsIcESaIcEEE
FN:109,259,_ZN5neml219resolve_tensor_nameINS_5SFFR4EEERKT_RKNS_10TensorNameIS2_EEPNS_5ModelERKNSt7__cxx1112basic_stringIcSt11char_traitsIcESaIcEEE
FN:109,259,_ZN5neml219resolve_tensor_nameINS_5WFFR4EEERKT_RKNS_10TensorNameIS2_EEPNS_5ModelERKNSt7__cxx1112basic_stringIcSt11char_traitsIcESaIcEEE
FN:109,259,_ZN5neml219resolve_tensor_nameINS_6ScalarEEERKT_RKNS_10TensorNameIS2_EEPNS_5ModelERKNSt7__cxx1112basic_stringIcSt11char_traitsIcESaIcEEE
FN:263,301,_ZN5neml214ParameterStore17declare_parameterINS_10QuaternionEvEERKT_RKNSt7__cxx1112basic_stringIcSt11char_traitsIcESaIcEEERKNS_10TensorNameIS3_EEb
FN:263,301,_ZN5neml214ParameterStore17declare_parameterINS_11MillerIndexEvEERKT_RKNSt7__cxx1112basic_stringIcSt11char_traitsIcESaIcEEERKNS_10TensorNameIS3_EEb
FN:263,301,_ZN5neml214ParameterStore17declare_parameterINS_2R2EvEERKT_RKNSt7__cxx1112basic_stringIcSt11char_traitsIcESaIcEEERKNS_10TensorNameIS3_EEb
FN:263,301,_ZN5neml214ParameterStore17declare_parameterINS_2R3EvEERKT_RKNSt7__cxx1112basic_stringIcSt11char_traitsIcESaIcEEERKNS_10TensorNameIS3_EEb
FN:263,301,_ZN5neml214ParameterStore17declare_parameterINS_2R4EvEERKT_RKNSt7__cxx1112basic_stringIcSt11char_traitsIcESaIcEEERKNS_10TensorNameIS3_EEb
FN:263,301,_ZN5neml214ParameterStore17declare_parameterINS_3RotEvEERKT_RKNSt7__cxx1112basic_stringIcSt11char_traitsIcESaIcEEERKNS_10TensorNameIS3_EEb
FN:263,301,_ZN5neml214ParameterStore17declare_parameterINS_3SR2EvEERKT_RKNSt7__cxx1112basic_stringIcSt11char_traitsIcESaIcEEERKNS_10TensorNameIS3_EEb
FN:263,301,_ZN5neml214ParameterStore17declare_parameterINS_3VecEvEERKT_RKNSt7__cxx1112basic_stringIcSt11char_traitsIcESaIcEEERKNS_10TensorNameIS3_EEb
FN:263,301,_ZN5neml214ParameterStore17declare_parameterINS_3WR2EvEERKT_RKNSt7__cxx1112basic_stringIcSt11char_traitsIcESaIcEEERKNS_10TensorNameIS3_EEb
FN:263,301,_ZN5neml214ParameterStore17declare_parameterINS_4SFR3EvEERKT_RKNSt7__cxx1112basic_stringIcSt11char_traitsIcESaIcEEERKNS_10TensorNameIS3_EEb
FN:263,301,_ZN5neml214ParameterStore17declare_parameterINS_4SSR4EvEERKT_RKNSt7__cxx1112basic_stringIcSt11char_traitsIcESaIcEEERKNS_10TensorNameIS3_EEb
FN:263,301,_ZN5neml214ParameterStore17declare_parameterINS_4SWR4EvEERKT_RKNSt7__cxx1112basic_stringIcSt11char_traitsIcESaIcEEERKNS_10TensorNameIS3_EEb
FN:263,301,_ZN5neml214ParameterStore17declare_parameterINS_4WSR4EvEERKT_RKNSt7__cxx1112basic_stringIcSt11char_traitsIcESaIcEEERKNS_10TensorNameIS3_EEb
FN:263,301,_ZN5neml214ParameterStore17declare_parameterINS_4WWR4EvEERKT_RKNSt7__cxx1112basic_stringIcSt11char_traitsIcESaIcEEERKNS_10TensorNameIS3_EEb
FN:263,301,_ZN5neml214ParameterStore17declare_parameterINS_5SFFR4EvEERKT_RKNSt7__cxx1112basic_stringIcSt11char_traitsIcESaIcEEERKNS_10TensorNameIS3_EEb
FN:263,301,_ZN5neml214ParameterStore17declare_parameterINS_5WFFR4EvEERKT_RKNSt7__cxx1112basic_stringIcSt11char_traitsIcESaIcEEERKNS_10TensorNameIS3_EEb
FN:263,301,_ZN5neml214ParameterStore17declare_parameterINS_6ScalarEvEERKT_RKNSt7__cxx1112basic_stringIcSt11char_traitsIcESaIcEEERKNS_10TensorNameIS3_EEb
FN:305,316,_ZN5neml214ParameterStore17declare_parameterINS_10QuaternionEvEERKT_RKNSt7__cxx1112basic_stringIcSt11char_traitsIcESaIcEEESD_b
FN:305,316,_ZN5neml214ParameterStore17declare_parameterINS_11MillerIndexEvEERKT_RKNSt7__cxx1112basic_stringIcSt11char_traitsIcESaIcEEESD_b
FN:305,316,_ZN5neml214ParameterStore17declare_parameterINS_2R2EvEERKT_RKNSt7__cxx1112basic_stringIcSt11char_traitsIcESaIcEEESD_b
FN:305,316,_ZN5neml214ParameterStore17declare_parameterINS_2R3EvEERKT_RKNSt7__cxx1112basic_stringIcSt11char_traitsIcESaIcEEESD_b
FN:305,316,_ZN5neml214ParameterStore17declare_parameterINS_2R4EvEERKT_RKNSt7__cxx1112basic_stringIcSt11char_traitsIcESaIcEEESD_b
FN:305,316,_ZN5neml214ParameterStore17declare_parameterINS_3RotEvEERKT_RKNSt7__cxx1112basic_stringIcSt11char_traitsIcESaIcEEESD_b
FN:305,316,_ZN5neml214ParameterStore17declare_parameterINS_3SR2EvEERKT_RKNSt7__cxx1112basic_stringIcSt11char_traitsIcESaIcEEESD_b
FN:305,316,_ZN5neml214ParameterStore17declare_parameterINS_3VecEvEERKT_RKNSt7__cxx1112basic_stringIcSt11char_traitsIcESaIcEEESD_b
FN:305,316,_ZN5neml214ParameterStore17declare_parameterINS_3WR2EvEERKT_RKNSt7__cxx1112basic_stringIcSt11char_traitsIcESaIcEEESD_b
FN:305,316,_ZN5neml214ParameterStore17declare_parameterINS_4SFR3EvEERKT_RKNSt7__cxx1112basic_stringIcSt11char_traitsIcESaIcEEESD_b
FN:305,316,_ZN5neml214ParameterStore17declare_parameterINS_4SSR4EvEERKT_RKNSt7__cxx1112basic_stringIcSt11char_traitsIcESaIcEEESD_b
FN:305,316,_ZN5neml214ParameterStore17declare_parameterINS_4SWR4EvEERKT_RKNSt7__cxx1112basic_stringIcSt11char_traitsIcESaIcEEESD_b
FN:305,316,_ZN5neml214ParameterStore17declare_parameterINS_4WSR4EvEERKT_RKNSt7__cxx1112basic_stringIcSt11char_traitsIcESaIcEEESD_b
FN:305,316,_ZN5neml214ParameterStore17declare_parameterINS_4WWR4EvEERKT_RKNSt7__cxx1112basic_stringIcSt11char_traitsIcESaIcEEESD_b
FN:305,316,_ZN5neml214ParameterStore17declare_parameterINS_5SFFR4EvEERKT_RKNSt7__cxx1112basic_stringIcSt11char_traitsIcESaIcEEESD_b
FN:305,316,_ZN5neml214ParameterStore17declare_parameterINS_5WFFR4EvEERKT_RKNSt7__cxx1112basic_stringIcSt11char_traitsIcESaIcEEESD_b
FN:305,316,_ZN5neml214ParameterStore17declare_parameterINS_6ScalarEvEERKT_RKNSt7__cxx1112basic_stringIcSt11char_traitsIcESaIcEEESD_b
FN:330,354,_ZN5neml214ParameterStore22assign_parameter_stackERSt6vectorIN3c106IValueESaIS3_EE
FN:357,365,_ZNK5neml214ParameterStore23collect_parameter_stackEv
FN:38,41,_ZN5neml214ParameterStoreC2EPNS_11NEML2ObjectE
FN:44,48,_ZN5neml214ParameterStore18send_parameters_toERKN3c1013TensorOptionsE
FN:51,56,_ZN5neml214ParameterStore13set_parameterERKNSt7__cxx1112basic_stringIcSt11char_traitsIcESaIcEEERKNS_6TensorE
FN:59,64,_ZN5neml214ParameterStore13get_parameterERKNSt7__cxx1112basic_stringIcSt11char_traitsIcESaIcEEE
FN:67,71,_ZN5neml214ParameterStore14set_parametersERKSt3mapINSt7__cxx1112basic_stringIcSt11char_traitsIcESaIcEEENS_6TensorESt4lessIS7_ESaISt4pairIKS7_S8_EEE
FN:74,79,_ZN5neml214ParameterStore16named_parametersB5cxx11Ev
FN:83,105,_ZN5neml214ParameterStore17declare_parameterINS_10QuaternionEvEERKT_RKNSt7__cxx1112basic_stringIcSt11char_traitsIcESaIcEEES5_
FN:83,105,_ZN5neml214ParameterStore17declare_parameterINS_11MillerIndexEvEERKT_RKNSt7__cxx1112basic_stringIcSt11char_traitsIcESaIcEEES5_
FN:83,105,_ZN5neml214ParameterStore17declare_parameterINS_2R2EvEERKT_RKNSt7__cxx1112basic_stringIcSt11char_traitsIcESaIcEEES5_
FN:83,105,_ZN5neml214ParameterStore17declare_parameterINS_2R3EvEERKT_RKNSt7__cxx1112basic_stringIcSt11char_traitsIcESaIcEEES5_
FN:83,105,_ZN5neml214ParameterStore17declare_parameterINS_2R4EvEERKT_RKNSt7__cxx1112basic_stringIcSt11char_traitsIcESaIcEEES5_
FN:83,105,_ZN5neml214ParameterStore17declare_parameterINS_3RotEvEERKT_RKNSt7__cxx1112basic_stringIcSt11char_traitsIcESaIcEEES5_
FN:83,105,_ZN5neml214ParameterStore17declare_parameterINS_3SR2EvEERKT_RKNSt7__cxx1112basic_stringIcSt11char_traitsIcESaIcEEES5_
FN:83,105,_ZN5neml214ParameterStore17declare_parameterINS_3VecEvEERKT_RKNSt7__cxx1112basic_stringIcSt11char_traitsIcESaIcEEES5_
FN:83,105,_ZN5neml214ParameterStore17declare_parameterINS_3WR2EvEERKT_RKNSt7__cxx1112basic_stringIcSt11char_traitsIcESaIcEEES5_
FN:83,105,_ZN5neml214ParameterStore17declare_parameterINS_4SFR3EvEERKT_RKNSt7__cxx1112basic_stringIcSt11char_traitsIcESaIcEEES5_
FN:83,105,_ZN5neml214ParameterStore17declare_parameterINS_4SSR4EvEERKT_RKNSt7__cxx1112basic_stringIcSt11char_traitsIcESaIcEEES5_
FN:83,105,_ZN5neml214ParameterStore17declare_parameterINS_4SWR4EvEERKT_RKNSt7__cxx1112basic_stringIcSt11char_traitsIcESaIcEEES5_
FN:83,105,_ZN5neml214ParameterStore17declare_parameterINS_4WSR4EvEERKT_RKNSt7__cxx1112basic_stringIcSt11char_traitsIcESaIcEEES5_
FN:83,105,_ZN5neml214ParameterStore17declare_parameterINS_4WWR4EvEERKT_RKNSt7__cxx1112basic_stringIcSt11char_traitsIcESaIcEEES5_
FN:83,105,_ZN5neml214ParameterStore17declare_parameterINS_5SFFR4EvEERKT_RKNSt7__cxx1112basic_stringIcSt11char_traitsIcESaIcEEES5_
FN:83,105,_ZN5neml214ParameterStore17declare_parameterINS_5WFFR4EvEERKT_RKNSt7__cxx1112basic_stringIcSt11char_traitsIcESaIcEEES5_
FN:83,105,_ZN5neml214ParameterStore17declare_parameterINS_6ScalarEvEERKT_RKNSt7__cxx1112basic_stringIcSt11char_traitsIcESaIcEEES5_
FN:83,105,_ZN5neml214ParameterStore17declare_parameterINS_6TensorEvEERKT_RKNSt7__cxx1112basic_stringIcSt11char_traitsIcESaIcEEES5_
FNDA:0,_ZN5neml219resolve_tensor_nameINS_10QuaternionEEERKT_RKNS_10TensorNameIS2_EEPNS_5ModelERKNSt7__cxx1112basic_stringIcSt11char_traitsIcESaIcEEE
FNDA:0,_ZN5neml219resolve_tensor_nameINS_11MillerIndexEEERKT_RKNS_10TensorNameIS2_EEPNS_5ModelERKNSt7__cxx1112basic_stringIcSt11char_traitsIcESaIcEEE
FNDA:0,_ZN5neml219resolve_tensor_nameINS_2R2EEERKT_RKNS_10TensorNameIS2_EEPNS_5ModelERKNSt7__cxx1112basic_stringIcSt11char_traitsIcESaIcEEE
FNDA:0,_ZN5neml219resolve_tensor_nameINS_2R3EEERKT_RKNS_10TensorNameIS2_EEPNS_5ModelERKNSt7__cxx1112basic_stringIcSt11char_traitsIcESaIcEEE
FNDA:0,_ZN5neml219resolve_tensor_nameINS_2R4EEERKT_RKNS_10TensorNameIS2_EEPNS_5ModelERKNSt7__cxx1112basic_stringIcSt11char_traitsIcESaIcEEE
FNDA:0,_ZN5neml219resolve_tensor_nameINS_3RotEEERKT_RKNS_10TensorNameIS2_EEPNS_5ModelERKNSt7__cxx1112basic_stringIcSt11char_traitsIcESaIcEEE
FNDA:0,_ZN5neml219resolve_tensor_nameINS_3SR2EEERKT_RKNS_10TensorNameIS2_EEPNS_5ModelERKNSt7__cxx1112basic_stringIcSt11char_traitsIcESaIcEEE
FNDA:0,_ZN5neml219resolve_tensor_nameINS_3VecEEERKT_RKNS_10TensorNameIS2_EEPNS_5ModelERKNSt7__cxx1112basic_stringIcSt11char_traitsIcESaIcEEE
FNDA:0,_ZN5neml219resolve_tensor_nameINS_3WR2EEERKT_RKNS_10TensorNameIS2_EEPNS_5ModelERKNSt7__cxx1112basic_stringIcSt11char_traitsIcESaIcEEE
FNDA:0,_ZN5neml219resolve_tensor_nameINS_4SFR3EEERKT_RKNS_10TensorNameIS2_EEPNS_5ModelERKNSt7__cxx1112basic_stringIcSt11char_traitsIcESaIcEEE
FNDA:2,_ZN5neml219resolve_tensor_nameINS_4SSR4EEERKT_RKNS_10TensorNameIS2_EEPNS_5ModelERKNSt7__cxx1112basic_stringIcSt11char_traitsIcESaIcEEE
FNDA:0,_ZN5neml219resolve_tensor_nameINS_4SWR4EEERKT_RKNS_10TensorNameIS2_EEPNS_5ModelERKNSt7__cxx1112basic_stringIcSt11char_traitsIcESaIcEEE
FNDA:0,_ZN5neml219resolve_tensor_nameINS_4WSR4EEERKT_RKNS_10TensorNameIS2_EEPNS_5ModelERKNSt7__cxx1112basic_stringIcSt11char_traitsIcESaIcEEE
FNDA:0,_ZN5neml219resolve_tensor_nameINS_4WWR4EEERKT_RKNS_10TensorNameIS2_EEPNS_5ModelERKNSt7__cxx1112basic_stringIcSt11char_traitsIcESaIcEEE
FNDA:0,_ZN5neml219resolve_tensor_nameINS_5SFFR4EEERKT_RKNS_10TensorNameIS2_EEPNS_5ModelERKNSt7__cxx1112basic_stringIcSt11char_traitsIcESaIcEEE
FNDA:0,_ZN5neml219resolve_tensor_nameINS_5WFFR4EEERKT_RKNS_10TensorNameIS2_EEPNS_5ModelERKNSt7__cxx1112basic_stringIcSt11char_traitsIcESaIcEEE
FNDA:77,_ZN5neml219resolve_tensor_nameINS_6ScalarEEERKT_RKNS_10TensorNameIS2_EEPNS_5ModelERKNSt7__cxx1112basic_stringIcSt11char_traitsIcESaIcEEE
FNDA:0,_ZN5neml214ParameterStore17declare_parameterINS_10QuaternionEvEERKT_RKNSt7__cxx1112basic_stringIcSt11char_traitsIcESaIcEEERKNS_10TensorNameIS3_EEb
FNDA:0,_ZN5neml214ParameterStore17declare_parameterINS_11MillerIndexEvEERKT_RKNSt7__cxx1112basic_stringIcSt11char_traitsIcESaIcEEERKNS_10TensorNameIS3_EEb
FNDA:0,_ZN5neml214ParameterStore17declare_parameterINS_2R2EvEERKT_RKNSt7__cxx1112basic_stringIcSt11char_traitsIcESaIcEEERKNS_10TensorNameIS3_EEb
FNDA:0,_ZN5neml214ParameterStore17declare_parameterINS_2R3EvEERKT_RKNSt7__cxx1112basic_stringIcSt11char_traitsIcESaIcEEERKNS_10TensorNameIS3_EEb
FNDA:0,_ZN5neml214ParameterStore17declare_parameterINS_2R4EvEERKT_RKNSt7__cxx1112basic_stringIcSt11char_traitsIcESaIcEEERKNS_10TensorNameIS3_EEb
FNDA:0,_ZN5neml214ParameterStore17declare_parameterINS_3RotEvEERKT_RKNSt7__cxx1112basic_stringIcSt11char_traitsIcESaIcEEERKNS_10TensorNameIS3_EEb
FNDA:5,_ZN5neml214ParameterStore17declare_parameterINS_3SR2EvEERKT_RKNSt7__cxx1112basic_stringIcSt11char_traitsIcESaIcEEERKNS_10TensorNameIS3_EEb
FNDA:0,_ZN5neml214ParameterStore17declare_parameterINS_3VecEvEERKT_RKNSt7__cxx1112basic_stringIcSt11char_traitsIcESaIcEEERKNS_10TensorNameIS3_EEb
FNDA:0,_ZN5neml214ParameterStore17declare_parameterINS_3WR2EvEERKT_RKNSt7__cxx1112basic_stringIcSt11char_traitsIcESaIcEEERKNS_10TensorNameIS3_EEb
FNDA:0,_ZN5neml214ParameterStore17declare_parameterINS_4SFR3EvEERKT_RKNSt7__cxx1112basic_stringIcSt11char_traitsIcESaIcEEERKNS_10TensorNameIS3_EEb
FNDA:5,_ZN5neml214ParameterStore17declare_parameterINS_4SSR4EvEERKT_RKNSt7__cxx1112basic_stringIcSt11char_traitsIcESaIcEEERKNS_10TensorNameIS3_EEb
FNDA:0,_ZN5neml214ParameterStore17declare_parameterINS_4SWR4EvEERKT_RKNSt7__cxx1112basic_stringIcSt11char_traitsIcESaIcEEERKNS_10TensorNameIS3_EEb
FNDA:0,_ZN5neml214ParameterStore17declare_parameterINS_4WSR4EvEERKT_RKNSt7__cxx1112basic_stringIcSt11char_traitsIcESaIcEEERKNS_10TensorNameIS3_EEb
FNDA:0,_ZN5neml214ParameterStore17declare_parameterINS_4WWR4EvEERKT_RKNSt7__cxx1112basic_stringIcSt11char_traitsIcESaIcEEERKNS_10TensorNameIS3_EEb
FNDA:0,_ZN5neml214ParameterStore17declare_parameterINS_5SFFR4EvEERKT_RKNSt7__cxx1112basic_stringIcSt11char_traitsIcESaIcEEERKNS_10TensorNameIS3_EEb
FNDA:0,_ZN5neml214ParameterStore17declare_parameterINS_5WFFR4EvEERKT_RKNSt7__cxx1112basic_stringIcSt11char_traitsIcESaIcEEERKNS_10TensorNameIS3_EEb
FNDA:281,_ZN5neml214ParameterStore17declare_parameterINS_6ScalarEvEERKT_RKNSt7__cxx1112basic_stringIcSt11char_traitsIcESaIcEEERKNS_10TensorNameIS3_EEb
FNDA:0,_ZN5neml214ParameterStore17declare_parameterINS_10QuaternionEvEERKT_RKNSt7__cxx1112basic_stringIcSt11char_traitsIcESaIcEEESD_b
FNDA:0,_ZN5neml214ParameterStore17declare_parameterINS_11MillerIndexEvEERKT_RKNSt7__cxx1112basic_stringIcSt11char_traitsIcESaIcEEESD_b
FNDA:0,_ZN5neml214ParameterStore17declare_parameterINS_2R2EvEERKT_RKNSt7__cxx1112basic_stringIcSt11char_traitsIcESaIcEEESD_b
FNDA:0,_ZN5neml214ParameterStore17declare_parameterINS_2R3EvEERKT_RKNSt7__cxx1112basic_stringIcSt11char_traitsIcESaIcEEESD_b
FNDA:0,_ZN5neml214ParameterStore17declare_parameterINS_2R4EvEERKT_RKNSt7__cxx1112basic_stringIcSt11char_traitsIcESaIcEEESD_b
FNDA:0,_ZN5neml214ParameterStore17declare_parameterINS_3RotEvEERKT_RKNSt7__cxx1112basic_stringIcSt11char_traitsIcESaIcEEESD_b
FNDA:5,_ZN5neml214ParameterStore17declare_parameterINS_3SR2EvEERKT_RKNSt7__cxx1112basic_stringIcSt11char_traitsIcESaIcEEESD_b
FNDA:0,_ZN5neml214ParameterStore17declare_parameterINS_3VecEvEERKT_RKNSt7__cxx1112basic_stringIcSt11char_traitsIcESaIcEEESD_b
FNDA:0,_ZN5neml214ParameterStore17declare_parameterINS_3WR2EvEERKT_RKNSt7__cxx1112basic_stringIcSt11char_traitsIcESaIcEEESD_b
FNDA:0,_ZN5neml214ParameterStore17declare_parameterINS_4SFR3EvEERKT_RKNSt7__cxx1112basic_stringIcSt11char_traitsIcESaIcEEESD_b
FNDA:5,_ZN5neml214ParameterStore17declare_parameterINS_4SSR4EvEERKT_RKNSt7__cxx1112basic_stringIcSt11char_traitsIcESaIcEEESD_b
FNDA:0,_ZN5neml214ParameterStore17declare_parameterINS_4SWR4EvEERKT_RKNSt7__cxx1112basic_stringIcSt11char_traitsIcESaIcEEESD_b
FNDA:0,_ZN5neml214ParameterStore17declare_parameterINS_4WSR4EvEERKT_RKNSt7__cxx1112basic_stringIcSt11char_traitsIcESaIcEEESD_b
FNDA:0,_ZN5neml214ParameterStore17declare_parameterINS_4WWR4EvEERKT_RKNSt7__cxx1112basic_stringIcSt11char_traitsIcESaIcEEESD_b
FNDA:0,_ZN5neml214ParameterStore17declare_parameterINS_5SFFR4EvEERKT_RKNSt7__cxx1112basic_stringIcSt11char_traitsIcESaIcEEESD_b
FNDA:0,_ZN5neml214ParameterStore17declare_parameterINS_5WFFR4EvEERKT_RKNSt7__cxx1112basic_stringIcSt11char_traitsIcESaIcEEESD_b
FNDA:201,_ZN5neml214ParameterStore17declare_parameterINS_6ScalarEvEERKT_RKNSt7__cxx1112basic_stringIcSt11char_traitsIcESaIcEEESD_b
FNDA:495,_ZN5neml214ParameterStore22assign_parameter_stackERSt6vectorIN3c106IValueESaIS3_EE
FNDA:5696,_ZNK5neml214ParameterStore23collect_parameter_stackEv
FNDA:509,_ZN5neml214ParameterStoreC2EPNS_11NEML2ObjectE
FNDA:94,_ZN5neml214ParameterStore18send_parameters_toERKN3c1013TensorOptionsE
FNDA:812,_ZN5neml214ParameterStore13set_parameterERKNSt7__cxx1112basic_stringIcSt11char_traitsIcESaIcEEERKNS_6TensorE
FNDA:5,_ZN5neml214ParameterStore13get_parameterERKNSt7__cxx1112basic_stringIcSt11char_traitsIcESaIcEEE
FNDA:0,_ZN5neml214ParameterStore14set_parametersERKSt3mapINSt7__cxx1112basic_stringIcSt11char_traitsIcESaIcEEENS_6TensorESt4lessIS7_ESaISt4pairIKS7_S8_EEE
FNDA:321550,_ZN5neml214ParameterStore16named_parametersB5cxx11Ev
FNDA:0,_ZN5neml214ParameterStore17declare_parameterINS_10QuaternionEvEERKT_RKNSt7__cxx1112basic_stringIcSt11char_traitsIcESaIcEEES5_
FNDA:0,_ZN5neml214ParameterStore17declare_parameterINS_11MillerIndexEvEERKT_RKNSt7__cxx1112basic_stringIcSt11char_traitsIcESaIcEEES5_
FNDA:0,_ZN5neml214ParameterStore17declare_parameterINS_2R2EvEERKT_RKNSt7__cxx1112basic_stringIcSt11char_traitsIcESaIcEEES5_
FNDA:0,_ZN5neml214ParameterStore17declare_parameterINS_2R3EvEERKT_RKNSt7__cxx1112basic_stringIcSt11char_traitsIcESaIcEEES5_
FNDA:0,_ZN5neml214ParameterStore17declare_parameterINS_2R4EvEERKT_RKNSt7__cxx1112basic_stringIcSt11char_traitsIcESaIcEEES5_
FNDA:0,_ZN5neml214ParameterStore17declare_parameterINS_3RotEvEERKT_RKNSt7__cxx1112basic_stringIcSt11char_traitsIcESaIcEEES5_
FNDA:5,_ZN5neml214ParameterStore17declare_parameterINS_3SR2EvEERKT_RKNSt7__cxx1112basic_stringIcSt11char_traitsIcESaIcEEES5_
FNDA:0,_ZN5neml214ParameterStore17declare_parameterINS_3VecEvEERKT_RKNSt7__cxx1112basic_stringIcSt11char_traitsIcESaIcEEES5_
FNDA:0,_ZN5neml214ParameterStore17declare_parameterINS_3WR2EvEERKT_RKNSt7__cxx1112basic_stringIcSt11char_traitsIcESaIcEEES5_
FNDA:0,_ZN5neml214ParameterStore17declare_parameterINS_4SFR3EvEERKT_RKNSt7__cxx1112basic_stringIcSt11char_traitsIcESaIcEEES5_
FNDA:3,_ZN5neml214ParameterStore17declare_parameterINS_4SSR4EvEERKT_RKNSt7__cxx1112basic_stringIcSt11char_traitsIcESaIcEEES5_
FNDA:0,_ZN5neml214ParameterStore17declare_parameterINS_4SWR4EvEERKT_RKNSt7__cxx1112basic_stringIcSt11char_traitsIcESaIcEEES5_
FNDA:0,_ZN5neml214ParameterStore17declare_parameterINS_4WSR4EvEERKT_RKNSt7__cxx1112basic_stringIcSt11char_traitsIcESaIcEEES5_
FNDA:0,_ZN5neml214ParameterStore17declare_parameterINS_4WWR4EvEERKT_RKNSt7__cxx1112basic_stringIcSt11char_traitsIcESaIcEEES5_
FNDA:0,_ZN5neml214ParameterStore17declare_parameterINS_5SFFR4EvEERKT_RKNSt7__cxx1112basic_stringIcSt11char_traitsIcESaIcEEES5_
FNDA:0,_ZN5neml214ParameterStore17declare_parameterINS_5WFFR4EvEERKT_RKNSt7__cxx1112basic_stringIcSt11char_traitsIcESaIcEEES5_
FNDA:323,_ZN5neml214ParameterStore17declare_parameterINS_6ScalarEvEERKT_RKNSt7__cxx1112basic_stringIcSt11char_traitsIcESaIcEEES5_
FNDA:0,_ZN5neml214ParameterStore17declare_parameterINS_6TensorEvEERKT_RKNSt7__cxx1112basic_stringIcSt11char_traitsIcESaIcEEES5_
FNF:77
FNH:18
DA:38,509
DA:39,509
DA:41,509
DA:44,94
DA:46,109
DA:47,15
DA:48,94
DA:51,812
DA:53,812
DA:54,812
DA:55,812
DA:56,812
DA:59,5
DA:61,5
DA:62,5
DA:63,5
DA:67,0
DA:69,0
DA:70,0
DA:71,0
DA:74,321550
DA:76,321550
DA:78,321550
DA:83,331
DA:85,331
DA:86,243
DA:87,162
DA:89,250
DA:92,250
DA:93,3
DA:97,247
DA:98,247
DA:99,247
DA:100,247
DA:102,250
DA:103,250
DA:104,250
DA:109,79
DA:111,79
DA:112,0
DA:119,79
DA:120,158
DA:126,79
DA:127,79
DA:131,79
DA:132,79
DA:133,0
DA:138,79
DA:141,79
DA:142,237
DA:147,24
DA:150,12
DA:151,12
DA:152,0
DA:153,0
DA:155,12
DA:156,0
DA:157,0
DA:164,0
DA:166,0
DA:167,0
DA:169,0
DA:172,12
DA:177,67
DA:180,67
DA:181,67
DA:182,67
DA:183,67
DA:184,67
DA:185,67
DA:186,201
DA:187,201
DA:189,4
DA:190,2
DA:191,0
DA:196,195
DA:199,134
DA:203,67
DA:204,67
DA:210,0
DA:213,0
DA:214,0
DA:220,0
DA:223,0
DA:224,0
DA:225,0
DA:229,0
DA:231,0
DA:233,0
DA:238,79
DA:239,79
DA:240,79
DA:241,0
DA:246,79
DA:247,79
DA:255,79
DA:258,158
DA:259,158
DA:263,291
DA:267,291
DA:268,291
DA:274,291
DA:276,160
DA:278,80
DA:279,80
DA:282,79
DA:284,0
DA:286,0
DA:289,0
DA:292,2
DA:293,3
DA:300,0
DA:305,211
DA:309,211
DA:310,422
DA:311,631
DA:312,0
DA:330,495
DA:332,495
DA:334,495
DA:342,495
DA:343,1078
DA:345,583
DA:346,583
DA:347,583
DA:348,583
DA:349,583
DA:350,583
DA:353,495
DA:354,495
DA:357,5696
DA:359,5696
DA:360,5696
DA:361,5696
DA:362,15110
DA:363,9414
DA:364,5696
DA:365,0
LF:138
LH:106
end_of_record
TN:
SF:/home/runner/work/neml2/neml2/src/neml2/models/Variable.cxx
FN:124,140,_ZN5neml28VariableINS_10QuaternionEE4zeroERKN3c1013TensorOptionsE
FN:124,140,_ZN5neml28VariableINS_11MillerIndexEE4zeroERKN3c1013TensorOptionsE
FN:124,140,_ZN5neml28VariableINS_2R2EE4zeroERKN3c1013TensorOptionsE
FN:124,140,_ZN5neml28VariableINS_2R3EE4zeroERKN3c1013TensorOptionsE
FN:124,140,_ZN5neml28VariableINS_2R4EE4zeroERKN3c1013TensorOptionsE
FN:124,140,_ZN5neml28VariableINS_3RotEE4zeroERKN3c1013TensorOptionsE
FN:124,140,_ZN5neml28VariableINS_3SR2EE4zeroERKN3c1013TensorOptionsE
FN:124,140,_ZN5neml28VariableINS_3VecEE4zeroERKN3c1013TensorOptionsE
FN:124,140,_ZN5neml28VariableINS_3WR2EE4zeroERKN3c1013TensorOptionsE
FN:124,140,_ZN5neml28VariableINS_4SFR3EE4zeroERKN3c1013TensorOptionsE
FN:124,140,_ZN5neml28VariableINS_4SSR4EE4zeroERKN3c1013TensorOptionsE
FN:124,140,_ZN5neml28VariableINS_4SWR4EE4zeroERKN3c1013TensorOptionsE
FN:124,140,_ZN5neml28VariableINS_4WSR4EE4zeroERKN3c1013TensorOptionsE
FN:124,140,_ZN5neml28VariableINS_4WWR4EE4zeroERKN3c1013TensorOptionsE
FN:124,140,_ZN5neml28VariableINS_5SFFR4EE4zeroERKN3c1013TensorOptionsE
FN:124,140,_ZN5neml28VariableINS_5WFFR4EE4zeroERKN3c1013TensorOptionsE
FN:124,140,_ZN5neml28VariableINS_6ScalarEE4zeroERKN3c1013TensorOptionsE
FN:144,164,_ZNK5neml28VariableINS_10QuaternionEE6tensorEv
FN:144,164,_ZNK5neml28VariableINS_11MillerIndexEE6tensorEv
FN:144,164,_ZNK5neml28VariableINS_2R2EE6tensorEv
FN:144,164,_ZNK5neml28VariableINS_2R3EE6tensorEv
FN:144,164,_ZNK5neml28VariableINS_2R4EE6tensorEv
FN:144,164,_ZNK5neml28VariableINS_3RotEE6tensorEv
FN:144,164,_ZNK5neml28VariableINS_3SR2EE6tensorEv
FN:144,164,_ZNK5neml28VariableINS_3VecEE6tensorEv
FN:144,164,_ZNK5neml28VariableINS_3WR2EE6tensorEv
FN:144,164,_ZNK5neml28VariableINS_4SFR3EE6tensorEv
FN:144,164,_ZNK5neml28VariableINS_4SSR4EE6tensorEv
FN:144,164,_ZNK5neml28VariableINS_4SWR4EE6tensorEv
FN:144,164,_ZNK5neml28VariableINS_4WSR4EE6tensorEv
FN:144,164,_ZNK5neml28VariableINS_4WWR4EE6tensorEv
FN:144,164,_ZNK5neml28VariableINS_5SFFR4EE6tensorEv
FN:144,164,_ZNK5neml28VariableINS_5WFFR4EE6tensorEv
FN:144,164,_ZNK5neml28VariableINS_6ScalarEE6tensorEv
FN:168,174,_ZN5neml28VariableINS_10QuaternionEE14requires_grad_Eb
FN:168,174,_ZN5neml28VariableINS_11MillerIndexEE14requires_grad_Eb
FN:168,174,_ZN5neml28VariableINS_2R2EE14requires_grad_Eb
FN:168,174,_ZN5neml28VariableINS_2R3EE14requires_grad_Eb
FN:168,174,_ZN5neml28VariableINS_2R4EE14requires_grad_Eb
FN:168,174,_ZN5neml28VariableINS_3RotEE14requires_grad_Eb
FN:168,174,_ZN5neml28VariableINS_3SR2EE14requires_grad_Eb
FN:168,174,_ZN5neml28VariableINS_3VecEE14requires_grad_Eb
FN:168,174,_ZN5neml28VariableINS_3WR2EE14requires_grad_Eb
FN:168,174,_ZN5neml28VariableINS_4SFR3EE14requires_grad_Eb
FN:168,174,_ZN5neml28VariableINS_4SSR4EE14requires_grad_Eb
FN:168,174,_ZN5neml28VariableINS_4SWR4EE14requires_grad_Eb
FN:168,174,_ZN5neml28VariableINS_4WSR4EE14requires_grad_Eb
FN:168,174,_ZN5neml28VariableINS_4WWR4EE14requires_grad_Eb
FN:168,174,_ZN5neml28VariableINS_5SFFR4EE14requires_grad_Eb
FN:168,174,_ZN5neml28VariableINS_5WFFR4EE14requires_grad_Eb
FN:168,174,_ZN5neml28VariableINS_6ScalarEE14requires_grad_Eb
FN:178,217,_ZN5neml28VariableINS_10QuaternionEE6assignERKNS_6TensorESt8optionalINS_15TracerPrivilegeEE
FN:178,217,_ZN5neml28VariableINS_11MillerIndexEE6assignERKNS_6TensorESt8optionalINS_15TracerPrivilegeEE
FN:178,217,_ZN5neml28VariableINS_2R2EE6assignERKNS_6TensorESt8optionalINS_15TracerPrivilegeEE
FN:178,217,_ZN5neml28VariableINS_2R3EE6assignERKNS_6TensorESt8optionalINS_15TracerPrivilegeEE
FN:178,217,_ZN5neml28VariableINS_2R4EE6assignERKNS_6TensorESt8optionalINS_15TracerPrivilegeEE
FN:178,217,_ZN5neml28VariableINS_3RotEE6assignERKNS_6TensorESt8optionalINS_15TracerPrivilegeEE
FN:178,217,_ZN5neml28VariableINS_3SR2EE6assignERKNS_6TensorESt8optionalINS_15TracerPrivilegeEE
FN:178,217,_ZN5neml28VariableINS_3VecEE6assignERKNS_6TensorESt8optionalINS_15TracerPrivilegeEE
FN:178,217,_ZN5neml28VariableINS_3WR2EE6assignERKNS_6TensorESt8optionalINS_15TracerPrivilegeEE
FN:178,217,_ZN5neml28VariableINS_4SFR3EE6assignERKNS_6TensorESt8optionalINS_15TracerPrivilegeEE
FN:178,217,_ZN5neml28VariableINS_4SSR4EE6assignERKNS_6TensorESt8optionalINS_15TracerPrivilegeEE
FN:178,217,_ZN5neml28VariableINS_4SWR4EE6assignERKNS_6TensorESt8optionalINS_15TracerPrivilegeEE
FN:178,217,_ZN5neml28VariableINS_4WSR4EE6assignERKNS_6TensorESt8optionalINS_15TracerPrivilegeEE
FN:178,217,_ZN5neml28VariableINS_4WWR4EE6assignERKNS_6TensorESt8optionalINS_15TracerPrivilegeEE
FN:178,217,_ZN5neml28VariableINS_5SFFR4EE6assignERKNS_6TensorESt8optionalINS_15TracerPrivilegeEE
FN:178,217,_ZN5neml28VariableINS_5WFFR4EE6assignERKNS_6TensorESt8optionalINS_15TracerPrivilegeEE
FN:178,217,_ZN5neml28VariableINS_6ScalarEE6assignERKNS_6TensorESt8optionalINS_15TracerPrivilegeEE
FN:221,224,_ZN5neml28VariableINS_10QuaternionEEaSERKNS_6TensorE
FN:221,224,_ZN5neml28VariableINS_11MillerIndexEEaSERKNS_6TensorE
FN:221,224,_ZN5neml28VariableINS_2R2EEaSERKNS_6TensorE
FN:221,224,_ZN5neml28VariableINS_2R3EEaSERKNS_6TensorE
FN:221,224,_ZN5neml28VariableINS_2R4EEaSERKNS_6TensorE
FN:221,224,_ZN5neml28VariableINS_3RotEEaSERKNS_6TensorE
FN:221,224,_ZN5neml28VariableINS_3SR2EEaSERKNS_6TensorE
FN:221,224,_ZN5neml28VariableINS_3VecEEaSERKNS_6TensorE
FN:221,224,_ZN5neml28VariableINS_3WR2EEaSERKNS_6TensorE
FN:221,224,_ZN5neml28VariableINS_4SFR3EEaSERKNS_6TensorE
FN:221,224,_ZN5neml28VariableINS_4SSR4EEaSERKNS_6TensorE
FN:221,224,_ZN5neml28VariableINS_4SWR4EEaSERKNS_6TensorE
FN:221,224,_ZN5neml28VariableINS_4WSR4EEaSERKNS_6TensorE
FN:221,224,_ZN5neml28VariableINS_4WWR4EEaSERKNS_6TensorE
FN:221,224,_ZN5neml28VariableINS_5SFFR4EEaSERKNS_6TensorE
FN:221,224,_ZN5neml28VariableINS_5WFFR4EEaSERKNS_6TensorE
FN:221,224,_ZN5neml28VariableINS_6ScalarEEaSERKNS_6TensorE
FN:228,247,_ZN5neml28VariableINS_10QuaternionEE5clearEv
FN:228,247,_ZN5neml28VariableINS_11MillerIndexEE5clearEv
FN:228,247,_ZN5neml28VariableINS_2R2EE5clearEv
FN:228,247,_ZN5neml28VariableINS_2R3EE5clearEv
FN:228,247,_ZN5neml28VariableINS_2R4EE5clearEv
FN:228,247,_ZN5neml28VariableINS_3RotEE5clearEv
FN:228,247,_ZN5neml28VariableINS_3SR2EE5clearEv
FN:228,247,_ZN5neml28VariableINS_3VecEE5clearEv
FN:228,247,_ZN5neml28VariableINS_3WR2EE5clearEv
FN:228,247,_ZN5neml28VariableINS_4SFR3EE5clearEv
FN:228,247,_ZN5neml28VariableINS_4SSR4EE5clearEv
FN:228,247,_ZN5neml28VariableINS_4SWR4EE5clearEv
FN:228,247,_ZN5neml28VariableINS_4WSR4EE5clearEv
FN:228,247,_ZN5neml28VariableINS_4WWR4EE5clearEv
FN:228,247,_ZN5neml28VariableINS_5SFFR4EE5clearEv
FN:228,247,_ZN5neml28VariableINS_5WFFR4EE5clearEv
FN:228,247,_ZN5neml28VariableINS_6ScalarEE5clearEv
FN:37,40,_ZNK5neml28VariableINS_10QuaternionEE4typeEv
FN:37,40,_ZNK5neml28VariableINS_11MillerIndexEE4typeEv
FN:37,40,_ZNK5neml28VariableINS_2R2EE4typeEv
FN:37,40,_ZNK5neml28VariableINS_2R3EE4typeEv
FN:37,40,_ZNK5neml28VariableINS_2R4EE4typeEv
FN:37,40,_ZNK5neml28VariableINS_3RotEE4typeEv
FN:37,40,_ZNK5neml28VariableINS_3SR2EE4typeEv
FN:37,40,_ZNK5neml28VariableINS_3VecEE4typeEv
FN:37,40,_ZNK5neml28VariableINS_3WR2EE4typeEv
FN:37,40,_ZNK5neml28VariableINS_4SFR3EE4typeEv
FN:37,40,_ZNK5neml28VariableINS_4SSR4EE4typeEv
FN:37,40,_ZNK5neml28VariableINS_4SWR4EE4typeEv
FN:37,40,_ZNK5neml28VariableINS_4WSR4EE4typeEv
FN:37,40,_ZNK5neml28VariableINS_4WWR4EE4typeEv
FN:37,40,_ZNK5neml28VariableINS_5SFFR4EE4typeEv
FN:37,40,_ZNK5neml28VariableINS_5WFFR4EE4typeEv
FN:37,40,_ZNK5neml28VariableINS_6ScalarEE4typeEv
FN:44,47,_ZNK5neml28VariableINS_10QuaternionEE7definedEv
FN:44,47,_ZNK5neml28VariableINS_11MillerIndexEE7definedEv
FN:44,47,_ZNK5neml28VariableINS_2R2EE7definedEv
FN:44,47,_ZNK5neml28VariableINS_2R3EE7definedEv
FN:44,47,_ZNK5neml28VariableINS_2R4EE7definedEv
FN:44,47,_ZNK5neml28VariableINS_3RotEE7definedEv
FN:44,47,_ZNK5neml28VariableINS_3SR2EE7definedEv
FN:44,47,_ZNK5neml28VariableINS_3VecEE7definedEv
FN:44,47,_ZNK5neml28VariableINS_3WR2EE7definedEv
FN:44,47,_ZNK5neml28VariableINS_4SFR3EE7definedEv
FN:44,47,_ZNK5neml28VariableINS_4SSR4EE7definedEv
FN:44,47,_ZNK5neml28VariableINS_4SWR4EE7definedEv
FN:44,47,_ZNK5neml28VariableINS_4WSR4EE7definedEv
FN:44,47,_ZNK5neml28VariableINS_4WWR4EE7definedEv
FN:44,47,_ZNK5neml28VariableINS_5SFFR4EE7definedEv
FN:44,47,_ZNK5neml28VariableINS_5WFFR4EE7definedEv
FN:44,47,_ZNK5neml28VariableINS_6ScalarEE7definedEv
FN:51,54,_ZNK5neml28VariableINS_10QuaternionEE7optionsEv
FN:51,54,_ZNK5neml28VariableINS_11MillerIndexEE7optionsEv
FN:51,54,_ZNK5neml28VariableINS_2R2EE7optionsEv
FN:51,54,_ZNK5neml28VariableINS_2R3EE7optionsEv
FN:51,54,_ZNK5neml28VariableINS_2R4EE7optionsEv
FN:51,54,_ZNK5neml28VariableINS_3RotEE7optionsEv
FN:51,54,_ZNK5neml28VariableINS_3SR2EE7optionsEv
FN:51,54,_ZNK5neml28VariableINS_3VecEE7optionsEv
FN:51,54,_ZNK5neml28VariableINS_3WR2EE7optionsEv
FN:51,54,_ZNK5neml28VariableINS_4SFR3EE7optionsEv
FN:51,54,_ZNK5neml28VariableINS_4SSR4EE7optionsEv
FN:51,54,_ZNK5neml28VariableINS_4SWR4EE7optionsEv
FN:51,54,_ZNK5neml28VariableINS_4WSR4EE7optionsEv
FN:51,54,_ZNK5neml28VariableINS_4WWR4EE7optionsEv
FN:51,54,_ZNK5neml28VariableINS_5SFFR4EE7optionsEv
FN:51,54,_ZNK5neml28VariableINS_5WFFR4EE7optionsEv
FN:51,54,_ZNK5neml28VariableINS_6ScalarEE7optionsEv
FN:58,61,_ZNK5neml28VariableINS_10QuaternionEE11scalar_typeEv
FN:58,61,_ZNK5neml28VariableINS_11MillerIndexEE11scalar_typeEv
FN:58,61,_ZNK5neml28VariableINS_2R2EE11scalar_typeEv
FN:58,61,_ZNK5neml28VariableINS_2R3EE11scalar_typeEv
FN:58,61,_ZNK5neml28VariableINS_2R4EE11scalar_typeEv
FN:58,61,_ZNK5neml28VariableINS_3RotEE11scalar_typeEv
FN:58,61,_ZNK5neml28VariableINS_3SR2EE11scalar_typeEv
FN:58,61,_ZNK5neml28VariableINS_3VecEE11scalar_typeEv
FN:58,61,_ZNK5neml28VariableINS_3WR2EE11scalar_typeEv
FN:58,61,_ZNK5neml28VariableINS_4SFR3EE11scalar_typeEv
FN:58,61,_ZNK5neml28VariableINS_4SSR4EE11scalar_typeEv
FN:58,61,_ZNK5neml28VariableINS_4SWR4EE11scalar_typeEv
FN:58,61,_ZNK5neml28VariableINS_4WSR4EE11scalar_typeEv
FN:58,61,_ZNK5neml28VariableINS_4WWR4EE11scalar_typeEv
FN:58,61,_ZNK5neml28VariableINS_5SFFR4EE11scalar_typeEv
FN:58,61,_ZNK5neml28VariableINS_5WFFR4EE11scalar_typeEv
FN:58,61,_ZNK5neml28VariableINS_6ScalarEE11scalar_typeEv
FN:65,68,_ZNK5neml28VariableINS_10QuaternionEE6deviceEv
FN:65,68,_ZNK5neml28VariableINS_11MillerIndexEE6deviceEv
FN:65,68,_ZNK5neml28VariableINS_2R2EE6deviceEv
FN:65,68,_ZNK5neml28VariableINS_2R3EE6deviceEv
FN:65,68,_ZNK5neml28VariableINS_2R4EE6deviceEv
FN:65,68,_ZNK5neml28VariableINS_3RotEE6deviceEv
FN:65,68,_ZNK5neml28VariableINS_3SR2EE6deviceEv
FN:65,68,_ZNK5neml28VariableINS_3VecEE6deviceEv
FN:65,68,_ZNK5neml28VariableINS_3WR2EE6deviceEv
FN:65,68,_ZNK5neml28VariableINS_4SFR3EE6deviceEv
FN:65,68,_ZNK5neml28VariableINS_4SSR4EE6deviceEv
FN:65,68,_ZNK5neml28VariableINS_4SWR4EE6deviceEv
FN:65,68,_ZNK5neml28VariableINS_4WSR4EE6deviceEv
FN:65,68,_ZNK5neml28VariableINS_4WWR4EE6deviceEv
FN:65,68,_ZNK5neml28VariableINS_5SFFR4EE6deviceEv
FN:65,68,_ZNK5neml28VariableINS_5WFFR4EE6deviceEv
FN:65,68,_ZNK5neml28VariableINS_6ScalarEE6deviceEv
FN:72,75,_ZNK5neml28VariableINS_10QuaternionEE13dynamic_sizesEv
FN:72,75,_ZNK5neml28VariableINS_11MillerIndexEE13dynamic_sizesEv
FN:72,75,_ZNK5neml28VariableINS_2R2EE13dynamic_sizesEv
FN:72,75,_ZNK5neml28VariableINS_2R3EE13dynamic_sizesEv
FN:72,75,_ZNK5neml28VariableINS_2R4EE13dynamic_sizesEv
FN:72,75,_ZNK5neml28VariableINS_3RotEE13dynamic_sizesEv
FN:72,75,_ZNK5neml28VariableINS_3SR2EE13dynamic_sizesEv
FN:72,75,_ZNK5neml28VariableINS_3VecEE13dynamic_sizesEv
FN:72,75,_ZNK5neml28VariableINS_3WR2EE13dynamic_sizesEv
FN:72,75,_ZNK5neml28VariableINS_4SFR3EE13dynamic_sizesEv
FN:72,75,_ZNK5neml28VariableINS_4SSR4EE13dynamic_sizesEv
FN:72,75,_ZNK5neml28VariableINS_4SWR4EE13dynamic_sizesEv
FN:72,75,_ZNK5neml28VariableINS_4WSR4EE13dynamic_sizesEv
FN:72,75,_ZNK5neml28VariableINS_4WWR4EE13dynamic_sizesEv
FN:72,75,_ZNK5neml28VariableINS_5SFFR4EE13dynamic_sizesEv
FN:72,75,_ZNK5neml28VariableINS_5WFFR4EE13dynamic_sizesEv
FN:72,75,_ZNK5neml28VariableINS_6ScalarEE13dynamic_sizesEv
FN:79,83,_ZNK5neml28VariableINS_10QuaternionEE5cloneESt8optionalINSt7__cxx1112basic_stringIcSt11char_traitsIcESaIcEEEEPNS_5ModelE
FN:79,83,_ZNK5neml28VariableINS_11MillerIndexEE5cloneESt8optionalINSt7__cxx1112basic_stringIcSt11char_traitsIcESaIcEEEEPNS_5ModelE
FN:79,83,_ZNK5neml28VariableINS_2R2EE5cloneESt8optionalINSt7__cxx1112basic_stringIcSt11char_traitsIcESaIcEEEEPNS_5ModelE
FN:79,83,_ZNK5neml28VariableINS_2R3EE5cloneESt8optionalINSt7__cxx1112basic_stringIcSt11char_traitsIcESaIcEEEEPNS_5ModelE
FN:79,83,_ZNK5neml28VariableINS_2R4EE5cloneESt8optionalINSt7__cxx1112basic_stringIcSt11char_traitsIcESaIcEEEEPNS_5ModelE
FN:79,83,_ZNK5neml28VariableINS_3RotEE5cloneESt8optionalINSt7__cxx1112basic_stringIcSt11char_traitsIcESaIcEEEEPNS_5ModelE
FN:79,83,_ZNK5neml28VariableINS_3SR2EE5cloneESt8optionalINSt7__cxx1112basic_stringIcSt11char_traitsIcESaIcEEEEPNS_5ModelE
FN:79,83,_ZNK5neml28VariableINS_3VecEE5cloneESt8optionalINSt7__cxx1112basic_stringIcSt11char_traitsIcESaIcEEEEPNS_5ModelE
FN:79,83,_ZNK5neml28VariableINS_3WR2EE5cloneESt8optionalINSt7__cxx1112basic_stringIcSt11char_traitsIcESaIcEEEEPNS_5ModelE
FN:79,83,_ZNK5neml28VariableINS_4SFR3EE5cloneESt8optionalINSt7__cxx1112basic_stringIcSt11char_traitsIcESaIcEEEEPNS_5ModelE
FN:79,83,_ZNK5neml28VariableINS_4SSR4EE5cloneESt8optionalINSt7__cxx1112basic_stringIcSt11char_traitsIcESaIcEEEEPNS_5ModelE
FN:79,83,_ZNK5neml28VariableINS_4SWR4EE5cloneESt8optionalINSt7__cxx1112basic_stringIcSt11char_traitsIcESaIcEEEEPNS_5ModelE
FN:79,83,_ZNK5neml28VariableINS_4WSR4EE5cloneESt8optionalINSt7__cxx1112basic_stringIcSt11char_traitsIcESaIcEEEEPNS_5ModelE
FN:79,83,_ZNK5neml28VariableINS_4WWR4EE5cloneESt8optionalINSt7__cxx1112basic_stringIcSt11char_traitsIcESaIcEEEEPNS_5ModelE
FN:79,83,_ZNK5neml28VariableINS_5SFFR4EE5cloneESt8optionalINSt7__cxx1112basic_stringIcSt11char_traitsIcESaIcEEEEPNS_5ModelE
FN:79,83,_ZNK5neml28VariableINS_5WFFR4EE5cloneESt8optionalINSt7__cxx1112basic_stringIcSt11char_traitsIcESaIcEEEEPNS_5ModelE
FN:79,83,_ZNK5neml28VariableINS_6ScalarEE5cloneESt8optionalINSt7__cxx1112basic_stringIcSt11char_traitsIcESaIcEEEEPNS_5ModelE
FN:87,120,_ZN5neml28VariableINS_10QuaternionEE3refERNS_12VariableBaseE
FN:87,120,_ZN5neml28VariableINS_11MillerIndexEE3refERNS_12VariableBaseE
FN:87,120,_ZN5neml28VariableINS_2R2EE3refERNS_12VariableBaseE
FN:87,120,_ZN5neml28VariableINS_2R3EE3refERNS_12VariableBaseE
FN:87,120,_ZN5neml28VariableINS_2R4EE3refERNS_12VariableBaseE
FN:87,120,_ZN5neml28VariableINS_3RotEE3refERNS_12VariableBaseE
FN:87,120,_ZN5neml28VariableINS_3SR2EE3refERNS_12VariableBaseE
FN:87,120,_ZN5neml28VariableINS_3VecEE3refERNS_12VariableBaseE
FN:87,120,_ZN5neml28VariableINS_3WR2EE3refERNS_12VariableBaseE
FN:87,120,_ZN5neml28VariableINS_4SFR3EE3refERNS_12VariableBaseE
FN:87,120,_ZN5neml28VariableINS_4SSR4EE3refERNS_12VariableBaseE
FN:87,120,_ZN5neml28VariableINS_4SWR4EE3refERNS_12VariableBaseE
FN:87,120,_ZN5neml28VariableINS_4WSR4EE3refERNS_12VariableBaseE
FN:87,120,_ZN5neml28VariableINS_4WWR4EE3refERNS_12VariableBaseE
FN:87,120,_ZN5neml28VariableINS_5SFFR4EE3refERNS_12VariableBaseE
FN:87,120,_ZN5neml28VariableINS_5WFFR4EE3refERNS_12VariableBaseE
FN:87,120,_ZN5neml28VariableINS_6ScalarEE3refERNS_12VariableBaseE
FNDA:0,_ZN5neml28VariableINS_10QuaternionEE4zeroERKN3c1013TensorOptionsE
FNDA:0,_ZN5neml28VariableINS_11MillerIndexEE4zeroERKN3c1013TensorOptionsE
FNDA:0,_ZN5neml28VariableINS_2R2EE4zeroERKN3c1013TensorOptionsE
FNDA:0,_ZN5neml28VariableINS_2R3EE4zeroERKN3c1013TensorOptionsE
FNDA:0,_ZN5neml28VariableINS_2R4EE4zeroERKN3c1013TensorOptionsE
FNDA:0,_ZN5neml28VariableINS_3RotEE4zeroERKN3c1013TensorOptionsE
FNDA:56,_ZN5neml28VariableINS_3SR2EE4zeroERKN3c1013TensorOptionsE
FNDA:0,_ZN5neml28VariableINS_3VecEE4zeroERKN3c1013TensorOptionsE
FNDA:0,_ZN5neml28VariableINS_3WR2EE4zeroERKN3c1013TensorOptionsE
FNDA:0,_ZN5neml28VariableINS_4SFR3EE4zeroERKN3c1013TensorOptionsE
FNDA:0,_ZN5neml28VariableINS_4SSR4EE4zeroERKN3c1013TensorOptionsE
FNDA:0,_ZN5neml28VariableINS_4SWR4EE4zeroERKN3c1013TensorOptionsE
FNDA:0,_ZN5neml28VariableINS_4WSR4EE4zeroERKN3c1013TensorOptionsE
FNDA:0,_ZN5neml28VariableINS_4WWR4EE4zeroERKN3c1013TensorOptionsE
FNDA:0,_ZN5neml28VariableINS_5SFFR4EE4zeroERKN3c1013TensorOptionsE
FNDA:0,_ZN5neml28VariableINS_5WFFR4EE4zeroERKN3c1013TensorOptionsE
FNDA:110,_ZN5neml28VariableINS_6ScalarEE4zeroERKN3c1013TensorOptionsE
FNDA:0,_ZNK5neml28VariableINS_10QuaternionEE6tensorEv
FNDA:0,_ZNK5neml28VariableINS_11MillerIndexEE6tensorEv
FNDA:7671,_ZNK5neml28VariableINS_2R2EE6tensorEv
FNDA:0,_ZNK5neml28VariableINS_2R3EE6tensorEv
FNDA:0,_ZNK5neml28VariableINS_2R4EE6tensorEv
FNDA:16816,_ZNK5neml28VariableINS_3RotEE6tensorEv
FNDA:687309,_ZNK5neml28VariableINS_3SR2EE6tensorEv
FNDA:0,_ZNK5neml28VariableINS_3VecEE6tensorEv
FNDA:2944,_ZNK5neml28VariableINS_3WR2EE6tensorEv
FNDA:0,_ZNK5neml28VariableINS_4SFR3EE6tensorEv
FNDA:12534,_ZNK5neml28VariableINS_4SSR4EE6tensorEv
FNDA:0,_ZNK5neml28VariableINS_4SWR4EE6tensorEv
FNDA:0,_ZNK5neml28VariableINS_4WSR4EE6tensorEv
FNDA:0,_ZNK5neml28VariableINS_4WWR4EE6tensorEv
FNDA:0,_ZNK5neml28VariableINS_5SFFR4EE6tensorEv
FNDA:0,_ZNK5neml28VariableINS_5WFFR4EE6tensorEv
FNDA:914927,_ZNK5neml28VariableINS_6ScalarEE6tensorEv
FNDA:0,_ZN5neml28VariableINS_10QuaternionEE14requires_grad_Eb
FNDA:0,_ZN5neml28VariableINS_11MillerIndexEE14requires_grad_Eb
FNDA:0,_ZN5neml28VariableINS_2R2EE14requires_grad_Eb
FNDA:0,_ZN5neml28VariableINS_2R3EE14requires_grad_Eb
FNDA:0,_ZN5neml28VariableINS_2R4EE14requires_grad_Eb
FNDA:0,_ZN5neml28VariableINS_3RotEE14requires_grad_Eb
FNDA:1,_ZN5neml28VariableINS_3SR2EE14requires_grad_Eb
FNDA:0,_ZN5neml28VariableINS_3VecEE14requires_grad_Eb
FNDA:0,_ZN5neml28VariableINS_3WR2EE14requires_grad_Eb
FNDA:0,_ZN5neml28VariableINS_4SFR3EE14requires_grad_Eb
FNDA:0,_ZN5neml28VariableINS_4SSR4EE14requires_grad_Eb
FNDA:0,_ZN5neml28VariableINS_4SWR4EE14requires_grad_Eb
FNDA:0,_ZN5neml28VariableINS_4WSR4EE14requires_grad_Eb
FNDA:0,_ZN5neml28VariableINS_4WWR4EE14requires_grad_Eb
FNDA:0,_ZN5neml28VariableINS_5SFFR4EE14requires_grad_Eb
FNDA:0,_ZN5neml28VariableINS_5WFFR4EE14requires_grad_Eb
FNDA:5,_ZN5neml28VariableINS_6ScalarEE14requires_grad_Eb
FNDA:0,_ZN5neml28VariableINS_10QuaternionEE6assignERKNS_6TensorESt8optionalINS_15TracerPrivilegeEE
FNDA:0,_ZN5neml28VariableINS_11MillerIndexEE6assignERKNS_6TensorESt8optionalINS_15TracerPrivilegeEE
FNDA:453,_ZN5neml28VariableINS_2R2EE6assignERKNS_6TensorESt8optionalINS_15TracerPrivilegeEE
FNDA:0,_ZN5neml28VariableINS_2R3EE6assignERKNS_6TensorESt8optionalINS_15TracerPrivilegeEE
FNDA:0,_ZN5neml28VariableINS_2R4EE6assignERKNS_6TensorESt8optionalINS_15TracerPrivilegeEE
FNDA:196,_ZN5neml28VariableINS_3RotEE6assignERKNS_6TensorESt8optionalINS_15TracerPrivilegeEE
FNDA:6863,_ZN5neml28VariableINS_3SR2EE6assignERKNS_6TensorESt8optionalINS_15TracerPrivilegeEE
FNDA:0,_ZN5neml28VariableINS_3VecEE6assignERKNS_6TensorESt8optionalINS_15TracerPrivilegeEE
FNDA:147,_ZN5neml28VariableINS_3WR2EE6assignERKNS_6TensorESt8optionalINS_15TracerPrivilegeEE
FNDA:0,_ZN5neml28VariableINS_4SFR3EE6assignERKNS_6TensorESt8optionalINS_15TracerPrivilegeEE
FNDA:158,_ZN5neml28VariableINS_4SSR4EE6assignERKNS_6TensorESt8optionalINS_15TracerPrivilegeEE
FNDA:0,_ZN5neml28VariableINS_4SWR4EE6assignERKNS_6TensorESt8optionalINS_15TracerPrivilegeEE
FNDA:0,_ZN5neml28VariableINS_4WSR4EE6assignERKNS_6TensorESt8optionalINS_15TracerPrivilegeEE
FNDA:0,_ZN5neml28VariableINS_4WWR4EE6assignERKNS_6TensorESt8optionalINS_15TracerPrivilegeEE
FNDA:0,_ZN5neml28VariableINS_5SFFR4EE6assignERKNS_6TensorESt8optionalINS_15TracerPrivilegeEE
FNDA:0,_ZN5neml28VariableINS_5WFFR4EE6assignERKNS_6TensorESt8optionalINS_15TracerPrivilegeEE
FNDA:14479,_ZN5neml28VariableINS_6ScalarEE6assignERKNS_6TensorESt8optionalINS_15TracerPrivilegeEE
FNDA:0,_ZN5neml28VariableINS_10QuaternionEEaSERKNS_6TensorE
FNDA:0,_ZN5neml28VariableINS_11MillerIndexEEaSERKNS_6TensorE
FNDA:272,_ZN5neml28VariableINS_2R2EEaSERKNS_6TensorE
FNDA:0,_ZN5neml28VariableINS_2R3EEaSERKNS_6TensorE
FNDA:0,_ZN5neml28VariableINS_2R4EEaSERKNS_6TensorE
FNDA:132,_ZN5neml28VariableINS_3RotEEaSERKNS_6TensorE
FNDA:2878,_ZN5neml28VariableINS_3SR2EEaSERKNS_6TensorE
FNDA:0,_ZN5neml28VariableINS_3VecEEaSERKNS_6TensorE
FNDA:63,_ZN5neml28VariableINS_3WR2EEaSERKNS_6TensorE
FNDA:0,_ZN5neml28VariableINS_4SFR3EEaSERKNS_6TensorE
FNDA:98,_ZN5neml28VariableINS_4SSR4EEaSERKNS_6TensorE
FNDA:0,_ZN5neml28VariableINS_4SWR4EEaSERKNS_6TensorE
FNDA:0,_ZN5neml28VariableINS_4WSR4EEaSERKNS_6TensorE
FNDA:0,_ZN5neml28VariableINS_4WWR4EEaSERKNS_6TensorE
FNDA:0,_ZN5neml28VariableINS_5SFFR4EEaSERKNS_6TensorE
FNDA:0,_ZN5neml28VariableINS_5WFFR4EEaSERKNS_6TensorE
FNDA:7139,_ZN5neml28VariableINS_6ScalarEEaSERKNS_6TensorE
FNDA:0,_ZN5neml28VariableINS_10QuaternionEE5clearEv
FNDA:0,_ZN5neml28VariableINS_11MillerIndexEE5clearEv
FNDA:87,_ZN5neml28VariableINS_2R2EE5clearEv
FNDA:0,_ZN5neml28VariableINS_2R3EE5clearEv
FNDA:0,_ZN5neml28VariableINS_2R4EE5clearEv
FNDA:67,_ZN5neml28VariableINS_3RotEE5clearEv
FNDA:1030,_ZN5neml28VariableINS_3SR2EE5clearEv
FNDA:0,_ZN5neml28VariableINS_3VecEE5clearEv
FNDA:38,_ZN5neml28VariableINS_3WR2EE5clearEv
FNDA:0,_ZN5neml28VariableINS_4SFR3EE5clearEv
FNDA:22,_ZN5neml28VariableINS_4SSR4EE5clearEv
FNDA:0,_ZN5neml28VariableINS_4SWR4EE5clearEv
FNDA:0,_ZN5neml28VariableINS_4WSR4EE5clearEv
FNDA:0,_ZN5neml28VariableINS_4WWR4EE5clearEv
FNDA:0,_ZN5neml28VariableINS_5SFFR4EE5clearEv
FNDA:0,_ZN5neml28VariableINS_5WFFR4EE5clearEv
FNDA:4379,_ZN5neml28VariableINS_6ScalarEE5clearEv
FNDA:0,_ZNK5neml28VariableINS_10QuaternionEE4typeEv
FNDA:0,_ZNK5neml28VariableINS_11MillerIndexEE4typeEv
FNDA:14,_ZNK5neml28VariableINS_2R2EE4typeEv
FNDA:0,_ZNK5neml28VariableINS_2R3EE4typeEv
FNDA:0,_ZNK5neml28VariableINS_2R4EE4typeEv
FNDA:12,_ZNK5neml28VariableINS_3RotEE4typeEv
FNDA:364,_ZNK5neml28VariableINS_3SR2EE4typeEv
FNDA:0,_ZNK5neml28VariableINS_3VecEE4typeEv
FNDA:2,_ZNK5neml28VariableINS_3WR2EE4typeEv
FNDA:0,_ZNK5neml28VariableINS_4SFR3EE4typeEv
FNDA:20,_ZNK5neml28VariableINS_4SSR4EE4typeEv
FNDA:0,_ZNK5neml28VariableINS_4SWR4EE4typeEv
FNDA:0,_ZNK5neml28VariableINS_4WSR4EE4typeEv
FNDA:0,_ZNK5neml28VariableINS_4WWR4EE4typeEv
FNDA:0,_ZNK5neml28VariableINS_5SFFR4EE4typeEv
FNDA:0,_ZNK5neml28VariableINS_5WFFR4EE4typeEv
FNDA:1326,_ZNK5neml28VariableINS_6ScalarEE4typeEv
FNDA:0,_ZNK5neml28VariableINS_10QuaternionEE7definedEv
FNDA:0,_ZNK5neml28VariableINS_11MillerIndexEE7definedEv
FNDA:8740,_ZNK5neml28VariableINS_2R2EE7definedEv
FNDA:0,_ZNK5neml28VariableINS_2R3EE7definedEv
FNDA:0,_ZNK5neml28VariableINS_2R4EE7definedEv
FNDA:12903,_ZNK5neml28VariableINS_3RotEE7definedEv
FNDA:421877,_ZNK5neml28VariableINS_3SR2EE7definedEv
FNDA:0,_ZNK5neml28VariableINS_3VecEE7definedEv
FNDA:2874,_ZNK5neml28VariableINS_3WR2EE7definedEv
FNDA:0,_ZNK5neml28VariableINS_4SFR3EE7definedEv
FNDA:12372,_ZNK5neml28VariableINS_4SSR4EE7definedEv
FNDA:0,_ZNK5neml28VariableINS_4SWR4EE7definedEv
FNDA:0,_ZNK5neml28VariableINS_4WSR4EE7definedEv
FNDA:0,_ZNK5neml28VariableINS_4WWR4EE7definedEv
FNDA:0,_ZNK5neml28VariableINS_5SFFR4EE7definedEv
FNDA:0,_ZNK5neml28VariableINS_5WFFR4EE7definedEv
FNDA:585678,_ZNK5neml28VariableINS_6ScalarEE7definedEv
FNDA:0,_ZNK5neml28VariableINS_10QuaternionEE7optionsEv
FNDA:0,_ZNK5neml28VariableINS_11MillerIndexEE7optionsEv
FNDA:9,_ZNK5neml28VariableINS_2R2EE7optionsEv
FNDA:0,_ZNK5neml28VariableINS_2R3EE7optionsEv
FNDA:0,_ZNK5neml28VariableINS_2R4EE7optionsEv
FNDA:2,_ZNK5neml28VariableINS_3RotEE7optionsEv
FNDA:228,_ZNK5neml28VariableINS_3SR2EE7optionsEv
FNDA:0,_ZNK5neml28VariableINS_3VecEE7optionsEv
FNDA:1,_ZNK5neml28VariableINS_3WR2EE7optionsEv
FNDA:0,_ZNK5neml28VariableINS_4SFR3EE7optionsEv
FNDA:2,_ZNK5neml28VariableINS_4SSR4EE7optionsEv
FNDA:0,_ZNK5neml28VariableINS_4SWR4EE7optionsEv
FNDA:0,_ZNK5neml28VariableINS_4WSR4EE7optionsEv
FNDA:0,_ZNK5neml28VariableINS_4WWR4EE7optionsEv
FNDA:0,_ZNK5neml28VariableINS_5SFFR4EE7optionsEv
FNDA:0,_ZNK5neml28VariableINS_5WFFR4EE7optionsEv
FNDA:256,_ZNK5neml28VariableINS_6ScalarEE7optionsEv
FNDA:0,_ZNK5neml28VariableINS_10QuaternionEE11scalar_typeEv
FNDA:0,_ZNK5neml28VariableINS_11MillerIndexEE11scalar_typeEv
FNDA:0,_ZNK5neml28VariableINS_2R2EE11scalar_typeEv
FNDA:0,_ZNK5neml28VariableINS_2R3EE11scalar_typeEv
FNDA:0,_ZNK5neml28VariableINS_2R4EE11scalar_typeEv
FNDA:0,_ZNK5neml28VariableINS_3RotEE11scalar_typeEv
FNDA:12,_ZNK5neml28VariableINS_3SR2EE11scalar_typeEv
FNDA:0,_ZNK5neml28VariableINS_3VecEE11scalar_typeEv
FNDA:0,_ZNK5neml28VariableINS_3WR2EE11scalar_typeEv
FNDA:0,_ZNK5neml28VariableINS_4SFR3EE11scalar_typeEv
FNDA:0,_ZNK5neml28VariableINS_4SSR4EE11scalar_typeEv
FNDA:0,_ZNK5neml28VariableINS_4SWR4EE11scalar_typeEv
FNDA:0,_ZNK5neml28VariableINS_4WSR4EE11scalar_typeEv
FNDA:0,_ZNK5neml28VariableINS_4WWR4EE11scalar_typeEv
FNDA:0,_ZNK5neml28VariableINS_5SFFR4EE11scalar_typeEv
FNDA:0,_ZNK5neml28VariableINS_5WFFR4EE11scalar_typeEv
FNDA:15,_ZNK5neml28VariableINS_6ScalarEE11scalar_typeEv
FNDA:0,_ZNK5neml28VariableINS_10QuaternionEE6deviceEv
FNDA:0,_ZNK5neml28VariableINS_11MillerIndexEE6deviceEv
FNDA:0,_ZNK5neml28VariableINS_2R2EE6deviceEv
FNDA:0,_ZNK5neml28VariableINS_2R3EE6deviceEv
FNDA:0,_ZNK5neml28VariableINS_2R4EE6deviceEv
FNDA:0,_ZNK5neml28VariableINS_3RotEE6deviceEv
FNDA:0,_ZNK5neml28VariableINS_3SR2EE6deviceEv
FNDA:0,_ZNK5neml28VariableINS_3VecEE6deviceEv
FNDA:0,_ZNK5neml28VariableINS_3WR2EE6deviceEv
FNDA:0,_ZNK5neml28VariableINS_4SFR3EE6deviceEv
FNDA:0,_ZNK5neml28VariableINS_4SSR4EE6deviceEv
FNDA:0,_ZNK5neml28VariableINS_4SWR4EE6deviceEv
FNDA:0,_ZNK5neml28VariableINS_4WSR4EE6deviceEv
FNDA:0,_ZNK5neml28VariableINS_4WWR4EE6deviceEv
FNDA:0,_ZNK5neml28VariableINS_5SFFR4EE6deviceEv
FNDA:0,_ZNK5neml28VariableINS_5WFFR4EE6deviceEv
FNDA:0,_ZNK5neml28VariableINS_6ScalarEE6deviceEv
FNDA:0,_ZNK5neml28VariableINS_10QuaternionEE13dynamic_sizesEv
FNDA:0,_ZNK5neml28VariableINS_11MillerIndexEE13dynamic_sizesEv
FNDA:363,_ZNK5neml28VariableINS_2R2EE13dynamic_sizesEv
FNDA:0,_ZNK5neml28VariableINS_2R3EE13dynamic_sizesEv
FNDA:0,_ZNK5neml28VariableINS_2R4EE13dynamic_sizesEv
FNDA:415,_ZNK5neml28VariableINS_3RotEE13dynamic_sizesEv
FNDA:5944,_ZNK5neml28VariableINS_3SR2EE13dynamic_sizesEv
FNDA:0,_ZNK5neml28VariableINS_3VecEE13dynamic_sizesEv
FNDA:122,_ZNK5neml28VariableINS_3WR2EE13dynamic_sizesEv
FNDA:0,_ZNK5neml28VariableINS_4SFR3EE13dynamic_sizesEv
FNDA:106,_ZNK5neml28VariableINS_4SSR4EE13dynamic_sizesEv
FNDA:0,_ZNK5neml28VariableINS_4SWR4EE13dynamic_sizesEv
FNDA:0,_ZNK5neml28VariableINS_4WSR4EE13dynamic_sizesEv
FNDA:0,_ZNK5neml28VariableINS_4WWR4EE13dynamic_sizesEv
FNDA:0,_ZNK5neml28VariableINS_5SFFR4EE13dynamic_sizesEv
FNDA:0,_ZNK5neml28VariableINS_5WFFR4EE13dynamic_sizesEv
FNDA:17036,_ZNK5neml28VariableINS_6ScalarEE13dynamic_sizesEv
FNDA:0,_ZNK5neml28VariableINS_10QuaternionEE5cloneESt8optionalINSt7__cxx1112basic_stringIcSt11char_traitsIcESaIcEEEEPNS_5ModelE
FNDA:0,_ZNK5neml28VariableINS_11MillerIndexEE5cloneESt8optionalINSt7__cxx1112basic_stringIcSt11char_traitsIcESaIcEEEEPNS_5ModelE
FNDA:3,_ZNK5neml28VariableINS_2R2EE5cloneESt8optionalINSt7__cxx1112basic_stringIcSt11char_traitsIcESaIcEEEEPNS_5ModelE
FNDA:0,_ZNK5neml28VariableINS_2R3EE5cloneESt8optionalINSt7__cxx1112basic_stringIcSt11char_traitsIcESaIcEEEEPNS_5ModelE
FNDA:0,_ZNK5neml28VariableINS_2R4EE5cloneESt8optionalINSt7__cxx1112basic_stringIcSt11char_traitsIcESaIcEEEEPNS_5ModelE
FNDA:6,_ZNK5neml28VariableINS_3RotEE5cloneESt8optionalINSt7__cxx1112basic_stringIcSt11char_traitsIcESaIcEEEEPNS_5ModelE
FNDA:143,_ZNK5neml28VariableINS_3SR2EE5cloneESt8optionalINSt7__cxx1112basic_stringIcSt11char_traitsIcESaIcEEEEPNS_5ModelE
FNDA:0,_ZNK5neml28VariableINS_3VecEE5cloneESt8optionalINSt7__cxx1112basic_stringIcSt11char_traitsIcESaIcEEEEPNS_5ModelE
FNDA:1,_ZNK5neml28VariableINS_3WR2EE5cloneESt8optionalINSt7__cxx1112basic_stringIcSt11char_traitsIcESaIcEEEEPNS_5ModelE
FNDA:0,_ZNK5neml28VariableINS_4SFR3EE5cloneESt8optionalINSt7__cxx1112basic_stringIcSt11char_traitsIcESaIcEEEEPNS_5ModelE
FNDA:6,_ZNK5neml28VariableINS_4SSR4EE5cloneESt8optionalINSt7__cxx1112basic_stringIcSt11char_traitsIcESaIcEEEEPNS_5ModelE
FNDA:0,_ZNK5neml28VariableINS_4SWR4EE5cloneESt8optionalINSt7__cxx1112basic_stringIcSt11char_traitsIcESaIcEEEEPNS_5ModelE
FNDA:0,_ZNK5neml28VariableINS_4WSR4EE5cloneESt8optionalINSt7__cxx1112basic_stringIcSt11char_traitsIcESaIcEEEEPNS_5ModelE
FNDA:0,_ZNK5neml28VariableINS_4WWR4EE5cloneESt8optionalINSt7__cxx1112basic_stringIcSt11char_traitsIcESaIcEEEEPNS_5ModelE
FNDA:0,_ZNK5neml28VariableINS_5SFFR4EE5cloneESt8optionalINSt7__cxx1112basic_stringIcSt11char_traitsIcESaIcEEEEPNS_5ModelE
FNDA:0,_ZNK5neml28VariableINS_5WFFR4EE5cloneESt8optionalINSt7__cxx1112basic_stringIcSt11char_traitsIcESaIcEEEEPNS_5ModelE
FNDA:391,_ZNK5neml28VariableINS_6ScalarEE5cloneESt8optionalINSt7__cxx1112basic_stringIcSt11char_traitsIcESaIcEEEEPNS_5ModelE
FNDA:0,_ZN5neml28VariableINS_10QuaternionEE3refERNS_12VariableBaseE
FNDA:0,_ZN5neml28VariableINS_11MillerIndexEE3refERNS_12VariableBaseE
FNDA:7,_ZN5neml28VariableINS_2R2EE3refERNS_12VariableBaseE
FNDA:0,_ZN5neml28VariableINS_2R3EE3refERNS_12VariableBaseE
FNDA:0,_ZN5neml28VariableINS_2R4EE3refERNS_12VariableBaseE
FNDA:6,_ZN5neml28VariableINS_3RotEE3refERNS_12VariableBaseE
FNDA:181,_ZN5neml28VariableINS_3SR2EE3refERNS_12VariableBaseE
FNDA:0,_ZN5neml28VariableINS_3VecEE3refERNS_12VariableBaseE
FNDA:1,_ZN5neml28VariableINS_3WR2EE3refERNS_12VariableBaseE
FNDA:0,_ZN5neml28VariableINS_4SFR3EE3refERNS_12VariableBaseE
FNDA:10,_ZN5neml28VariableINS_4SSR4EE3refERNS_12VariableBaseE
FNDA:0,_ZN5neml28VariableINS_4SWR4EE3refERNS_12VariableBaseE
FNDA:0,_ZN5neml28VariableINS_4WSR4EE3refERNS_12VariableBaseE
FNDA:0,_ZN5neml28VariableINS_4WWR4EE3refERNS_12VariableBaseE
FNDA:0,_ZN5neml28VariableINS_5SFFR4EE3refERNS_12VariableBaseE
FNDA:0,_ZN5neml28VariableINS_5WFFR4EE3refERNS_12VariableBaseE
FNDA:658,_ZN5neml28VariableINS_6ScalarEE3refERNS_12VariableBaseE
FNF:238
FNH:66
DA:37,1738
DA:39,1738
DA:44,1044444
DA:46,1044444
DA:51,498
DA:53,498
DA:58,27
DA:60,27
DA:65,0
DA:67,0
DA:72,23986
DA:74,23986
DA:79,550
DA:81,1100
DA:82,1650
DA:87,863
DA:89,863
DA:91,863
DA:93,863
DA:96,863
DA:98,863
DA:100,863
DA:102,863
DA:103,863
DA:105,863
DA:107,863
DA:108,863
DA:110,863
DA:112,863
DA:114,863
DA:116,863
DA:118,863
DA:119,863
DA:120,863
DA:124,166
DA:126,166
DA:127,166
DA:130,0
DA:138,0
DA:140,166
DA:144,1642201
DA:146,1642201
DA:147,639432
DA:149,1002769
DA:150,33951
DA:163,1002769
DA:168,6
DA:170,6
DA:171,6
DA:173,0
DA:174,6
DA:178,22296
DA:180,22296
DA:182,17231
DA:189,17231
DA:202,17231
DA:203,17231
DA:207,5065
DA:215,5065
DA:217,22296
DA:221,10582
DA:223,10582
DA:224,10582
DA:228,5623
DA:230,5623
DA:232,5623
DA:233,5623
DA:237,0
DA:245,0
DA:247,5623
LF:70
LH:63
end_of_record
TN:
SF:/home/runner/work/neml2/neml2/src/neml2/models/VariableBase.cxx
FN:104,107,_ZNK5neml212VariableBase10static_dimEv
FN:110,113,_ZNK5neml212VariableBase9intmd_dimEv
FN:116,119,_ZNK5neml212VariableBase5sizesEv
FN:122,125,_ZNK5neml212VariableBase11batch_sizesEv
FN:128,131,_ZNK5neml212VariableBase10base_sizesEv
FN:134,137,_ZNK5neml212VariableBase12static_sizesEv
FN:140,143,_ZNK5neml212VariableBase11intmd_sizesEv
FN:146,154,_ZNK5neml212VariableBase4sizeEl
FN:157,163,_ZNK5neml212VariableBase10batch_sizeEl
FN:166,170,_ZNK5neml212VariableBase9base_sizeEl
FN:173,177,_ZNK5neml212VariableBase12dynamic_sizeEl
FN:180,186,_ZNK5neml212VariableBase11static_sizeEl
FN:189,193,_ZNK5neml212VariableBase10intmd_sizeEl
FN:196,201,_ZNK5neml212VariableBase10is_mutableEv
FN:204,209,_ZN5neml212VariableBase11set_mutableEb
FN:212,215,_ZNK5neml212VariableBase5zerosERKN3c1013TensorOptionsE
FN:218,221,_ZNK5neml212VariableBase13requires_gradEv
FN:224,230,_ZNK5neml212VariableBase14has_derivativeERKNSt7__cxx1112basic_stringIcSt11char_traitsIcESaIcEEE
FN:233,239,_ZNK5neml212VariableBase14has_derivativeERKNSt7__cxx1112basic_stringIcSt11char_traitsIcESaIcEEES8_
FN:242,265,_ZN5neml2L9get_derivERSt6vectorISt5tupleIJNS_10DerivativeILm1EEEPKNS_12VariableBaseEEESaIS7_EERS5_SB_mmm
FN:268,275,_ZN5neml212VariableBase1dERKS0_mmm
FN:278,285,_ZNK5neml212VariableBase1dERKS0_
FN:288,315,_ZN5neml2L12get_secderivERSt6vectorISt5tupleIJNS_10DerivativeILm2EEEPKNS_12VariableBaseES6_EESaIS7_EERS5_SB_SB_mmmm
FN:318,333,_ZN5neml212VariableBase2d2ERKS0_S2_mmmm
FN:336,343,_ZNK5neml212VariableBase2d2ERKS0_S2_
FN:346,349,_ZN5neml212VariableBase10request_ADERKS0_
FN:352,359,_ZN5neml212VariableBase10request_ADERKSt6vectorIPKS0_SaIS3_EE
FN:362,365,_ZN5neml212VariableBase10request_ADERKS0_S2_
FN:368,378,_ZN5neml212VariableBase10request_ADERKSt6vectorIPKS0_SaIS3_EES7_
FN:381,385,_ZN5neml212VariableBase5clearEv
FN:388,394,_ZN5neml212VariableBase17clear_derivativesEv
FN:39,61,_ZN5neml212VariableBaseC2ENSt7__cxx1112basic_stringIcSt11char_traitsIcESaIcEEEPNS_5ModelEN3c108ArrayRefIlEE
FN:397,400,_ZNK5neml212VariableBase7is_leafERKNS_18DependencyResolverINS_5ModelENSt7__cxx1112basic_stringIcSt11char_traitsIcESaIcEEEEE
FN:403,428,_ZNK5neml212VariableBase8providerERKNS_18DependencyResolverINS_5ModelENSt7__cxx1112basic_stringIcSt11char_traitsIcESaIcEEEEE
FN:431,464,_ZNK5neml212VariableBase17total_derivativesERKNS_18DependencyResolverINS_5ModelENSt7__cxx1112basic_stringIcSt11char_traitsIcESaIcEEEEE
FN:467,561,_ZNK5neml212VariableBase24total_second_derivativesERKNS_18DependencyResolverINS_5ModelENSt7__cxx1112basic_stringIcSt11char_traitsIcESaIcEEEEE
FN:564,571,_ZNK5neml212VariableBase22clear_chain_rule_cacheERKNS_18DependencyResolverINS_5ModelENSt7__cxx1112basic_stringIcSt11char_traitsIcESaIcEEEEE
FN:63,63,_ZN5neml212VariableBaseD0Ev
FN:63,63,_ZN5neml212VariableBaseD2Ev
FN:66,70,_ZNK5neml212VariableBase5ownerEv
FN:73,77,_ZN5neml212VariableBase5ownerEv
FN:80,83,_ZNK5neml212VariableBase3dimEv
FN:86,89,_ZNK5neml212VariableBase9batch_dimEv
FN:92,95,_ZNK5neml212VariableBase8base_dimEv
FN:98,101,_ZNK5neml212VariableBase11dynamic_dimEv
FNDA:6649,_ZNK5neml212VariableBase10static_dimEv
FNDA:13328,_ZNK5neml212VariableBase9intmd_dimEv
FNDA:0,_ZNK5neml212VariableBase5sizesEv
FNDA:0,_ZNK5neml212VariableBase11batch_sizesEv
FNDA:46910,_ZNK5neml212VariableBase10base_sizesEv
FNDA:0,_ZNK5neml212VariableBase12static_sizesEv
FNDA:42981,_ZNK5neml212VariableBase11intmd_sizesEv
FNDA:0,_ZNK5neml212VariableBase4sizeEl
FNDA:0,_ZNK5neml212VariableBase10batch_sizeEl
FNDA:0,_ZNK5neml212VariableBase9base_sizeEl
FNDA:0,_ZNK5neml212VariableBase12dynamic_sizeEl
FNDA:0,_ZNK5neml212VariableBase11static_sizeEl
FNDA:23,_ZNK5neml212VariableBase10intmd_sizeEl
FNDA:5928,_ZNK5neml212VariableBase10is_mutableEv
FNDA:897,_ZN5neml212VariableBase11set_mutableEb
FNDA:169,_ZNK5neml212VariableBase5zerosERKN3c1013TensorOptionsE
FNDA:0,_ZNK5neml212VariableBase13requires_gradEv
FNDA:891,_ZNK5neml212VariableBase14has_derivativeERKNSt7__cxx1112basic_stringIcSt11char_traitsIcESaIcEEE
FNDA:18,_ZNK5neml212VariableBase14has_derivativeERKNSt7__cxx1112basic_stringIcSt11char_traitsIcESaIcEEES8_
FNDA:21548,_ZN5neml2L9get_derivERSt6vectorISt5tupleIJNS_10DerivativeILm1EEEPKNS_12VariableBaseEEESaIS7_EERS5_SB_mmm
FNDA:20544,_ZN5neml212VariableBase1dERKS0_mmm
FNDA:24,_ZNK5neml212VariableBase1dERKS0_
FNDA:1176,_ZN5neml2L12get_secderivERSt6vectorISt5tupleIJNS_10DerivativeILm2EEEPKNS_12VariableBaseES6_EESaIS7_EERS5_SB_SB_mmmm
FNDA:1039,_ZN5neml212VariableBase2d2ERKS0_S2_mmmm
FNDA:13,_ZNK5neml212VariableBase2d2ERKS0_S2_
FNDA:0,_ZN5neml212VariableBase10request_ADERKS0_
FNDA:4,_ZN5neml212VariableBase10request_ADERKSt6vectorIPKS0_SaIS3_EE
FNDA:0,_ZN5neml212VariableBase10request_ADERKS0_S2_
FNDA:3,_ZN5neml212VariableBase10request_ADERKSt6vectorIPKS0_SaIS3_EES7_
FNDA:5623,_ZN5neml212VariableBase5clearEv
FNDA:8753,_ZN5neml212VariableBase17clear_derivativesEv
FNDA:1824,_ZN5neml212VariableBaseC2ENSt7__cxx1112basic_stringIcSt11char_traitsIcESaIcEEEPNS_5ModelEN3c108ArrayRefIlEE
FNDA:1946,_ZNK5neml212VariableBase7is_leafERKNS_18DependencyResolverINS_5ModelENSt7__cxx1112basic_stringIcSt11char_traitsIcESaIcEEEEE
FNDA:647,_ZNK5neml212VariableBase8providerERKNS_18DependencyResolverINS_5ModelENSt7__cxx1112basic_stringIcSt11char_traitsIcESaIcEEEEE
FNDA:456,_ZNK5neml212VariableBase17total_derivativesERKNS_18DependencyResolverINS_5ModelENSt7__cxx1112basic_stringIcSt11char_traitsIcESaIcEEEEE
FNDA:59,_ZNK5neml212VariableBase24total_second_derivativesERKNS_18DependencyResolverINS_5ModelENSt7__cxx1112basic_stringIcSt11char_traitsIcESaIcEEEEE
FNDA:388,_ZNK5neml212VariableBase22clear_chain_rule_cacheERKNS_18DependencyResolverINS_5ModelENSt7__cxx1112basic_stringIcSt11char_traitsIcESaIcEEEEE
FNDA:0,_ZN5neml212VariableBaseD0Ev
FNDA:1824,_ZN5neml212VariableBaseD2Ev
FNDA:34501,_ZNK5neml212VariableBase5ownerEv
FNDA:29149,_ZN5neml212VariableBase5ownerEv
FNDA:0,_ZNK5neml212VariableBase3dimEv
FNDA:0,_ZNK5neml212VariableBase9batch_dimEv
FNDA:6649,_ZNK5neml212VariableBase8base_dimEv
FNDA:23986,_ZNK5neml212VariableBase11dynamic_dimEv
FNF:45
FNH:31
DA:39,1824
DA:40,1824
DA:41,1824
DA:42,3648
DA:44,1824
DA:45,1824
DA:46,1824
DA:48,209
DA:49,209
DA:50,418
DA:51,209
DA:52,209
DA:54,209
DA:55,209
DA:56,209
DA:58,209
DA:59,1615
DA:60,1615
DA:61,1824
DA:63,1824
DA:66,34501
DA:68,34501
DA:69,34501
DA:73,29149
DA:75,29149
DA:76,29149
DA:80,0
DA:82,0
DA:86,0
DA:88,0
DA:92,6649
DA:94,6649
DA:98,23986
DA:100,23986
DA:104,6649
DA:106,6649
DA:110,13328
DA:112,13328
DA:116,0
DA:118,0
DA:122,0
DA:124,0
DA:128,46910
DA:130,46910
DA:134,0
DA:136,0
DA:140,42981
DA:142,42981
DA:146,0
DA:148,0
DA:149,0
DA:150,0
DA:151,0
DA:152,0
DA:153,0
DA:157,0
DA:159,0
DA:160,0
DA:161,0
DA:162,0
DA:166,0
DA:168,0
DA:169,0
DA:173,0
DA:175,0
DA:176,0
DA:180,0
DA:182,0
DA:183,0
DA:184,0
DA:185,0
DA:189,23
DA:191,23
DA:192,23
DA:196,5928
DA:198,5928
DA:199,0
DA:200,5928
DA:204,897
DA:206,897
DA:207,0
DA:208,897
DA:209,897
DA:212,169
DA:214,169
DA:218,0
DA:220,0
DA:224,891
DA:226,1907
DA:227,1900
DA:228,884
DA:229,7
DA:233,18
DA:235,44
DA:236,39
DA:237,13
DA:238,5
DA:242,21548
DA:250,49880
DA:251,47872
DA:252,19540
DA:255,2008
DA:256,2008
DA:257,2008
DA:261,2008
DA:262,2008
DA:263,0
DA:264,2008
DA:265,2008
DA:268,20544
DA:273,41088
DA:274,20544
DA:278,24
DA:280,30
DA:281,30
DA:282,24
DA:283,0
DA:284,0
DA:288,1176
DA:298,9889
DA:299,9422
DA:300,709
DA:303,467
DA:304,467
DA:305,467
DA:306,934
DA:310,467
DA:311,934
DA:312,0
DA:313,0
DA:314,467
DA:315,467
DA:318,1039
DA:325,1039
DA:332,1039
DA:336,13
DA:338,19
DA:339,19
DA:340,13
DA:341,0
DA:342,0
DA:346,0
DA:348,0
DA:349,0
DA:352,4
DA:354,18
DA:356,14
DA:357,14
DA:359,4
DA:362,0
DA:364,0
DA:365,0
DA:368,3
DA:371,15
DA:372,60
DA:374,48
DA:375,48
DA:376,48
DA:378,3
DA:381,5623
DA:383,5623
DA:384,5623
DA:385,5623
DA:388,8753
DA:390,28690
DA:391,19937
DA:392,19121
DA:393,10368
DA:394,8753
DA:397,1946
DA:399,1946
DA:403,647
DA:405,647
DA:406,0
DA:409,647
DA:411,0
DA:412,0
DA:414,0
DA:415,0
DA:416,0
DA:417,0
DA:418,0
DA:419,0
DA:420,0
DA:421,0
DA:424,647
DA:425,647
DA:427,647
DA:428,647
DA:431,456
DA:434,456
DA:435,97
DA:437,1127
DA:439,768
DA:440,0
DA:442,768
DA:443,2116
DA:446,529
DA:447,529
DA:448,1058
DA:451,714
DA:453,475
DA:454,1900
DA:457,475
DA:458,475
DA:459,950
DA:460,475
DA:463,359
DA:467,59
DA:470,59
DA:471,0
DA:473,161
DA:475,102
DA:476,0
DA:479,102
DA:480,160
DA:484,32
DA:485,32
DA:486,32
DA:487,64
DA:490,70
DA:491,38
DA:493,19
DA:494,95
DA:498,19
DA:499,19
DA:500,19
DA:501,38
DA:502,19
DA:505,51
DA:506,36
DA:508,18
DA:509,90
DA:513,18
DA:514,18
DA:515,18
DA:516,36
DA:517,18
DA:521,69
DA:522,78
DA:524,42
DA:525,210
DA:529,42
DA:530,42
DA:531,42
DA:532,84
DA:533,42
DA:536,144
DA:538,85
DA:539,0
DA:542,85
DA:543,48
DA:545,63
DA:546,100
DA:548,26
DA:549,130
DA:553,26
DA:554,26
DA:555,26
DA:556,52
DA:557,26
DA:560,59
DA:564,388
DA:566,388
DA:567,388
DA:568,1207
DA:569,819
DA:570,265
DA:571,388
LF:269
LH:204
end_of_record
TN:
SF:/home/runner/work/neml2/neml2/src/neml2/models/VariableStore.cxx
FN:114,145,_ZN5neml213VariableStore15create_variableINS_10QuaternionEEEPNS_8VariableIT_EERSt3mapINSt7__cxx1112basic_stringIcSt11char_traitsIcESaIcEEESt10unique_ptrINS_12VariableBaseESt14default_deleteISF_EESt4lessISD_ESaISt4pairIKSD_SI_EEERSM_b
FN:114,145,_ZN5neml213VariableStore15create_variableINS_11MillerIndexEEEPNS_8VariableIT_EERSt3mapINSt7__cxx1112basic_stringIcSt11char_traitsIcESaIcEEESt10unique_ptrINS_12VariableBaseESt14default_deleteISF_EESt4lessISD_ESaISt4pairIKSD_SI_EEERSM_b
FN:114,145,_ZN5neml213VariableStore15create_variableINS_2R2EEEPNS_8VariableIT_EERSt3mapINSt7__cxx1112basic_stringIcSt11char_traitsIcESaIcEEESt10unique_ptrINS_12VariableBaseESt14default_deleteISF_EESt4lessISD_ESaISt4pairIKSD_SI_EEERSM_b
FN:114,145,_ZN5neml213VariableStore15create_variableINS_2R3EEEPNS_8VariableIT_EERSt3mapINSt7__cxx1112basic_stringIcSt11char_traitsIcESaIcEEESt10unique_ptrINS_12VariableBaseESt14default_deleteISF_EESt4lessISD_ESaISt4pairIKSD_SI_EEERSM_b
FN:114,145,_ZN5neml213VariableStore15create_variableINS_2R4EEEPNS_8VariableIT_EERSt3mapINSt7__cxx1112basic_stringIcSt11char_traitsIcESaIcEEESt10unique_ptrINS_12VariableBaseESt14default_deleteISF_EESt4lessISD_ESaISt4pairIKSD_SI_EEERSM_b
FN:114,145,_ZN5neml213VariableStore15create_variableINS_3RotEEEPNS_8VariableIT_EERSt3mapINSt7__cxx1112basic_stringIcSt11char_traitsIcESaIcEEESt10unique_ptrINS_12VariableBaseESt14default_deleteISF_EESt4lessISD_ESaISt4pairIKSD_SI_EEERSM_b
FN:114,145,_ZN5neml213VariableStore15create_variableINS_3SR2EEEPNS_8VariableIT_EERSt3mapINSt7__cxx1112basic_stringIcSt11char_traitsIcESaIcEEESt10unique_ptrINS_12VariableBaseESt14default_deleteISF_EESt4lessISD_ESaISt4pairIKSD_SI_EEERSM_b
FN:114,145,_ZN5neml213VariableStore15create_variableINS_3VecEEEPNS_8VariableIT_EERSt3mapINSt7__cxx1112basic_stringIcSt11char_traitsIcESaIcEEESt10unique_ptrINS_12VariableBaseESt14default_deleteISF_EESt4lessISD_ESaISt4pairIKSD_SI_EEERSM_b
FN:114,145,_ZN5neml213VariableStore15create_variableINS_3WR2EEEPNS_8VariableIT_EERSt3mapINSt7__cxx1112basic_stringIcSt11char_traitsIcESaIcEEESt10unique_ptrINS_12VariableBaseESt14default_deleteISF_EESt4lessISD_ESaISt4pairIKSD_SI_EEERSM_b
FN:114,145,_ZN5neml213VariableStore15create_variableINS_4SFR3EEEPNS_8VariableIT_EERSt3mapINSt7__cxx1112basic_stringIcSt11char_traitsIcESaIcEEESt10unique_ptrINS_12VariableBaseESt14default_deleteISF_EESt4lessISD_ESaISt4pairIKSD_SI_EEERSM_b
FN:114,145,_ZN5neml213VariableStore15create_variableINS_4SSR4EEEPNS_8VariableIT_EERSt3mapINSt7__cxx1112basic_stringIcSt11char_traitsIcESaIcEEESt10unique_ptrINS_12VariableBaseESt14default_deleteISF_EESt4lessISD_ESaISt4pairIKSD_SI_EEERSM_b
FN:114,145,_ZN5neml213VariableStore15create_variableINS_4SWR4EEEPNS_8VariableIT_EERSt3mapINSt7__cxx1112basic_stringIcSt11char_traitsIcESaIcEEESt10unique_ptrINS_12VariableBaseESt14default_deleteISF_EESt4lessISD_ESaISt4pairIKSD_SI_EEERSM_b
FN:114,145,_ZN5neml213VariableStore15create_variableINS_4WSR4EEEPNS_8VariableIT_EERSt3mapINSt7__cxx1112basic_stringIcSt11char_traitsIcESaIcEEESt10unique_ptrINS_12VariableBaseESt14default_deleteISF_EESt4lessISD_ESaISt4pairIKSD_SI_EEERSM_b
FN:114,145,_ZN5neml213VariableStore15create_variableINS_4WWR4EEEPNS_8VariableIT_EERSt3mapINSt7__cxx1112basic_stringIcSt11char_traitsIcESaIcEEESt10unique_ptrINS_12VariableBaseESt14default_deleteISF_EESt4lessISD_ESaISt4pairIKSD_SI_EEERSM_b
FN:114,145,_ZN5neml213VariableStore15create_variableINS_5SFFR4EEEPNS_8VariableIT_EERSt3mapINSt7__cxx1112basic_stringIcSt11char_traitsIcESaIcEEESt10unique_ptrINS_12VariableBaseESt14default_deleteISF_EESt4lessISD_ESaISt4pairIKSD_SI_EEERSM_b
FN:114,145,_ZN5neml213VariableStore15create_variableINS_5WFFR4EEEPNS_8VariableIT_EERSt3mapINSt7__cxx1112basic_stringIcSt11char_traitsIcESaIcEEESt10unique_ptrINS_12VariableBaseESt14default_deleteISF_EESt4lessISD_ESaISt4pairIKSD_SI_EEERSM_b
FN:114,145,_ZN5neml213VariableStore15create_variableINS_6ScalarEEEPNS_8VariableIT_EERSt3mapINSt7__cxx1112basic_stringIcSt11char_traitsIcESaIcEEESt10unique_ptrINS_12VariableBaseESt14default_deleteISF_EESt4lessISD_ESaISt4pairIKSD_SI_EEERSM_b
FN:152,161,_ZN5neml213VariableStore14input_variableERKNSt7__cxx1112basic_stringIcSt11char_traitsIcESaIcEEE
FN:164,168,_ZNK5neml213VariableStore14input_variableERKNSt7__cxx1112basic_stringIcSt11char_traitsIcESaIcEEE
FN:171,180,_ZN5neml213VariableStore15output_variableERKNSt7__cxx1112basic_stringIcSt11char_traitsIcESaIcEEE
FN:183,187,_ZNK5neml213VariableStore15output_variableERKNSt7__cxx1112basic_stringIcSt11char_traitsIcESaIcEEE
FN:190,193,_ZN5neml213VariableStore17send_variables_toERKN3c1013TensorOptionsE
FN:196,201,_ZN5neml213VariableStore11clear_inputEv
FN:204,209,_ZN5neml213VariableStore12clear_outputEv
FN:212,216,_ZN5neml213VariableStore17clear_derivativesEv
FN:219,224,_ZN5neml213VariableStore20zero_undefined_inputEv
FN:227,233,_ZN5neml213VariableStore28set_output_derivative_filterERKSt6vectorISt4pairINSt7__cxx1112basic_stringIcSt11char_traitsIcESaIcEEES8_ESaIS9_EE
FN:236,241,_ZN5neml213VariableStore35set_output_derivative_filter_nl_sysERKSt6vectorISt4pairINSt7__cxx1112basic_stringIcSt11char_traitsIcESaIcEEES8_ESaIS9_EE
FN:244,273,_ZN5neml213VariableStore25cache_derivative_sparsityEv
FN:262,262,_ZZN5neml213VariableStore25cache_derivative_sparsityEvENKUlRKT_E_clISt4pairINSt7__cxx1112basic_stringIcSt11char_traitsIcESaIcEEESC_EEEDaS3_
FN:276,288,_ZN5neml213VariableStore32cache_second_derivative_sparsityEv
FN:291,296,_ZNK5neml213VariableStore19derivative_sparsityEv
FN:299,304,_ZNK5neml213VariableStore26second_derivative_sparsityEv
FN:307,322,_ZN5neml213VariableStore12assign_inputERKSt3mapINSt7__cxx1112basic_stringIcSt11char_traitsIcESaIcEEENS_6TensorESt4lessIS7_ESaISt4pairIKS7_S8_EEEb
FN:325,340,_ZN5neml213VariableStore12assign_inputERKNS_12SparseVectorEb
FN:343,347,_ZN5neml213VariableStore13assign_outputERKNS_12SparseVectorE
FN:350,361,_ZN5neml213VariableStore25assign_output_derivativesERKNS_12SparseMatrixE
FN:364,375,_ZN5neml213VariableStore18assign_input_stackERSt6vectorIN3c106IValueESaIS3_EE
FN:378,415,_ZN5neml213VariableStore19assign_output_stackERSt6vectorIN3c106IValueESaIS3_EEbbb
FN:38,42,_ZN5neml213VariableStoreC2EPNS_5ModelE
FN:418,424,_ZNK5neml213VariableStore13collect_inputERKNS_10AxisLayoutE
FN:427,433,_ZNK5neml213VariableStore14collect_outputB5cxx11Ev
FN:436,442,_ZNK5neml213VariableStore14collect_outputERKNS_10AxisLayoutE
FN:445,469,_ZNK5neml213VariableStore26collect_output_derivativesB5cxx11Ev
FN:46,52,_ZN5neml213VariableStore22declare_input_variableINS_10QuaternionEEERKNS_8VariableIT_EEPKcb
FN:46,52,_ZN5neml213VariableStore22declare_input_variableINS_11MillerIndexEEERKNS_8VariableIT_EEPKcb
FN:46,52,_ZN5neml213VariableStore22declare_input_variableINS_2R2EEERKNS_8VariableIT_EEPKcb
FN:46,52,_ZN5neml213VariableStore22declare_input_variableINS_2R3EEERKNS_8VariableIT_EEPKcb
FN:46,52,_ZN5neml213VariableStore22declare_input_variableINS_2R4EEERKNS_8VariableIT_EEPKcb
FN:46,52,_ZN5neml213VariableStore22declare_input_variableINS_3RotEEERKNS_8VariableIT_EEPKcb
FN:46,52,_ZN5neml213VariableStore22declare_input_variableINS_3SR2EEERKNS_8VariableIT_EEPKcb
FN:46,52,_ZN5neml213VariableStore22declare_input_variableINS_3VecEEERKNS_8VariableIT_EEPKcb
FN:46,52,_ZN5neml213VariableStore22declare_input_variableINS_3WR2EEERKNS_8VariableIT_EEPKcb
FN:46,52,_ZN5neml213VariableStore22declare_input_variableINS_4SFR3EEERKNS_8VariableIT_EEPKcb
FN:46,52,_ZN5neml213VariableStore22declare_input_variableINS_4SSR4EEERKNS_8VariableIT_EEPKcb
FN:46,52,_ZN5neml213VariableStore22declare_input_variableINS_4SWR4EEERKNS_8VariableIT_EEPKcb
FN:46,52,_ZN5neml213VariableStore22declare_input_variableINS_4WSR4EEERKNS_8VariableIT_EEPKcb
FN:46,52,_ZN5neml213VariableStore22declare_input_variableINS_4WWR4EEERKNS_8VariableIT_EEPKcb
FN:46,52,_ZN5neml213VariableStore22declare_input_variableINS_5SFFR4EEERKNS_8VariableIT_EEPKcb
FN:46,52,_ZN5neml213VariableStore22declare_input_variableINS_5WFFR4EEERKNS_8VariableIT_EEPKcb
FN:46,52,_ZN5neml213VariableStore22declare_input_variableINS_6ScalarEEERKNS_8VariableIT_EEPKcb
FN:462,462,_ZZNK5neml213VariableStore26collect_output_derivativesB5cxx11EvENKUlRKT_E_clISt4pairINSt7__cxx1112basic_stringIcSt11char_traitsIcESaIcEEESC_EEEDaS3_
FN:472,488,_ZNK5neml213VariableStore26collect_output_derivativesERKNS_10AxisLayoutES3_
FN:491,499,_ZNK5neml213VariableStore33collect_output_second_derivativesB5cxx11Ev
FN:502,508,_ZNK5neml213VariableStore19collect_input_stackEv
FN:511,528,_ZNK5neml213VariableStore20collect_output_stackEbbb
FN:56,59,_ZN5neml213VariableStore22declare_input_variableINS_10QuaternionEEERKNS_8VariableIT_EERKNSt7__cxx1112basic_stringIcSt11char_traitsIcESaIcEEEb
FN:56,59,_ZN5neml213VariableStore22declare_input_variableINS_11MillerIndexEEERKNS_8VariableIT_EERKNSt7__cxx1112basic_stringIcSt11char_traitsIcESaIcEEEb
FN:56,59,_ZN5neml213VariableStore22declare_input_variableINS_2R2EEERKNS_8VariableIT_EERKNSt7__cxx1112basic_stringIcSt11char_traitsIcESaIcEEEb
FN:56,59,_ZN5neml213VariableStore22declare_input_variableINS_2R3EEERKNS_8VariableIT_EERKNSt7__cxx1112basic_stringIcSt11char_traitsIcESaIcEEEb
FN:56,59,_ZN5neml213VariableStore22declare_input_variableINS_2R4EEERKNS_8VariableIT_EERKNSt7__cxx1112basic_stringIcSt11char_traitsIcESaIcEEEb
FN:56,59,_ZN5neml213VariableStore22declare_input_variableINS_3RotEEERKNS_8VariableIT_EERKNSt7__cxx1112basic_stringIcSt11char_traitsIcESaIcEEEb
FN:56,59,_ZN5neml213VariableStore22declare_input_variableINS_3SR2EEERKNS_8VariableIT_EERKNSt7__cxx1112basic_stringIcSt11char_traitsIcESaIcEEEb
FN:56,59,_ZN5neml213VariableStore22declare_input_variableINS_3VecEEERKNS_8VariableIT_EERKNSt7__cxx1112basic_stringIcSt11char_traitsIcESaIcEEEb
FN:56,59,_ZN5neml213VariableStore22declare_input_variableINS_3WR2EEERKNS_8VariableIT_EERKNSt7__cxx1112basic_stringIcSt11char_traitsIcESaIcEEEb
FN:56,59,_ZN5neml213VariableStore22declare_input_variableINS_4SFR3EEERKNS_8VariableIT_EERKNSt7__cxx1112basic_stringIcSt11char_traitsIcESaIcEEEb
FN:56,59,_ZN5neml213VariableStore22declare_input_variableINS_4SSR4EEERKNS_8VariableIT_EERKNSt7__cxx1112basic_stringIcSt11char_traitsIcESaIcEEEb
FN:56,59,_ZN5neml213VariableStore22declare_input_variableINS_4SWR4EEERKNS_8VariableIT_EERKNSt7__cxx1112basic_stringIcSt11char_traitsIcESaIcEEEb
FN:56,59,_ZN5neml213VariableStore22declare_input_variableINS_4WSR4EEERKNS_8VariableIT_EERKNSt7__cxx1112basic_stringIcSt11char_traitsIcESaIcEEEb
FN:56,59,_ZN5neml213VariableStore22declare_input_variableINS_4WWR4EEERKNS_8VariableIT_EERKNSt7__cxx1112basic_stringIcSt11char_traitsIcESaIcEEEb
FN:56,59,_ZN5neml213VariableStore22declare_input_variableINS_5SFFR4EEERKNS_8VariableIT_EERKNSt7__cxx1112basic_stringIcSt11char_traitsIcESaIcEEEb
FN:56,59,_ZN5neml213VariableStore22declare_input_variableINS_5WFFR4EEERKNS_8VariableIT_EERKNSt7__cxx1112basic_stringIcSt11char_traitsIcESaIcEEEb
FN:56,59,_ZN5neml213VariableStore22declare_input_variableINS_6ScalarEEERKNS_8VariableIT_EERKNSt7__cxx1112basic_stringIcSt11char_traitsIcESaIcEEEb
FN:67,72,_ZN5neml213VariableStore23declare_output_variableINS_10QuaternionEEERNS_8VariableIT_EEPKc
FN:67,72,_ZN5neml213VariableStore23declare_output_variableINS_11MillerIndexEEERNS_8VariableIT_EEPKc
FN:67,72,_ZN5neml213VariableStore23declare_output_variableINS_2R2EEERNS_8VariableIT_EEPKc
FN:67,72,_ZN5neml213VariableStore23declare_output_variableINS_2R3EEERNS_8VariableIT_EEPKc
FN:67,72,_ZN5neml213VariableStore23declare_output_variableINS_2R4EEERNS_8VariableIT_EEPKc
FN:67,72,_ZN5neml213VariableStore23declare_output_variableINS_3RotEEERNS_8VariableIT_EEPKc
FN:67,72,_ZN5neml213VariableStore23declare_output_variableINS_3SR2EEERNS_8VariableIT_EEPKc
FN:67,72,_ZN5neml213VariableStore23declare_output_variableINS_3VecEEERNS_8VariableIT_EEPKc
FN:67,72,_ZN5neml213VariableStore23declare_output_variableINS_3WR2EEERNS_8VariableIT_EEPKc
FN:67,72,_ZN5neml213VariableStore23declare_output_variableINS_4SFR3EEERNS_8VariableIT_EEPKc
FN:67,72,_ZN5neml213VariableStore23declare_output_variableINS_4SSR4EEERNS_8VariableIT_EEPKc
FN:67,72,_ZN5neml213VariableStore23declare_output_variableINS_4SWR4EEERNS_8VariableIT_EEPKc
FN:67,72,_ZN5neml213VariableStore23declare_output_variableINS_4WSR4EEERNS_8VariableIT_EEPKc
FN:67,72,_ZN5neml213VariableStore23declare_output_variableINS_4WWR4EEERNS_8VariableIT_EEPKc
FN:67,72,_ZN5neml213VariableStore23declare_output_variableINS_5SFFR4EEERNS_8VariableIT_EEPKc
FN:67,72,_ZN5neml213VariableStore23declare_output_variableINS_5WFFR4EEERNS_8VariableIT_EEPKc
FN:67,72,_ZN5neml213VariableStore23declare_output_variableINS_6ScalarEEERNS_8VariableIT_EEPKc
FN:76,79,_ZN5neml213VariableStore23declare_output_variableINS_10QuaternionEEERNS_8VariableIT_EERKNSt7__cxx1112basic_stringIcSt11char_traitsIcESaIcEEE
FN:76,79,_ZN5neml213VariableStore23declare_output_variableINS_11MillerIndexEEERNS_8VariableIT_EERKNSt7__cxx1112basic_stringIcSt11char_traitsIcESaIcEEE
FN:76,79,_ZN5neml213VariableStore23declare_output_variableINS_2R2EEERNS_8VariableIT_EERKNSt7__cxx1112basic_stringIcSt11char_traitsIcESaIcEEE
FN:76,79,_ZN5neml213VariableStore23declare_output_variableINS_2R3EEERNS_8VariableIT_EERKNSt7__cxx1112basic_stringIcSt11char_traitsIcESaIcEEE
FN:76,79,_ZN5neml213VariableStore23declare_output_variableINS_2R4EEERNS_8VariableIT_EERKNSt7__cxx1112basic_stringIcSt11char_traitsIcESaIcEEE
FN:76,79,_ZN5neml213VariableStore23declare_output_variableINS_3RotEEERNS_8VariableIT_EERKNSt7__cxx1112basic_stringIcSt11char_traitsIcESaIcEEE
FN:76,79,_ZN5neml213VariableStore23declare_output_variableINS_3SR2EEERNS_8VariableIT_EERKNSt7__cxx1112basic_stringIcSt11char_traitsIcESaIcEEE
FN:76,79,_ZN5neml213VariableStore23declare_output_variableINS_3VecEEERNS_8VariableIT_EERKNSt7__cxx1112basic_stringIcSt11char_traitsIcESaIcEEE
FN:76,79,_ZN5neml213VariableStore23declare_output_variableINS_3WR2EEERNS_8VariableIT_EERKNSt7__cxx1112basic_stringIcSt11char_traitsIcESaIcEEE
FN:76,79,_ZN5neml213VariableStore23declare_output_variableINS_4SFR3EEERNS_8VariableIT_EERKNSt7__cxx1112basic_stringIcSt11char_traitsIcESaIcEEE
FN:76,79,_ZN5neml213VariableStore23declare_output_variableINS_4SSR4EEERNS_8VariableIT_EERKNSt7__cxx1112basic_stringIcSt11char_traitsIcESaIcEEE
FN:76,79,_ZN5neml213VariableStore23declare_output_variableINS_4SWR4EEERNS_8VariableIT_EERKNSt7__cxx1112basic_stringIcSt11char_traitsIcESaIcEEE
FN:76,79,_ZN5neml213VariableStore23declare_output_variableINS_4WSR4EEERNS_8VariableIT_EERKNSt7__cxx1112basic_stringIcSt11char_traitsIcESaIcEEE
FN:76,79,_ZN5neml213VariableStore23declare_output_variableINS_4WWR4EEERNS_8VariableIT_EERKNSt7__cxx1112basic_stringIcSt11char_traitsIcESaIcEEE
FN:76,79,_ZN5neml213VariableStore23declare_output_variableINS_5SFFR4EEERNS_8VariableIT_EERKNSt7__cxx1112basic_stringIcSt11char_traitsIcESaIcEEE
FN:76,79,_ZN5neml213VariableStore23declare_output_variableINS_5WFFR4EEERNS_8VariableIT_EERKNSt7__cxx1112basic_stringIcSt11char_traitsIcESaIcEEE
FN:76,79,_ZN5neml213VariableStore23declare_output_variableINS_6ScalarEEERNS_8VariableIT_EERKNSt7__cxx1112basic_stringIcSt11char_traitsIcESaIcEEE
FN:86,96,_ZN5neml213VariableStore20clone_input_variableERKNS_12VariableBaseESt8optionalINSt7__cxx1112basic_stringIcSt11char_traitsIcESaIcEEEE
FN:99,110,_ZN5neml213VariableStore21clone_output_variableERKNS_12VariableBaseESt8optionalINSt7__cxx1112basic_stringIcSt11char_traitsIcESaIcEEEE
FNDA:0,_ZN5neml213VariableStore15create_variableINS_10QuaternionEEEPNS_8VariableIT_EERSt3mapINSt7__cxx1112basic_stringIcSt11char_traitsIcESaIcEEESt10unique_ptrINS_12VariableBaseESt14default_deleteISF_EESt4lessISD_ESaISt4pairIKSD_SI_EEERSM_b
FNDA:0,_ZN5neml213VariableStore15create_variableINS_11MillerIndexEEEPNS_8VariableIT_EERSt3mapINSt7__cxx1112basic_stringIcSt11char_traitsIcESaIcEEESt10unique_ptrINS_12VariableBaseESt14default_deleteISF_EESt4lessISD_ESaISt4pairIKSD_SI_EEERSM_b
FNDA:30,_ZN5neml213VariableStore15create_variableINS_2R2EEEPNS_8VariableIT_EERSt3mapINSt7__cxx1112basic_stringIcSt11char_traitsIcESaIcEEESt10unique_ptrINS_12VariableBaseESt14default_deleteISF_EESt4lessISD_ESaISt4pairIKSD_SI_EEERSM_b
FNDA:0,_ZN5neml213VariableStore15create_variableINS_2R3EEEPNS_8VariableIT_EERSt3mapINSt7__cxx1112basic_stringIcSt11char_traitsIcESaIcEEESt10unique_ptrINS_12VariableBaseESt14default_deleteISF_EESt4lessISD_ESaISt4pairIKSD_SI_EEERSM_b
FNDA:0,_ZN5neml213VariableStore15create_variableINS_2R4EEEPNS_8VariableIT_EERSt3mapINSt7__cxx1112basic_stringIcSt11char_traitsIcESaIcEEESt10unique_ptrINS_12VariableBaseESt14default_deleteISF_EESt4lessISD_ESaISt4pairIKSD_SI_EEERSM_b
FNDA:16,_ZN5neml213VariableStore15create_variableINS_3RotEEEPNS_8VariableIT_EERSt3mapINSt7__cxx1112basic_stringIcSt11char_traitsIcESaIcEEESt10unique_ptrINS_12VariableBaseESt14default_deleteISF_EESt4lessISD_ESaISt4pairIKSD_SI_EEERSM_b
FNDA:268,_ZN5neml213VariableStore15create_variableINS_3SR2EEEPNS_8VariableIT_EERSt3mapINSt7__cxx1112basic_stringIcSt11char_traitsIcESaIcEEESt10unique_ptrINS_12VariableBaseESt14default_deleteISF_EESt4lessISD_ESaISt4pairIKSD_SI_EEERSM_b
FNDA:0,_ZN5neml213VariableStore15create_variableINS_3VecEEEPNS_8VariableIT_EERSt3mapINSt7__cxx1112basic_stringIcSt11char_traitsIcESaIcEEESt10unique_ptrINS_12VariableBaseESt14default_deleteISF_EESt4lessISD_ESaISt4pairIKSD_SI_EEERSM_b
FNDA:8,_ZN5neml213VariableStore15create_variableINS_3WR2EEEPNS_8VariableIT_EERSt3mapINSt7__cxx1112basic_stringIcSt11char_traitsIcESaIcEEESt10unique_ptrINS_12VariableBaseESt14default_deleteISF_EESt4lessISD_ESaISt4pairIKSD_SI_EEERSM_b
FNDA:0,_ZN5neml213VariableStore15create_variableINS_4SFR3EEEPNS_8VariableIT_EERSt3mapINSt7__cxx1112basic_stringIcSt11char_traitsIcESaIcEEESt10unique_ptrINS_12VariableBaseESt14default_deleteISF_EESt4lessISD_ESaISt4pairIKSD_SI_EEERSM_b
FNDA:10,_ZN5neml213VariableStore15create_variableINS_4SSR4EEEPNS_8VariableIT_EERSt3mapINSt7__cxx1112basic_stringIcSt11char_traitsIcESaIcEEESt10unique_ptrINS_12VariableBaseESt14default_deleteISF_EESt4lessISD_ESaISt4pairIKSD_SI_EEERSM_b
FNDA:0,_ZN5neml213VariableStore15create_variableINS_4SWR4EEEPNS_8VariableIT_EERSt3mapINSt7__cxx1112basic_stringIcSt11char_traitsIcESaIcEEESt10unique_ptrINS_12VariableBaseESt14default_deleteISF_EESt4lessISD_ESaISt4pairIKSD_SI_EEERSM_b
FNDA:0,_ZN5neml213VariableStore15create_variableINS_4WSR4EEEPNS_8VariableIT_EERSt3mapINSt7__cxx1112basic_stringIcSt11char_traitsIcESaIcEEESt10unique_ptrINS_12VariableBaseESt14default_deleteISF_EESt4lessISD_ESaISt4pairIKSD_SI_EEERSM_b
FNDA:0,_ZN5neml213VariableStore15create_variableINS_4WWR4EEEPNS_8VariableIT_EERSt3mapINSt7__cxx1112basic_stringIcSt11char_traitsIcESaIcEEESt10unique_ptrINS_12VariableBaseESt14default_deleteISF_EESt4lessISD_ESaISt4pairIKSD_SI_EEERSM_b
FNDA:0,_ZN5neml213VariableStore15create_variableINS_5SFFR4EEEPNS_8VariableIT_EERSt3mapINSt7__cxx1112basic_stringIcSt11char_traitsIcESaIcEEESt10unique_ptrINS_12VariableBaseESt14default_deleteISF_EESt4lessISD_ESaISt4pairIKSD_SI_EEERSM_b
FNDA:0,_ZN5neml213VariableStore15create_variableINS_5WFFR4EEEPNS_8VariableIT_EERSt3mapINSt7__cxx1112basic_stringIcSt11char_traitsIcESaIcEEESt10unique_ptrINS_12VariableBaseESt14default_deleteISF_EESt4lessISD_ESaISt4pairIKSD_SI_EEERSM_b
FNDA:944,_ZN5neml213VariableStore15create_variableINS_6ScalarEEEPNS_8VariableIT_EERSt3mapINSt7__cxx1112basic_stringIcSt11char_traitsIcESaIcEEESt10unique_ptrINS_12VariableBaseESt14default_deleteISF_EESt4lessISD_ESaISt4pairIKSD_SI_EEERSM_b
FNDA:4788,_ZN5neml213VariableStore14input_variableERKNSt7__cxx1112basic_stringIcSt11char_traitsIcESaIcEEE
FNDA:2452,_ZNK5neml213VariableStore14input_variableERKNSt7__cxx1112basic_stringIcSt11char_traitsIcESaIcEEE
FNDA:7842,_ZN5neml213VariableStore15output_variableERKNSt7__cxx1112basic_stringIcSt11char_traitsIcESaIcEEE
FNDA:5971,_ZNK5neml213VariableStore15output_variableERKNSt7__cxx1112basic_stringIcSt11char_traitsIcESaIcEEE
FNDA:91,_ZN5neml213VariableStore17send_variables_toERKN3c1013TensorOptionsE
FNDA:3025,_ZN5neml213VariableStore11clear_inputEv
FNDA:1429,_ZN5neml213VariableStore12clear_outputEv
FNDA:1805,_ZN5neml213VariableStore17clear_derivativesEv
FNDA:3739,_ZN5neml213VariableStore20zero_undefined_inputEv
FNDA:6,_ZN5neml213VariableStore28set_output_derivative_filterERKSt6vectorISt4pairINSt7__cxx1112basic_stringIcSt11char_traitsIcESaIcEEES8_ESaIS9_EE
FNDA:9,_ZN5neml213VariableStore35set_output_derivative_filter_nl_sysERKSt6vectorISt4pairINSt7__cxx1112basic_stringIcSt11char_traitsIcESaIcEEES8_ESaIS9_EE
FNDA:447,_ZN5neml213VariableStore25cache_derivative_sparsityEv
FNDA:642,_ZZN5neml213VariableStore25cache_derivative_sparsityEvENKUlRKT_E_clISt4pairINSt7__cxx1112basic_stringIcSt11char_traitsIcESaIcEEESC_EEEDaS3_
FNDA:113,_ZN5neml213VariableStore32cache_second_derivative_sparsityEv
FNDA:2565,_ZNK5neml213VariableStore19derivative_sparsityEv
FNDA:255,_ZNK5neml213VariableStore26second_derivative_sparsityEv
FNDA:1452,_ZN5neml213VariableStore12assign_inputERKSt3mapINSt7__cxx1112basic_stringIcSt11char_traitsIcESaIcEEENS_6TensorESt4lessIS7_ESaISt4pairIKS7_S8_EEEb
FNDA:670,_ZN5neml213VariableStore12assign_inputERKNS_12SparseVectorEb
FNDA:212,_ZN5neml213VariableStore13assign_outputERKNS_12SparseVectorE
FNDA:4,_ZN5neml213VariableStore25assign_output_derivativesERKNS_12SparseMatrixE
FNDA:495,_ZN5neml213VariableStore18assign_input_stackERSt6vectorIN3c106IValueESaIS3_EE
FNDA:5200,_ZN5neml213VariableStore19assign_output_stackERSt6vectorIN3c106IValueESaIS3_EEbbb
FNDA:494,_ZN5neml213VariableStoreC2EPNS_5ModelE
FNDA:882,_ZNK5neml213VariableStore13collect_inputERKNS_10AxisLayoutE
FNDA:224,_ZNK5neml213VariableStore14collect_outputB5cxx11Ev
FNDA:1519,_ZNK5neml213VariableStore14collect_outputERKNS_10AxisLayoutE
FNDA:6,_ZNK5neml213VariableStore26collect_output_derivativesB5cxx11Ev
FNDA:0,_ZN5neml213VariableStore22declare_input_variableINS_10QuaternionEEERKNS_8VariableIT_EEPKcb
FNDA:0,_ZN5neml213VariableStore22declare_input_variableINS_11MillerIndexEEERKNS_8VariableIT_EEPKcb
FNDA:19,_ZN5neml213VariableStore22declare_input_variableINS_2R2EEERKNS_8VariableIT_EEPKcb
FNDA:0,_ZN5neml213VariableStore22declare_input_variableINS_2R3EEERKNS_8VariableIT_EEPKcb
FNDA:0,_ZN5neml213VariableStore22declare_input_variableINS_2R4EEERKNS_8VariableIT_EEPKcb
FNDA:11,_ZN5neml213VariableStore22declare_input_variableINS_3RotEEERKNS_8VariableIT_EEPKcb
FNDA:100,_ZN5neml213VariableStore22declare_input_variableINS_3SR2EEERKNS_8VariableIT_EEPKcb
FNDA:0,_ZN5neml213VariableStore22declare_input_variableINS_3VecEEERKNS_8VariableIT_EEPKcb
FNDA:3,_ZN5neml213VariableStore22declare_input_variableINS_3WR2EEERKNS_8VariableIT_EEPKcb
FNDA:0,_ZN5neml213VariableStore22declare_input_variableINS_4SFR3EEERKNS_8VariableIT_EEPKcb
FNDA:2,_ZN5neml213VariableStore22declare_input_variableINS_4SSR4EEERKNS_8VariableIT_EEPKcb
FNDA:0,_ZN5neml213VariableStore22declare_input_variableINS_4SWR4EEERKNS_8VariableIT_EEPKcb
FNDA:0,_ZN5neml213VariableStore22declare_input_variableINS_4WSR4EEERKNS_8VariableIT_EEPKcb
FNDA:0,_ZN5neml213VariableStore22declare_input_variableINS_4WWR4EEERKNS_8VariableIT_EEPKcb
FNDA:0,_ZN5neml213VariableStore22declare_input_variableINS_5SFFR4EEERKNS_8VariableIT_EEPKcb
FNDA:0,_ZN5neml213VariableStore22declare_input_variableINS_5WFFR4EEERKNS_8VariableIT_EEPKcb
FNDA:368,_ZN5neml213VariableStore22declare_input_variableINS_6ScalarEEERKNS_8VariableIT_EEPKcb
FNDA:4,_ZZNK5neml213VariableStore26collect_output_derivativesB5cxx11EvENKUlRKT_E_clISt4pairINSt7__cxx1112basic_stringIcSt11char_traitsIcESaIcEEESC_EEEDaS3_
FNDA:678,_ZNK5neml213VariableStore26collect_output_derivativesERKNS_10AxisLayoutES3_
FNDA:62,_ZNK5neml213VariableStore33collect_output_second_derivativesB5cxx11Ev
FNDA:5696,_ZNK5neml213VariableStore19collect_input_stackEv
FNDA:495,_ZNK5neml213VariableStore20collect_output_stackEbbb
FNDA:0,_ZN5neml213VariableStore22declare_input_variableINS_10QuaternionEEERKNS_8VariableIT_EERKNSt7__cxx1112basic_stringIcSt11char_traitsIcESaIcEEEb
FNDA:0,_ZN5neml213VariableStore22declare_input_variableINS_11MillerIndexEEERKNS_8VariableIT_EERKNSt7__cxx1112basic_stringIcSt11char_traitsIcESaIcEEEb
FNDA:19,_ZN5neml213VariableStore22declare_input_variableINS_2R2EEERKNS_8VariableIT_EERKNSt7__cxx1112basic_stringIcSt11char_traitsIcESaIcEEEb
FNDA:0,_ZN5neml213VariableStore22declare_input_variableINS_2R3EEERKNS_8VariableIT_EERKNSt7__cxx1112basic_stringIcSt11char_traitsIcESaIcEEEb
FNDA:0,_ZN5neml213VariableStore22declare_input_variableINS_2R4EEERKNS_8VariableIT_EERKNSt7__cxx1112basic_stringIcSt11char_traitsIcESaIcEEEb
FNDA:13,_ZN5neml213VariableStore22declare_input_variableINS_3RotEEERKNS_8VariableIT_EERKNSt7__cxx1112basic_stringIcSt11char_traitsIcESaIcEEEb
FNDA:170,_ZN5neml213VariableStore22declare_input_variableINS_3SR2EEERKNS_8VariableIT_EERKNSt7__cxx1112basic_stringIcSt11char_traitsIcESaIcEEEb
FNDA:0,_ZN5neml213VariableStore22declare_input_variableINS_3VecEEERKNS_8VariableIT_EERKNSt7__cxx1112basic_stringIcSt11char_traitsIcESaIcEEEb
FNDA:5,_ZN5neml213VariableStore22declare_input_variableINS_3WR2EEERKNS_8VariableIT_EERKNSt7__cxx1112basic_stringIcSt11char_traitsIcESaIcEEEb
FNDA:0,_ZN5neml213VariableStore22declare_input_variableINS_4SFR3EEERKNS_8VariableIT_EERKNSt7__cxx1112basic_stringIcSt11char_traitsIcESaIcEEEb
FNDA:4,_ZN5neml213VariableStore22declare_input_variableINS_4SSR4EEERKNS_8VariableIT_EERKNSt7__cxx1112basic_stringIcSt11char_traitsIcESaIcEEEb
FNDA:0,_ZN5neml213VariableStore22declare_input_variableINS_4SWR4EEERKNS_8VariableIT_EERKNSt7__cxx1112basic_stringIcSt11char_traitsIcESaIcEEEb
FNDA:0,_ZN5neml213VariableStore22declare_input_variableINS_4WSR4EEERKNS_8VariableIT_EERKNSt7__cxx1112basic_stringIcSt11char_traitsIcESaIcEEEb
FNDA:0,_ZN5neml213VariableStore22declare_input_variableINS_4WWR4EEERKNS_8VariableIT_EERKNSt7__cxx1112basic_stringIcSt11char_traitsIcESaIcEEEb
FNDA:0,_ZN5neml213VariableStore22declare_input_variableINS_5SFFR4EEERKNS_8VariableIT_EERKNSt7__cxx1112basic_stringIcSt11char_traitsIcESaIcEEEb
FNDA:0,_ZN5neml213VariableStore22declare_input_variableINS_5WFFR4EEERKNS_8VariableIT_EERKNSt7__cxx1112basic_stringIcSt11char_traitsIcESaIcEEEb
FNDA:628,_ZN5neml213VariableStore22declare_input_variableINS_6ScalarEEERKNS_8VariableIT_EERKNSt7__cxx1112basic_stringIcSt11char_traitsIcESaIcEEEb
FNDA:0,_ZN5neml213VariableStore23declare_output_variableINS_10QuaternionEEERNS_8VariableIT_EEPKc
FNDA:0,_ZN5neml213VariableStore23declare_output_variableINS_11MillerIndexEEERNS_8VariableIT_EEPKc
FNDA:11,_ZN5neml213VariableStore23declare_output_variableINS_2R2EEERNS_8VariableIT_EEPKc
FNDA:0,_ZN5neml213VariableStore23declare_output_variableINS_2R3EEERNS_8VariableIT_EEPKc
FNDA:0,_ZN5neml213VariableStore23declare_output_variableINS_2R4EEERNS_8VariableIT_EEPKc
FNDA:2,_ZN5neml213VariableStore23declare_output_variableINS_3RotEEERNS_8VariableIT_EEPKc
FNDA:36,_ZN5neml213VariableStore23declare_output_variableINS_3SR2EEERNS_8VariableIT_EEPKc
FNDA:0,_ZN5neml213VariableStore23declare_output_variableINS_3VecEEERNS_8VariableIT_EEPKc
FNDA:2,_ZN5neml213VariableStore23declare_output_variableINS_3WR2EEERNS_8VariableIT_EEPKc
FNDA:0,_ZN5neml213VariableStore23declare_output_variableINS_4SFR3EEERNS_8VariableIT_EEPKc
FNDA:2,_ZN5neml213VariableStore23declare_output_variableINS_4SSR4EEERNS_8VariableIT_EEPKc
FNDA:0,_ZN5neml213VariableStore23declare_output_variableINS_4SWR4EEERNS_8VariableIT_EEPKc
FNDA:0,_ZN5neml213VariableStore23declare_output_variableINS_4WSR4EEERNS_8VariableIT_EEPKc
FNDA:0,_ZN5neml213VariableStore23declare_output_variableINS_4WWR4EEERNS_8VariableIT_EEPKc
FNDA:0,_ZN5neml213VariableStore23declare_output_variableINS_5SFFR4EEERNS_8VariableIT_EEPKc
FNDA:0,_ZN5neml213VariableStore23declare_output_variableINS_5WFFR4EEERNS_8VariableIT_EEPKc
FNDA:227,_ZN5neml213VariableStore23declare_output_variableINS_6ScalarEEERNS_8VariableIT_EEPKc
FNDA:0,_ZN5neml213VariableStore23declare_output_variableINS_10QuaternionEEERNS_8VariableIT_EERKNSt7__cxx1112basic_stringIcSt11char_traitsIcESaIcEEE
FNDA:0,_ZN5neml213VariableStore23declare_output_variableINS_11MillerIndexEEERNS_8VariableIT_EERKNSt7__cxx1112basic_stringIcSt11char_traitsIcESaIcEEE
FNDA:11,_ZN5neml213VariableStore23declare_output_variableINS_2R2EEERNS_8VariableIT_EERKNSt7__cxx1112basic_stringIcSt11char_traitsIcESaIcEEE
FNDA:0,_ZN5neml213VariableStore23declare_output_variableINS_2R3EEERNS_8VariableIT_EERKNSt7__cxx1112basic_stringIcSt11char_traitsIcESaIcEEE
FNDA:0,_ZN5neml213VariableStore23declare_output_variableINS_2R4EEERNS_8VariableIT_EERKNSt7__cxx1112basic_stringIcSt11char_traitsIcESaIcEEE
FNDA:3,_ZN5neml213VariableStore23declare_output_variableINS_3RotEEERNS_8VariableIT_EERKNSt7__cxx1112basic_stringIcSt11char_traitsIcESaIcEEE
FNDA:98,_ZN5neml213VariableStore23declare_output_variableINS_3SR2EEERNS_8VariableIT_EERKNSt7__cxx1112basic_stringIcSt11char_traitsIcESaIcEEE
FNDA:0,_ZN5neml213VariableStore23declare_output_variableINS_3VecEEERNS_8VariableIT_EERKNSt7__cxx1112basic_stringIcSt11char_traitsIcESaIcEEE
FNDA:3,_ZN5neml213VariableStore23declare_output_variableINS_3WR2EEERNS_8VariableIT_EERKNSt7__cxx1112basic_stringIcSt11char_traitsIcESaIcEEE
FNDA:0,_ZN5neml213VariableStore23declare_output_variableINS_4SFR3EEERNS_8VariableIT_EERKNSt7__cxx1112basic_stringIcSt11char_traitsIcESaIcEEE
FNDA:6,_ZN5neml213VariableStore23declare_output_variableINS_4SSR4EEERNS_8VariableIT_EERKNSt7__cxx1112basic_stringIcSt11char_traitsIcESaIcEEE
FNDA:0,_ZN5neml213VariableStore23declare_output_variableINS_4SWR4EEERNS_8VariableIT_EERKNSt7__cxx1112basic_stringIcSt11char_traitsIcESaIcEEE
FNDA:0,_ZN5neml213VariableStore23declare_output_variableINS_4WSR4EEERNS_8VariableIT_EERKNSt7__cxx1112basic_stringIcSt11char_traitsIcESaIcEEE
FNDA:0,_ZN5neml213VariableStore23declare_output_variableINS_4WWR4EEERNS_8VariableIT_EERKNSt7__cxx1112basic_stringIcSt11char_traitsIcESaIcEEE
FNDA:0,_ZN5neml213VariableStore23declare_output_variableINS_5SFFR4EEERNS_8VariableIT_EERKNSt7__cxx1112basic_stringIcSt11char_traitsIcESaIcEEE
FNDA:0,_ZN5neml213VariableStore23declare_output_variableINS_5WFFR4EEERNS_8VariableIT_EERKNSt7__cxx1112basic_stringIcSt11char_traitsIcESaIcEEE
FNDA:316,_ZN5neml213VariableStore23declare_output_variableINS_6ScalarEEERNS_8VariableIT_EERKNSt7__cxx1112basic_stringIcSt11char_traitsIcESaIcEEE
FNDA:414,_ZN5neml213VariableStore20clone_input_variableERKNS_12VariableBaseESt8optionalINSt7__cxx1112basic_stringIcSt11char_traitsIcESaIcEEEE
FNDA:136,_ZN5neml213VariableStore21clone_output_variableERKNS_12VariableBaseESt8optionalINSt7__cxx1112basic_stringIcSt11char_traitsIcESaIcEEEE
FNF:119
FNH:64
DA:38,494
DA:39,494
DA:40,494
DA:42,494
DA:46,503
DA:48,1509
DA:49,2012
DA:50,503
DA:51,0
DA:56,839
DA:58,839
DA:67,280
DA:69,840
DA:70,840
DA:71,0
DA:76,437
DA:78,437
DA:86,414
DA:88,414
DA:90,414
DA:91,414
DA:92,414
DA:94,414
DA:95,828
DA:96,414
DA:99,136
DA:101,136
DA:103,136
DA:104,136
DA:105,136
DA:106,136
DA:108,136
DA:109,272
DA:110,136
DA:114,1276
DA:119,1276
DA:120,1197
DA:125,1276
DA:127,1276
DA:128,2
DA:132,1274
DA:133,1274
DA:134,1274
DA:135,1274
DA:136,1274
DA:139,1276
DA:140,1276
DA:141,0
DA:144,1276
DA:152,4788
DA:154,4788
DA:155,4788
DA:159,4788
DA:160,9574
DA:164,2452
DA:167,2452
DA:171,7842
DA:173,7842
DA:174,7842
DA:178,7842
DA:179,15684
DA:183,5971
DA:186,5971
DA:190,91
DA:192,91
DA:193,91
DA:196,3025
DA:198,11884
DA:199,8859
DA:200,4012
DA:201,3025
DA:204,1429
DA:206,3314
DA:207,1885
DA:208,1611
DA:209,1429
DA:212,1805
DA:214,4935
DA:215,3130
DA:216,1805
DA:219,3739
DA:221,14256
DA:222,10517
DA:223,166
DA:224,3739
DA:227,6
DA:230,6
DA:231,6
DA:233,6
DA:236,9
DA:239,9
DA:240,9
DA:241,9
DA:244,447
DA:246,447
DA:247,447
DA:249,447
DA:250,948
DA:251,1755
DA:253,1254
DA:254,0
DA:255,1254
DA:257,114
DA:258,114
DA:260,114
DA:262,642
DA:263,114
DA:264,70
DA:266,1184
DA:269,447
DA:270,57
DA:272,390
DA:273,447
DA:276,113
DA:278,113
DA:279,236
DA:280,457
DA:281,334
DA:282,334
DA:284,113
DA:285,0
DA:287,113
DA:288,113
DA:291,2565
DA:293,2565
DA:294,809
DA:295,1756
DA:299,255
DA:301,255
DA:302,0
DA:303,255
DA:307,1452
DA:309,5897
DA:311,4445
DA:312,4445
DA:314,0
DA:315,0
DA:317,0
DA:318,0
DA:320,4445
DA:322,1452
DA:325,670
DA:327,2490
DA:329,1820
DA:330,1820
DA:332,0
DA:333,0
DA:335,0
DA:336,0
DA:338,1820
DA:340,670
DA:343,212
DA:345,786
DA:346,574
DA:347,212
DA:350,4
DA:352,4
DA:353,4
DA:354,14
DA:356,10
DA:357,67
DA:358,57
DA:359,57
DA:361,4
DA:364,495
DA:366,495
DA:367,1668
DA:369,1173
DA:370,1173
DA:371,1173
DA:372,1173
DA:374,495
DA:375,495
DA:378,5200
DA:380,5200
DA:381,5200
DA:383,5200
DA:385,5200
DA:386,8876
DA:388,5476
DA:389,5476
DA:390,5476
DA:391,5476
DA:394,5200
DA:395,10541
DA:397,8798
DA:398,8798
DA:399,8798
DA:400,8798
DA:401,8798
DA:404,5200
DA:405,293
DA:407,231
DA:408,231
DA:409,231
DA:410,231
DA:411,231
DA:414,5200
DA:415,5200
DA:418,882
DA:420,882
DA:421,3276
DA:422,2394
DA:423,1764
DA:424,882
DA:427,224
DA:429,224
DA:430,473
DA:431,249
DA:432,224
DA:433,0
DA:436,1519
DA:438,1519
DA:439,5634
DA:440,4115
DA:441,3038
DA:442,1519
DA:445,6
DA:447,6
DA:448,12
DA:449,18
DA:451,12
DA:452,4
DA:454,8
DA:455,8
DA:457,4
DA:458,4
DA:460,4
DA:462,4
DA:463,4
DA:464,0
DA:466,8
DA:468,6
DA:469,0
DA:472,678
DA:475,678
DA:476,678
DA:477,1356
DA:478,2518
DA:480,1840
DA:481,1840
DA:482,7195
DA:483,42715
DA:484,37360
DA:485,5337
DA:487,1356
DA:488,678
DA:491,62
DA:493,62
DA:494,134
DA:495,303
DA:496,231
DA:497,231
DA:498,62
DA:499,0
DA:502,5696
DA:504,5696
DA:505,29682
DA:506,23986
DA:507,5696
DA:508,0
DA:511,495
DA:513,495
DA:515,495
DA:516,463
DA:517,245
DA:519,495
DA:520,781
DA:521,561
DA:523,495
DA:524,293
DA:525,231
DA:527,1980
DA:528,990
LF:274
LH:255
end_of_record
TN:
SF:/home/runner/work/neml2/neml2/src/neml2/models/chemical_reactions/AvramiErofeevNucleation.cxx
FN:34,46,_ZN5neml223AvramiErofeevNucleation16expected_optionsEv
FN:48,53,_ZN5neml223AvramiErofeevNucleationC2ERKNS_9OptionSetE
FN:56,63,_ZN5neml223AvramiErofeevNucleation9set_valueEbbb
FNDA:1,_ZN5neml223AvramiErofeevNucleation16expected_optionsEv
FNDA:1,_ZN5neml223AvramiErofeevNucleationC2ERKNS_9OptionSetE
FNDA:2,_ZN5neml223AvramiErofeevNucleation9set_valueEbbb
FNF:3
FNH:3
DA:34,1
DA:36,1
DA:37,1
DA:40,1
DA:42,4
DA:43,3
DA:45,1
DA:46,0
DA:48,1
DA:50,3
DA:51,5
DA:53,1
DA:56,2
DA:58,2
DA:59,2
DA:61,2
DA:62,1
DA:63,2
LF:18
LH:17
end_of_record
TN:
SF:/home/runner/work/neml2/neml2/src/neml2/models/chemical_reactions/ContractingGeometry.cxx
FN:33,46,_ZN5neml219ContractingGeometry16expected_optionsEv
FN:48,53,_ZN5neml219ContractingGeometryC2ERKNS_9OptionSetE
FN:56,71,_ZN5neml219ContractingGeometry9set_valueEbbb
FNDA:1,_ZN5neml219ContractingGeometry16expected_optionsEv
FNDA:1,_ZN5neml219ContractingGeometryC2ERKNS_9OptionSetE
FNDA:2,_ZN5neml219ContractingGeometry9set_valueEbbb
FNF:3
FNH:3
DA:33,1
DA:35,1
DA:36,1
DA:40,1
DA:42,4
DA:43,3
DA:45,1
DA:46,0
DA:48,1
DA:50,3
DA:51,5
DA:53,1
DA:56,2
DA:58,2
DA:59,2
DA:61,2
DA:62,2
DA:64,2
DA:66,1
DA:68,3
DA:69,0
DA:71,2
LF:22
LH:20
end_of_record
TN:
SF:/home/runner/work/neml2/neml2/src/neml2/models/chemical_reactions/CylindricalChannelGeometry.cxx
FN:35,47,_ZN5neml226CylindricalChannelGeometry16expected_optionsEv
FN:49,56,_ZN5neml226CylindricalChannelGeometryC2ERKNS_9OptionSetE
FN:59,78,_ZN5neml226CylindricalChannelGeometry9set_valueEbbb
FNDA:1,_ZN5neml226CylindricalChannelGeometry16expected_optionsEv
FNDA:1,_ZN5neml226CylindricalChannelGeometryC2ERKNS_9OptionSetE
FNDA:2,_ZN5neml226CylindricalChannelGeometry9set_valueEbbb
FNF:3
FNH:3
DA:35,1
DA:37,1
DA:38,1
DA:40,4
DA:41,4
DA:43,4
DA:44,3
DA:46,1
DA:47,0
DA:49,1
DA:51,2
DA:52,1
DA:53,1
DA:54,2
DA:56,1
DA:59,2
DA:61,2
DA:62,2
DA:63,2
DA:64,2
DA:66,2
DA:68,2
DA:69,2
DA:72,2
DA:74,1
DA:75,1
DA:76,1
DA:78,2
LF:28
LH:27
end_of_record
TN:
SF:/home/runner/work/neml2/neml2/src/neml2/models/chemical_reactions/DiffusionLimitedReaction.cxx
FN:32,54,_ZN5neml224DiffusionLimitedReaction16expected_optionsEv
FN:56,67,_ZN5neml224DiffusionLimitedReactionC2ERKNS_9OptionSetE
FN:70,89,_ZN5neml224DiffusionLimitedReaction9set_valueEbbb
FNDA:1,_ZN5neml224DiffusionLimitedReaction16expected_optionsEv
FNDA:1,_ZN5neml224DiffusionLimitedReactionC2ERKNS_9OptionSetE
FNDA:2,_ZN5neml224DiffusionLimitedReaction9set_valueEbbb
FNF:3
FNH:3
DA:32,1
DA:34,1
DA:35,1
DA:37,4
DA:38,4
DA:39,3
DA:40,2
DA:42,4
DA:43,4
DA:45,4
DA:47,4
DA:51,3
DA:53,1
DA:54,0
DA:56,1
DA:58,2
DA:59,1
DA:60,1
DA:61,1
DA:62,1
DA:63,1
DA:64,5
DA:65,2
DA:67,1
DA:70,2
DA:72,2
DA:73,2
DA:75,2
DA:77,2
DA:80,2
DA:82,1
DA:84,1
DA:85,1
DA:86,1
DA:87,1
DA:88,1
DA:89,2
LF:37
LH:36
end_of_record
TN:
SF:/home/runner/work/neml2/neml2/src/neml2/models/chemical_reactions/EffectiveVolume.cxx
FN:33,53,_ZN5neml215EffectiveVolume16expected_optionsEv
FN:55,82,_ZN5neml215EffectiveVolumeC2ERKNS_9OptionSetE
FN:85,105,_ZN5neml215EffectiveVolume9set_valueEbbb
FNDA:1,_ZN5neml215EffectiveVolume16expected_optionsEv
FNDA:1,_ZN5neml215EffectiveVolumeC2ERKNS_9OptionSetE
FNDA:2,_ZN5neml215EffectiveVolume9set_valueEbbb
FNF:3
FNH:3
DA:33,1
DA:35,1
DA:36,1
DA:41,1
DA:43,4
DA:44,4
DA:46,4
DA:48,4
DA:50,3
DA:52,1
DA:53,0
DA:55,1
DA:57,4
DA:58,2
DA:59,1
DA:61,2
DA:63,6
DA:64,5
DA:67,1
DA:70,1
DA:72,1
DA:74,1
DA:78,1
DA:79,5
DA:80,4
DA:81,8
DA:82,1
DA:85,2
DA:87,2
DA:89,10
DA:90,8
DA:92,2
DA:94,2
DA:95,2
DA:97,2
DA:99,5
DA:100,4
DA:102,1
DA:103,1
DA:105,2
LF:40
LH:39
end_of_record
TN:
SF:/home/runner/work/neml2/neml2/src/neml2/models/chemical_reactions/ReactionMechanism.cxx
FN:30,38,_ZN5neml217ReactionMechanism16expected_optionsEv
FN:40,45,_ZN5neml217ReactionMechanismC2ERKNS_9OptionSetE
FNDA:2,_ZN5neml217ReactionMechanism16expected_optionsEv
FNDA:2,_ZN5neml217ReactionMechanismC2ERKNS_9OptionSetE
FNF:2
FNH:2
DA:30,2
DA:32,2
DA:34,8
DA:35,6
DA:37,2
DA:38,0
DA:40,2
DA:42,4
DA:43,2
DA:45,2
LF:10
LH:9
end_of_record
TN:
SF:/home/runner/work/neml2/neml2/src/neml2/models/common/ArrheniusParameter.cxx
FN:34,52,_ZN5neml218ArrheniusParameter16expected_optionsEv
FN:54,63,_ZN5neml218ArrheniusParameterC2ERKNS_9OptionSetE
FN:66,83,_ZN5neml218ArrheniusParameter9set_valueEbbb
FNDA:1,_ZN5neml218ArrheniusParameter16expected_optionsEv
FNDA:1,_ZN5neml218ArrheniusParameterC2ERKNS_9OptionSetE
FNDA:3,_ZN5neml218ArrheniusParameter9set_valueEbbb
FNF:3
FNH:3
DA:34,1
DA:36,1
DA:37,1
DA:40,1
DA:42,3
DA:44,4
DA:45,4
DA:46,4
DA:47,4
DA:48,3
DA:51,1
DA:52,0
DA:54,1
DA:56,3
DA:57,5
DA:58,1
DA:59,1
DA:60,2
DA:61,2
DA:63,1
DA:66,3
DA:68,3
DA:70,3
DA:71,3
DA:73,3
DA:75,2
DA:77,2
DA:78,1
DA:80,2
DA:81,1
DA:82,2
DA:83,3
LF:32
LH:31
end_of_record
TN:
SF:/home/runner/work/neml2/neml2/src/neml2/models/common/BackwardEulerTimeIntegration.cxx
FN:32,46,_ZN5neml228BackwardEulerTimeIntegrationINS_2R2EE16expected_optionsEv
FN:32,46,_ZN5neml228BackwardEulerTimeIntegrationINS_3SR2EE16expected_optionsEv
FN:32,46,_ZN5neml228BackwardEulerTimeIntegrationINS_3VecEE16expected_optionsEv
FN:32,46,_ZN5neml228BackwardEulerTimeIntegrationINS_6ScalarEE16expected_optionsEv
FN:49,59,_ZN5neml228BackwardEulerTimeIntegrationINS_2R2EEC2ERKNS_9OptionSetE
FN:49,59,_ZN5neml228BackwardEulerTimeIntegrationINS_3SR2EEC2ERKNS_9OptionSetE
FN:49,59,_ZN5neml228BackwardEulerTimeIntegrationINS_3VecEEC2ERKNS_9OptionSetE
FN:49,59,_ZN5neml228BackwardEulerTimeIntegrationINS_6ScalarEEC2ERKNS_9OptionSetE
FN:63,78,_ZN5neml228BackwardEulerTimeIntegrationINS_2R2EE9set_valueEbbb
FN:63,78,_ZN5neml228BackwardEulerTimeIntegrationINS_3SR2EE9set_valueEbbb
FN:63,78,_ZN5neml228BackwardEulerTimeIntegrationINS_3VecEE9set_valueEbbb
FN:63,78,_ZN5neml228BackwardEulerTimeIntegrationINS_6ScalarEE9set_valueEbbb
FNDA:1,_ZN5neml228BackwardEulerTimeIntegrationINS_2R2EE16expected_optionsEv
FNDA:1,_ZN5neml228BackwardEulerTimeIntegrationINS_3SR2EE16expected_optionsEv
FNDA:1,_ZN5neml228BackwardEulerTimeIntegrationINS_3VecEE16expected_optionsEv
FNDA:1,_ZN5neml228BackwardEulerTimeIntegrationINS_6ScalarEE16expected_optionsEv
FNDA:0,_ZN5neml228BackwardEulerTimeIntegrationINS_2R2EEC2ERKNS_9OptionSetE
FNDA:14,_ZN5neml228BackwardEulerTimeIntegrationINS_3SR2EEC2ERKNS_9OptionSetE
FNDA:0,_ZN5neml228BackwardEulerTimeIntegrationINS_3VecEEC2ERKNS_9OptionSetE
FNDA:29,_ZN5neml228BackwardEulerTimeIntegrationINS_6ScalarEEC2ERKNS_9OptionSetE
FNDA:0,_ZN5neml228BackwardEulerTimeIntegrationINS_2R2EE9set_valueEbbb
FNDA:29,_ZN5neml228BackwardEulerTimeIntegrationINS_3SR2EE9set_valueEbbb
FNDA:0,_ZN5neml228BackwardEulerTimeIntegrationINS_3VecEE9set_valueEbbb
FNDA:37,_ZN5neml228BackwardEulerTimeIntegrationINS_6ScalarEE9set_valueEbbb
FNF:12
FNH:8
DA:32,4
DA:34,4
DA:35,4
DA:41,16
DA:42,24
DA:43,12
DA:45,4
DA:46,0
DA:49,43
DA:51,86
DA:52,43
DA:53,43
DA:54,43
DA:55,43
DA:56,43
DA:57,86
DA:59,43
DA:63,66
DA:65,66
DA:66,66
DA:68,66
DA:70,38
DA:72,38
DA:73,38
DA:74,38
DA:75,38
DA:76,38
DA:77,38
DA:78,66
LF:29
LH:28
end_of_record
TN:
SF:/home/runner/work/neml2/neml2/src/neml2/models/common/BilinearInterpolation.cxx
FN:35,55,_ZN5neml221BilinearInterpolationINS_3SR2EE16expected_optionsEv
FN:35,55,_ZN5neml221BilinearInterpolationINS_3VecEE16expected_optionsEv
FN:35,55,_ZN5neml221BilinearInterpolationINS_6ScalarEE16expected_optionsEv
FN:58,66,_ZN5neml221BilinearInterpolationINS_3SR2EEC2ERKNS_9OptionSetE
FN:58,66,_ZN5neml221BilinearInterpolationINS_3VecEEC2ERKNS_9OptionSetE
FN:58,66,_ZN5neml221BilinearInterpolationINS_6ScalarEEC2ERKNS_9OptionSetE
FN:70,150,_ZN5neml221BilinearInterpolationINS_3SR2EE9set_valueEbbb
FN:70,150,_ZN5neml221BilinearInterpolationINS_3VecEE9set_valueEbbb
FN:70,150,_ZN5neml221BilinearInterpolationINS_6ScalarEE9set_valueEbbb
FNDA:1,_ZN5neml221BilinearInterpolationINS_3SR2EE16expected_optionsEv
FNDA:1,_ZN5neml221BilinearInterpolationINS_3VecEE16expected_optionsEv
FNDA:1,_ZN5neml221BilinearInterpolationINS_6ScalarEE16expected_optionsEv
FNDA:0,_ZN5neml221BilinearInterpolationINS_3SR2EEC2ERKNS_9OptionSetE
FNDA:0,_ZN5neml221BilinearInterpolationINS_3VecEEC2ERKNS_9OptionSetE
FNDA:4,_ZN5neml221BilinearInterpolationINS_6ScalarEEC2ERKNS_9OptionSetE
FNDA:0,_ZN5neml221BilinearInterpolationINS_3SR2EE9set_valueEbbb
FNDA:0,_ZN5neml221BilinearInterpolationINS_3VecEE9set_valueEbbb
FNDA:12,_ZN5neml221BilinearInterpolationINS_6ScalarEE9set_valueEbbb
FNF:9
FNH:5
DA:35,3
DA:37,3
DA:38,3
DA:40,9
DA:42,12
DA:44,12
DA:47,12
DA:49,12
DA:52,9
DA:54,3
DA:55,0
DA:58,4
DA:60,12
DA:61,16
DA:62,4
DA:63,4
DA:64,8
DA:66,4
DA:70,12
DA:74,12
DA:85,12
DA:97,12
DA:98,12
DA:99,12
DA:102,12
DA:103,12
DA:107,12
DA:108,12
DA:109,12
DA:118,72
DA:119,72
DA:120,72
DA:121,72
DA:122,12
DA:123,12
DA:124,12
DA:125,12
DA:132,12
DA:133,12
DA:134,12
DA:136,12
DA:137,12
DA:139,12
DA:141,4
DA:142,4
DA:145,12
DA:147,4
DA:148,4
DA:150,156
LF:49
LH:48
end_of_record
TN:
SF:/home/runner/work/neml2/neml2/src/neml2/models/common/ConstantParameter.cxx
FN:33,44,_ZN5neml217ConstantParameterINS_10QuaternionEE16expected_optionsEv
FN:33,44,_ZN5neml217ConstantParameterINS_11MillerIndexEE16expected_optionsEv
FN:33,44,_ZN5neml217ConstantParameterINS_2R2EE16expected_optionsEv
FN:33,44,_ZN5neml217ConstantParameterINS_2R3EE16expected_optionsEv
FN:33,44,_ZN5neml217ConstantParameterINS_2R4EE16expected_optionsEv
FN:33,44,_ZN5neml217ConstantParameterINS_3RotEE16expected_optionsEv
FN:33,44,_ZN5neml217ConstantParameterINS_3SR2EE16expected_optionsEv
FN:33,44,_ZN5neml217ConstantParameterINS_3VecEE16expected_optionsEv
FN:33,44,_ZN5neml217ConstantParameterINS_3WR2EE16expected_optionsEv
FN:33,44,_ZN5neml217ConstantParameterINS_4SFR3EE16expected_optionsEv
FN:33,44,_ZN5neml217ConstantParameterINS_4SSR4EE16expected_optionsEv
FN:33,44,_ZN5neml217ConstantParameterINS_4SWR4EE16expected_optionsEv
FN:33,44,_ZN5neml217ConstantParameterINS_4WSR4EE16expected_optionsEv
FN:33,44,_ZN5neml217ConstantParameterINS_4WWR4EE16expected_optionsEv
FN:33,44,_ZN5neml217ConstantParameterINS_5SFFR4EE16expected_optionsEv
FN:33,44,_ZN5neml217ConstantParameterINS_5WFFR4EE16expected_optionsEv
FN:33,44,_ZN5neml217ConstantParameterINS_6ScalarEE16expected_optionsEv
FN:47,53,_ZN5neml217ConstantParameterINS_10QuaternionEEC2ERKNS_9OptionSetE
FN:47,53,_ZN5neml217ConstantParameterINS_11MillerIndexEEC2ERKNS_9OptionSetE
FN:47,53,_ZN5neml217ConstantParameterINS_2R2EEC2ERKNS_9OptionSetE
FN:47,53,_ZN5neml217ConstantParameterINS_2R3EEC2ERKNS_9OptionSetE
FN:47,53,_ZN5neml217ConstantParameterINS_2R4EEC2ERKNS_9OptionSetE
FN:47,53,_ZN5neml217ConstantParameterINS_3RotEEC2ERKNS_9OptionSetE
FN:47,53,_ZN5neml217ConstantParameterINS_3SR2EEC2ERKNS_9OptionSetE
FN:47,53,_ZN5neml217ConstantParameterINS_3VecEEC2ERKNS_9OptionSetE
FN:47,53,_ZN5neml217ConstantParameterINS_3WR2EEC2ERKNS_9OptionSetE
FN:47,53,_ZN5neml217ConstantParameterINS_4SFR3EEC2ERKNS_9OptionSetE
FN:47,53,_ZN5neml217ConstantParameterINS_4SSR4EEC2ERKNS_9OptionSetE
FN:47,53,_ZN5neml217ConstantParameterINS_4SWR4EEC2ERKNS_9OptionSetE
FN:47,53,_ZN5neml217ConstantParameterINS_4WSR4EEC2ERKNS_9OptionSetE
FN:47,53,_ZN5neml217ConstantParameterINS_4WWR4EEC2ERKNS_9OptionSetE
FN:47,53,_ZN5neml217ConstantParameterINS_5SFFR4EEC2ERKNS_9OptionSetE
FN:47,53,_ZN5neml217ConstantParameterINS_5WFFR4EEC2ERKNS_9OptionSetE
FN:47,53,_ZN5neml217ConstantParameterINS_6ScalarEEC2ERKNS_9OptionSetE
FN:57,68,_ZN5neml217ConstantParameterINS_10QuaternionEE9set_valueEbbb
FN:57,68,_ZN5neml217ConstantParameterINS_11MillerIndexEE9set_valueEbbb
FN:57,68,_ZN5neml217ConstantParameterINS_2R2EE9set_valueEbbb
FN:57,68,_ZN5neml217ConstantParameterINS_2R3EE9set_valueEbbb
FN:57,68,_ZN5neml217ConstantParameterINS_2R4EE9set_valueEbbb
FN:57,68,_ZN5neml217ConstantParameterINS_3RotEE9set_valueEbbb
FN:57,68,_ZN5neml217ConstantParameterINS_3SR2EE9set_valueEbbb
FN:57,68,_ZN5neml217ConstantParameterINS_3VecEE9set_valueEbbb
FN:57,68,_ZN5neml217ConstantParameterINS_3WR2EE9set_valueEbbb
FN:57,68,_ZN5neml217ConstantParameterINS_4SFR3EE9set_valueEbbb
FN:57,68,_ZN5neml217ConstantParameterINS_4SSR4EE9set_valueEbbb
FN:57,68,_ZN5neml217ConstantParameterINS_4SWR4EE9set_valueEbbb
FN:57,68,_ZN5neml217ConstantParameterINS_4WSR4EE9set_valueEbbb
FN:57,68,_ZN5neml217ConstantParameterINS_4WWR4EE9set_valueEbbb
FN:57,68,_ZN5neml217ConstantParameterINS_5SFFR4EE9set_valueEbbb
FN:57,68,_ZN5neml217ConstantParameterINS_5WFFR4EE9set_valueEbbb
FN:57,68,_ZN5neml217ConstantParameterINS_6ScalarEE9set_valueEbbb
FNDA:1,_ZN5neml217ConstantParameterINS_10QuaternionEE16expected_optionsEv
FNDA:1,_ZN5neml217ConstantParameterINS_11MillerIndexEE16expected_optionsEv
FNDA:1,_ZN5neml217ConstantParameterINS_2R2EE16expected_optionsEv
FNDA:1,_ZN5neml217ConstantParameterINS_2R3EE16expected_optionsEv
FNDA:1,_ZN5neml217ConstantParameterINS_2R4EE16expected_optionsEv
FNDA:1,_ZN5neml217ConstantParameterINS_3RotEE16expected_optionsEv
FNDA:1,_ZN5neml217ConstantParameterINS_3SR2EE16expected_optionsEv
FNDA:1,_ZN5neml217ConstantParameterINS_3VecEE16expected_optionsEv
FNDA:1,_ZN5neml217ConstantParameterINS_3WR2EE16expected_optionsEv
FNDA:1,_ZN5neml217ConstantParameterINS_4SFR3EE16expected_optionsEv
FNDA:1,_ZN5neml217ConstantParameterINS_4SSR4EE16expected_optionsEv
FNDA:1,_ZN5neml217ConstantParameterINS_4SWR4EE16expected_optionsEv
FNDA:1,_ZN5neml217ConstantParameterINS_4WSR4EE16expected_optionsEv
FNDA:1,_ZN5neml217ConstantParameterINS_4WWR4EE16expected_optionsEv
FNDA:1,_ZN5neml217ConstantParameterINS_5SFFR4EE16expected_optionsEv
FNDA:1,_ZN5neml217ConstantParameterINS_5WFFR4EE16expected_optionsEv
FNDA:1,_ZN5neml217ConstantParameterINS_6ScalarEE16expected_optionsEv
FNDA:0,_ZN5neml217ConstantParameterINS_10QuaternionEEC2ERKNS_9OptionSetE
FNDA:0,_ZN5neml217ConstantParameterINS_11MillerIndexEEC2ERKNS_9OptionSetE
FNDA:0,_ZN5neml217ConstantParameterINS_2R2EEC2ERKNS_9OptionSetE
FNDA:0,_ZN5neml217ConstantParameterINS_2R3EEC2ERKNS_9OptionSetE
FNDA:0,_ZN5neml217ConstantParameterINS_2R4EEC2ERKNS_9OptionSetE
FNDA:0,_ZN5neml217ConstantParameterINS_3RotEEC2ERKNS_9OptionSetE
FNDA:1,_ZN5neml217ConstantParameterINS_3SR2EEC2ERKNS_9OptionSetE
FNDA:0,_ZN5neml217ConstantParameterINS_3VecEEC2ERKNS_9OptionSetE
FNDA:0,_ZN5neml217ConstantParameterINS_3WR2EEC2ERKNS_9OptionSetE
FNDA:0,_ZN5neml217ConstantParameterINS_4SFR3EEC2ERKNS_9OptionSetE
FNDA:0,_ZN5neml217ConstantParameterINS_4SSR4EEC2ERKNS_9OptionSetE
FNDA:0,_ZN5neml217ConstantParameterINS_4SWR4EEC2ERKNS_9OptionSetE
FNDA:0,_ZN5neml217ConstantParameterINS_4WSR4EEC2ERKNS_9OptionSetE
FNDA:0,_ZN5neml217ConstantParameterINS_4WWR4EEC2ERKNS_9OptionSetE
FNDA:0,_ZN5neml217ConstantParameterINS_5SFFR4EEC2ERKNS_9OptionSetE
FNDA:0,_ZN5neml217ConstantParameterINS_5WFFR4EEC2ERKNS_9OptionSetE
FNDA:4,_ZN5neml217ConstantParameterINS_6ScalarEEC2ERKNS_9OptionSetE
FNDA:0,_ZN5neml217ConstantParameterINS_10QuaternionEE9set_valueEbbb
FNDA:0,_ZN5neml217ConstantParameterINS_11MillerIndexEE9set_valueEbbb
FNDA:0,_ZN5neml217ConstantParameterINS_2R2EE9set_valueEbbb
FNDA:0,_ZN5neml217ConstantParameterINS_2R3EE9set_valueEbbb
FNDA:0,_ZN5neml217ConstantParameterINS_2R4EE9set_valueEbbb
FNDA:0,_ZN5neml217ConstantParameterINS_3RotEE9set_valueEbbb
FNDA:2,_ZN5neml217ConstantParameterINS_3SR2EE9set_valueEbbb
FNDA:0,_ZN5neml217ConstantParameterINS_3VecEE9set_valueEbbb
FNDA:0,_ZN5neml217ConstantParameterINS_3WR2EE9set_valueEbbb
FNDA:0,_ZN5neml217ConstantParameterINS_4SFR3EE9set_valueEbbb
FNDA:0,_ZN5neml217ConstantParameterINS_4SSR4EE9set_valueEbbb
FNDA:0,_ZN5neml217ConstantParameterINS_4SWR4EE9set_valueEbbb
FNDA:0,_ZN5neml217ConstantParameterINS_4WSR4EE9set_valueEbbb
FNDA:0,_ZN5neml217ConstantParameterINS_4WWR4EE9set_valueEbbb
FNDA:0,_ZN5neml217ConstantParameterINS_5SFFR4EE9set_valueEbbb
FNDA:0,_ZN5neml217ConstantParameterINS_5WFFR4EE9set_valueEbbb
FNDA:2,_ZN5neml217ConstantParameterINS_6ScalarEE9set_valueEbbb
FNF:51
FNH:21
DA:33,17
DA:35,17
DA:36,17
DA:39,68
DA:40,51
DA:43,17
DA:44,0
DA:47,5
DA:49,20
DA:50,7
DA:51,7
DA:53,5
DA:57,4
DA:59,4
DA:60,4
DA:62,4
DA:63,6
DA:64,0
DA:68,4
LF:19
LH:17
end_of_record
TN:
SF:/home/runner/work/neml2/neml2/src/neml2/models/common/CopyVariable.cxx
FN:33,42,_ZN5neml212CopyVariableINS_10QuaternionEE16expected_optionsEv
FN:33,42,_ZN5neml212CopyVariableINS_11MillerIndexEE16expected_optionsEv
FN:33,42,_ZN5neml212CopyVariableINS_2R2EE16expected_optionsEv
FN:33,42,_ZN5neml212CopyVariableINS_2R3EE16expected_optionsEv
FN:33,42,_ZN5neml212CopyVariableINS_2R4EE16expected_optionsEv
FN:33,42,_ZN5neml212CopyVariableINS_3RotEE16expected_optionsEv
FN:33,42,_ZN5neml212CopyVariableINS_3SR2EE16expected_optionsEv
FN:33,42,_ZN5neml212CopyVariableINS_3VecEE16expected_optionsEv
FN:33,42,_ZN5neml212CopyVariableINS_3WR2EE16expected_optionsEv
FN:33,42,_ZN5neml212CopyVariableINS_4SFR3EE16expected_optionsEv
FN:33,42,_ZN5neml212CopyVariableINS_4SSR4EE16expected_optionsEv
FN:33,42,_ZN5neml212CopyVariableINS_4SWR4EE16expected_optionsEv
FN:33,42,_ZN5neml212CopyVariableINS_4WSR4EE16expected_optionsEv
FN:33,42,_ZN5neml212CopyVariableINS_4WWR4EE16expected_optionsEv
FN:33,42,_ZN5neml212CopyVariableINS_5SFFR4EE16expected_optionsEv
FN:33,42,_ZN5neml212CopyVariableINS_5WFFR4EE16expected_optionsEv
FN:33,42,_ZN5neml212CopyVariableINS_6ScalarEE16expected_optionsEv
FN:45,50,_ZN5neml212CopyVariableINS_10QuaternionEEC2ERKNS_9OptionSetE
FN:45,50,_ZN5neml212CopyVariableINS_11MillerIndexEEC2ERKNS_9OptionSetE
FN:45,50,_ZN5neml212CopyVariableINS_2R2EEC2ERKNS_9OptionSetE
FN:45,50,_ZN5neml212CopyVariableINS_2R3EEC2ERKNS_9OptionSetE
FN:45,50,_ZN5neml212CopyVariableINS_2R4EEC2ERKNS_9OptionSetE
FN:45,50,_ZN5neml212CopyVariableINS_3RotEEC2ERKNS_9OptionSetE
FN:45,50,_ZN5neml212CopyVariableINS_3SR2EEC2ERKNS_9OptionSetE
FN:45,50,_ZN5neml212CopyVariableINS_3VecEEC2ERKNS_9OptionSetE
FN:45,50,_ZN5neml212CopyVariableINS_3WR2EEC2ERKNS_9OptionSetE
FN:45,50,_ZN5neml212CopyVariableINS_4SFR3EEC2ERKNS_9OptionSetE
FN:45,50,_ZN5neml212CopyVariableINS_4SSR4EEC2ERKNS_9OptionSetE
FN:45,50,_ZN5neml212CopyVariableINS_4SWR4EEC2ERKNS_9OptionSetE
FN:45,50,_ZN5neml212CopyVariableINS_4WSR4EEC2ERKNS_9OptionSetE
FN:45,50,_ZN5neml212CopyVariableINS_4WWR4EEC2ERKNS_9OptionSetE
FN:45,50,_ZN5neml212CopyVariableINS_5SFFR4EEC2ERKNS_9OptionSetE
FN:45,50,_ZN5neml212CopyVariableINS_5WFFR4EEC2ERKNS_9OptionSetE
FN:45,50,_ZN5neml212CopyVariableINS_6ScalarEEC2ERKNS_9OptionSetE
FN:54,61,_ZN5neml212CopyVariableINS_10QuaternionEE9set_valueEbbb
FN:54,61,_ZN5neml212CopyVariableINS_11MillerIndexEE9set_valueEbbb
FN:54,61,_ZN5neml212CopyVariableINS_2R2EE9set_valueEbbb
FN:54,61,_ZN5neml212CopyVariableINS_2R3EE9set_valueEbbb
FN:54,61,_ZN5neml212CopyVariableINS_2R4EE9set_valueEbbb
FN:54,61,_ZN5neml212CopyVariableINS_3RotEE9set_valueEbbb
FN:54,61,_ZN5neml212CopyVariableINS_3SR2EE9set_valueEbbb
FN:54,61,_ZN5neml212CopyVariableINS_3VecEE9set_valueEbbb
FN:54,61,_ZN5neml212CopyVariableINS_3WR2EE9set_valueEbbb
FN:54,61,_ZN5neml212CopyVariableINS_4SFR3EE9set_valueEbbb
FN:54,61,_ZN5neml212CopyVariableINS_4SSR4EE9set_valueEbbb
FN:54,61,_ZN5neml212CopyVariableINS_4SWR4EE9set_valueEbbb
FN:54,61,_ZN5neml212CopyVariableINS_4WSR4EE9set_valueEbbb
FN:54,61,_ZN5neml212CopyVariableINS_4WWR4EE9set_valueEbbb
FN:54,61,_ZN5neml212CopyVariableINS_5SFFR4EE9set_valueEbbb
FN:54,61,_ZN5neml212CopyVariableINS_5WFFR4EE9set_valueEbbb
FN:54,61,_ZN5neml212CopyVariableINS_6ScalarEE9set_valueEbbb
FNDA:1,_ZN5neml212CopyVariableINS_10QuaternionEE16expected_optionsEv
FNDA:1,_ZN5neml212CopyVariableINS_11MillerIndexEE16expected_optionsEv
FNDA:1,_ZN5neml212CopyVariableINS_2R2EE16expected_optionsEv
FNDA:1,_ZN5neml212CopyVariableINS_2R3EE16expected_optionsEv
FNDA:1,_ZN5neml212CopyVariableINS_2R4EE16expected_optionsEv
FNDA:1,_ZN5neml212CopyVariableINS_3RotEE16expected_optionsEv
FNDA:1,_ZN5neml212CopyVariableINS_3SR2EE16expected_optionsEv
FNDA:1,_ZN5neml212CopyVariableINS_3VecEE16expected_optionsEv
FNDA:1,_ZN5neml212CopyVariableINS_3WR2EE16expected_optionsEv
FNDA:1,_ZN5neml212CopyVariableINS_4SFR3EE16expected_optionsEv
FNDA:1,_ZN5neml212CopyVariableINS_4SSR4EE16expected_optionsEv
FNDA:1,_ZN5neml212CopyVariableINS_4SWR4EE16expected_optionsEv
FNDA:1,_ZN5neml212CopyVariableINS_4WSR4EE16expected_optionsEv
FNDA:1,_ZN5neml212CopyVariableINS_4WWR4EE16expected_optionsEv
FNDA:1,_ZN5neml212CopyVariableINS_5SFFR4EE16expected_optionsEv
FNDA:1,_ZN5neml212CopyVariableINS_5WFFR4EE16expected_optionsEv
FNDA:1,_ZN5neml212CopyVariableINS_6ScalarEE16expected_optionsEv
FNDA:0,_ZN5neml212CopyVariableINS_10QuaternionEEC2ERKNS_9OptionSetE
FNDA:0,_ZN5neml212CopyVariableINS_11MillerIndexEEC2ERKNS_9OptionSetE
FNDA:0,_ZN5neml212CopyVariableINS_2R2EEC2ERKNS_9OptionSetE
FNDA:0,_ZN5neml212CopyVariableINS_2R3EEC2ERKNS_9OptionSetE
FNDA:0,_ZN5neml212CopyVariableINS_2R4EEC2ERKNS_9OptionSetE
FNDA:0,_ZN5neml212CopyVariableINS_3RotEEC2ERKNS_9OptionSetE
FNDA:0,_ZN5neml212CopyVariableINS_3SR2EEC2ERKNS_9OptionSetE
FNDA:0,_ZN5neml212CopyVariableINS_3VecEEC2ERKNS_9OptionSetE
FNDA:0,_ZN5neml212CopyVariableINS_3WR2EEC2ERKNS_9OptionSetE
FNDA:0,_ZN5neml212CopyVariableINS_4SFR3EEC2ERKNS_9OptionSetE
FNDA:0,_ZN5neml212CopyVariableINS_4SSR4EEC2ERKNS_9OptionSetE
FNDA:0,_ZN5neml212CopyVariableINS_4SWR4EEC2ERKNS_9OptionSetE
FNDA:0,_ZN5neml212CopyVariableINS_4WSR4EEC2ERKNS_9OptionSetE
FNDA:0,_ZN5neml212CopyVariableINS_4WWR4EEC2ERKNS_9OptionSetE
FNDA:0,_ZN5neml212CopyVariableINS_5SFFR4EEC2ERKNS_9OptionSetE
FNDA:0,_ZN5neml212CopyVariableINS_5WFFR4EEC2ERKNS_9OptionSetE
FNDA:3,_ZN5neml212CopyVariableINS_6ScalarEEC2ERKNS_9OptionSetE
FNDA:0,_ZN5neml212CopyVariableINS_10QuaternionEE9set_valueEbbb
FNDA:0,_ZN5neml212CopyVariableINS_11MillerIndexEE9set_valueEbbb
FNDA:0,_ZN5neml212CopyVariableINS_2R2EE9set_valueEbbb
FNDA:0,_ZN5neml212CopyVariableINS_2R3EE9set_valueEbbb
FNDA:0,_ZN5neml212CopyVariableINS_2R4EE9set_valueEbbb
FNDA:0,_ZN5neml212CopyVariableINS_3RotEE9set_valueEbbb
FNDA:0,_ZN5neml212CopyVariableINS_3SR2EE9set_valueEbbb
FNDA:0,_ZN5neml212CopyVariableINS_3VecEE9set_valueEbbb
FNDA:0,_ZN5neml212CopyVariableINS_3WR2EE9set_valueEbbb
FNDA:0,_ZN5neml212CopyVariableINS_4SFR3EE9set_valueEbbb
FNDA:0,_ZN5neml212CopyVariableINS_4SSR4EE9set_valueEbbb
FNDA:0,_ZN5neml212CopyVariableINS_4SWR4EE9set_valueEbbb
FNDA:0,_ZN5neml212CopyVariableINS_4WSR4EE9set_valueEbbb
FNDA:0,_ZN5neml212CopyVariableINS_4WWR4EE9set_valueEbbb
FNDA:0,_ZN5neml212CopyVariableINS_5SFFR4EE9set_valueEbbb
FNDA:0,_ZN5neml212CopyVariableINS_5WFFR4EE9set_valueEbbb
FNDA:7,_ZN5neml212CopyVariableINS_6ScalarEE9set_valueEbbb
FNF:51
FNH:19
DA:33,17
DA:35,17
DA:36,17
DA:38,68
DA:39,51
DA:41,17
DA:42,0
DA:45,3
DA:47,6
DA:48,3
DA:50,3
DA:54,7
DA:56,7
DA:57,7
DA:59,7
DA:60,4
DA:61,7
LF:17
LH:16
end_of_record
TN:
SF:/home/runner/work/neml2/neml2/src/neml2/models/common/Determinant.cxx
FN:40,49,_ZN5neml211DeterminantINS_2R2EE16expected_optionsEv
FN:40,49,_ZN5neml211DeterminantINS_3SR2EE16expected_optionsEv
FN:52,57,_ZN5neml211DeterminantINS_2R2EEC2ERKNS_9OptionSetE
FN:52,57,_ZN5neml211DeterminantINS_3SR2EEC2ERKNS_9OptionSetE
FN:61,68,_ZN5neml211DeterminantINS_2R2EE9set_valueEbbb
FN:61,68,_ZN5neml211DeterminantINS_3SR2EE9set_valueEbbb
FNDA:1,_ZN5neml211DeterminantINS_2R2EE16expected_optionsEv
FNDA:1,_ZN5neml211DeterminantINS_3SR2EE16expected_optionsEv
FNDA:1,_ZN5neml211DeterminantINS_2R2EEC2ERKNS_9OptionSetE
FNDA:0,_ZN5neml211DeterminantINS_3SR2EEC2ERKNS_9OptionSetE
FNDA:2,_ZN5neml211DeterminantINS_2R2EE9set_valueEbbb
FNDA:0,_ZN5neml211DeterminantINS_3SR2EE9set_valueEbbb
FNF:6
FNH:4
DA:40,2
DA:42,2
DA:43,2
DA:45,8
DA:46,6
DA:48,2
DA:49,0
DA:52,1
DA:54,2
DA:55,1
DA:57,1
DA:61,2
DA:63,2
DA:64,2
DA:66,2
DA:67,1
DA:68,2
LF:17
LH:16
end_of_record
TN:
SF:/home/runner/work/neml2/neml2/src/neml2/models/common/DynamicMean.cxx
FN:34,40,_ZN5neml211DynamicMeanINS_10QuaternionEE16expected_optionsEv
FN:34,40,_ZN5neml211DynamicMeanINS_11MillerIndexEE16expected_optionsEv
FN:34,40,_ZN5neml211DynamicMeanINS_2R2EE16expected_optionsEv
FN:34,40,_ZN5neml211DynamicMeanINS_2R3EE16expected_optionsEv
FN:34,40,_ZN5neml211DynamicMeanINS_2R4EE16expected_optionsEv
FN:34,40,_ZN5neml211DynamicMeanINS_3RotEE16expected_optionsEv
FN:34,40,_ZN5neml211DynamicMeanINS_3SR2EE16expected_optionsEv
FN:34,40,_ZN5neml211DynamicMeanINS_3VecEE16expected_optionsEv
FN:34,40,_ZN5neml211DynamicMeanINS_3WR2EE16expected_optionsEv
FN:34,40,_ZN5neml211DynamicMeanINS_4SFR3EE16expected_optionsEv
FN:34,40,_ZN5neml211DynamicMeanINS_4SSR4EE16expected_optionsEv
FN:34,40,_ZN5neml211DynamicMeanINS_4SWR4EE16expected_optionsEv
FN:34,40,_ZN5neml211DynamicMeanINS_4WSR4EE16expected_optionsEv
FN:34,40,_ZN5neml211DynamicMeanINS_4WWR4EE16expected_optionsEv
FN:34,40,_ZN5neml211DynamicMeanINS_5SFFR4EE16expected_optionsEv
FN:34,40,_ZN5neml211DynamicMeanINS_5WFFR4EE16expected_optionsEv
FN:34,40,_ZN5neml211DynamicMeanINS_6ScalarEE16expected_optionsEv
FN:43,48,_ZN5neml211DynamicMeanINS_10QuaternionEEC2ERKNS_9OptionSetE
FN:43,48,_ZN5neml211DynamicMeanINS_11MillerIndexEEC2ERKNS_9OptionSetE
FN:43,48,_ZN5neml211DynamicMeanINS_2R2EEC2ERKNS_9OptionSetE
FN:43,48,_ZN5neml211DynamicMeanINS_2R3EEC2ERKNS_9OptionSetE
FN:43,48,_ZN5neml211DynamicMeanINS_2R4EEC2ERKNS_9OptionSetE
FN:43,48,_ZN5neml211DynamicMeanINS_3RotEEC2ERKNS_9OptionSetE
FN:43,48,_ZN5neml211DynamicMeanINS_3SR2EEC2ERKNS_9OptionSetE
FN:43,48,_ZN5neml211DynamicMeanINS_3VecEEC2ERKNS_9OptionSetE
FN:43,48,_ZN5neml211DynamicMeanINS_3WR2EEC2ERKNS_9OptionSetE
FN:43,48,_ZN5neml211DynamicMeanINS_4SFR3EEC2ERKNS_9OptionSetE
FN:43,48,_ZN5neml211DynamicMeanINS_4SSR4EEC2ERKNS_9OptionSetE
FN:43,48,_ZN5neml211DynamicMeanINS_4SWR4EEC2ERKNS_9OptionSetE
FN:43,48,_ZN5neml211DynamicMeanINS_4WSR4EEC2ERKNS_9OptionSetE
FN:43,48,_ZN5neml211DynamicMeanINS_4WWR4EEC2ERKNS_9OptionSetE
FN:43,48,_ZN5neml211DynamicMeanINS_5SFFR4EEC2ERKNS_9OptionSetE
FN:43,48,_ZN5neml211DynamicMeanINS_5WFFR4EEC2ERKNS_9OptionSetE
FN:43,48,_ZN5neml211DynamicMeanINS_6ScalarEEC2ERKNS_9OptionSetE
FN:52,56,_ZN5neml211DynamicMeanINS_10QuaternionEE9set_valueEbbb
FN:52,56,_ZN5neml211DynamicMeanINS_11MillerIndexEE9set_valueEbbb
FN:52,56,_ZN5neml211DynamicMeanINS_2R2EE9set_valueEbbb
FN:52,56,_ZN5neml211DynamicMeanINS_2R3EE9set_valueEbbb
FN:52,56,_ZN5neml211DynamicMeanINS_2R4EE9set_valueEbbb
FN:52,56,_ZN5neml211DynamicMeanINS_3RotEE9set_valueEbbb
FN:52,56,_ZN5neml211DynamicMeanINS_3SR2EE9set_valueEbbb
FN:52,56,_ZN5neml211DynamicMeanINS_3VecEE9set_valueEbbb
FN:52,56,_ZN5neml211DynamicMeanINS_3WR2EE9set_valueEbbb
FN:52,56,_ZN5neml211DynamicMeanINS_4SFR3EE9set_valueEbbb
FN:52,56,_ZN5neml211DynamicMeanINS_4SSR4EE9set_valueEbbb
FN:52,56,_ZN5neml211DynamicMeanINS_4SWR4EE9set_valueEbbb
FN:52,56,_ZN5neml211DynamicMeanINS_4WSR4EE9set_valueEbbb
FN:52,56,_ZN5neml211DynamicMeanINS_4WWR4EE9set_valueEbbb
FN:52,56,_ZN5neml211DynamicMeanINS_5SFFR4EE9set_valueEbbb
FN:52,56,_ZN5neml211DynamicMeanINS_5WFFR4EE9set_valueEbbb
FN:52,56,_ZN5neml211DynamicMeanINS_6ScalarEE9set_valueEbbb
FNDA:1,_ZN5neml211DynamicMeanINS_10QuaternionEE16expected_optionsEv
FNDA:1,_ZN5neml211DynamicMeanINS_11MillerIndexEE16expected_optionsEv
FNDA:1,_ZN5neml211DynamicMeanINS_2R2EE16expected_optionsEv
FNDA:1,_ZN5neml211DynamicMeanINS_2R3EE16expected_optionsEv
FNDA:1,_ZN5neml211DynamicMeanINS_2R4EE16expected_optionsEv
FNDA:1,_ZN5neml211DynamicMeanINS_3RotEE16expected_optionsEv
FNDA:1,_ZN5neml211DynamicMeanINS_3SR2EE16expected_optionsEv
FNDA:1,_ZN5neml211DynamicMeanINS_3VecEE16expected_optionsEv
FNDA:1,_ZN5neml211DynamicMeanINS_3WR2EE16expected_optionsEv
FNDA:1,_ZN5neml211DynamicMeanINS_4SFR3EE16expected_optionsEv
FNDA:1,_ZN5neml211DynamicMeanINS_4SSR4EE16expected_optionsEv
FNDA:1,_ZN5neml211DynamicMeanINS_4SWR4EE16expected_optionsEv
FNDA:1,_ZN5neml211DynamicMeanINS_4WSR4EE16expected_optionsEv
FNDA:1,_ZN5neml211DynamicMeanINS_4WWR4EE16expected_optionsEv
FNDA:1,_ZN5neml211DynamicMeanINS_5SFFR4EE16expected_optionsEv
FNDA:1,_ZN5neml211DynamicMeanINS_5WFFR4EE16expected_optionsEv
FNDA:1,_ZN5neml211DynamicMeanINS_6ScalarEE16expected_optionsEv
FNDA:0,_ZN5neml211DynamicMeanINS_10QuaternionEEC2ERKNS_9OptionSetE
FNDA:0,_ZN5neml211DynamicMeanINS_11MillerIndexEEC2ERKNS_9OptionSetE
FNDA:0,_ZN5neml211DynamicMeanINS_2R2EEC2ERKNS_9OptionSetE
FNDA:0,_ZN5neml211DynamicMeanINS_2R3EEC2ERKNS_9OptionSetE
FNDA:0,_ZN5neml211DynamicMeanINS_2R4EEC2ERKNS_9OptionSetE
FNDA:0,_ZN5neml211DynamicMeanINS_3RotEEC2ERKNS_9OptionSetE
FNDA:1,_ZN5neml211DynamicMeanINS_3SR2EEC2ERKNS_9OptionSetE
FNDA:0,_ZN5neml211DynamicMeanINS_3VecEEC2ERKNS_9OptionSetE
FNDA:0,_ZN5neml211DynamicMeanINS_3WR2EEC2ERKNS_9OptionSetE
FNDA:0,_ZN5neml211DynamicMeanINS_4SFR3EEC2ERKNS_9OptionSetE
FNDA:0,_ZN5neml211DynamicMeanINS_4SSR4EEC2ERKNS_9OptionSetE
FNDA:0,_ZN5neml211DynamicMeanINS_4SWR4EEC2ERKNS_9OptionSetE
FNDA:0,_ZN5neml211DynamicMeanINS_4WSR4EEC2ERKNS_9OptionSetE
FNDA:0,_ZN5neml211DynamicMeanINS_4WWR4EEC2ERKNS_9OptionSetE
FNDA:0,_ZN5neml211DynamicMeanINS_5SFFR4EEC2ERKNS_9OptionSetE
FNDA:0,_ZN5neml211DynamicMeanINS_5WFFR4EEC2ERKNS_9OptionSetE
FNDA:0,_ZN5neml211DynamicMeanINS_6ScalarEEC2ERKNS_9OptionSetE
FNDA:0,_ZN5neml211DynamicMeanINS_10QuaternionEE9set_valueEbbb
FNDA:0,_ZN5neml211DynamicMeanINS_11MillerIndexEE9set_valueEbbb
FNDA:0,_ZN5neml211DynamicMeanINS_2R2EE9set_valueEbbb
FNDA:0,_ZN5neml211DynamicMeanINS_2R3EE9set_valueEbbb
FNDA:0,_ZN5neml211DynamicMeanINS_2R4EE9set_valueEbbb
FNDA:0,_ZN5neml211DynamicMeanINS_3RotEE9set_valueEbbb
FNDA:1,_ZN5neml211DynamicMeanINS_3SR2EE9set_valueEbbb
FNDA:0,_ZN5neml211DynamicMeanINS_3VecEE9set_valueEbbb
FNDA:0,_ZN5neml211DynamicMeanINS_3WR2EE9set_valueEbbb
FNDA:0,_ZN5neml211DynamicMeanINS_4SFR3EE9set_valueEbbb
FNDA:0,_ZN5neml211DynamicMeanINS_4SSR4EE9set_valueEbbb
FNDA:0,_ZN5neml211DynamicMeanINS_4SWR4EE9set_valueEbbb
FNDA:0,_ZN5neml211DynamicMeanINS_4WSR4EE9set_valueEbbb
FNDA:0,_ZN5neml211DynamicMeanINS_4WWR4EE9set_valueEbbb
FNDA:0,_ZN5neml211DynamicMeanINS_5SFFR4EE9set_valueEbbb
FNDA:0,_ZN5neml211DynamicMeanINS_5WFFR4EE9set_valueEbbb
FNDA:0,_ZN5neml211DynamicMeanINS_6ScalarEE9set_valueEbbb
FNF:51
FNH:19
DA:34,17
DA:36,17
DA:37,17
DA:38,51
DA:39,17
DA:40,0
DA:43,1
DA:45,1
DA:46,2
DA:48,1
DA:52,1
DA:54,1
DA:55,1
DA:56,1
LF:14
LH:13
end_of_record
TN:
SF:/home/runner/work/neml2/neml2/src/neml2/models/common/DynamicSum.cxx
FN:34,40,_ZN5neml210DynamicSumINS_10QuaternionEE16expected_optionsEv
FN:34,40,_ZN5neml210DynamicSumINS_11MillerIndexEE16expected_optionsEv
FN:34,40,_ZN5neml210DynamicSumINS_2R2EE16expected_optionsEv
FN:34,40,_ZN5neml210DynamicSumINS_2R3EE16expected_optionsEv
FN:34,40,_ZN5neml210DynamicSumINS_2R4EE16expected_optionsEv
FN:34,40,_ZN5neml210DynamicSumINS_3RotEE16expected_optionsEv
FN:34,40,_ZN5neml210DynamicSumINS_3SR2EE16expected_optionsEv
FN:34,40,_ZN5neml210DynamicSumINS_3VecEE16expected_optionsEv
FN:34,40,_ZN5neml210DynamicSumINS_3WR2EE16expected_optionsEv
FN:34,40,_ZN5neml210DynamicSumINS_4SFR3EE16expected_optionsEv
FN:34,40,_ZN5neml210DynamicSumINS_4SSR4EE16expected_optionsEv
FN:34,40,_ZN5neml210DynamicSumINS_4SWR4EE16expected_optionsEv
FN:34,40,_ZN5neml210DynamicSumINS_4WSR4EE16expected_optionsEv
FN:34,40,_ZN5neml210DynamicSumINS_4WWR4EE16expected_optionsEv
FN:34,40,_ZN5neml210DynamicSumINS_5SFFR4EE16expected_optionsEv
FN:34,40,_ZN5neml210DynamicSumINS_5WFFR4EE16expected_optionsEv
FN:34,40,_ZN5neml210DynamicSumINS_6ScalarEE16expected_optionsEv
FN:43,48,_ZN5neml210DynamicSumINS_10QuaternionEEC2ERKNS_9OptionSetE
FN:43,48,_ZN5neml210DynamicSumINS_11MillerIndexEEC2ERKNS_9OptionSetE
FN:43,48,_ZN5neml210DynamicSumINS_2R2EEC2ERKNS_9OptionSetE
FN:43,48,_ZN5neml210DynamicSumINS_2R3EEC2ERKNS_9OptionSetE
FN:43,48,_ZN5neml210DynamicSumINS_2R4EEC2ERKNS_9OptionSetE
FN:43,48,_ZN5neml210DynamicSumINS_3RotEEC2ERKNS_9OptionSetE
FN:43,48,_ZN5neml210DynamicSumINS_3SR2EEC2ERKNS_9OptionSetE
FN:43,48,_ZN5neml210DynamicSumINS_3VecEEC2ERKNS_9OptionSetE
FN:43,48,_ZN5neml210DynamicSumINS_3WR2EEC2ERKNS_9OptionSetE
FN:43,48,_ZN5neml210DynamicSumINS_4SFR3EEC2ERKNS_9OptionSetE
FN:43,48,_ZN5neml210DynamicSumINS_4SSR4EEC2ERKNS_9OptionSetE
FN:43,48,_ZN5neml210DynamicSumINS_4SWR4EEC2ERKNS_9OptionSetE
FN:43,48,_ZN5neml210DynamicSumINS_4WSR4EEC2ERKNS_9OptionSetE
FN:43,48,_ZN5neml210DynamicSumINS_4WWR4EEC2ERKNS_9OptionSetE
FN:43,48,_ZN5neml210DynamicSumINS_5SFFR4EEC2ERKNS_9OptionSetE
FN:43,48,_ZN5neml210DynamicSumINS_5WFFR4EEC2ERKNS_9OptionSetE
FN:43,48,_ZN5neml210DynamicSumINS_6ScalarEEC2ERKNS_9OptionSetE
FN:52,56,_ZN5neml210DynamicSumINS_10QuaternionEE9set_valueEbbb
FN:52,56,_ZN5neml210DynamicSumINS_11MillerIndexEE9set_valueEbbb
FN:52,56,_ZN5neml210DynamicSumINS_2R2EE9set_valueEbbb
FN:52,56,_ZN5neml210DynamicSumINS_2R3EE9set_valueEbbb
FN:52,56,_ZN5neml210DynamicSumINS_2R4EE9set_valueEbbb
FN:52,56,_ZN5neml210DynamicSumINS_3RotEE9set_valueEbbb
FN:52,56,_ZN5neml210DynamicSumINS_3SR2EE9set_valueEbbb
FN:52,56,_ZN5neml210DynamicSumINS_3VecEE9set_valueEbbb
FN:52,56,_ZN5neml210DynamicSumINS_3WR2EE9set_valueEbbb
FN:52,56,_ZN5neml210DynamicSumINS_4SFR3EE9set_valueEbbb
FN:52,56,_ZN5neml210DynamicSumINS_4SSR4EE9set_valueEbbb
FN:52,56,_ZN5neml210DynamicSumINS_4SWR4EE9set_valueEbbb
FN:52,56,_ZN5neml210DynamicSumINS_4WSR4EE9set_valueEbbb
FN:52,56,_ZN5neml210DynamicSumINS_4WWR4EE9set_valueEbbb
FN:52,56,_ZN5neml210DynamicSumINS_5SFFR4EE9set_valueEbbb
FN:52,56,_ZN5neml210DynamicSumINS_5WFFR4EE9set_valueEbbb
FN:52,56,_ZN5neml210DynamicSumINS_6ScalarEE9set_valueEbbb
FNDA:1,_ZN5neml210DynamicSumINS_10QuaternionEE16expected_optionsEv
FNDA:1,_ZN5neml210DynamicSumINS_11MillerIndexEE16expected_optionsEv
FNDA:1,_ZN5neml210DynamicSumINS_2R2EE16expected_optionsEv
FNDA:1,_ZN5neml210DynamicSumINS_2R3EE16expected_optionsEv
FNDA:1,_ZN5neml210DynamicSumINS_2R4EE16expected_optionsEv
FNDA:1,_ZN5neml210DynamicSumINS_3RotEE16expected_optionsEv
FNDA:1,_ZN5neml210DynamicSumINS_3SR2EE16expected_optionsEv
FNDA:1,_ZN5neml210DynamicSumINS_3VecEE16expected_optionsEv
FNDA:1,_ZN5neml210DynamicSumINS_3WR2EE16expected_optionsEv
FNDA:1,_ZN5neml210DynamicSumINS_4SFR3EE16expected_optionsEv
FNDA:1,_ZN5neml210DynamicSumINS_4SSR4EE16expected_optionsEv
FNDA:1,_ZN5neml210DynamicSumINS_4SWR4EE16expected_optionsEv
FNDA:1,_ZN5neml210DynamicSumINS_4WSR4EE16expected_optionsEv
FNDA:1,_ZN5neml210DynamicSumINS_4WWR4EE16expected_optionsEv
FNDA:1,_ZN5neml210DynamicSumINS_5SFFR4EE16expected_optionsEv
FNDA:1,_ZN5neml210DynamicSumINS_5WFFR4EE16expected_optionsEv
FNDA:1,_ZN5neml210DynamicSumINS_6ScalarEE16expected_optionsEv
FNDA:0,_ZN5neml210DynamicSumINS_10QuaternionEEC2ERKNS_9OptionSetE
FNDA:0,_ZN5neml210DynamicSumINS_11MillerIndexEEC2ERKNS_9OptionSetE
FNDA:0,_ZN5neml210DynamicSumINS_2R2EEC2ERKNS_9OptionSetE
FNDA:0,_ZN5neml210DynamicSumINS_2R3EEC2ERKNS_9OptionSetE
FNDA:0,_ZN5neml210DynamicSumINS_2R4EEC2ERKNS_9OptionSetE
FNDA:0,_ZN5neml210DynamicSumINS_3RotEEC2ERKNS_9OptionSetE
FNDA:1,_ZN5neml210DynamicSumINS_3SR2EEC2ERKNS_9OptionSetE
FNDA:0,_ZN5neml210DynamicSumINS_3VecEEC2ERKNS_9OptionSetE
FNDA:0,_ZN5neml210DynamicSumINS_3WR2EEC2ERKNS_9OptionSetE
FNDA:0,_ZN5neml210DynamicSumINS_4SFR3EEC2ERKNS_9OptionSetE
FNDA:0,_ZN5neml210DynamicSumINS_4SSR4EEC2ERKNS_9OptionSetE
FNDA:0,_ZN5neml210DynamicSumINS_4SWR4EEC2ERKNS_9OptionSetE
FNDA:0,_ZN5neml210DynamicSumINS_4WSR4EEC2ERKNS_9OptionSetE
FNDA:0,_ZN5neml210DynamicSumINS_4WWR4EEC2ERKNS_9OptionSetE
FNDA:0,_ZN5neml210DynamicSumINS_5SFFR4EEC2ERKNS_9OptionSetE
FNDA:0,_ZN5neml210DynamicSumINS_5WFFR4EEC2ERKNS_9OptionSetE
FNDA:0,_ZN5neml210DynamicSumINS_6ScalarEEC2ERKNS_9OptionSetE
FNDA:0,_ZN5neml210DynamicSumINS_10QuaternionEE9set_valueEbbb
FNDA:0,_ZN5neml210DynamicSumINS_11MillerIndexEE9set_valueEbbb
FNDA:0,_ZN5neml210DynamicSumINS_2R2EE9set_valueEbbb
FNDA:0,_ZN5neml210DynamicSumINS_2R3EE9set_valueEbbb
FNDA:0,_ZN5neml210DynamicSumINS_2R4EE9set_valueEbbb
FNDA:0,_ZN5neml210DynamicSumINS_3RotEE9set_valueEbbb
FNDA:1,_ZN5neml210DynamicSumINS_3SR2EE9set_valueEbbb
FNDA:0,_ZN5neml210DynamicSumINS_3VecEE9set_valueEbbb
FNDA:0,_ZN5neml210DynamicSumINS_3WR2EE9set_valueEbbb
FNDA:0,_ZN5neml210DynamicSumINS_4SFR3EE9set_valueEbbb
FNDA:0,_ZN5neml210DynamicSumINS_4SSR4EE9set_valueEbbb
FNDA:0,_ZN5neml210DynamicSumINS_4SWR4EE9set_valueEbbb
FNDA:0,_ZN5neml210DynamicSumINS_4WSR4EE9set_valueEbbb
FNDA:0,_ZN5neml210DynamicSumINS_4WWR4EE9set_valueEbbb
FNDA:0,_ZN5neml210DynamicSumINS_5SFFR4EE9set_valueEbbb
FNDA:0,_ZN5neml210DynamicSumINS_5WFFR4EE9set_valueEbbb
FNDA:0,_ZN5neml210DynamicSumINS_6ScalarEE9set_valueEbbb
FNF:51
FNH:19
DA:34,17
DA:36,17
DA:37,17
DA:38,51
DA:39,17
DA:40,0
DA:43,1
DA:45,1
DA:46,2
DA:48,1
DA:52,1
DA:54,1
DA:55,1
DA:56,1
LF:14
LH:13
end_of_record
TN:
SF:/home/runner/work/neml2/neml2/src/neml2/models/common/FBComplementarity.cxx
FN:32,48,_ZN5neml217FBComplementarity16expected_optionsEv
FN:50,58,_ZN5neml217FBComplementarityC2ERKNS_9OptionSetE
FN:61,75,_ZN5neml217FBComplementarity9set_valueEbbb
FNDA:1,_ZN5neml217FBComplementarity16expected_optionsEv
FNDA:3,_ZN5neml217FBComplementarityC2ERKNS_9OptionSetE
FNDA:6,_ZN5neml217FBComplementarity9set_valueEbbb
FNF:3
FNH:3
DA:32,1
DA:34,1
DA:35,1
DA:36,1
DA:38,4
DA:39,4
DA:40,4
DA:42,4
DA:43,4
DA:45,3
DA:47,2
DA:48,1
DA:50,3
DA:52,6
DA:53,3
DA:54,6
DA:55,3
DA:56,6
DA:58,3
DA:61,6
DA:63,12
DA:64,6
DA:66,6
DA:67,6
DA:69,6
DA:71,3
DA:72,3
DA:73,3
DA:75,6
LF:29
LH:29
end_of_record
TN:
SF:/home/runner/work/neml2/neml2/src/neml2/models/common/ForwardEulerTimeIntegration.cxx
FN:36,50,_ZN5neml227ForwardEulerTimeIntegrationINS_3SR2EE16expected_optionsEv
FN:36,50,_ZN5neml227ForwardEulerTimeIntegrationINS_3VecEE16expected_optionsEv
FN:36,50,_ZN5neml227ForwardEulerTimeIntegrationINS_6ScalarEE16expected_optionsEv
FN:53,62,_ZN5neml227ForwardEulerTimeIntegrationINS_3SR2EEC2ERKNS_9OptionSetE
FN:53,62,_ZN5neml227ForwardEulerTimeIntegrationINS_3VecEEC2ERKNS_9OptionSetE
FN:53,62,_ZN5neml227ForwardEulerTimeIntegrationINS_6ScalarEEC2ERKNS_9OptionSetE
FN:66,80,_ZN5neml227ForwardEulerTimeIntegrationINS_3SR2EE9set_valueEbbb
FN:66,80,_ZN5neml227ForwardEulerTimeIntegrationINS_3VecEE9set_valueEbbb
FN:66,80,_ZN5neml227ForwardEulerTimeIntegrationINS_6ScalarEE9set_valueEbbb
FNDA:1,_ZN5neml227ForwardEulerTimeIntegrationINS_3SR2EE16expected_optionsEv
FNDA:1,_ZN5neml227ForwardEulerTimeIntegrationINS_3VecEE16expected_optionsEv
FNDA:1,_ZN5neml227ForwardEulerTimeIntegrationINS_6ScalarEE16expected_optionsEv
FNDA:0,_ZN5neml227ForwardEulerTimeIntegrationINS_3SR2EEC2ERKNS_9OptionSetE
FNDA:0,_ZN5neml227ForwardEulerTimeIntegrationINS_3VecEEC2ERKNS_9OptionSetE
FNDA:1,_ZN5neml227ForwardEulerTimeIntegrationINS_6ScalarEEC2ERKNS_9OptionSetE
FNDA:0,_ZN5neml227ForwardEulerTimeIntegrationINS_3SR2EE9set_valueEbbb
FNDA:0,_ZN5neml227ForwardEulerTimeIntegrationINS_3VecEE9set_valueEbbb
FNDA:2,_ZN5neml227ForwardEulerTimeIntegrationINS_6ScalarEE9set_valueEbbb
FNF:9
FNH:5
DA:36,3
DA:38,3
DA:39,3
DA:45,12
DA:46,18
DA:47,9
DA:49,3
DA:50,0
DA:53,1
DA:55,2
DA:56,1
DA:57,1
DA:58,1
DA:59,1
DA:60,2
DA:62,1
DA:66,2
DA:68,2
DA:69,2
DA:71,2
DA:73,1
DA:75,1
DA:76,1
DA:77,1
DA:78,1
DA:79,1
DA:80,2
LF:27
LH:26
end_of_record
TN:
SF:/home/runner/work/neml2/neml2/src/neml2/models/common/HermiteSmoothStep.cxx
FN:34,50,_ZN5neml217HermiteSmoothStep16expected_optionsEv
FN:52,60,_ZN5neml217HermiteSmoothStepC2ERKNS_9OptionSetE
FN:63,79,_ZN5neml217HermiteSmoothStep9set_valueEbbb
FNDA:1,_ZN5neml217HermiteSmoothStep16expected_optionsEv
FNDA:2,_ZN5neml217HermiteSmoothStepC2ERKNS_9OptionSetE
FNDA:4,_ZN5neml217HermiteSmoothStep9set_valueEbbb
FNF:3
FNH:3
DA:34,1
DA:36,1
DA:37,1
DA:39,4
DA:40,4
DA:41,4
DA:42,4
DA:44,2
DA:46,2
DA:49,1
DA:50,0
DA:52,2
DA:54,4
DA:55,2
DA:56,8
DA:57,10
DA:58,4
DA:60,2
DA:63,4
DA:65,4
DA:66,4
DA:68,4
DA:70,4
DA:71,4
DA:72,4
DA:74,4
DA:76,2
DA:77,2
DA:78,2
DA:79,4
LF:30
LH:29
end_of_record
TN:
SF:/home/runner/work/neml2/neml2/src/neml2/models/common/InputParameter.cxx
FN:33,46,_ZN5neml214InputParameterINS_10QuaternionEE16expected_optionsEv
FN:33,46,_ZN5neml214InputParameterINS_11MillerIndexEE16expected_optionsEv
FN:33,46,_ZN5neml214InputParameterINS_2R2EE16expected_optionsEv
FN:33,46,_ZN5neml214InputParameterINS_2R3EE16expected_optionsEv
FN:33,46,_ZN5neml214InputParameterINS_2R4EE16expected_optionsEv
FN:33,46,_ZN5neml214InputParameterINS_3RotEE16expected_optionsEv
FN:33,46,_ZN5neml214InputParameterINS_3SR2EE16expected_optionsEv
FN:33,46,_ZN5neml214InputParameterINS_3VecEE16expected_optionsEv
FN:33,46,_ZN5neml214InputParameterINS_3WR2EE16expected_optionsEv
FN:33,46,_ZN5neml214InputParameterINS_4SFR3EE16expected_optionsEv
FN:33,46,_ZN5neml214InputParameterINS_4SSR4EE16expected_optionsEv
FN:33,46,_ZN5neml214InputParameterINS_4SWR4EE16expected_optionsEv
FN:33,46,_ZN5neml214InputParameterINS_4WSR4EE16expected_optionsEv
FN:33,46,_ZN5neml214InputParameterINS_4WWR4EE16expected_optionsEv
FN:33,46,_ZN5neml214InputParameterINS_5SFFR4EE16expected_optionsEv
FN:33,46,_ZN5neml214InputParameterINS_5WFFR4EE16expected_optionsEv
FN:33,46,_ZN5neml214InputParameterINS_6ScalarEE16expected_optionsEv
FN:49,54,_ZN5neml214InputParameterINS_10QuaternionEEC2ERKNS_9OptionSetE
FN:49,54,_ZN5neml214InputParameterINS_11MillerIndexEEC2ERKNS_9OptionSetE
FN:49,54,_ZN5neml214InputParameterINS_2R2EEC2ERKNS_9OptionSetE
FN:49,54,_ZN5neml214InputParameterINS_2R3EEC2ERKNS_9OptionSetE
FN:49,54,_ZN5neml214InputParameterINS_2R4EEC2ERKNS_9OptionSetE
FN:49,54,_ZN5neml214InputParameterINS_3RotEEC2ERKNS_9OptionSetE
FN:49,54,_ZN5neml214InputParameterINS_3SR2EEC2ERKNS_9OptionSetE
FN:49,54,_ZN5neml214InputParameterINS_3VecEEC2ERKNS_9OptionSetE
FN:49,54,_ZN5neml214InputParameterINS_3WR2EEC2ERKNS_9OptionSetE
FN:49,54,_ZN5neml214InputParameterINS_4SFR3EEC2ERKNS_9OptionSetE
FN:49,54,_ZN5neml214InputParameterINS_4SSR4EEC2ERKNS_9OptionSetE
FN:49,54,_ZN5neml214InputParameterINS_4SWR4EEC2ERKNS_9OptionSetE
FN:49,54,_ZN5neml214InputParameterINS_4WSR4EEC2ERKNS_9OptionSetE
FN:49,54,_ZN5neml214InputParameterINS_4WWR4EEC2ERKNS_9OptionSetE
FN:49,54,_ZN5neml214InputParameterINS_5SFFR4EEC2ERKNS_9OptionSetE
FN:49,54,_ZN5neml214InputParameterINS_5WFFR4EEC2ERKNS_9OptionSetE
FN:49,54,_ZN5neml214InputParameterINS_6ScalarEEC2ERKNS_9OptionSetE
FN:58,65,_ZN5neml214InputParameterINS_10QuaternionEE9set_valueEbbb
FN:58,65,_ZN5neml214InputParameterINS_11MillerIndexEE9set_valueEbbb
FN:58,65,_ZN5neml214InputParameterINS_2R2EE9set_valueEbbb
FN:58,65,_ZN5neml214InputParameterINS_2R3EE9set_valueEbbb
FN:58,65,_ZN5neml214InputParameterINS_2R4EE9set_valueEbbb
FN:58,65,_ZN5neml214InputParameterINS_3RotEE9set_valueEbbb
FN:58,65,_ZN5neml214InputParameterINS_3SR2EE9set_valueEbbb
FN:58,65,_ZN5neml214InputParameterINS_3VecEE9set_valueEbbb
FN:58,65,_ZN5neml214InputParameterINS_3WR2EE9set_valueEbbb
FN:58,65,_ZN5neml214InputParameterINS_4SFR3EE9set_valueEbbb
FN:58,65,_ZN5neml214InputParameterINS_4SSR4EE9set_valueEbbb
FN:58,65,_ZN5neml214InputParameterINS_4SWR4EE9set_valueEbbb
FN:58,65,_ZN5neml214InputParameterINS_4WSR4EE9set_valueEbbb
FN:58,65,_ZN5neml214InputParameterINS_4WWR4EE9set_valueEbbb
FN:58,65,_ZN5neml214InputParameterINS_5SFFR4EE9set_valueEbbb
FN:58,65,_ZN5neml214InputParameterINS_5WFFR4EE9set_valueEbbb
FN:58,65,_ZN5neml214InputParameterINS_6ScalarEE9set_valueEbbb
FNDA:1,_ZN5neml214InputParameterINS_10QuaternionEE16expected_optionsEv
FNDA:1,_ZN5neml214InputParameterINS_11MillerIndexEE16expected_optionsEv
FNDA:1,_ZN5neml214InputParameterINS_2R2EE16expected_optionsEv
FNDA:1,_ZN5neml214InputParameterINS_2R3EE16expected_optionsEv
FNDA:1,_ZN5neml214InputParameterINS_2R4EE16expected_optionsEv
FNDA:1,_ZN5neml214InputParameterINS_3RotEE16expected_optionsEv
FNDA:1,_ZN5neml214InputParameterINS_3SR2EE16expected_optionsEv
FNDA:1,_ZN5neml214InputParameterINS_3VecEE16expected_optionsEv
FNDA:1,_ZN5neml214InputParameterINS_3WR2EE16expected_optionsEv
FNDA:1,_ZN5neml214InputParameterINS_4SFR3EE16expected_optionsEv
FNDA:1,_ZN5neml214InputParameterINS_4SSR4EE16expected_optionsEv
FNDA:1,_ZN5neml214InputParameterINS_4SWR4EE16expected_optionsEv
FNDA:1,_ZN5neml214InputParameterINS_4WSR4EE16expected_optionsEv
FNDA:1,_ZN5neml214InputParameterINS_4WWR4EE16expected_optionsEv
FNDA:1,_ZN5neml214InputParameterINS_5SFFR4EE16expected_optionsEv
FNDA:1,_ZN5neml214InputParameterINS_5WFFR4EE16expected_optionsEv
FNDA:68,_ZN5neml214InputParameterINS_6ScalarEE16expected_optionsEv
FNDA:0,_ZN5neml214InputParameterINS_10QuaternionEEC2ERKNS_9OptionSetE
FNDA:0,_ZN5neml214InputParameterINS_11MillerIndexEEC2ERKNS_9OptionSetE
FNDA:0,_ZN5neml214InputParameterINS_2R2EEC2ERKNS_9OptionSetE
FNDA:0,_ZN5neml214InputParameterINS_2R3EEC2ERKNS_9OptionSetE
FNDA:0,_ZN5neml214InputParameterINS_2R4EEC2ERKNS_9OptionSetE
FNDA:0,_ZN5neml214InputParameterINS_3RotEEC2ERKNS_9OptionSetE
FNDA:0,_ZN5neml214InputParameterINS_3SR2EEC2ERKNS_9OptionSetE
FNDA:0,_ZN5neml214InputParameterINS_3VecEEC2ERKNS_9OptionSetE
FNDA:0,_ZN5neml214InputParameterINS_3WR2EEC2ERKNS_9OptionSetE
FNDA:0,_ZN5neml214InputParameterINS_4SFR3EEC2ERKNS_9OptionSetE
FNDA:2,_ZN5neml214InputParameterINS_4SSR4EEC2ERKNS_9OptionSetE
FNDA:0,_ZN5neml214InputParameterINS_4SWR4EEC2ERKNS_9OptionSetE
FNDA:0,_ZN5neml214InputParameterINS_4WSR4EEC2ERKNS_9OptionSetE
FNDA:0,_ZN5neml214InputParameterINS_4WWR4EEC2ERKNS_9OptionSetE
FNDA:0,_ZN5neml214InputParameterINS_5SFFR4EEC2ERKNS_9OptionSetE
FNDA:0,_ZN5neml214InputParameterINS_5WFFR4EEC2ERKNS_9OptionSetE
FNDA:65,_ZN5neml214InputParameterINS_6ScalarEEC2ERKNS_9OptionSetE
FNDA:0,_ZN5neml214InputParameterINS_10QuaternionEE9set_valueEbbb
FNDA:0,_ZN5neml214InputParameterINS_11MillerIndexEE9set_valueEbbb
FNDA:0,_ZN5neml214InputParameterINS_2R2EE9set_valueEbbb
FNDA:0,_ZN5neml214InputParameterINS_2R3EE9set_valueEbbb
FNDA:0,_ZN5neml214InputParameterINS_2R4EE9set_valueEbbb
FNDA:0,_ZN5neml214InputParameterINS_3RotEE9set_valueEbbb
FNDA:0,_ZN5neml214InputParameterINS_3SR2EE9set_valueEbbb
FNDA:0,_ZN5neml214InputParameterINS_3VecEE9set_valueEbbb
FNDA:0,_ZN5neml214InputParameterINS_3WR2EE9set_valueEbbb
FNDA:0,_ZN5neml214InputParameterINS_4SFR3EE9set_valueEbbb
FNDA:4,_ZN5neml214InputParameterINS_4SSR4EE9set_valueEbbb
FNDA:0,_ZN5neml214InputParameterINS_4SWR4EE9set_valueEbbb
FNDA:0,_ZN5neml214InputParameterINS_4WSR4EE9set_valueEbbb
FNDA:0,_ZN5neml214InputParameterINS_4WWR4EE9set_valueEbbb
FNDA:0,_ZN5neml214InputParameterINS_5SFFR4EE9set_valueEbbb
FNDA:0,_ZN5neml214InputParameterINS_5WFFR4EE9set_valueEbbb
FNDA:145,_ZN5neml214InputParameterINS_6ScalarEE9set_valueEbbb
FNF:51
FNH:21
DA:33,84
DA:35,84
DA:36,84
DA:40,252
DA:42,336
DA:43,252
DA:45,84
DA:46,0
DA:49,67
DA:51,134
DA:52,67
DA:54,67
DA:58,149
DA:60,149
DA:61,149
DA:63,149
DA:64,82
DA:65,149
LF:18
LH:17
end_of_record
TN:
SF:/home/runner/work/neml2/neml2/src/neml2/models/common/IntermediateDiff.cxx
FN:37,46,_ZN5neml216IntermediateDiffINS_10QuaternionEE16expected_optionsEv
FN:37,46,_ZN5neml216IntermediateDiffINS_11MillerIndexEE16expected_optionsEv
FN:37,46,_ZN5neml216IntermediateDiffINS_2R2EE16expected_optionsEv
FN:37,46,_ZN5neml216IntermediateDiffINS_2R3EE16expected_optionsEv
FN:37,46,_ZN5neml216IntermediateDiffINS_2R4EE16expected_optionsEv
FN:37,46,_ZN5neml216IntermediateDiffINS_3RotEE16expected_optionsEv
FN:37,46,_ZN5neml216IntermediateDiffINS_3SR2EE16expected_optionsEv
FN:37,46,_ZN5neml216IntermediateDiffINS_3VecEE16expected_optionsEv
FN:37,46,_ZN5neml216IntermediateDiffINS_3WR2EE16expected_optionsEv
FN:37,46,_ZN5neml216IntermediateDiffINS_4SFR3EE16expected_optionsEv
FN:37,46,_ZN5neml216IntermediateDiffINS_4SSR4EE16expected_optionsEv
FN:37,46,_ZN5neml216IntermediateDiffINS_4SWR4EE16expected_optionsEv
FN:37,46,_ZN5neml216IntermediateDiffINS_4WSR4EE16expected_optionsEv
FN:37,46,_ZN5neml216IntermediateDiffINS_4WWR4EE16expected_optionsEv
FN:37,46,_ZN5neml216IntermediateDiffINS_5SFFR4EE16expected_optionsEv
FN:37,46,_ZN5neml216IntermediateDiffINS_5WFFR4EE16expected_optionsEv
FN:37,46,_ZN5neml216IntermediateDiffINS_6ScalarEE16expected_optionsEv
FN:49,55,_ZN5neml216IntermediateDiffINS_10QuaternionEEC2ERKNS_9OptionSetE
FN:49,55,_ZN5neml216IntermediateDiffINS_11MillerIndexEEC2ERKNS_9OptionSetE
FN:49,55,_ZN5neml216IntermediateDiffINS_2R2EEC2ERKNS_9OptionSetE
FN:49,55,_ZN5neml216IntermediateDiffINS_2R3EEC2ERKNS_9OptionSetE
FN:49,55,_ZN5neml216IntermediateDiffINS_2R4EEC2ERKNS_9OptionSetE
FN:49,55,_ZN5neml216IntermediateDiffINS_3RotEEC2ERKNS_9OptionSetE
FN:49,55,_ZN5neml216IntermediateDiffINS_3SR2EEC2ERKNS_9OptionSetE
FN:49,55,_ZN5neml216IntermediateDiffINS_3VecEEC2ERKNS_9OptionSetE
FN:49,55,_ZN5neml216IntermediateDiffINS_3WR2EEC2ERKNS_9OptionSetE
FN:49,55,_ZN5neml216IntermediateDiffINS_4SFR3EEC2ERKNS_9OptionSetE
FN:49,55,_ZN5neml216IntermediateDiffINS_4SSR4EEC2ERKNS_9OptionSetE
FN:49,55,_ZN5neml216IntermediateDiffINS_4SWR4EEC2ERKNS_9OptionSetE
FN:49,55,_ZN5neml216IntermediateDiffINS_4WSR4EEC2ERKNS_9OptionSetE
FN:49,55,_ZN5neml216IntermediateDiffINS_4WWR4EEC2ERKNS_9OptionSetE
FN:49,55,_ZN5neml216IntermediateDiffINS_5SFFR4EEC2ERKNS_9OptionSetE
FN:49,55,_ZN5neml216IntermediateDiffINS_5WFFR4EEC2ERKNS_9OptionSetE
FN:49,55,_ZN5neml216IntermediateDiffINS_6ScalarEEC2ERKNS_9OptionSetE
FN:59,71,_ZN5neml216IntermediateDiffINS_10QuaternionEE9set_valueEbbb
FN:59,71,_ZN5neml216IntermediateDiffINS_11MillerIndexEE9set_valueEbbb
FN:59,71,_ZN5neml216IntermediateDiffINS_2R2EE9set_valueEbbb
FN:59,71,_ZN5neml216IntermediateDiffINS_2R3EE9set_valueEbbb
FN:59,71,_ZN5neml216IntermediateDiffINS_2R4EE9set_valueEbbb
FN:59,71,_ZN5neml216IntermediateDiffINS_3RotEE9set_valueEbbb
FN:59,71,_ZN5neml216IntermediateDiffINS_3SR2EE9set_valueEbbb
FN:59,71,_ZN5neml216IntermediateDiffINS_3VecEE9set_valueEbbb
FN:59,71,_ZN5neml216IntermediateDiffINS_3WR2EE9set_valueEbbb
FN:59,71,_ZN5neml216IntermediateDiffINS_4SFR3EE9set_valueEbbb
FN:59,71,_ZN5neml216IntermediateDiffINS_4SSR4EE9set_valueEbbb
FN:59,71,_ZN5neml216IntermediateDiffINS_4SWR4EE9set_valueEbbb
FN:59,71,_ZN5neml216IntermediateDiffINS_4WSR4EE9set_valueEbbb
FN:59,71,_ZN5neml216IntermediateDiffINS_4WWR4EE9set_valueEbbb
FN:59,71,_ZN5neml216IntermediateDiffINS_5SFFR4EE9set_valueEbbb
FN:59,71,_ZN5neml216IntermediateDiffINS_5WFFR4EE9set_valueEbbb
FN:59,71,_ZN5neml216IntermediateDiffINS_6ScalarEE9set_valueEbbb
FNDA:1,_ZN5neml216IntermediateDiffINS_10QuaternionEE16expected_optionsEv
FNDA:1,_ZN5neml216IntermediateDiffINS_11MillerIndexEE16expected_optionsEv
FNDA:1,_ZN5neml216IntermediateDiffINS_2R2EE16expected_optionsEv
FNDA:1,_ZN5neml216IntermediateDiffINS_2R3EE16expected_optionsEv
FNDA:1,_ZN5neml216IntermediateDiffINS_2R4EE16expected_optionsEv
FNDA:1,_ZN5neml216IntermediateDiffINS_3RotEE16expected_optionsEv
FNDA:1,_ZN5neml216IntermediateDiffINS_3SR2EE16expected_optionsEv
FNDA:1,_ZN5neml216IntermediateDiffINS_3VecEE16expected_optionsEv
FNDA:1,_ZN5neml216IntermediateDiffINS_3WR2EE16expected_optionsEv
FNDA:1,_ZN5neml216IntermediateDiffINS_4SFR3EE16expected_optionsEv
FNDA:1,_ZN5neml216IntermediateDiffINS_4SSR4EE16expected_optionsEv
FNDA:1,_ZN5neml216IntermediateDiffINS_4SWR4EE16expected_optionsEv
FNDA:1,_ZN5neml216IntermediateDiffINS_4WSR4EE16expected_optionsEv
FNDA:1,_ZN5neml216IntermediateDiffINS_4WWR4EE16expected_optionsEv
FNDA:1,_ZN5neml216IntermediateDiffINS_5SFFR4EE16expected_optionsEv
FNDA:1,_ZN5neml216IntermediateDiffINS_5WFFR4EE16expected_optionsEv
FNDA:1,_ZN5neml216IntermediateDiffINS_6ScalarEE16expected_optionsEv
FNDA:0,_ZN5neml216IntermediateDiffINS_10QuaternionEEC2ERKNS_9OptionSetE
FNDA:0,_ZN5neml216IntermediateDiffINS_11MillerIndexEEC2ERKNS_9OptionSetE
FNDA:0,_ZN5neml216IntermediateDiffINS_2R2EEC2ERKNS_9OptionSetE
FNDA:0,_ZN5neml216IntermediateDiffINS_2R3EEC2ERKNS_9OptionSetE
FNDA:0,_ZN5neml216IntermediateDiffINS_2R4EEC2ERKNS_9OptionSetE
FNDA:0,_ZN5neml216IntermediateDiffINS_3RotEEC2ERKNS_9OptionSetE
FNDA:0,_ZN5neml216IntermediateDiffINS_3SR2EEC2ERKNS_9OptionSetE
FNDA:0,_ZN5neml216IntermediateDiffINS_3VecEEC2ERKNS_9OptionSetE
FNDA:0,_ZN5neml216IntermediateDiffINS_3WR2EEC2ERKNS_9OptionSetE
FNDA:0,_ZN5neml216IntermediateDiffINS_4SFR3EEC2ERKNS_9OptionSetE
FNDA:0,_ZN5neml216IntermediateDiffINS_4SSR4EEC2ERKNS_9OptionSetE
FNDA:0,_ZN5neml216IntermediateDiffINS_4SWR4EEC2ERKNS_9OptionSetE
FNDA:0,_ZN5neml216IntermediateDiffINS_4WSR4EEC2ERKNS_9OptionSetE
FNDA:0,_ZN5neml216IntermediateDiffINS_4WWR4EEC2ERKNS_9OptionSetE
FNDA:0,_ZN5neml216IntermediateDiffINS_5SFFR4EEC2ERKNS_9OptionSetE
FNDA:0,_ZN5neml216IntermediateDiffINS_5WFFR4EEC2ERKNS_9OptionSetE
FNDA:1,_ZN5neml216IntermediateDiffINS_6ScalarEEC2ERKNS_9OptionSetE
FNDA:0,_ZN5neml216IntermediateDiffINS_10QuaternionEE9set_valueEbbb
FNDA:0,_ZN5neml216IntermediateDiffINS_11MillerIndexEE9set_valueEbbb
FNDA:0,_ZN5neml216IntermediateDiffINS_2R2EE9set_valueEbbb
FNDA:0,_ZN5neml216IntermediateDiffINS_2R3EE9set_valueEbbb
FNDA:0,_ZN5neml216IntermediateDiffINS_2R4EE9set_valueEbbb
FNDA:0,_ZN5neml216IntermediateDiffINS_3RotEE9set_valueEbbb
FNDA:0,_ZN5neml216IntermediateDiffINS_3SR2EE9set_valueEbbb
FNDA:0,_ZN5neml216IntermediateDiffINS_3VecEE9set_valueEbbb
FNDA:0,_ZN5neml216IntermediateDiffINS_3WR2EE9set_valueEbbb
FNDA:0,_ZN5neml216IntermediateDiffINS_4SFR3EE9set_valueEbbb
FNDA:0,_ZN5neml216IntermediateDiffINS_4SSR4EE9set_valueEbbb
FNDA:0,_ZN5neml216IntermediateDiffINS_4SWR4EE9set_valueEbbb
FNDA:0,_ZN5neml216IntermediateDiffINS_4WSR4EE9set_valueEbbb
FNDA:0,_ZN5neml216IntermediateDiffINS_4WWR4EE9set_valueEbbb
FNDA:0,_ZN5neml216IntermediateDiffINS_5SFFR4EE9set_valueEbbb
FNDA:0,_ZN5neml216IntermediateDiffINS_5WFFR4EE9set_valueEbbb
FNDA:2,_ZN5neml216IntermediateDiffINS_6ScalarEE9set_valueEbbb
FNF:51
FNH:19
DA:37,17
DA:39,17
DA:40,17
DA:42,68
DA:43,51
DA:45,17
DA:46,0
DA:49,1
DA:51,1
DA:52,2
DA:53,2
DA:55,1
DA:59,2
DA:61,2
DA:62,2
DA:64,2
DA:66,1
DA:67,1
DA:68,1
DA:69,1
DA:70,1
DA:71,2
LF:22
LH:21
end_of_record
TN:
SF:/home/runner/work/neml2/neml2/src/neml2/models/common/IntermediateMean.cxx
FN:35,40,_ZN5neml216IntermediateMeanINS_10QuaternionEE16expected_optionsEv
FN:35,40,_ZN5neml216IntermediateMeanINS_11MillerIndexEE16expected_optionsEv
FN:35,40,_ZN5neml216IntermediateMeanINS_2R2EE16expected_optionsEv
FN:35,40,_ZN5neml216IntermediateMeanINS_2R3EE16expected_optionsEv
FN:35,40,_ZN5neml216IntermediateMeanINS_2R4EE16expected_optionsEv
FN:35,40,_ZN5neml216IntermediateMeanINS_3RotEE16expected_optionsEv
FN:35,40,_ZN5neml216IntermediateMeanINS_3SR2EE16expected_optionsEv
FN:35,40,_ZN5neml216IntermediateMeanINS_3VecEE16expected_optionsEv
FN:35,40,_ZN5neml216IntermediateMeanINS_3WR2EE16expected_optionsEv
FN:35,40,_ZN5neml216IntermediateMeanINS_4SFR3EE16expected_optionsEv
FN:35,40,_ZN5neml216IntermediateMeanINS_4SSR4EE16expected_optionsEv
FN:35,40,_ZN5neml216IntermediateMeanINS_4SWR4EE16expected_optionsEv
FN:35,40,_ZN5neml216IntermediateMeanINS_4WSR4EE16expected_optionsEv
FN:35,40,_ZN5neml216IntermediateMeanINS_4WWR4EE16expected_optionsEv
FN:35,40,_ZN5neml216IntermediateMeanINS_5SFFR4EE16expected_optionsEv
FN:35,40,_ZN5neml216IntermediateMeanINS_5WFFR4EE16expected_optionsEv
FN:35,40,_ZN5neml216IntermediateMeanINS_6ScalarEE16expected_optionsEv
FN:43,47,_ZN5neml216IntermediateMeanINS_10QuaternionEEC2ERKNS_9OptionSetE
FN:43,47,_ZN5neml216IntermediateMeanINS_11MillerIndexEEC2ERKNS_9OptionSetE
FN:43,47,_ZN5neml216IntermediateMeanINS_2R2EEC2ERKNS_9OptionSetE
FN:43,47,_ZN5neml216IntermediateMeanINS_2R3EEC2ERKNS_9OptionSetE
FN:43,47,_ZN5neml216IntermediateMeanINS_2R4EEC2ERKNS_9OptionSetE
FN:43,47,_ZN5neml216IntermediateMeanINS_3RotEEC2ERKNS_9OptionSetE
FN:43,47,_ZN5neml216IntermediateMeanINS_3SR2EEC2ERKNS_9OptionSetE
FN:43,47,_ZN5neml216IntermediateMeanINS_3VecEEC2ERKNS_9OptionSetE
FN:43,47,_ZN5neml216IntermediateMeanINS_3WR2EEC2ERKNS_9OptionSetE
FN:43,47,_ZN5neml216IntermediateMeanINS_4SFR3EEC2ERKNS_9OptionSetE
FN:43,47,_ZN5neml216IntermediateMeanINS_4SSR4EEC2ERKNS_9OptionSetE
FN:43,47,_ZN5neml216IntermediateMeanINS_4SWR4EEC2ERKNS_9OptionSetE
FN:43,47,_ZN5neml216IntermediateMeanINS_4WSR4EEC2ERKNS_9OptionSetE
FN:43,47,_ZN5neml216IntermediateMeanINS_4WWR4EEC2ERKNS_9OptionSetE
FN:43,47,_ZN5neml216IntermediateMeanINS_5SFFR4EEC2ERKNS_9OptionSetE
FN:43,47,_ZN5neml216IntermediateMeanINS_5WFFR4EEC2ERKNS_9OptionSetE
FN:43,47,_ZN5neml216IntermediateMeanINS_6ScalarEEC2ERKNS_9OptionSetE
FN:51,61,_ZN5neml216IntermediateMeanINS_10QuaternionEE9set_valueEbbb
FN:51,61,_ZN5neml216IntermediateMeanINS_11MillerIndexEE9set_valueEbbb
FN:51,61,_ZN5neml216IntermediateMeanINS_2R2EE9set_valueEbbb
FN:51,61,_ZN5neml216IntermediateMeanINS_2R3EE9set_valueEbbb
FN:51,61,_ZN5neml216IntermediateMeanINS_2R4EE9set_valueEbbb
FN:51,61,_ZN5neml216IntermediateMeanINS_3RotEE9set_valueEbbb
FN:51,61,_ZN5neml216IntermediateMeanINS_3SR2EE9set_valueEbbb
FN:51,61,_ZN5neml216IntermediateMeanINS_3VecEE9set_valueEbbb
FN:51,61,_ZN5neml216IntermediateMeanINS_3WR2EE9set_valueEbbb
FN:51,61,_ZN5neml216IntermediateMeanINS_4SFR3EE9set_valueEbbb
FN:51,61,_ZN5neml216IntermediateMeanINS_4SSR4EE9set_valueEbbb
FN:51,61,_ZN5neml216IntermediateMeanINS_4SWR4EE9set_valueEbbb
FN:51,61,_ZN5neml216IntermediateMeanINS_4WSR4EE9set_valueEbbb
FN:51,61,_ZN5neml216IntermediateMeanINS_4WWR4EE9set_valueEbbb
FN:51,61,_ZN5neml216IntermediateMeanINS_5SFFR4EE9set_valueEbbb
FN:51,61,_ZN5neml216IntermediateMeanINS_5WFFR4EE9set_valueEbbb
FN:51,61,_ZN5neml216IntermediateMeanINS_6ScalarEE9set_valueEbbb
FNDA:1,_ZN5neml216IntermediateMeanINS_10QuaternionEE16expected_optionsEv
FNDA:1,_ZN5neml216IntermediateMeanINS_11MillerIndexEE16expected_optionsEv
FNDA:1,_ZN5neml216IntermediateMeanINS_2R2EE16expected_optionsEv
FNDA:1,_ZN5neml216IntermediateMeanINS_2R3EE16expected_optionsEv
FNDA:1,_ZN5neml216IntermediateMeanINS_2R4EE16expected_optionsEv
FNDA:1,_ZN5neml216IntermediateMeanINS_3RotEE16expected_optionsEv
FNDA:1,_ZN5neml216IntermediateMeanINS_3SR2EE16expected_optionsEv
FNDA:1,_ZN5neml216IntermediateMeanINS_3VecEE16expected_optionsEv
FNDA:1,_ZN5neml216IntermediateMeanINS_3WR2EE16expected_optionsEv
FNDA:1,_ZN5neml216IntermediateMeanINS_4SFR3EE16expected_optionsEv
FNDA:1,_ZN5neml216IntermediateMeanINS_4SSR4EE16expected_optionsEv
FNDA:1,_ZN5neml216IntermediateMeanINS_4SWR4EE16expected_optionsEv
FNDA:1,_ZN5neml216IntermediateMeanINS_4WSR4EE16expected_optionsEv
FNDA:1,_ZN5neml216IntermediateMeanINS_4WWR4EE16expected_optionsEv
FNDA:1,_ZN5neml216IntermediateMeanINS_5SFFR4EE16expected_optionsEv
FNDA:1,_ZN5neml216IntermediateMeanINS_5WFFR4EE16expected_optionsEv
FNDA:1,_ZN5neml216IntermediateMeanINS_6ScalarEE16expected_optionsEv
FNDA:0,_ZN5neml216IntermediateMeanINS_10QuaternionEEC2ERKNS_9OptionSetE
FNDA:0,_ZN5neml216IntermediateMeanINS_11MillerIndexEEC2ERKNS_9OptionSetE
FNDA:0,_ZN5neml216IntermediateMeanINS_2R2EEC2ERKNS_9OptionSetE
FNDA:0,_ZN5neml216IntermediateMeanINS_2R3EEC2ERKNS_9OptionSetE
FNDA:0,_ZN5neml216IntermediateMeanINS_2R4EEC2ERKNS_9OptionSetE
FNDA:0,_ZN5neml216IntermediateMeanINS_3RotEEC2ERKNS_9OptionSetE
FNDA:1,_ZN5neml216IntermediateMeanINS_3SR2EEC2ERKNS_9OptionSetE
FNDA:0,_ZN5neml216IntermediateMeanINS_3VecEEC2ERKNS_9OptionSetE
FNDA:0,_ZN5neml216IntermediateMeanINS_3WR2EEC2ERKNS_9OptionSetE
FNDA:0,_ZN5neml216IntermediateMeanINS_4SFR3EEC2ERKNS_9OptionSetE
FNDA:0,_ZN5neml216IntermediateMeanINS_4SSR4EEC2ERKNS_9OptionSetE
FNDA:0,_ZN5neml216IntermediateMeanINS_4SWR4EEC2ERKNS_9OptionSetE
FNDA:0,_ZN5neml216IntermediateMeanINS_4WSR4EEC2ERKNS_9OptionSetE
FNDA:0,_ZN5neml216IntermediateMeanINS_4WWR4EEC2ERKNS_9OptionSetE
FNDA:0,_ZN5neml216IntermediateMeanINS_5SFFR4EEC2ERKNS_9OptionSetE
FNDA:0,_ZN5neml216IntermediateMeanINS_5WFFR4EEC2ERKNS_9OptionSetE
FNDA:0,_ZN5neml216IntermediateMeanINS_6ScalarEEC2ERKNS_9OptionSetE
FNDA:0,_ZN5neml216IntermediateMeanINS_10QuaternionEE9set_valueEbbb
FNDA:0,_ZN5neml216IntermediateMeanINS_11MillerIndexEE9set_valueEbbb
FNDA:0,_ZN5neml216IntermediateMeanINS_2R2EE9set_valueEbbb
FNDA:0,_ZN5neml216IntermediateMeanINS_2R3EE9set_valueEbbb
FNDA:0,_ZN5neml216IntermediateMeanINS_2R4EE9set_valueEbbb
FNDA:0,_ZN5neml216IntermediateMeanINS_3RotEE9set_valueEbbb
FNDA:2,_ZN5neml216IntermediateMeanINS_3SR2EE9set_valueEbbb
FNDA:0,_ZN5neml216IntermediateMeanINS_3VecEE9set_valueEbbb
FNDA:0,_ZN5neml216IntermediateMeanINS_3WR2EE9set_valueEbbb
FNDA:0,_ZN5neml216IntermediateMeanINS_4SFR3EE9set_valueEbbb
FNDA:0,_ZN5neml216IntermediateMeanINS_4SSR4EE9set_valueEbbb
FNDA:0,_ZN5neml216IntermediateMeanINS_4SWR4EE9set_valueEbbb
FNDA:0,_ZN5neml216IntermediateMeanINS_4WSR4EE9set_valueEbbb
FNDA:0,_ZN5neml216IntermediateMeanINS_4WWR4EE9set_valueEbbb
FNDA:0,_ZN5neml216IntermediateMeanINS_5SFFR4EE9set_valueEbbb
FNDA:0,_ZN5neml216IntermediateMeanINS_5WFFR4EE9set_valueEbbb
FNDA:0,_ZN5neml216IntermediateMeanINS_6ScalarEE9set_valueEbbb
FNF:51
FNH:19
DA:35,17
DA:37,17
DA:38,17
DA:39,17
DA:40,0
DA:43,1
DA:45,1
DA:47,1
DA:51,2
DA:53,2
DA:54,2
DA:56,2
DA:58,1
DA:59,1
DA:61,2
LF:15
LH:14
end_of_record
TN:
SF:/home/runner/work/neml2/neml2/src/neml2/models/common/IntermediateSum.cxx
FN:35,40,_ZN5neml215IntermediateSumINS_10QuaternionEE16expected_optionsEv
FN:35,40,_ZN5neml215IntermediateSumINS_11MillerIndexEE16expected_optionsEv
FN:35,40,_ZN5neml215IntermediateSumINS_2R2EE16expected_optionsEv
FN:35,40,_ZN5neml215IntermediateSumINS_2R3EE16expected_optionsEv
FN:35,40,_ZN5neml215IntermediateSumINS_2R4EE16expected_optionsEv
FN:35,40,_ZN5neml215IntermediateSumINS_3RotEE16expected_optionsEv
FN:35,40,_ZN5neml215IntermediateSumINS_3SR2EE16expected_optionsEv
FN:35,40,_ZN5neml215IntermediateSumINS_3VecEE16expected_optionsEv
FN:35,40,_ZN5neml215IntermediateSumINS_3WR2EE16expected_optionsEv
FN:35,40,_ZN5neml215IntermediateSumINS_4SFR3EE16expected_optionsEv
FN:35,40,_ZN5neml215IntermediateSumINS_4SSR4EE16expected_optionsEv
FN:35,40,_ZN5neml215IntermediateSumINS_4SWR4EE16expected_optionsEv
FN:35,40,_ZN5neml215IntermediateSumINS_4WSR4EE16expected_optionsEv
FN:35,40,_ZN5neml215IntermediateSumINS_4WWR4EE16expected_optionsEv
FN:35,40,_ZN5neml215IntermediateSumINS_5SFFR4EE16expected_optionsEv
FN:35,40,_ZN5neml215IntermediateSumINS_5WFFR4EE16expected_optionsEv
FN:35,40,_ZN5neml215IntermediateSumINS_6ScalarEE16expected_optionsEv
FN:43,47,_ZN5neml215IntermediateSumINS_10QuaternionEEC2ERKNS_9OptionSetE
FN:43,47,_ZN5neml215IntermediateSumINS_11MillerIndexEEC2ERKNS_9OptionSetE
FN:43,47,_ZN5neml215IntermediateSumINS_2R2EEC2ERKNS_9OptionSetE
FN:43,47,_ZN5neml215IntermediateSumINS_2R3EEC2ERKNS_9OptionSetE
FN:43,47,_ZN5neml215IntermediateSumINS_2R4EEC2ERKNS_9OptionSetE
FN:43,47,_ZN5neml215IntermediateSumINS_3RotEEC2ERKNS_9OptionSetE
FN:43,47,_ZN5neml215IntermediateSumINS_3SR2EEC2ERKNS_9OptionSetE
FN:43,47,_ZN5neml215IntermediateSumINS_3VecEEC2ERKNS_9OptionSetE
FN:43,47,_ZN5neml215IntermediateSumINS_3WR2EEC2ERKNS_9OptionSetE
FN:43,47,_ZN5neml215IntermediateSumINS_4SFR3EEC2ERKNS_9OptionSetE
FN:43,47,_ZN5neml215IntermediateSumINS_4SSR4EEC2ERKNS_9OptionSetE
FN:43,47,_ZN5neml215IntermediateSumINS_4SWR4EEC2ERKNS_9OptionSetE
FN:43,47,_ZN5neml215IntermediateSumINS_4WSR4EEC2ERKNS_9OptionSetE
FN:43,47,_ZN5neml215IntermediateSumINS_4WWR4EEC2ERKNS_9OptionSetE
FN:43,47,_ZN5neml215IntermediateSumINS_5SFFR4EEC2ERKNS_9OptionSetE
FN:43,47,_ZN5neml215IntermediateSumINS_5WFFR4EEC2ERKNS_9OptionSetE
FN:43,47,_ZN5neml215IntermediateSumINS_6ScalarEEC2ERKNS_9OptionSetE
FN:51,58,_ZN5neml215IntermediateSumINS_10QuaternionEE9set_valueEbbb
FN:51,58,_ZN5neml215IntermediateSumINS_11MillerIndexEE9set_valueEbbb
FN:51,58,_ZN5neml215IntermediateSumINS_2R2EE9set_valueEbbb
FN:51,58,_ZN5neml215IntermediateSumINS_2R3EE9set_valueEbbb
FN:51,58,_ZN5neml215IntermediateSumINS_2R4EE9set_valueEbbb
FN:51,58,_ZN5neml215IntermediateSumINS_3RotEE9set_valueEbbb
FN:51,58,_ZN5neml215IntermediateSumINS_3SR2EE9set_valueEbbb
FN:51,58,_ZN5neml215IntermediateSumINS_3VecEE9set_valueEbbb
FN:51,58,_ZN5neml215IntermediateSumINS_3WR2EE9set_valueEbbb
FN:51,58,_ZN5neml215IntermediateSumINS_4SFR3EE9set_valueEbbb
FN:51,58,_ZN5neml215IntermediateSumINS_4SSR4EE9set_valueEbbb
FN:51,58,_ZN5neml215IntermediateSumINS_4SWR4EE9set_valueEbbb
FN:51,58,_ZN5neml215IntermediateSumINS_4WSR4EE9set_valueEbbb
FN:51,58,_ZN5neml215IntermediateSumINS_4WWR4EE9set_valueEbbb
FN:51,58,_ZN5neml215IntermediateSumINS_5SFFR4EE9set_valueEbbb
FN:51,58,_ZN5neml215IntermediateSumINS_5WFFR4EE9set_valueEbbb
FN:51,58,_ZN5neml215IntermediateSumINS_6ScalarEE9set_valueEbbb
FNDA:1,_ZN5neml215IntermediateSumINS_10QuaternionEE16expected_optionsEv
FNDA:1,_ZN5neml215IntermediateSumINS_11MillerIndexEE16expected_optionsEv
FNDA:1,_ZN5neml215IntermediateSumINS_2R2EE16expected_optionsEv
FNDA:1,_ZN5neml215IntermediateSumINS_2R3EE16expected_optionsEv
FNDA:1,_ZN5neml215IntermediateSumINS_2R4EE16expected_optionsEv
FNDA:1,_ZN5neml215IntermediateSumINS_3RotEE16expected_optionsEv
FNDA:1,_ZN5neml215IntermediateSumINS_3SR2EE16expected_optionsEv
FNDA:1,_ZN5neml215IntermediateSumINS_3VecEE16expected_optionsEv
FNDA:1,_ZN5neml215IntermediateSumINS_3WR2EE16expected_optionsEv
FNDA:1,_ZN5neml215IntermediateSumINS_4SFR3EE16expected_optionsEv
FNDA:1,_ZN5neml215IntermediateSumINS_4SSR4EE16expected_optionsEv
FNDA:1,_ZN5neml215IntermediateSumINS_4SWR4EE16expected_optionsEv
FNDA:1,_ZN5neml215IntermediateSumINS_4WSR4EE16expected_optionsEv
FNDA:1,_ZN5neml215IntermediateSumINS_4WWR4EE16expected_optionsEv
FNDA:1,_ZN5neml215IntermediateSumINS_5SFFR4EE16expected_optionsEv
FNDA:1,_ZN5neml215IntermediateSumINS_5WFFR4EE16expected_optionsEv
FNDA:1,_ZN5neml215IntermediateSumINS_6ScalarEE16expected_optionsEv
FNDA:0,_ZN5neml215IntermediateSumINS_10QuaternionEEC2ERKNS_9OptionSetE
FNDA:0,_ZN5neml215IntermediateSumINS_11MillerIndexEEC2ERKNS_9OptionSetE
FNDA:0,_ZN5neml215IntermediateSumINS_2R2EEC2ERKNS_9OptionSetE
FNDA:0,_ZN5neml215IntermediateSumINS_2R3EEC2ERKNS_9OptionSetE
FNDA:0,_ZN5neml215IntermediateSumINS_2R4EEC2ERKNS_9OptionSetE
FNDA:0,_ZN5neml215IntermediateSumINS_3RotEEC2ERKNS_9OptionSetE
FNDA:1,_ZN5neml215IntermediateSumINS_3SR2EEC2ERKNS_9OptionSetE
FNDA:0,_ZN5neml215IntermediateSumINS_3VecEEC2ERKNS_9OptionSetE
FNDA:0,_ZN5neml215IntermediateSumINS_3WR2EEC2ERKNS_9OptionSetE
FNDA:0,_ZN5neml215IntermediateSumINS_4SFR3EEC2ERKNS_9OptionSetE
FNDA:0,_ZN5neml215IntermediateSumINS_4SSR4EEC2ERKNS_9OptionSetE
FNDA:0,_ZN5neml215IntermediateSumINS_4SWR4EEC2ERKNS_9OptionSetE
FNDA:0,_ZN5neml215IntermediateSumINS_4WSR4EEC2ERKNS_9OptionSetE
FNDA:0,_ZN5neml215IntermediateSumINS_4WWR4EEC2ERKNS_9OptionSetE
FNDA:0,_ZN5neml215IntermediateSumINS_5SFFR4EEC2ERKNS_9OptionSetE
FNDA:0,_ZN5neml215IntermediateSumINS_5WFFR4EEC2ERKNS_9OptionSetE
FNDA:1,_ZN5neml215IntermediateSumINS_6ScalarEEC2ERKNS_9OptionSetE
FNDA:0,_ZN5neml215IntermediateSumINS_10QuaternionEE9set_valueEbbb
FNDA:0,_ZN5neml215IntermediateSumINS_11MillerIndexEE9set_valueEbbb
FNDA:0,_ZN5neml215IntermediateSumINS_2R2EE9set_valueEbbb
FNDA:0,_ZN5neml215IntermediateSumINS_2R3EE9set_valueEbbb
FNDA:0,_ZN5neml215IntermediateSumINS_2R4EE9set_valueEbbb
FNDA:0,_ZN5neml215IntermediateSumINS_3RotEE9set_valueEbbb
FNDA:2,_ZN5neml215IntermediateSumINS_3SR2EE9set_valueEbbb
FNDA:0,_ZN5neml215IntermediateSumINS_3VecEE9set_valueEbbb
FNDA:0,_ZN5neml215IntermediateSumINS_3WR2EE9set_valueEbbb
FNDA:0,_ZN5neml215IntermediateSumINS_4SFR3EE9set_valueEbbb
FNDA:0,_ZN5neml215IntermediateSumINS_4SSR4EE9set_valueEbbb
FNDA:0,_ZN5neml215IntermediateSumINS_4SWR4EE9set_valueEbbb
FNDA:0,_ZN5neml215IntermediateSumINS_4WSR4EE9set_valueEbbb
FNDA:0,_ZN5neml215IntermediateSumINS_4WWR4EE9set_valueEbbb
FNDA:0,_ZN5neml215IntermediateSumINS_5SFFR4EE9set_valueEbbb
FNDA:0,_ZN5neml215IntermediateSumINS_5WFFR4EE9set_valueEbbb
FNDA:2,_ZN5neml215IntermediateSumINS_6ScalarEE9set_valueEbbb
FNF:51
FNH:21
DA:35,17
DA:37,17
DA:38,17
DA:39,17
DA:40,0
DA:43,2
DA:45,2
DA:47,2
DA:51,4
DA:53,4
DA:54,4
DA:56,4
DA:57,2
DA:58,4
LF:14
LH:13
end_of_record
TN:
SF:/home/runner/work/neml2/neml2/src/neml2/models/common/Interpolation.cxx
FN:103,109,_ZN5neml213InterpolationINS_10QuaternionEEC2ERKNS_9OptionSetE
FN:103,109,_ZN5neml213InterpolationINS_11MillerIndexEEC2ERKNS_9OptionSetE
FN:103,109,_ZN5neml213InterpolationINS_2R2EEC2ERKNS_9OptionSetE
FN:103,109,_ZN5neml213InterpolationINS_2R3EEC2ERKNS_9OptionSetE
FN:103,109,_ZN5neml213InterpolationINS_2R4EEC2ERKNS_9OptionSetE
FN:103,109,_ZN5neml213InterpolationINS_3RotEEC2ERKNS_9OptionSetE
FN:103,109,_ZN5neml213InterpolationINS_3SR2EEC2ERKNS_9OptionSetE
FN:103,109,_ZN5neml213InterpolationINS_3VecEEC2ERKNS_9OptionSetE
FN:103,109,_ZN5neml213InterpolationINS_3WR2EEC2ERKNS_9OptionSetE
FN:103,109,_ZN5neml213InterpolationINS_4SFR3EEC2ERKNS_9OptionSetE
FN:103,109,_ZN5neml213InterpolationINS_4SSR4EEC2ERKNS_9OptionSetE
FN:103,109,_ZN5neml213InterpolationINS_4SWR4EEC2ERKNS_9OptionSetE
FN:103,109,_ZN5neml213InterpolationINS_4WSR4EEC2ERKNS_9OptionSetE
FN:103,109,_ZN5neml213InterpolationINS_4WWR4EEC2ERKNS_9OptionSetE
FN:103,109,_ZN5neml213InterpolationINS_5SFFR4EEC2ERKNS_9OptionSetE
FN:103,109,_ZN5neml213InterpolationINS_5WFFR4EEC2ERKNS_9OptionSetE
FN:103,109,_ZN5neml213InterpolationINS_6ScalarEEC2ERKNS_9OptionSetE
FN:34,78,_ZN5neml222parametric_coordinatesERKNS_6ScalarES2_
FN:82,100,_ZN5neml213InterpolationINS_10QuaternionEE16expected_optionsEv
FN:82,100,_ZN5neml213InterpolationINS_11MillerIndexEE16expected_optionsEv
FN:82,100,_ZN5neml213InterpolationINS_2R2EE16expected_optionsEv
FN:82,100,_ZN5neml213InterpolationINS_2R3EE16expected_optionsEv
FN:82,100,_ZN5neml213InterpolationINS_2R4EE16expected_optionsEv
FN:82,100,_ZN5neml213InterpolationINS_3RotEE16expected_optionsEv
FN:82,100,_ZN5neml213InterpolationINS_3SR2EE16expected_optionsEv
FN:82,100,_ZN5neml213InterpolationINS_3VecEE16expected_optionsEv
FN:82,100,_ZN5neml213InterpolationINS_3WR2EE16expected_optionsEv
FN:82,100,_ZN5neml213InterpolationINS_4SFR3EE16expected_optionsEv
FN:82,100,_ZN5neml213InterpolationINS_4SSR4EE16expected_optionsEv
FN:82,100,_ZN5neml213InterpolationINS_4SWR4EE16expected_optionsEv
FN:82,100,_ZN5neml213InterpolationINS_4WSR4EE16expected_optionsEv
FN:82,100,_ZN5neml213InterpolationINS_4WWR4EE16expected_optionsEv
FN:82,100,_ZN5neml213InterpolationINS_5SFFR4EE16expected_optionsEv
FN:82,100,_ZN5neml213InterpolationINS_5WFFR4EE16expected_optionsEv
FN:82,100,_ZN5neml213InterpolationINS_6ScalarEE16expected_optionsEv
FNDA:0,_ZN5neml213InterpolationINS_10QuaternionEEC2ERKNS_9OptionSetE
FNDA:0,_ZN5neml213InterpolationINS_11MillerIndexEEC2ERKNS_9OptionSetE
FNDA:0,_ZN5neml213InterpolationINS_2R2EEC2ERKNS_9OptionSetE
FNDA:0,_ZN5neml213InterpolationINS_2R3EEC2ERKNS_9OptionSetE
FNDA:0,_ZN5neml213InterpolationINS_2R4EEC2ERKNS_9OptionSetE
FNDA:0,_ZN5neml213InterpolationINS_3RotEEC2ERKNS_9OptionSetE
FNDA:4,_ZN5neml213InterpolationINS_3SR2EEC2ERKNS_9OptionSetE
FNDA:0,_ZN5neml213InterpolationINS_3VecEEC2ERKNS_9OptionSetE
FNDA:0,_ZN5neml213InterpolationINS_3WR2EEC2ERKNS_9OptionSetE
FNDA:0,_ZN5neml213InterpolationINS_4SFR3EEC2ERKNS_9OptionSetE
FNDA:0,_ZN5neml213InterpolationINS_4SSR4EEC2ERKNS_9OptionSetE
FNDA:0,_ZN5neml213InterpolationINS_4SWR4EEC2ERKNS_9OptionSetE
FNDA:0,_ZN5neml213InterpolationINS_4WSR4EEC2ERKNS_9OptionSetE
FNDA:0,_ZN5neml213InterpolationINS_4WWR4EEC2ERKNS_9OptionSetE
FNDA:0,_ZN5neml213InterpolationINS_5SFFR4EEC2ERKNS_9OptionSetE
FNDA:0,_ZN5neml213InterpolationINS_5WFFR4EEC2ERKNS_9OptionSetE
FNDA:14,_ZN5neml213InterpolationINS_6ScalarEEC2ERKNS_9OptionSetE
FNDA:61,_ZN5neml222parametric_coordinatesERKNS_6ScalarES2_
FNDA:0,_ZN5neml213InterpolationINS_10QuaternionEE16expected_optionsEv
FNDA:0,_ZN5neml213InterpolationINS_11MillerIndexEE16expected_optionsEv
FNDA:0,_ZN5neml213InterpolationINS_2R2EE16expected_optionsEv
FNDA:0,_ZN5neml213InterpolationINS_2R3EE16expected_optionsEv
FNDA:0,_ZN5neml213InterpolationINS_2R4EE16expected_optionsEv
FNDA:0,_ZN5neml213InterpolationINS_3RotEE16expected_optionsEv
FNDA:2,_ZN5neml213InterpolationINS_3SR2EE16expected_optionsEv
FNDA:2,_ZN5neml213InterpolationINS_3VecEE16expected_optionsEv
FNDA:0,_ZN5neml213InterpolationINS_3WR2EE16expected_optionsEv
FNDA:0,_ZN5neml213InterpolationINS_4SFR3EE16expected_optionsEv
FNDA:0,_ZN5neml213InterpolationINS_4SSR4EE16expected_optionsEv
FNDA:0,_ZN5neml213InterpolationINS_4SWR4EE16expected_optionsEv
FNDA:0,_ZN5neml213InterpolationINS_4WSR4EE16expected_optionsEv
FNDA:0,_ZN5neml213InterpolationINS_4WWR4EE16expected_optionsEv
FNDA:0,_ZN5neml213InterpolationINS_5SFFR4EE16expected_optionsEv
FNDA:0,_ZN5neml213InterpolationINS_5WFFR4EE16expected_optionsEv
FNDA:2,_ZN5neml213InterpolationINS_6ScalarEE16expected_optionsEv
FNF:35
FNH:6
DA:34,61
DA:37,61
DA:38,61
DA:39,61
DA:40,61
DA:41,61
DA:44,244
DA:45,244
DA:48,61
DA:49,61
DA:53,61
DA:55,0
DA:56,0
DA:57,0
DA:58,0
DA:59,0
DA:70,0
DA:73,61
DA:74,61
DA:75,61
DA:76,61
DA:77,122
DA:78,305
DA:82,6
DA:86,6
DA:88,6
DA:89,6
DA:93,18
DA:95,18
DA:99,12
DA:100,6
DA:103,18
DA:105,72
DA:106,36
DA:107,36
DA:109,18
LF:36
LH:30
end_of_record
TN:
SF:/home/runner/work/neml2/neml2/src/neml2/models/common/LinearCombination.cxx
FN:131,154,_ZN5neml217LinearCombinationINS_2R2EE9set_valueEbbb
FN:131,154,_ZN5neml217LinearCombinationINS_3SR2EE9set_valueEbbb
FN:131,154,_ZN5neml217LinearCombinationINS_3VecEE9set_valueEbbb
FN:131,154,_ZN5neml217LinearCombinationINS_6ScalarEE9set_valueEbbb
FN:38,79,_ZN5neml217LinearCombinationINS_2R2EE16expected_optionsEv
FN:38,79,_ZN5neml217LinearCombinationINS_3SR2EE16expected_optionsEv
FN:38,79,_ZN5neml217LinearCombinationINS_3VecEE16expected_optionsEv
FN:38,79,_ZN5neml217LinearCombinationINS_6ScalarEE16expected_optionsEv
FN:82,127,_ZN5neml217LinearCombinationINS_2R2EEC2ERKNS_9OptionSetE
FN:82,127,_ZN5neml217LinearCombinationINS_3SR2EEC2ERKNS_9OptionSetE
FN:82,127,_ZN5neml217LinearCombinationINS_3VecEEC2ERKNS_9OptionSetE
FN:82,127,_ZN5neml217LinearCombinationINS_6ScalarEEC2ERKNS_9OptionSetE
FNDA:0,_ZN5neml217LinearCombinationINS_2R2EE9set_valueEbbb
FNDA:32,_ZN5neml217LinearCombinationINS_3SR2EE9set_valueEbbb
FNDA:0,_ZN5neml217LinearCombinationINS_3VecEE9set_valueEbbb
FNDA:30,_ZN5neml217LinearCombinationINS_6ScalarEE9set_valueEbbb
FNDA:1,_ZN5neml217LinearCombinationINS_2R2EE16expected_optionsEv
FNDA:1,_ZN5neml217LinearCombinationINS_3SR2EE16expected_optionsEv
FNDA:1,_ZN5neml217LinearCombinationINS_3VecEE16expected_optionsEv
FNDA:2,_ZN5neml217LinearCombinationINS_6ScalarEE16expected_optionsEv
FNDA:0,_ZN5neml217LinearCombinationINS_2R2EEC2ERKNS_9OptionSetE
FNDA:9,_ZN5neml217LinearCombinationINS_3SR2EEC2ERKNS_9OptionSetE
FNDA:0,_ZN5neml217LinearCombinationINS_3VecEEC2ERKNS_9OptionSetE
FNDA:21,_ZN5neml217LinearCombinationINS_6ScalarEEC2ERKNS_9OptionSetE
FNF:12
FNH:8
DA:38,5
DA:42,5
DA:44,5
DA:45,5
DA:51,10
DA:53,15
DA:55,20
DA:57,35
DA:63,15
DA:64,15
DA:66,15
DA:67,10
DA:71,25
DA:78,10
DA:79,25
DA:82,30
DA:84,30
DA:86,121
DA:87,61
DA:89,30
DA:90,30
DA:92,30
DA:94,30
DA:98,30
DA:99,24
DA:101,30
DA:102,30
DA:104,30
DA:106,30
DA:110,30
DA:111,91
DA:113,61
DA:114,61
DA:115,24
DA:116,12
DA:118,49
DA:121,60
DA:123,9
DA:124,33
DA:125,37
DA:127,30
DA:131,62
DA:133,62
DA:135,62
DA:136,124
DA:137,62
DA:138,62
DA:139,62
DA:141,62
DA:143,36
DA:144,108
DA:146,72
DA:148,72
DA:149,7
DA:151,108
DA:152,2
DA:153,36
DA:154,62
LF:58
LH:58
end_of_record
TN:
SF:/home/runner/work/neml2/neml2/src/neml2/models/common/LinearInterpolation.cxx
FN:36,47,_ZN5neml219LinearInterpolationINS_3SR2EE16expected_optionsEv
FN:36,47,_ZN5neml219LinearInterpolationINS_3VecEE16expected_optionsEv
FN:36,47,_ZN5neml219LinearInterpolationINS_6ScalarEE16expected_optionsEv
FN:50,55,_ZN5neml219LinearInterpolationINS_3SR2EEC2ERKNS_9OptionSetE
FN:50,55,_ZN5neml219LinearInterpolationINS_3VecEEC2ERKNS_9OptionSetE
FN:50,55,_ZN5neml219LinearInterpolationINS_6ScalarEEC2ERKNS_9OptionSetE
FN:59,94,_ZN5neml219LinearInterpolationINS_3SR2EE9set_valueEbbb
FN:59,94,_ZN5neml219LinearInterpolationINS_3VecEE9set_valueEbbb
FN:59,94,_ZN5neml219LinearInterpolationINS_6ScalarEE9set_valueEbbb
FNDA:1,_ZN5neml219LinearInterpolationINS_3SR2EE16expected_optionsEv
FNDA:1,_ZN5neml219LinearInterpolationINS_3VecEE16expected_optionsEv
FNDA:1,_ZN5neml219LinearInterpolationINS_6ScalarEE16expected_optionsEv
FNDA:4,_ZN5neml219LinearInterpolationINS_3SR2EEC2ERKNS_9OptionSetE
FNDA:0,_ZN5neml219LinearInterpolationINS_3VecEEC2ERKNS_9OptionSetE
FNDA:10,_ZN5neml219LinearInterpolationINS_6ScalarEEC2ERKNS_9OptionSetE
FNDA:12,_ZN5neml219LinearInterpolationINS_3SR2EE9set_valueEbbb
FNDA:0,_ZN5neml219LinearInterpolationINS_3VecEE9set_valueEbbb
FNDA:25,_ZN5neml219LinearInterpolationINS_6ScalarEE9set_valueEbbb
FNF:9
FNH:7
DA:36,3
DA:38,3
DA:39,3
DA:41,9
DA:43,12
DA:44,9
DA:46,3
DA:47,0
DA:50,14
DA:52,42
DA:53,28
DA:55,14
DA:59,37
DA:63,37
DA:72,37
DA:73,37
DA:76,37
DA:80,37
DA:83,37
DA:84,37
DA:85,37
DA:86,37
DA:87,37
DA:89,37
DA:90,37
DA:92,37
DA:93,15
DA:94,37
LF:28
LH:27
end_of_record
TN:
SF:/home/runner/work/neml2/neml2/src/neml2/models/common/MixedControlSetup.cxx
FN:35,64,_ZN5neml217MixedControlSetup16expected_optionsEv
FN:66,75,_ZN5neml217MixedControlSetupC2ERKNS_9OptionSetE
FN:78,95,_ZN5neml217MixedControlSetup9set_valueEbbb
FN:98,111,_ZNK5neml217MixedControlSetup14make_operatorsERKNS_3SR2E
FNDA:1,_ZN5neml217MixedControlSetup16expected_optionsEv
FNDA:1,_ZN5neml217MixedControlSetupC2ERKNS_9OptionSetE
FNDA:2,_ZN5neml217MixedControlSetup9set_valueEbbb
FNDA:2,_ZNK5neml217MixedControlSetup14make_operatorsERKNS_3SR2E
FNF:4
FNH:4
DA:35,1
DA:37,1
DA:38,1
DA:43,1
DA:45,4
DA:46,3
DA:47,3
DA:49,4
DA:53,4
DA:58,4
DA:60,3
DA:63,1
DA:64,0
DA:66,1
DA:68,3
DA:69,1
DA:70,1
DA:71,1
DA:72,1
DA:73,2
DA:75,1
DA:78,2
DA:80,2
DA:82,2
DA:84,2
DA:85,2
DA:88,2
DA:90,1
DA:91,1
DA:92,1
DA:93,1
DA:95,2
DA:98,2
DA:100,2
DA:101,2
DA:104,2
DA:105,2
DA:107,2
DA:108,2
DA:110,4
DA:111,2
LF:41
LH:40
end_of_record
TN:
SF:/home/runner/work/neml2/neml2/src/neml2/models/common/ParameterToVariable.cxx
FN:34,45,_ZN5neml219ParameterToVariableINS_10QuaternionEE16expected_optionsEv
FN:34,45,_ZN5neml219ParameterToVariableINS_11MillerIndexEE16expected_optionsEv
FN:34,45,_ZN5neml219ParameterToVariableINS_2R2EE16expected_optionsEv
FN:34,45,_ZN5neml219ParameterToVariableINS_2R3EE16expected_optionsEv
FN:34,45,_ZN5neml219ParameterToVariableINS_2R4EE16expected_optionsEv
FN:34,45,_ZN5neml219ParameterToVariableINS_3RotEE16expected_optionsEv
FN:34,45,_ZN5neml219ParameterToVariableINS_3SR2EE16expected_optionsEv
FN:34,45,_ZN5neml219ParameterToVariableINS_3VecEE16expected_optionsEv
FN:34,45,_ZN5neml219ParameterToVariableINS_3WR2EE16expected_optionsEv
FN:34,45,_ZN5neml219ParameterToVariableINS_4SFR3EE16expected_optionsEv
FN:34,45,_ZN5neml219ParameterToVariableINS_4SSR4EE16expected_optionsEv
FN:34,45,_ZN5neml219ParameterToVariableINS_4SWR4EE16expected_optionsEv
FN:34,45,_ZN5neml219ParameterToVariableINS_4WSR4EE16expected_optionsEv
FN:34,45,_ZN5neml219ParameterToVariableINS_4WWR4EE16expected_optionsEv
FN:34,45,_ZN5neml219ParameterToVariableINS_5SFFR4EE16expected_optionsEv
FN:34,45,_ZN5neml219ParameterToVariableINS_5WFFR4EE16expected_optionsEv
FN:34,45,_ZN5neml219ParameterToVariableINS_6ScalarEE16expected_optionsEv
FN:48,53,_ZN5neml219ParameterToVariableINS_10QuaternionEEC2ERKNS_9OptionSetE
FN:48,53,_ZN5neml219ParameterToVariableINS_11MillerIndexEEC2ERKNS_9OptionSetE
FN:48,53,_ZN5neml219ParameterToVariableINS_2R2EEC2ERKNS_9OptionSetE
FN:48,53,_ZN5neml219ParameterToVariableINS_2R3EEC2ERKNS_9OptionSetE
FN:48,53,_ZN5neml219ParameterToVariableINS_2R4EEC2ERKNS_9OptionSetE
FN:48,53,_ZN5neml219ParameterToVariableINS_3RotEEC2ERKNS_9OptionSetE
FN:48,53,_ZN5neml219ParameterToVariableINS_3SR2EEC2ERKNS_9OptionSetE
FN:48,53,_ZN5neml219ParameterToVariableINS_3VecEEC2ERKNS_9OptionSetE
FN:48,53,_ZN5neml219ParameterToVariableINS_3WR2EEC2ERKNS_9OptionSetE
FN:48,53,_ZN5neml219ParameterToVariableINS_4SFR3EEC2ERKNS_9OptionSetE
FN:48,53,_ZN5neml219ParameterToVariableINS_4SSR4EEC2ERKNS_9OptionSetE
FN:48,53,_ZN5neml219ParameterToVariableINS_4SWR4EEC2ERKNS_9OptionSetE
FN:48,53,_ZN5neml219ParameterToVariableINS_4WSR4EEC2ERKNS_9OptionSetE
FN:48,53,_ZN5neml219ParameterToVariableINS_4WWR4EEC2ERKNS_9OptionSetE
FN:48,53,_ZN5neml219ParameterToVariableINS_5SFFR4EEC2ERKNS_9OptionSetE
FN:48,53,_ZN5neml219ParameterToVariableINS_5WFFR4EEC2ERKNS_9OptionSetE
FN:48,53,_ZN5neml219ParameterToVariableINS_6ScalarEEC2ERKNS_9OptionSetE
FN:57,61,_ZN5neml219ParameterToVariableINS_10QuaternionEE9set_valueEbbb
FN:57,61,_ZN5neml219ParameterToVariableINS_11MillerIndexEE9set_valueEbbb
FN:57,61,_ZN5neml219ParameterToVariableINS_2R2EE9set_valueEbbb
FN:57,61,_ZN5neml219ParameterToVariableINS_2R3EE9set_valueEbbb
FN:57,61,_ZN5neml219ParameterToVariableINS_2R4EE9set_valueEbbb
FN:57,61,_ZN5neml219ParameterToVariableINS_3RotEE9set_valueEbbb
FN:57,61,_ZN5neml219ParameterToVariableINS_3SR2EE9set_valueEbbb
FN:57,61,_ZN5neml219ParameterToVariableINS_3VecEE9set_valueEbbb
FN:57,61,_ZN5neml219ParameterToVariableINS_3WR2EE9set_valueEbbb
FN:57,61,_ZN5neml219ParameterToVariableINS_4SFR3EE9set_valueEbbb
FN:57,61,_ZN5neml219ParameterToVariableINS_4SSR4EE9set_valueEbbb
FN:57,61,_ZN5neml219ParameterToVariableINS_4SWR4EE9set_valueEbbb
FN:57,61,_ZN5neml219ParameterToVariableINS_4WSR4EE9set_valueEbbb
FN:57,61,_ZN5neml219ParameterToVariableINS_4WWR4EE9set_valueEbbb
FN:57,61,_ZN5neml219ParameterToVariableINS_5SFFR4EE9set_valueEbbb
FN:57,61,_ZN5neml219ParameterToVariableINS_5WFFR4EE9set_valueEbbb
FN:57,61,_ZN5neml219ParameterToVariableINS_6ScalarEE9set_valueEbbb
FNDA:1,_ZN5neml219ParameterToVariableINS_10QuaternionEE16expected_optionsEv
FNDA:1,_ZN5neml219ParameterToVariableINS_11MillerIndexEE16expected_optionsEv
FNDA:1,_ZN5neml219ParameterToVariableINS_2R2EE16expected_optionsEv
FNDA:1,_ZN5neml219ParameterToVariableINS_2R3EE16expected_optionsEv
FNDA:1,_ZN5neml219ParameterToVariableINS_2R4EE16expected_optionsEv
FNDA:1,_ZN5neml219ParameterToVariableINS_3RotEE16expected_optionsEv
FNDA:1,_ZN5neml219ParameterToVariableINS_3SR2EE16expected_optionsEv
FNDA:1,_ZN5neml219ParameterToVariableINS_3VecEE16expected_optionsEv
FNDA:1,_ZN5neml219ParameterToVariableINS_3WR2EE16expected_optionsEv
FNDA:1,_ZN5neml219ParameterToVariableINS_4SFR3EE16expected_optionsEv
FNDA:1,_ZN5neml219ParameterToVariableINS_4SSR4EE16expected_optionsEv
FNDA:1,_ZN5neml219ParameterToVariableINS_4SWR4EE16expected_optionsEv
FNDA:1,_ZN5neml219ParameterToVariableINS_4WSR4EE16expected_optionsEv
FNDA:1,_ZN5neml219ParameterToVariableINS_4WWR4EE16expected_optionsEv
FNDA:1,_ZN5neml219ParameterToVariableINS_5SFFR4EE16expected_optionsEv
FNDA:1,_ZN5neml219ParameterToVariableINS_5WFFR4EE16expected_optionsEv
FNDA:1,_ZN5neml219ParameterToVariableINS_6ScalarEE16expected_optionsEv
FNDA:0,_ZN5neml219ParameterToVariableINS_10QuaternionEEC2ERKNS_9OptionSetE
FNDA:0,_ZN5neml219ParameterToVariableINS_11MillerIndexEEC2ERKNS_9OptionSetE
FNDA:0,_ZN5neml219ParameterToVariableINS_2R2EEC2ERKNS_9OptionSetE
FNDA:0,_ZN5neml219ParameterToVariableINS_2R3EEC2ERKNS_9OptionSetE
FNDA:0,_ZN5neml219ParameterToVariableINS_2R4EEC2ERKNS_9OptionSetE
FNDA:0,_ZN5neml219ParameterToVariableINS_3RotEEC2ERKNS_9OptionSetE
FNDA:0,_ZN5neml219ParameterToVariableINS_3SR2EEC2ERKNS_9OptionSetE
FNDA:0,_ZN5neml219ParameterToVariableINS_3VecEEC2ERKNS_9OptionSetE
FNDA:0,_ZN5neml219ParameterToVariableINS_3WR2EEC2ERKNS_9OptionSetE
FNDA:0,_ZN5neml219ParameterToVariableINS_4SFR3EEC2ERKNS_9OptionSetE
FNDA:0,_ZN5neml219ParameterToVariableINS_4SSR4EEC2ERKNS_9OptionSetE
FNDA:0,_ZN5neml219ParameterToVariableINS_4SWR4EEC2ERKNS_9OptionSetE
FNDA:0,_ZN5neml219ParameterToVariableINS_4WSR4EEC2ERKNS_9OptionSetE
FNDA:0,_ZN5neml219ParameterToVariableINS_4WWR4EEC2ERKNS_9OptionSetE
FNDA:0,_ZN5neml219ParameterToVariableINS_5SFFR4EEC2ERKNS_9OptionSetE
FNDA:0,_ZN5neml219ParameterToVariableINS_5WFFR4EEC2ERKNS_9OptionSetE
FNDA:1,_ZN5neml219ParameterToVariableINS_6ScalarEEC2ERKNS_9OptionSetE
FNDA:0,_ZN5neml219ParameterToVariableINS_10QuaternionEE9set_valueEbbb
FNDA:0,_ZN5neml219ParameterToVariableINS_11MillerIndexEE9set_valueEbbb
FNDA:0,_ZN5neml219ParameterToVariableINS_2R2EE9set_valueEbbb
FNDA:0,_ZN5neml219ParameterToVariableINS_2R3EE9set_valueEbbb
FNDA:0,_ZN5neml219ParameterToVariableINS_2R4EE9set_valueEbbb
FNDA:0,_ZN5neml219ParameterToVariableINS_3RotEE9set_valueEbbb
FNDA:0,_ZN5neml219ParameterToVariableINS_3SR2EE9set_valueEbbb
FNDA:0,_ZN5neml219ParameterToVariableINS_3VecEE9set_valueEbbb
FNDA:0,_ZN5neml219ParameterToVariableINS_3WR2EE9set_valueEbbb
FNDA:0,_ZN5neml219ParameterToVariableINS_4SFR3EE9set_valueEbbb
FNDA:0,_ZN5neml219ParameterToVariableINS_4SSR4EE9set_valueEbbb
FNDA:0,_ZN5neml219ParameterToVariableINS_4SWR4EE9set_valueEbbb
FNDA:0,_ZN5neml219ParameterToVariableINS_4WSR4EE9set_valueEbbb
FNDA:0,_ZN5neml219ParameterToVariableINS_4WWR4EE9set_valueEbbb
FNDA:0,_ZN5neml219ParameterToVariableINS_5SFFR4EE9set_valueEbbb
FNDA:0,_ZN5neml219ParameterToVariableINS_5WFFR4EE9set_valueEbbb
FNDA:2,_ZN5neml219ParameterToVariableINS_6ScalarEE9set_valueEbbb
FNF:51
FNH:19
DA:34,17
DA:36,17
DA:37,17
DA:39,51
DA:41,68
DA:42,51
DA:44,17
DA:45,0
DA:48,1
DA:50,3
DA:51,2
DA:53,1
DA:57,2
DA:59,2
DA:60,2
DA:61,2
LF:16
LH:15
end_of_record
TN:
SF:/home/runner/work/neml2/neml2/src/neml2/models/common/R2Multiplication.cxx
FN:33,50,_ZN5neml216R2Multiplication16expected_optionsEv
FN:52,62,_ZN5neml216R2MultiplicationC2ERKNS_9OptionSetE
FN:65,122,_ZN5neml216R2Multiplication9set_valueEbbb
FNDA:1,_ZN5neml216R2Multiplication16expected_optionsEv
FNDA:4,_ZN5neml216R2MultiplicationC2ERKNS_9OptionSetE
FNDA:8,_ZN5neml216R2Multiplication9set_valueEbbb
FNF:3
FNH:3
DA:33,1
DA:35,1
DA:36,1
DA:37,1
DA:39,4
DA:40,4
DA:41,4
DA:43,4
DA:44,4
DA:45,4
DA:47,3
DA:49,1
DA:50,0
DA:52,4
DA:54,8
DA:55,4
DA:56,4
DA:57,8
DA:58,8
DA:59,8
DA:60,8
DA:62,4
DA:65,8
DA:67,8
DA:68,8
DA:69,0
DA:71,8
DA:72,8
DA:73,0
DA:75,8
DA:77,8
DA:78,8
DA:80,8
DA:82,4
DA:84,4
DA:86,2
DA:87,0
DA:88,0
DA:90,4
DA:91,6
DA:95,2
DA:96,0
DA:97,0
DA:99,4
DA:100,6
DA:103,4
DA:105,2
DA:106,0
DA:107,0
DA:109,4
DA:110,6
DA:114,2
DA:115,0
DA:116,0
DA:118,4
DA:119,6
DA:121,4
DA:122,8
LF:58
LH:47
end_of_record
TN:
SF:/home/runner/work/neml2/neml2/src/neml2/models/common/R2ToSR2.cxx
FN:36,47,_ZN5neml27R2ToSR216expected_optionsEv
FN:49,54,_ZN5neml27R2ToSR2C2ERKNS_9OptionSetE
FN:57,66,_ZN5neml27R2ToSR29set_valueEbbb
FNDA:1,_ZN5neml27R2ToSR216expected_optionsEv
FNDA:1,_ZN5neml27R2ToSR2C2ERKNS_9OptionSetE
FNDA:3,_ZN5neml27R2ToSR29set_valueEbbb
FNF:3
FNH:3
DA:36,1
DA:38,1
DA:39,1
DA:41,3
DA:43,4
DA:44,3
DA:46,1
DA:47,0
DA:49,1
DA:51,2
DA:52,1
DA:54,1
DA:57,3
DA:59,3
DA:61,3
DA:62,3
DA:64,3
DA:65,1
DA:66,3
LF:19
LH:18
end_of_record
TN:
SF:/home/runner/work/neml2/neml2/src/neml2/models/common/R2ToWR2.cxx
FN:35,46,_ZN5neml27R2ToWR216expected_optionsEv
FN:48,53,_ZN5neml27R2ToWR2C2ERKNS_9OptionSetE
FN:56,65,_ZN5neml27R2ToWR29set_valueEbbb
FNDA:1,_ZN5neml27R2ToWR216expected_optionsEv
FNDA:1,_ZN5neml27R2ToWR2C2ERKNS_9OptionSetE
FNDA:3,_ZN5neml27R2ToWR29set_valueEbbb
FNF:3
FNH:3
DA:35,1
DA:37,1
DA:38,1
DA:40,3
DA:42,4
DA:43,3
DA:45,1
DA:46,0
DA:48,1
DA:50,2
DA:51,1
DA:53,1
DA:56,3
DA:58,3
DA:60,3
DA:61,3
DA:63,3
DA:64,1
DA:65,3
LF:19
LH:18
end_of_record
TN:
SF:/home/runner/work/neml2/neml2/src/neml2/models/common/Reduction.cxx
FN:33,41,_ZN5neml29ReductionINS_10QuaternionEE16expected_optionsEv
FN:33,41,_ZN5neml29ReductionINS_11MillerIndexEE16expected_optionsEv
FN:33,41,_ZN5neml29ReductionINS_2R2EE16expected_optionsEv
FN:33,41,_ZN5neml29ReductionINS_2R3EE16expected_optionsEv
FN:33,41,_ZN5neml29ReductionINS_2R4EE16expected_optionsEv
FN:33,41,_ZN5neml29ReductionINS_3RotEE16expected_optionsEv
FN:33,41,_ZN5neml29ReductionINS_3SR2EE16expected_optionsEv
FN:33,41,_ZN5neml29ReductionINS_3VecEE16expected_optionsEv
FN:33,41,_ZN5neml29ReductionINS_3WR2EE16expected_optionsEv
FN:33,41,_ZN5neml29ReductionINS_4SFR3EE16expected_optionsEv
FN:33,41,_ZN5neml29ReductionINS_4SSR4EE16expected_optionsEv
FN:33,41,_ZN5neml29ReductionINS_4SWR4EE16expected_optionsEv
FN:33,41,_ZN5neml29ReductionINS_4WSR4EE16expected_optionsEv
FN:33,41,_ZN5neml29ReductionINS_4WWR4EE16expected_optionsEv
FN:33,41,_ZN5neml29ReductionINS_5SFFR4EE16expected_optionsEv
FN:33,41,_ZN5neml29ReductionINS_5WFFR4EE16expected_optionsEv
FN:33,41,_ZN5neml29ReductionINS_6ScalarEE16expected_optionsEv
FN:44,48,_ZN5neml29ReductionINS_10QuaternionEEC2ERKNS_9OptionSetE
FN:44,48,_ZN5neml29ReductionINS_11MillerIndexEEC2ERKNS_9OptionSetE
FN:44,48,_ZN5neml29ReductionINS_2R2EEC2ERKNS_9OptionSetE
FN:44,48,_ZN5neml29ReductionINS_2R3EEC2ERKNS_9OptionSetE
FN:44,48,_ZN5neml29ReductionINS_2R4EEC2ERKNS_9OptionSetE
FN:44,48,_ZN5neml29ReductionINS_3RotEEC2ERKNS_9OptionSetE
FN:44,48,_ZN5neml29ReductionINS_3SR2EEC2ERKNS_9OptionSetE
FN:44,48,_ZN5neml29ReductionINS_3VecEEC2ERKNS_9OptionSetE
FN:44,48,_ZN5neml29ReductionINS_3WR2EEC2ERKNS_9OptionSetE
FN:44,48,_ZN5neml29ReductionINS_4SFR3EEC2ERKNS_9OptionSetE
FN:44,48,_ZN5neml29ReductionINS_4SSR4EEC2ERKNS_9OptionSetE
FN:44,48,_ZN5neml29ReductionINS_4SWR4EEC2ERKNS_9OptionSetE
FN:44,48,_ZN5neml29ReductionINS_4WSR4EEC2ERKNS_9OptionSetE
FN:44,48,_ZN5neml29ReductionINS_4WWR4EEC2ERKNS_9OptionSetE
FN:44,48,_ZN5neml29ReductionINS_5SFFR4EEC2ERKNS_9OptionSetE
FN:44,48,_ZN5neml29ReductionINS_5WFFR4EEC2ERKNS_9OptionSetE
FN:44,48,_ZN5neml29ReductionINS_6ScalarEEC2ERKNS_9OptionSetE
FNDA:5,_ZN5neml29ReductionINS_10QuaternionEE16expected_optionsEv
FNDA:5,_ZN5neml29ReductionINS_11MillerIndexEE16expected_optionsEv
FNDA:5,_ZN5neml29ReductionINS_2R2EE16expected_optionsEv
FNDA:5,_ZN5neml29ReductionINS_2R3EE16expected_optionsEv
FNDA:5,_ZN5neml29ReductionINS_2R4EE16expected_optionsEv
FNDA:5,_ZN5neml29ReductionINS_3RotEE16expected_optionsEv
FNDA:5,_ZN5neml29ReductionINS_3SR2EE16expected_optionsEv
FNDA:5,_ZN5neml29ReductionINS_3VecEE16expected_optionsEv
FNDA:5,_ZN5neml29ReductionINS_3WR2EE16expected_optionsEv
FNDA:5,_ZN5neml29ReductionINS_4SFR3EE16expected_optionsEv
FNDA:5,_ZN5neml29ReductionINS_4SSR4EE16expected_optionsEv
FNDA:5,_ZN5neml29ReductionINS_4SWR4EE16expected_optionsEv
FNDA:5,_ZN5neml29ReductionINS_4WSR4EE16expected_optionsEv
FNDA:5,_ZN5neml29ReductionINS_4WWR4EE16expected_optionsEv
FNDA:5,_ZN5neml29ReductionINS_5SFFR4EE16expected_optionsEv
FNDA:5,_ZN5neml29ReductionINS_5WFFR4EE16expected_optionsEv
FNDA:5,_ZN5neml29ReductionINS_6ScalarEE16expected_optionsEv
FNDA:0,_ZN5neml29ReductionINS_10QuaternionEEC2ERKNS_9OptionSetE
FNDA:0,_ZN5neml29ReductionINS_11MillerIndexEEC2ERKNS_9OptionSetE
FNDA:0,_ZN5neml29ReductionINS_2R2EEC2ERKNS_9OptionSetE
FNDA:0,_ZN5neml29ReductionINS_2R3EEC2ERKNS_9OptionSetE
FNDA:0,_ZN5neml29ReductionINS_2R4EEC2ERKNS_9OptionSetE
FNDA:0,_ZN5neml29ReductionINS_3RotEEC2ERKNS_9OptionSetE
FNDA:4,_ZN5neml29ReductionINS_3SR2EEC2ERKNS_9OptionSetE
FNDA:0,_ZN5neml29ReductionINS_3VecEEC2ERKNS_9OptionSetE
FNDA:0,_ZN5neml29ReductionINS_3WR2EEC2ERKNS_9OptionSetE
FNDA:0,_ZN5neml29ReductionINS_4SFR3EEC2ERKNS_9OptionSetE
FNDA:0,_ZN5neml29ReductionINS_4SSR4EEC2ERKNS_9OptionSetE
FNDA:0,_ZN5neml29ReductionINS_4SWR4EEC2ERKNS_9OptionSetE
FNDA:0,_ZN5neml29ReductionINS_4WSR4EEC2ERKNS_9OptionSetE
FNDA:0,_ZN5neml29ReductionINS_4WWR4EEC2ERKNS_9OptionSetE
FNDA:0,_ZN5neml29ReductionINS_5SFFR4EEC2ERKNS_9OptionSetE
FNDA:0,_ZN5neml29ReductionINS_5WFFR4EEC2ERKNS_9OptionSetE
FNDA:2,_ZN5neml29ReductionINS_6ScalarEEC2ERKNS_9OptionSetE
FNF:34
FNH:19
DA:33,85
DA:35,85
DA:37,340
DA:38,255
DA:40,85
DA:41,0
DA:44,6
DA:46,6
DA:48,6
LF:9
LH:8
end_of_record
TN:
SF:/home/runner/work/neml2/neml2/src/neml2/models/common/RotationMatrix.cxx
FN:35,45,_ZN5neml214RotationMatrix16expected_optionsEv
FN:47,52,_ZN5neml214RotationMatrixC2ERKNS_9OptionSetE
FN:55,62,_ZN5neml214RotationMatrix9set_valueEbbb
FNDA:1,_ZN5neml214RotationMatrix16expected_optionsEv
FNDA:4,_ZN5neml214RotationMatrixC2ERKNS_9OptionSetE
FNDA:8,_ZN5neml214RotationMatrix9set_valueEbbb
FNF:3
FNH:3
DA:35,1
DA:37,1
DA:38,1
DA:39,1
DA:41,4
DA:42,3
DA:44,1
DA:45,0
DA:47,4
DA:49,8
DA:50,4
DA:52,4
DA:55,8
DA:57,8
DA:58,8
DA:60,8
DA:61,4
DA:62,8
LF:18
LH:17
end_of_record
TN:
SF:/home/runner/work/neml2/neml2/src/neml2/models/common/SR2Invariant.cxx
FN:41,62,_ZN5neml212SR2Invariant16expected_optionsEv
FN:64,70,_ZN5neml212SR2InvariantC2ERKNS_9OptionSetE
FN:73,159,_ZN5neml212SR2Invariant9set_valueEbbb
FNDA:1,_ZN5neml212SR2Invariant16expected_optionsEv
FNDA:22,_ZN5neml212SR2InvariantC2ERKNS_9OptionSetE
FNDA:78,_ZN5neml212SR2Invariant9set_valueEbbb
FNF:3
FNH:3
DA:41,1
DA:43,1
DA:44,1
DA:46,3
DA:48,4
DA:49,4
DA:57,6
DA:58,1
DA:59,2
DA:61,2
DA:62,1
DA:64,22
DA:66,22
DA:67,22
DA:68,44
DA:70,22
DA:73,78
DA:75,78
DA:77,78
DA:79,10
DA:80,10
DA:82,10
DA:83,5
DA:90,68
DA:92,3
DA:94,3
DA:95,3
DA:97,3
DA:99,2
DA:101,2
DA:102,1
DA:104,2
DA:106,1
DA:107,1
DA:108,1
DA:109,1
DA:110,2
DA:111,3
DA:112,65
DA:114,62
DA:115,62
DA:116,62
DA:118,62
DA:119,62
DA:121,62
DA:123,45
DA:125,45
DA:126,44
DA:128,45
DA:130,18
DA:131,18
DA:132,18
DA:133,18
DA:134,45
DA:135,62
DA:136,3
DA:138,3
DA:139,3
DA:141,3
DA:142,3
DA:144,3
DA:146,2
DA:148,2
DA:149,1
DA:151,2
DA:152,1
DA:153,2
DA:154,2
DA:155,3
DA:157,0
DA:158,0
DA:159,78
LF:72
LH:70
end_of_record
TN:
SF:/home/runner/work/neml2/neml2/src/neml2/models/common/SR2ToR2.cxx
FN:36,47,_ZN5neml27SR2ToR216expected_optionsEv
FN:49,54,_ZN5neml27SR2ToR2C2ERKNS_9OptionSetE
FN:57,69,_ZN5neml27SR2ToR29set_valueEbbb
FNDA:1,_ZN5neml27SR2ToR216expected_optionsEv
FNDA:1,_ZN5neml27SR2ToR2C2ERKNS_9OptionSetE
FNDA:3,_ZN5neml27SR2ToR29set_valueEbbb
FNF:3
FNH:3
DA:36,1
DA:38,1
DA:39,1
DA:41,3
DA:43,4
DA:44,3
DA:46,1
DA:47,0
DA:49,1
DA:51,2
DA:52,1
DA:54,1
DA:57,3
DA:59,3
DA:61,3
DA:62,3
DA:64,3
DA:65,1
DA:69,3
LF:19
LH:18
end_of_record
TN:
SF:/home/runner/work/neml2/neml2/src/neml2/models/common/ScalarMultiplication.cxx
FN:34,58,_ZN5neml220ScalarMultiplication16expected_optionsEv
FN:60,79,_ZN5neml220ScalarMultiplicationC2ERKNS_9OptionSetE
FN:82,142,_ZN5neml220ScalarMultiplication9set_valueEbbb
FNDA:1,_ZN5neml220ScalarMultiplication16expected_optionsEv
FNDA:6,_ZN5neml220ScalarMultiplicationC2ERKNS_9OptionSetE
FNDA:18,_ZN5neml220ScalarMultiplication9set_valueEbbb
FNF:3
FNH:3
DA:34,1
DA:37,1
DA:38,1
DA:39,1
DA:41,3
DA:43,4
DA:44,4
DA:46,3
DA:47,3
DA:50,5
DA:57,1
DA:58,0
DA:60,6
DA:62,12
DA:63,30
DA:65,36
DA:66,30
DA:68,6
DA:69,6
DA:71,6
DA:73,6
DA:77,6
DA:78,2
DA:79,6
DA:82,18
DA:84,18
DA:86,18
DA:87,72
DA:89,54
DA:90,27
DA:92,27
DA:94,18
DA:95,18
DA:97,18
DA:99,30
DA:101,24
DA:102,120
DA:103,96
DA:105,72
DA:106,36
DA:108,36
DA:110,24
DA:111,24
DA:114,18
DA:116,30
DA:118,24
DA:119,120
DA:121,96
DA:122,96
DA:125,72
DA:126,360
DA:127,288
DA:128,144
DA:129,72
DA:130,72
DA:131,24
DA:133,12
DA:134,60
DA:135,48
DA:136,36
DA:137,12
DA:138,12
DA:142,18
LF:63
LH:62
end_of_record
TN:
SF:/home/runner/work/neml2/neml2/src/neml2/models/common/ScalarToDiagonalSR2.cxx
FN:33,44,_ZN5neml219ScalarToDiagonalSR216expected_optionsEv
FN:46,51,_ZN5neml219ScalarToDiagonalSR2C2ERKNS_9OptionSetE
FN:54,63,_ZN5neml219ScalarToDiagonalSR29set_valueEbbb
FNDA:1,_ZN5neml219ScalarToDiagonalSR216expected_optionsEv
FNDA:1,_ZN5neml219ScalarToDiagonalSR2C2ERKNS_9OptionSetE
FNDA:3,_ZN5neml219ScalarToDiagonalSR29set_valueEbbb
FNF:3
FNH:3
DA:33,1
DA:35,1
DA:36,1
DA:38,3
DA:40,4
DA:41,3
DA:43,1
DA:44,0
DA:46,1
DA:48,2
DA:49,1
DA:51,1
DA:54,3
DA:56,3
DA:58,3
DA:59,3
DA:61,3
DA:62,1
DA:63,3
LF:19
LH:18
end_of_record
TN:
SF:/home/runner/work/neml2/neml2/src/neml2/models/common/SymmetricHermiteInterpolation.cxx
FN:34,55,_ZN5neml229SymmetricHermiteInterpolation16expected_optionsEv
FN:57,65,_ZN5neml229SymmetricHermiteInterpolationC2ERKNS_9OptionSetE
FN:68,97,_ZN5neml229SymmetricHermiteInterpolation9set_valueEbbb
FNDA:1,_ZN5neml229SymmetricHermiteInterpolation16expected_optionsEv
FNDA:1,_ZN5neml229SymmetricHermiteInterpolationC2ERKNS_9OptionSetE
FNDA:3,_ZN5neml229SymmetricHermiteInterpolation9set_valueEbbb
FNF:3
FNH:3
DA:34,1
DA:36,1
DA:37,1
DA:42,1
DA:44,3
DA:46,4
DA:47,4
DA:51,4
DA:52,3
DA:54,1
DA:55,0
DA:57,1
DA:59,1
DA:60,1
DA:61,0
DA:62,4
DA:63,5
DA:65,1
DA:68,3
DA:70,3
DA:71,3
DA:72,3
DA:74,3
DA:76,3
DA:77,3
DA:78,3
DA:79,3
DA:81,3
DA:83,1
DA:84,1
DA:86,1
DA:87,1
DA:89,3
DA:91,1
DA:92,1
DA:94,1
DA:95,1
DA:96,1
DA:97,3
LF:39
LH:37
end_of_record
TN:
SF:/home/runner/work/neml2/neml2/src/neml2/models/common/VariableRate.cxx
FN:38,50,_ZN5neml212VariableRateINS_2R2EE16expected_optionsEv
FN:38,50,_ZN5neml212VariableRateINS_3SR2EE16expected_optionsEv
FN:38,50,_ZN5neml212VariableRateINS_3VecEE16expected_optionsEv
FN:38,50,_ZN5neml212VariableRateINS_6ScalarEE16expected_optionsEv
FN:53,61,_ZN5neml212VariableRateINS_2R2EEC2ERKNS_9OptionSetE
FN:53,61,_ZN5neml212VariableRateINS_3SR2EEC2ERKNS_9OptionSetE
FN:53,61,_ZN5neml212VariableRateINS_3VecEEC2ERKNS_9OptionSetE
FN:53,61,_ZN5neml212VariableRateINS_6ScalarEEC2ERKNS_9OptionSetE
FN:65,81,_ZN5neml212VariableRateINS_2R2EE9set_valueEbbb
FN:65,81,_ZN5neml212VariableRateINS_3SR2EE9set_valueEbbb
FN:65,81,_ZN5neml212VariableRateINS_3VecEE9set_valueEbbb
FN:65,81,_ZN5neml212VariableRateINS_6ScalarEE9set_valueEbbb
FNDA:1,_ZN5neml212VariableRateINS_2R2EE16expected_optionsEv
FNDA:1,_ZN5neml212VariableRateINS_3SR2EE16expected_optionsEv
FNDA:1,_ZN5neml212VariableRateINS_3VecEE16expected_optionsEv
FNDA:1,_ZN5neml212VariableRateINS_6ScalarEE16expected_optionsEv
FNDA:0,_ZN5neml212VariableRateINS_2R2EEC2ERKNS_9OptionSetE
FNDA:3,_ZN5neml212VariableRateINS_3SR2EEC2ERKNS_9OptionSetE
FNDA:0,_ZN5neml212VariableRateINS_3VecEEC2ERKNS_9OptionSetE
FNDA:1,_ZN5neml212VariableRateINS_6ScalarEEC2ERKNS_9OptionSetE
FNDA:0,_ZN5neml212VariableRateINS_2R2EE9set_valueEbbb
FNDA:18,_ZN5neml212VariableRateINS_3SR2EE9set_valueEbbb
FNDA:0,_ZN5neml212VariableRateINS_3VecEE9set_valueEbbb
FNDA:2,_ZN5neml212VariableRateINS_6ScalarEE9set_valueEbbb
FNF:12
FNH:8
DA:38,4
DA:40,4
DA:41,4
DA:46,16
DA:47,20
DA:49,4
DA:50,0
DA:53,4
DA:55,8
DA:56,4
DA:57,4
DA:58,4
DA:59,8
DA:61,4
DA:65,20
DA:67,20
DA:68,20
DA:69,20
DA:71,20
DA:72,20
DA:74,20
DA:76,10
DA:77,10
DA:78,10
DA:79,10
DA:81,20
LF:26
LH:25
end_of_record
TN:
SF:/home/runner/work/neml2/neml2/src/neml2/models/common/WR2ExplicitExponentialTimeIntegration.cxx
FN:36,48,_ZN5neml237WR2ExplicitExponentialTimeIntegration16expected_optionsEv
FN:50,60,_ZN5neml237WR2ExplicitExponentialTimeIntegrationC2ERKNS_9OptionSetE
FN:63,81,_ZN5neml237WR2ExplicitExponentialTimeIntegration9set_valueEbbb
FNDA:1,_ZN5neml237WR2ExplicitExponentialTimeIntegration16expected_optionsEv
FNDA:1,_ZN5neml237WR2ExplicitExponentialTimeIntegrationC2ERKNS_9OptionSetE
FNDA:2,_ZN5neml237WR2ExplicitExponentialTimeIntegration9set_valueEbbb
FNF:3
FNH:3
DA:36,1
DA:38,1
DA:39,1
DA:41,1
DA:43,4
DA:44,6
DA:45,3
DA:47,1
DA:48,0
DA:50,1
DA:51,1
DA:53,2
DA:54,1
DA:55,1
DA:56,1
DA:57,1
DA:58,2
DA:60,1
DA:63,2
DA:65,2
DA:68,2
DA:70,2
DA:71,2
DA:73,2
DA:75,1
DA:76,1
DA:77,1
DA:78,1
DA:79,1
DA:80,1
DA:81,2
LF:31
LH:30
end_of_record
TN:
SF:/home/runner/work/neml2/neml2/src/neml2/models/common/WR2ImplicitExponentialTimeIntegration.cxx
FN:38,51,_ZN5neml237WR2ImplicitExponentialTimeIntegration16expected_optionsEv
FN:53,64,_ZN5neml237WR2ImplicitExponentialTimeIntegrationC2ERKNS_9OptionSetE
FN:67,84,_ZN5neml237WR2ImplicitExponentialTimeIntegration9set_valueEbbb
FNDA:1,_ZN5neml237WR2ImplicitExponentialTimeIntegration16expected_optionsEv
FNDA:1,_ZN5neml237WR2ImplicitExponentialTimeIntegrationC2ERKNS_9OptionSetE
FNDA:2,_ZN5neml237WR2ImplicitExponentialTimeIntegration9set_valueEbbb
FNF:3
FNH:3
DA:38,1
DA:40,1
DA:41,1
DA:44,1
DA:46,4
DA:47,6
DA:48,3
DA:50,1
DA:51,0
DA:53,1
DA:54,1
DA:56,2
DA:57,1
DA:58,1
DA:59,1
DA:60,1
DA:61,1
DA:62,2
DA:64,1
DA:67,2
DA:69,2
DA:70,2
DA:72,2
DA:73,2
DA:75,2
DA:77,1
DA:78,1
DA:79,1
DA:80,1
DA:81,1
DA:82,1
DA:83,1
DA:84,2
LF:33
LH:32
end_of_record
TN:
SF:/home/runner/work/neml2/neml2/src/neml2/models/crystallography/CrystalGeometry.cxx
FN:121,124,_ZNK5neml215crystallography15CrystalGeometry2a1Ev
FN:127,130,_ZNK5neml215crystallography15CrystalGeometry2a2Ev
FN:133,136,_ZNK5neml215crystallography15CrystalGeometry2a3Ev
FN:139,142,_ZNK5neml215crystallography15CrystalGeometry2b1Ev
FN:145,148,_ZNK5neml215crystallography15CrystalGeometry2b2Ev
FN:151,154,_ZNK5neml215crystallography15CrystalGeometry2b3Ev
FN:157,160,_ZNK5neml215crystallography15CrystalGeometry5nslipEv
FN:163,167,_ZNK5neml215crystallography15CrystalGeometry12nslip_groupsEv
FN:170,174,_ZNK5neml215crystallography15CrystalGeometry14nslip_in_groupEl
FN:177,188,_ZN5neml215crystallography15CrystalGeometry23make_reciprocal_latticeERKNS_3VecE
FN:191,197,_ZN5neml215crystallographyL19miller_to_cartesianERKNS_3VecERKNS_11MillerIndexE
FN:200,263,_ZN5neml215crystallography15CrystalGeometry20setup_schmid_tensorsERKNS_3VecERKNS_2R2ERKNS_11MillerIndexESA_
FN:51,68,_ZN5neml215crystallography15CrystalGeometry16expected_optionsEv
FN:70,73,_ZN5neml215crystallography15CrystalGeometryC2ERKNS_9OptionSetE
FN:75,82,_ZN5neml215crystallography15CrystalGeometryC2ERKNS_9OptionSetEPNS_7FactoryE
FN:84,94,_ZN5neml215crystallography15CrystalGeometryC2ERKNS_9OptionSetERKNS_2R2ERKNS_3VecERKNS_11MillerIndexESD_
FN:96,118,_ZN5neml215crystallography15CrystalGeometryC2ERKNS_9OptionSetERKNS_2R2ERKNS_3VecESt5tupleIJS8_S8_NS_6ScalarESt6vectorIlSaIlEEEE
FNDA:2,_ZNK5neml215crystallography15CrystalGeometry2a1Ev
FNDA:2,_ZNK5neml215crystallography15CrystalGeometry2a2Ev
FNDA:2,_ZNK5neml215crystallography15CrystalGeometry2a3Ev
FNDA:2,_ZNK5neml215crystallography15CrystalGeometry2b1Ev
FNDA:2,_ZNK5neml215crystallography15CrystalGeometry2b2Ev
FNDA:2,_ZNK5neml215crystallography15CrystalGeometry2b3Ev
FNDA:2,_ZNK5neml215crystallography15CrystalGeometry5nslipEv
FNDA:6,_ZNK5neml215crystallography15CrystalGeometry12nslip_groupsEv
FNDA:2,_ZNK5neml215crystallography15CrystalGeometry14nslip_in_groupEl
FNDA:52,_ZN5neml215crystallography15CrystalGeometry23make_reciprocal_latticeERKNS_3VecE
FNDA:52,_ZN5neml215crystallographyL19miller_to_cartesianERKNS_3VecERKNS_11MillerIndexE
FNDA:26,_ZN5neml215crystallography15CrystalGeometry20setup_schmid_tensorsERKNS_3VecERKNS_2R2ERKNS_11MillerIndexESA_
FNDA:2,_ZN5neml215crystallography15CrystalGeometry16expected_optionsEv
FNDA:11,_ZN5neml215crystallography15CrystalGeometryC2ERKNS_9OptionSetE
FNDA:11,_ZN5neml215crystallography15CrystalGeometryC2ERKNS_9OptionSetEPNS_7FactoryE
FNDA:26,_ZN5neml215crystallography15CrystalGeometryC2ERKNS_9OptionSetERKNS_2R2ERKNS_3VecERKNS_11MillerIndexESD_
FNDA:26,_ZN5neml215crystallography15CrystalGeometryC2ERKNS_9OptionSetERKNS_2R2ERKNS_3VecESt5tupleIJS8_S8_NS_6ScalarESt6vectorIlSaIlEEEE
FNF:17
FNH:17
DA:51,2
DA:53,2
DA:55,2
DA:56,2
DA:58,8
DA:60,8
DA:62,8
DA:64,6
DA:67,2
DA:68,0
DA:70,11
DA:71,11
DA:73,11
DA:75,11
DA:77,22
DA:78,22
DA:79,22
DA:80,55
DA:82,11
DA:84,26
DA:88,26
DA:92,26
DA:94,26
DA:96,26
DA:99,26
DA:101,26
DA:102,26
DA:103,26
DA:104,52
DA:105,104
DA:106,104
DA:107,26
DA:108,52
DA:109,52
DA:110,52
DA:111,26
DA:112,26
DA:113,52
DA:114,52
DA:115,78
DA:116,104
DA:118,26
DA:121,2
DA:123,6
DA:124,2
DA:127,2
DA:129,6
DA:130,2
DA:133,2
DA:135,6
DA:136,2
DA:139,2
DA:141,6
DA:142,2
DA:145,2
DA:147,6
DA:148,2
DA:151,2
DA:153,6
DA:154,2
DA:157,2
DA:159,2
DA:163,6
DA:166,6
DA:170,2
DA:172,2
DA:173,2
DA:177,52
DA:179,104
DA:180,104
DA:181,104
DA:183,312
DA:184,104
DA:185,260
DA:187,104
DA:188,416
DA:191,52
DA:193,52
DA:194,208
DA:195,208
DA:196,312
DA:197,208
DA:200,26
DA:206,26
DA:209,26
DA:210,0
DA:212,26
DA:213,26
DA:214,26
DA:216,26
DA:217,26
DA:218,26
DA:221,26
DA:222,26
DA:223,26
DA:224,52
DA:226,52
DA:229,52
DA:230,52
DA:233,26
DA:234,26
DA:239,26
DA:240,182
DA:242,312
DA:243,156
DA:244,156
DA:246,468
DA:248,624
DA:249,624
DA:250,312
DA:251,312
DA:252,312
DA:253,312
DA:254,312
DA:255,156
DA:256,26
DA:257,26
DA:259,52
DA:260,52
DA:261,52
DA:262,52
DA:263,858
LF:122
LH:120
end_of_record
TN:
SF:/home/runner/work/neml2/neml2/src/neml2/models/crystallography/CubicCrystal.cxx
FN:37,49,_ZN5neml215crystallography12CubicCrystal16expected_optionsEv
FN:51,54,_ZN5neml215crystallography12CubicCrystalC2ERKNS_9OptionSetE
FN:56,64,_ZN5neml215crystallography12CubicCrystalC2ERKNS_9OptionSetEPNS_7FactoryE
FNDA:1,_ZN5neml215crystallography12CubicCrystal16expected_optionsEv
FNDA:15,_ZN5neml215crystallography12CubicCrystalC2ERKNS_9OptionSetE
FNDA:15,_ZN5neml215crystallography12CubicCrystalC2ERKNS_9OptionSetEPNS_7FactoryE
FNF:3
FNH:3
DA:37,1
DA:39,1
DA:40,1
DA:41,1
DA:43,2
DA:44,2
DA:46,3
DA:48,1
DA:49,0
DA:51,15
DA:52,15
DA:54,15
DA:56,15
DA:59,60
DA:60,30
DA:61,30
DA:62,75
DA:64,15
LF:18
LH:17
end_of_record
TN:
SF:/home/runner/work/neml2/neml2/src/neml2/models/finite_volume/FiniteVolumeAppendBoundaryCondition.cxx
FN:36,54,_ZN5neml235FiniteVolumeAppendBoundaryCondition16expected_optionsEv
FN:56,66,_ZN5neml235FiniteVolumeAppendBoundaryConditionC2ERKNS_9OptionSetE
FN:69,108,_ZN5neml235FiniteVolumeAppendBoundaryCondition9set_valueEbbb
FNDA:1,_ZN5neml235FiniteVolumeAppendBoundaryCondition16expected_optionsEv
FNDA:6,_ZN5neml235FiniteVolumeAppendBoundaryConditionC2ERKNS_9OptionSetE
FNDA:12,_ZN5neml235FiniteVolumeAppendBoundaryCondition9set_valueEbbb
FNF:3
FNH:3
DA:36,1
DA:38,1
DA:39,1
DA:41,4
DA:42,4
DA:43,4
DA:47,6
DA:48,1
DA:50,2
DA:51,2
DA:53,2
DA:54,1
DA:56,6
DA:58,12
DA:59,30
DA:60,12
DA:61,6
DA:62,6
DA:63,5
DA:64,17
DA:66,6
DA:69,12
DA:71,12
DA:73,12
DA:74,12
DA:75,12
DA:76,18
DA:78,18
DA:79,12
DA:81,12
DA:88,6
DA:89,6
DA:90,6
DA:91,6
DA:92,6
DA:93,6
DA:94,6
DA:97,24
DA:98,6
DA:100,6
DA:101,9
DA:103,9
DA:105,18
DA:106,0
DA:107,6
DA:108,36
LF:46
LH:45
end_of_record
TN:
SF:/home/runner/work/neml2/neml2/src/neml2/models/finite_volume/FiniteVolumeGradient.cxx
FN:36,49,_ZN5neml220FiniteVolumeGradient16expected_optionsEv
FN:51,58,_ZN5neml220FiniteVolumeGradientC2ERKNS_9OptionSetE
FN:61,114,_ZN5neml220FiniteVolumeGradient9set_valueEbbb
FNDA:1,_ZN5neml220FiniteVolumeGradient16expected_optionsEv
FNDA:3,_ZN5neml220FiniteVolumeGradientC2ERKNS_9OptionSetE
FNDA:10,_ZN5neml220FiniteVolumeGradient9set_valueEbbb
FNF:3
FNH:3
DA:36,1
DA:38,1
DA:39,1
DA:40,1
DA:42,4
DA:43,3
DA:44,3
DA:45,4
DA:46,3
DA:48,1
DA:49,0
DA:51,3
DA:53,6
DA:54,12
DA:55,12
DA:56,6
DA:58,3
DA:61,10
DA:63,10
DA:64,10
DA:66,10
DA:67,10
DA:68,10
DA:70,10
DA:72,10
DA:73,10
DA:75,10
DA:78,3
DA:79,3
DA:80,3
DA:83,3
DA:86,9
DA:88,0
DA:89,0
DA:90,0
DA:93,0
DA:94,0
DA:95,0
DA:96,0
DA:97,0
DA:100,9
DA:102,0
DA:103,0
DA:104,0
DA:105,0
DA:108,0
DA:109,0
DA:110,0
DA:111,0
DA:112,0
DA:113,3
DA:114,10
LF:52
LH:34
end_of_record
TN:
SF:/home/runner/work/neml2/neml2/src/neml2/models/finite_volume/FiniteVolumeUpwindedAdvectiveFlux.cxx
FN:38,48,_ZN5neml233FiniteVolumeUpwindedAdvectiveFlux16expected_optionsEv
FN:50,56,_ZN5neml233FiniteVolumeUpwindedAdvectiveFluxC2ERKNS_9OptionSetE
FN:59,99,_ZN5neml233FiniteVolumeUpwindedAdvectiveFlux9set_valueEbbb
FNDA:1,_ZN5neml233FiniteVolumeUpwindedAdvectiveFlux16expected_optionsEv
FNDA:2,_ZN5neml233FiniteVolumeUpwindedAdvectiveFluxC2ERKNS_9OptionSetE
FNDA:4,_ZN5neml233FiniteVolumeUpwindedAdvectiveFlux9set_valueEbbb
FNF:3
FNH:3
DA:38,1
DA:40,1
DA:41,1
DA:43,4
DA:44,4
DA:45,3
DA:47,1
DA:48,0
DA:50,2
DA:52,4
DA:53,2
DA:54,4
DA:56,2
DA:59,4
DA:61,4
DA:62,4
DA:63,4
DA:64,4
DA:65,4
DA:67,4
DA:68,4
DA:69,4
DA:71,4
DA:72,4
DA:74,4
DA:77,2
DA:78,2
DA:79,2
DA:80,2
DA:82,2
DA:83,4
DA:85,2
DA:86,2
DA:87,2
DA:88,2
DA:90,2
DA:91,1
DA:94,1
DA:95,1
DA:96,1
DA:97,1
DA:98,2
DA:99,4
LF:43
LH:42
end_of_record
TN:
SF:/home/runner/work/neml2/neml2/src/neml2/models/finite_volume/LinearlyInterpolateToCellEdges.cxx
FN:37,51,_ZN5neml230LinearlyInterpolateToCellEdges16expected_optionsEv
FN:53,60,_ZN5neml230LinearlyInterpolateToCellEdgesC2ERKNS_9OptionSetE
FN:63,157,_ZN5neml230LinearlyInterpolateToCellEdges9set_valueEbbb
FNDA:1,_ZN5neml230LinearlyInterpolateToCellEdges16expected_optionsEv
FNDA:2,_ZN5neml230LinearlyInterpolateToCellEdgesC2ERKNS_9OptionSetE
FNDA:4,_ZN5neml230LinearlyInterpolateToCellEdges9set_valueEbbb
FNF:3
FNH:3
DA:37,1
DA:39,1
DA:40,1
DA:42,1
DA:44,4
DA:45,4
DA:46,4
DA:48,3
DA:50,1
DA:51,0
DA:53,2
DA:55,6
DA:56,8
DA:57,8
DA:58,4
DA:60,2
DA:63,4
DA:67,4
DA:68,4
DA:69,0
DA:70,4
DA:72,4
DA:74,4
DA:76,4
DA:78,4
DA:82,4
DA:86,4
DA:91,4
DA:92,4
DA:93,4
DA:94,4
DA:95,4
DA:97,4
DA:98,4
DA:99,4
DA:100,4
DA:102,4
DA:103,4
DA:105,4
DA:107,2
DA:108,2
DA:110,6
DA:112,0
DA:113,0
DA:116,0
DA:117,0
DA:118,0
DA:119,0
DA:120,0
DA:121,0
DA:122,0
DA:125,6
DA:127,0
DA:128,0
DA:130,0
DA:131,0
DA:134,0
DA:135,0
DA:136,0
DA:137,0
DA:138,0
DA:139,0
DA:140,0
DA:141,0
DA:143,6
DA:145,0
DA:146,0
DA:147,0
DA:150,0
DA:151,0
DA:152,0
DA:153,0
DA:154,0
DA:155,0
DA:156,2
DA:157,4
LF:76
LH:44
end_of_record
TN:
SF:/home/runner/work/neml2/neml2/src/neml2/models/link_anchor.cxx
FN:30,34,_neml2_force_link_models
FNDA:340,_neml2_force_link_models
FNF:1
FNH:1
DA:30,340
DA:33,340
DA:34,340
LF:3
LH:3
end_of_record
TN:
SF:/home/runner/work/neml2/neml2/src/neml2/models/phase_field_fracture/CrackGeometricFunction.cxx
FN:31,37,_ZN5neml222CrackGeometricFunction16expected_optionsEv
FN:39,44,_ZN5neml222CrackGeometricFunctionC2ERKNS_9OptionSetE
FNDA:2,_ZN5neml222CrackGeometricFunction16expected_optionsEv
FNDA:2,_ZN5neml222CrackGeometricFunctionC2ERKNS_9OptionSetE
FNF:2
FNH:2
DA:31,2
DA:33,2
DA:34,8
DA:35,6
DA:36,2
DA:37,0
DA:39,2
DA:41,4
DA:42,2
DA:44,2
LF:10
LH:9
end_of_record
TN:
SF:/home/runner/work/neml2/neml2/src/neml2/models/phase_field_fracture/CrackGeometricFunctionAT1.cxx
FN:33,40,_ZN5neml225CrackGeometricFunctionAT116expected_optionsEv
FN:42,45,_ZN5neml225CrackGeometricFunctionAT1C2ERKNS_9OptionSetE
FN:48,57,_ZN5neml225CrackGeometricFunctionAT19set_valueEbbb
FNDA:1,_ZN5neml225CrackGeometricFunctionAT116expected_optionsEv
FNDA:1,_ZN5neml225CrackGeometricFunctionAT1C2ERKNS_9OptionSetE
FNDA:3,_ZN5neml225CrackGeometricFunctionAT19set_valueEbbb
FNF:3
FNH:3
DA:33,1
DA:35,1
DA:36,1
DA:37,1
DA:38,2
DA:39,1
DA:40,0
DA:42,1
DA:43,1
DA:45,1
DA:48,3
DA:50,3
DA:51,3
DA:53,3
DA:55,1
DA:57,3
LF:16
LH:15
end_of_record
TN:
SF:/home/runner/work/neml2/neml2/src/neml2/models/phase_field_fracture/CrackGeometricFunctionAT2.cxx
FN:33,40,_ZN5neml225CrackGeometricFunctionAT216expected_optionsEv
FN:42,45,_ZN5neml225CrackGeometricFunctionAT2C2ERKNS_9OptionSetE
FN:48,64,_ZN5neml225CrackGeometricFunctionAT29set_valueEbbb
FNDA:1,_ZN5neml225CrackGeometricFunctionAT216expected_optionsEv
FNDA:1,_ZN5neml225CrackGeometricFunctionAT2C2ERKNS_9OptionSetE
FNDA:3,_ZN5neml225CrackGeometricFunctionAT29set_valueEbbb
FNF:3
FNH:3
DA:33,1
DA:35,1
DA:36,1
DA:37,1
DA:38,2
DA:39,1
DA:40,0
DA:42,1
DA:43,1
DA:45,1
DA:48,3
DA:50,3
DA:52,3
DA:55,3
DA:57,1
DA:60,3
DA:62,1
DA:64,3
LF:18
LH:17
end_of_record
TN:
SF:/home/runner/work/neml2/neml2/src/neml2/models/phase_field_fracture/DegradationFunction.cxx
FN:31,37,_ZN5neml219DegradationFunction16expected_optionsEv
FN:39,44,_ZN5neml219DegradationFunctionC2ERKNS_9OptionSetE
FNDA:2,_ZN5neml219DegradationFunction16expected_optionsEv
FNDA:2,_ZN5neml219DegradationFunctionC2ERKNS_9OptionSetE
FNF:2
FNH:2
DA:31,2
DA:33,2
DA:34,8
DA:35,6
DA:36,2
DA:37,0
DA:39,2
DA:41,4
DA:42,2
DA:44,2
LF:10
LH:9
end_of_record
TN:
SF:/home/runner/work/neml2/neml2/src/neml2/models/phase_field_fracture/LinearIsotropicStrainEnergyDensity.cxx
FN:116,146,_ZN5neml234LinearIsotropicStrainEnergyDensity20voldev_decompositionEbbb
FN:149,184,_ZN5neml234LinearIsotropicStrainEnergyDensity22spectral_decompositionEbbb
FN:46,60,_ZN5neml234LinearIsotropicStrainEnergyDensity16expected_optionsEv
FN:62,67,_ZN5neml234LinearIsotropicStrainEnergyDensityC2ERKNS_9OptionSetE
FN:70,86,_ZN5neml234LinearIsotropicStrainEnergyDensity9set_valueEbbb
FN:89,113,_ZN5neml234LinearIsotropicStrainEnergyDensity16no_decompositionEbbb
FNDA:12,_ZN5neml234LinearIsotropicStrainEnergyDensity20voldev_decompositionEbbb
FNDA:15,_ZN5neml234LinearIsotropicStrainEnergyDensity22spectral_decompositionEbbb
FNDA:1,_ZN5neml234LinearIsotropicStrainEnergyDensity16expected_optionsEv
FNDA:10,_ZN5neml234LinearIsotropicStrainEnergyDensityC2ERKNS_9OptionSetE
FNDA:30,_ZN5neml234LinearIsotropicStrainEnergyDensity9set_valueEbbb
FNDA:3,_ZN5neml234LinearIsotropicStrainEnergyDensity16no_decompositionEbbb
FNF:6
FNH:6
DA:46,1
DA:48,1
DA:49,1
DA:50,1
DA:51,3
DA:53,4
DA:54,1
DA:56,2
DA:57,2
DA:59,2
DA:60,1
DA:62,10
DA:64,10
DA:65,20
DA:67,10
DA:70,30
DA:72,30
DA:74,3
DA:75,3
DA:76,3
DA:77,12
DA:78,12
DA:79,12
DA:80,15
DA:81,15
DA:82,15
DA:83,0
DA:84,0
DA:86,30
DA:89,3
DA:91,3
DA:92,3
DA:93,3
DA:94,3
DA:95,3
DA:96,3
DA:97,3
DA:98,3
DA:100,3
DA:102,3
DA:103,3
DA:105,3
DA:107,1
DA:109,3
DA:111,1
DA:113,3
DA:116,12
DA:118,12
DA:119,12
DA:120,12
DA:121,12
DA:122,12
DA:123,12
DA:124,12
DA:125,12
DA:128,12
DA:129,12
DA:131,12
DA:133,12
DA:134,12
DA:136,12
DA:138,4
DA:139,4
DA:141,12
DA:143,4
DA:144,4
DA:146,12
DA:149,15
DA:151,15
DA:152,15
DA:153,15
DA:154,15
DA:155,15
DA:156,15
DA:157,15
DA:160,15
DA:161,15
DA:162,15
DA:163,15
DA:164,15
DA:165,15
DA:167,15
DA:169,15
DA:170,15
DA:172,15
DA:174,5
DA:175,5
DA:177,15
DA:179,5
DA:180,5
DA:181,5
DA:182,5
DA:183,5
DA:184,15
LF:94
LH:92
end_of_record
TN:
SF:/home/runner/work/neml2/neml2/src/neml2/models/phase_field_fracture/PowerDegradationFunction.cxx
FN:34,45,_ZN5neml224PowerDegradationFunction16expected_optionsEv
FN:47,52,_ZN5neml224PowerDegradationFunctionC2ERKNS_9OptionSetE
FN:55,71,_ZN5neml224PowerDegradationFunction9set_valueEbbb
FNDA:1,_ZN5neml224PowerDegradationFunction16expected_optionsEv
FNDA:1,_ZN5neml224PowerDegradationFunctionC2ERKNS_9OptionSetE
FNDA:3,_ZN5neml224PowerDegradationFunction9set_valueEbbb
FNF:3
FNH:3
DA:34,1
DA:36,1
DA:37,1
DA:38,1
DA:39,3
DA:41,4
DA:42,3
DA:44,1
DA:45,0
DA:47,1
DA:49,4
DA:50,2
DA:52,1
DA:55,3
DA:57,3
DA:59,3
DA:62,3
DA:64,1
DA:67,3
DA:69,1
DA:71,3
LF:21
LH:20
end_of_record
TN:
SF:/home/runner/work/neml2/neml2/src/neml2/models/phase_field_fracture/RationalDegradationFunction.cxx
FN:34,51,_ZN5neml227RationalDegradationFunction16expected_optionsEv
FN:53,61,_ZN5neml227RationalDegradationFunctionC2ERKNS_9OptionSetE
FN:64,94,_ZN5neml227RationalDegradationFunction9set_valueEbbb
FNDA:1,_ZN5neml227RationalDegradationFunction16expected_optionsEv
FNDA:1,_ZN5neml227RationalDegradationFunctionC2ERKNS_9OptionSetE
FNDA:3,_ZN5neml227RationalDegradationFunction9set_valueEbbb
FNF:3
FNH:3
DA:34,1
DA:36,1
DA:37,1
DA:40,1
DA:41,3
DA:43,4
DA:45,4
DA:46,4
DA:47,4
DA:48,3
DA:50,1
DA:51,0
DA:53,1
DA:55,4
DA:56,1
DA:57,4
DA:58,4
DA:59,5
DA:61,1
DA:64,3
DA:66,3
DA:67,3
DA:69,3
DA:72,3
DA:73,6
DA:74,9
DA:75,3
DA:77,3
DA:79,1
DA:82,3
DA:84,6
DA:85,12
DA:86,6
DA:87,9
DA:88,3
DA:90,3
DA:92,1
DA:94,3
LF:38
LH:37
end_of_record
TN:
SF:/home/runner/work/neml2/neml2/src/neml2/models/phase_field_fracture/StrainEnergyDensity.cxx
FN:31,41,_ZN5neml219StrainEnergyDensity16expected_optionsEv
FN:43,49,_ZN5neml219StrainEnergyDensityC2ERKNS_9OptionSetE
FNDA:1,_ZN5neml219StrainEnergyDensity16expected_optionsEv
FNDA:10,_ZN5neml219StrainEnergyDensityC2ERKNS_9OptionSetE
FNF:2
FNH:2
DA:31,1
DA:33,1
DA:35,4
DA:36,4
DA:37,3
DA:40,1
DA:41,0
DA:43,10
DA:45,20
DA:46,10
DA:47,20
DA:49,10
LF:12
LH:11
end_of_record
TN:
SF:/home/runner/work/neml2/neml2/src/neml2/models/porous_flow/AdvectiveStress.cxx
FN:35,58,_ZN5neml215AdvectiveStress16expected_optionsEv
FN:60,69,_ZN5neml215AdvectiveStressC2ERKNS_9OptionSetE
FN:72,97,_ZN5neml215AdvectiveStress9set_valueEbbb
FNDA:1,_ZN5neml215AdvectiveStress16expected_optionsEv
FNDA:1,_ZN5neml215AdvectiveStressC2ERKNS_9OptionSetE
FNDA:2,_ZN5neml215AdvectiveStress9set_valueEbbb
FNF:3
FNH:3
DA:35,1
DA:37,1
DA:38,1
DA:42,1
DA:44,4
DA:46,4
DA:49,4
DA:53,4
DA:54,4
DA:55,3
DA:57,1
DA:58,0
DA:60,1
DA:62,4
DA:63,2
DA:64,1
DA:65,1
DA:66,1
DA:67,2
DA:69,1
DA:72,2
DA:74,2
DA:75,2
DA:77,2
DA:79,2
DA:82,2
DA:84,1
DA:86,1
DA:87,3
DA:88,4
DA:90,1
DA:91,3
DA:92,4
DA:94,1
DA:95,1
DA:96,1
DA:97,2
LF:37
LH:36
end_of_record
TN:
SF:/home/runner/work/neml2/neml2/src/neml2/models/porous_flow/BrooksCoreyCapillaryPressure.cxx
FN:33,47,_ZN5neml228BrooksCoreyCapillaryPressure16expected_optionsEv
FN:49,54,_ZN5neml228BrooksCoreyCapillaryPressureC2ERKNS_9OptionSetE
FN:57,67,_ZNK5neml228BrooksCoreyCapillaryPressure18calculate_pressureERKNS_6ScalarEbbb
FNDA:1,_ZN5neml228BrooksCoreyCapillaryPressure16expected_optionsEv
FNDA:1,_ZN5neml228BrooksCoreyCapillaryPressureC2ERKNS_9OptionSetE
FNDA:6,_ZNK5neml228BrooksCoreyCapillaryPressure18calculate_pressureERKNS_6ScalarEbbb
FNF:3
FNH:3
DA:33,1
DA:35,1
DA:36,1
DA:39,1
DA:41,3
DA:43,4
DA:44,3
DA:46,1
DA:47,0
DA:49,1
DA:51,3
DA:52,5
DA:54,1
DA:57,6
DA:62,6
DA:63,6
DA:64,6
DA:66,12
DA:67,6
LF:19
LH:18
end_of_record
TN:
SF:/home/runner/work/neml2/neml2/src/neml2/models/porous_flow/CapillaryPressure.cxx
FN:33,48,_ZN5neml217CapillaryPressure16expected_optionsEv
FN:50,69,_ZN5neml217CapillaryPressureC2ERKNS_9OptionSetE
FN:72,106,_ZN5neml217CapillaryPressure9set_valueEbbb
FNDA:2,_ZN5neml217CapillaryPressure16expected_optionsEv
FNDA:2,_ZN5neml217CapillaryPressureC2ERKNS_9OptionSetE
FNDA:6,_ZN5neml217CapillaryPressure9set_valueEbbb
FNF:3
FNH:3
DA:33,2
DA:35,2
DA:36,2
DA:38,8
DA:39,8
DA:41,8
DA:42,4
DA:43,4
DA:47,2
DA:48,0
DA:50,2
DA:52,4
DA:53,2
DA:54,4
DA:55,4
DA:56,4
DA:58,2
DA:60,0
DA:62,2
DA:64,0
DA:66,2
DA:68,0
DA:69,2
DA:72,6
DA:74,6
DA:76,6
DA:79,6
DA:80,6
DA:81,6
DA:82,6
DA:83,6
DA:84,6
DA:86,6
DA:87,6
DA:89,6
DA:90,2
DA:92,6
DA:93,2
DA:94,6
DA:97,0
DA:98,0
DA:100,0
DA:101,0
DA:103,0
DA:104,0
DA:106,6
LF:46
LH:36
end_of_record
TN:
SF:/home/runner/work/neml2/neml2/src/neml2/models/porous_flow/EffectiveSaturation.cxx
FN:31,49,_ZN5neml219EffectiveSaturation16expected_optionsEv
FN:51,58,_ZN5neml219EffectiveSaturationC2ERKNS_9OptionSetE
FN:61,75,_ZN5neml219EffectiveSaturation9set_valueEbbb
FNDA:1,_ZN5neml219EffectiveSaturation16expected_optionsEv
FNDA:1,_ZN5neml219EffectiveSaturationC2ERKNS_9OptionSetE
FNDA:2,_ZN5neml219EffectiveSaturation9set_valueEbbb
FNF:3
FNH:3
DA:31,1
DA:33,1
DA:34,1
DA:38,1
DA:40,3
DA:41,3
DA:42,3
DA:43,3
DA:45,4
DA:46,3
DA:48,1
DA:49,0
DA:51,1
DA:53,3
DA:54,1
DA:55,4
DA:56,2
DA:58,1
DA:61,2
DA:63,2
DA:65,2
DA:68,2
DA:70,1
DA:72,3
DA:73,1
DA:75,2
LF:26
LH:25
end_of_record
TN:
SF:/home/runner/work/neml2/neml2/src/neml2/models/porous_flow/ExponentialLawPermeability.cxx
FN:32,45,_ZN5neml226ExponentialLawPermeability16expected_optionsEv
FN:47,53,_ZN5neml226ExponentialLawPermeabilityC2ERKNS_9OptionSetE
FN:56,63,_ZN5neml226ExponentialLawPermeability9set_valueEbbb
FNDA:1,_ZN5neml226ExponentialLawPermeability16expected_optionsEv
FNDA:1,_ZN5neml226ExponentialLawPermeabilityC2ERKNS_9OptionSetE
FNDA:2,_ZN5neml226ExponentialLawPermeability9set_valueEbbb
FNF:3
FNH:3
DA:32,1
DA:34,1
DA:35,1
DA:38,1
DA:40,4
DA:41,4
DA:42,3
DA:44,1
DA:45,0
DA:47,1
DA:49,3
DA:50,4
DA:51,5
DA:53,1
DA:56,2
DA:58,2
DA:59,2
DA:61,2
DA:62,1
DA:63,2
LF:20
LH:19
end_of_record
TN:
SF:/home/runner/work/neml2/neml2/src/neml2/models/porous_flow/KozenyCarmanPermeability.cxx
FN:32,47,_ZN5neml224KozenyCarmanPermeability16expected_optionsEv
FN:49,56,_ZN5neml224KozenyCarmanPermeabilityC2ERKNS_9OptionSetE
FN:59,67,_ZN5neml224KozenyCarmanPermeability9set_valueEbbb
FNDA:1,_ZN5neml224KozenyCarmanPermeability16expected_optionsEv
FNDA:1,_ZN5neml224KozenyCarmanPermeabilityC2ERKNS_9OptionSetE
FNDA:2,_ZN5neml224KozenyCarmanPermeability9set_valueEbbb
FNF:3
FNH:3
DA:32,1
DA:34,1
DA:35,1
DA:39,1
DA:41,4
DA:42,4
DA:43,4
DA:44,3
DA:46,1
DA:47,0
DA:49,1
DA:51,3
DA:52,4
DA:53,4
DA:54,5
DA:56,1
DA:59,2
DA:61,2
DA:62,2
DA:64,2
DA:65,3
DA:66,4
DA:67,2
LF:23
LH:22
end_of_record
TN:
SF:/home/runner/work/neml2/neml2/src/neml2/models/porous_flow/PorosityPermeabilityRelation.cxx
FN:30,39,_ZN5neml228PorosityPermeabilityRelation16expected_optionsEv
FN:41,46,_ZN5neml228PorosityPermeabilityRelationC2ERKNS_9OptionSetE
FNDA:3,_ZN5neml228PorosityPermeabilityRelation16expected_optionsEv
FNDA:3,_ZN5neml228PorosityPermeabilityRelationC2ERKNS_9OptionSetE
FNF:2
FNH:2
DA:30,3
DA:32,3
DA:33,3
DA:35,12
DA:36,9
DA:38,3
DA:39,0
DA:41,3
DA:43,6
DA:44,3
DA:46,3
LF:11
LH:10
end_of_record
TN:
SF:/home/runner/work/neml2/neml2/src/neml2/models/porous_flow/PowerLawPermeability.cxx
FN:32,44,_ZN5neml220PowerLawPermeability16expected_optionsEv
FN:46,52,_ZN5neml220PowerLawPermeabilityC2ERKNS_9OptionSetE
FN:55,62,_ZN5neml220PowerLawPermeability9set_valueEbbb
FNDA:1,_ZN5neml220PowerLawPermeability16expected_optionsEv
FNDA:1,_ZN5neml220PowerLawPermeabilityC2ERKNS_9OptionSetE
FNDA:2,_ZN5neml220PowerLawPermeability9set_valueEbbb
FNF:3
FNH:3
DA:32,1
DA:34,1
DA:35,1
DA:37,1
DA:39,4
DA:40,4
DA:41,3
DA:43,1
DA:44,0
DA:46,1
DA:48,3
DA:49,4
DA:50,5
DA:52,1
DA:55,2
DA:57,2
DA:58,2
DA:60,2
DA:61,1
DA:62,2
LF:20
LH:19
end_of_record
TN:
SF:/home/runner/work/neml2/neml2/src/neml2/models/porous_flow/VanGenuchtenCapillaryPressure.cxx
FN:33,47,_ZN5neml229VanGenuchtenCapillaryPressure16expected_optionsEv
FN:49,54,_ZN5neml229VanGenuchtenCapillaryPressureC2ERKNS_9OptionSetE
FN:57,73,_ZNK5neml229VanGenuchtenCapillaryPressure18calculate_pressureERKNS_6ScalarEbbb
FNDA:1,_ZN5neml229VanGenuchtenCapillaryPressure16expected_optionsEv
FNDA:1,_ZN5neml229VanGenuchtenCapillaryPressureC2ERKNS_9OptionSetE
FNDA:6,_ZNK5neml229VanGenuchtenCapillaryPressure18calculate_pressureERKNS_6ScalarEbbb
FNF:3
FNH:3
DA:33,1
DA:35,1
DA:36,1
DA:39,1
DA:41,3
DA:43,4
DA:44,3
DA:46,1
DA:47,0
DA:49,1
DA:51,3
DA:52,5
DA:54,1
DA:57,6
DA:62,6
DA:63,6
DA:65,6
DA:66,6
DA:67,12
DA:68,12
DA:69,18
DA:72,12
DA:73,6
LF:23
LH:22
end_of_record
TN:
SF:/home/runner/work/neml2/neml2/src/neml2/models/solid_mechanics/AssociativeIsotropicPlasticHardening.cxx
FN:33,49,_ZN5neml236AssociativeIsotropicPlasticHardening16expected_optionsEv
FN:51,57,_ZN5neml236AssociativeIsotropicPlasticHardeningC2ERKNS_9OptionSetE
FN:60,74,_ZN5neml236AssociativeIsotropicPlasticHardening9set_valueEbbb
FNDA:1,_ZN5neml236AssociativeIsotropicPlasticHardening16expected_optionsEv
FNDA:1,_ZN5neml236AssociativeIsotropicPlasticHardeningC2ERKNS_9OptionSetE
FNDA:2,_ZN5neml236AssociativeIsotropicPlasticHardening9set_valueEbbb
FNF:3
FNH:3
DA:33,1
DA:35,1
DA:36,1
DA:41,1
DA:43,4
DA:46,3
DA:48,1
DA:49,0
DA:51,1
DA:52,1
DA:54,2
DA:55,1
DA:57,1
DA:60,2
DA:66,2
DA:67,2
DA:69,2
DA:71,1
DA:72,1
DA:74,2
LF:20
LH:19
end_of_record
TN:
SF:/home/runner/work/neml2/neml2/src/neml2/models/solid_mechanics/AssociativeJ2FlowDirection.cxx
FN:38,47,_ZN5neml226AssociativeJ2FlowDirection16expected_optionsEv
FN:49,54,_ZN5neml226AssociativeJ2FlowDirectionC2ERKNS_9OptionSetE
FN:57,76,_ZN5neml226AssociativeJ2FlowDirection9set_valueEbbb
FNDA:1,_ZN5neml226AssociativeJ2FlowDirection16expected_optionsEv
FNDA:1,_ZN5neml226AssociativeJ2FlowDirectionC2ERKNS_9OptionSetE
FNDA:2,_ZN5neml226AssociativeJ2FlowDirection9set_valueEbbb
FNF:3
FNH:3
DA:38,1
DA:40,1
DA:41,1
DA:43,4
DA:44,3
DA:46,1
DA:47,0
DA:49,1
DA:51,2
DA:52,1
DA:54,1
DA:57,2
DA:59,2
DA:60,2
DA:61,2
DA:62,2
DA:64,2
DA:66,2
DA:69,2
DA:71,1
DA:72,1
DA:74,1
DA:75,1
DA:76,2
LF:24
LH:23
end_of_record
TN:
SF:/home/runner/work/neml2/neml2/src/neml2/models/solid_mechanics/AssociativeKinematicPlasticHardening.cxx
FN:36,52,_ZN5neml236AssociativeKinematicPlasticHardening16expected_optionsEv
FN:54,60,_ZN5neml236AssociativeKinematicPlasticHardeningC2ERKNS_9OptionSetE
FN:63,79,_ZN5neml236AssociativeKinematicPlasticHardening9set_valueEbbb
FNDA:1,_ZN5neml236AssociativeKinematicPlasticHardening16expected_optionsEv
FNDA:1,_ZN5neml236AssociativeKinematicPlasticHardeningC2ERKNS_9OptionSetE
FNDA:2,_ZN5neml236AssociativeKinematicPlasticHardening9set_valueEbbb
FNF:3
FNH:3
DA:36,1
DA:38,1
DA:39,1
DA:44,1
DA:46,4
DA:49,3
DA:51,1
DA:52,0
DA:54,1
DA:55,1
DA:57,2
DA:58,1
DA:60,1
DA:63,2
DA:69,2
DA:70,2
DA:72,2
DA:74,1
DA:76,1
DA:77,1
DA:78,1
DA:79,2
LF:22
LH:21
end_of_record
TN:
SF:/home/runner/work/neml2/neml2/src/neml2/models/solid_mechanics/AssociativePlasticFlow.cxx
FN:36,50,_ZN5neml222AssociativePlasticFlow16expected_optionsEv
FN:52,57,_ZN5neml222AssociativePlasticFlowC2ERKNS_9OptionSetE
FN:60,76,_ZN5neml222AssociativePlasticFlow9set_valueEbbb
FNDA:1,_ZN5neml222AssociativePlasticFlow16expected_optionsEv
FNDA:4,_ZN5neml222AssociativePlasticFlowC2ERKNS_9OptionSetE
FNDA:20,_ZN5neml222AssociativePlasticFlow9set_valueEbbb
FNF:3
FNH:3
DA:36,1
DA:38,1
DA:39,1
DA:44,1
DA:46,4
DA:47,3
DA:49,1
DA:50,0
DA:52,4
DA:54,8
DA:55,4
DA:57,4
DA:60,20
DA:66,20
DA:67,20
DA:69,20
DA:71,10
DA:73,10
DA:74,10
DA:75,10
DA:76,20
LF:21
LH:20
end_of_record
TN:
SF:/home/runner/work/neml2/neml2/src/neml2/models/solid_mechanics/ChabochePlasticHardening.cxx
FN:40,53,_ZN5neml224ChabochePlasticHardening16expected_optionsEv
FN:55,60,_ZN5neml224ChabochePlasticHardeningC2ERKNS_9OptionSetE
FN:63,97,_ZN5neml224ChabochePlasticHardening9set_valueEbbb
FNDA:1,_ZN5neml224ChabochePlasticHardening16expected_optionsEv
FNDA:2,_ZN5neml224ChabochePlasticHardeningC2ERKNS_9OptionSetE
FNDA:4,_ZN5neml224ChabochePlasticHardening9set_valueEbbb
FNF:3
FNH:3
DA:40,1
DA:42,1
DA:43,1
DA:47,1
DA:49,4
DA:50,3
DA:52,1
DA:53,0
DA:55,2
DA:57,6
DA:58,10
DA:60,2
DA:63,4
DA:65,4
DA:67,4
DA:69,4
DA:71,4
DA:73,4
DA:74,4
DA:76,4
DA:78,2
DA:80,2
DA:81,2
DA:82,2
DA:83,4
DA:85,6
DA:86,1
DA:88,8
DA:89,1
DA:91,6
DA:92,1
DA:94,6
DA:95,1
DA:96,2
DA:97,4
LF:35
LH:34
end_of_record
TN:
SF:/home/runner/work/neml2/neml2/src/neml2/models/solid_mechanics/Eigenstrain.cxx
FN:31,36,_ZN5neml211Eigenstrain16expected_optionsEv
FN:38,42,_ZN5neml211EigenstrainC2ERKNS_9OptionSetE
FNDA:3,_ZN5neml211Eigenstrain16expected_optionsEv
FNDA:4,_ZN5neml211EigenstrainC2ERKNS_9OptionSetE
FNF:2
FNH:2
DA:31,3
DA:33,3
DA:34,9
DA:35,3
DA:36,0
DA:38,4
DA:40,4
DA:42,4
LF:8
LH:7
end_of_record
TN:
SF:/home/runner/work/neml2/neml2/src/neml2/models/solid_mechanics/FlowRule.cxx
FN:31,38,_ZN5neml28FlowRule16expected_optionsEv
FN:40,44,_ZN5neml28FlowRuleC2ERKNS_9OptionSetE
FNDA:6,_ZN5neml28FlowRule16expected_optionsEv
FNDA:14,_ZN5neml28FlowRuleC2ERKNS_9OptionSetE
FNF:2
FNH:2
DA:31,6
DA:33,6
DA:34,6
DA:35,6
DA:36,18
DA:37,6
DA:38,0
DA:40,14
DA:42,14
DA:44,14
LF:10
LH:9
end_of_record
TN:
SF:/home/runner/work/neml2/neml2/src/neml2/models/solid_mechanics/FredrickArmstrongPlasticHardening.cxx
FN:37,55,_ZN5neml233FredrickArmstrongPlasticHardening16expected_optionsEv
FN:57,65,_ZN5neml233FredrickArmstrongPlasticHardeningC2ERKNS_9OptionSetE
FN:68,93,_ZN5neml233FredrickArmstrongPlasticHardening9set_valueEbbb
FNDA:2,_ZN5neml233FredrickArmstrongPlasticHardening16expected_optionsEv
FNDA:4,_ZN5neml233FredrickArmstrongPlasticHardeningC2ERKNS_9OptionSetE
FNDA:4,_ZN5neml233FredrickArmstrongPlasticHardening9set_valueEbbb
FNF:3
FNH:3
DA:37,2
DA:39,2
DA:40,2
DA:47,2
DA:49,8
DA:50,8
DA:51,8
DA:52,6
DA:54,2
DA:55,0
DA:57,4
DA:59,8
DA:60,4
DA:61,4
DA:62,16
DA:63,20
DA:65,4
DA:68,4
DA:70,4
DA:72,4
DA:74,4
DA:76,4
DA:77,4
DA:79,4
DA:81,2
DA:83,2
DA:84,2
DA:85,2
DA:87,6
DA:88,1
DA:90,6
DA:91,1
DA:92,2
DA:93,4
LF:34
LH:33
end_of_record
TN:
SF:/home/runner/work/neml2/neml2/src/neml2/models/solid_mechanics/GTNYieldFunction.cxx
FN:36,65,_ZN5neml216GTNYieldFunction16expected_optionsEv
FN:67,81,_ZN5neml216GTNYieldFunctionC2ERKNS_9OptionSetE
FN:84,354,_ZN5neml216GTNYieldFunction9set_valueEbbb
FNDA:1,_ZN5neml216GTNYieldFunction16expected_optionsEv
FNDA:3,_ZN5neml216GTNYieldFunctionC2ERKNS_9OptionSetE
FNDA:9,_ZN5neml216GTNYieldFunction9set_valueEbbb
FNF:3
FNH:3
DA:36,1
DA:38,1
DA:39,1
DA:47,1
DA:49,3
DA:51,4
DA:52,4
DA:55,4
DA:56,4
DA:58,4
DA:59,4
DA:60,4
DA:61,4
DA:62,3
DA:64,1
DA:65,0
DA:67,3
DA:69,6
DA:70,3
DA:71,3
DA:72,3
DA:73,6
DA:74,3
DA:76,12
DA:77,12
DA:78,12
DA:79,15
DA:81,3
DA:84,9
DA:87,9
DA:89,9
DA:90,18
DA:91,27
DA:93,9
DA:95,5
DA:96,5
DA:97,5
DA:99,5
DA:100,15
DA:101,20
DA:104,15
DA:105,6
DA:106,8
DA:108,15
DA:109,2
DA:111,15
DA:112,2
DA:114,15
DA:115,2
DA:118,9
DA:120,6
DA:121,6
DA:122,6
DA:123,6
DA:154,3
DA:156,3
DA:157,3
DA:159,3
DA:160,1
DA:169,3
DA:170,6
DA:171,3
DA:173,3
DA:174,3
DA:175,6
DA:176,12
DA:177,12
DA:178,3
DA:179,1
DA:180,2
DA:181,4
DA:182,4
DA:184,3
DA:185,1
DA:187,3
DA:188,1
DA:189,2
DA:190,4
DA:191,4
DA:200,3
DA:201,3
DA:203,3
DA:204,3
DA:206,3
DA:207,1
DA:209,3
DA:210,1
DA:212,3
DA:213,1
DA:215,3
DA:216,1
DA:225,3
DA:227,3
DA:228,3
DA:229,6
DA:230,12
DA:231,12
DA:232,3
DA:233,9
DA:234,6
DA:235,12
DA:236,12
DA:238,3
DA:239,3
DA:240,2
DA:241,4
DA:242,4
DA:244,3
DA:245,1
DA:247,3
DA:248,1
DA:249,2
DA:250,4
DA:251,4
DA:261,3
DA:263,1
DA:264,1
DA:266,1
DA:267,3
DA:268,2
DA:269,4
DA:270,4
DA:272,3
DA:273,2
DA:274,4
DA:275,4
DA:277,1
DA:278,1
DA:280,1
DA:281,1
DA:282,2
DA:283,4
DA:284,4
DA:294,3
DA:296,1
DA:297,1
DA:299,1
DA:300,1
DA:302,1
DA:303,1
DA:305,1
DA:306,1
DA:316,3
DA:318,1
DA:319,2
DA:320,4
DA:321,4
DA:323,1
DA:325,1
DA:326,1
DA:327,2
DA:328,4
DA:329,4
DA:331,1
DA:332,1
DA:333,2
DA:334,4
DA:335,4
DA:337,1
DA:338,1
DA:340,1
DA:341,2
DA:351,3
DA:352,1
DA:354,9
LF:165
LH:164
end_of_record
TN:
SF:/home/runner/work/neml2/neml2/src/neml2/models/solid_mechanics/GursonCavitation.cxx
FN:36,47,_ZN5neml216GursonCavitation16expected_optionsEv
FN:49,55,_ZN5neml216GursonCavitationC2ERKNS_9OptionSetE
FN:58,72,_ZN5neml216GursonCavitation9set_valueEbbb
FNDA:1,_ZN5neml216GursonCavitation16expected_optionsEv
FNDA:1,_ZN5neml216GursonCavitationC2ERKNS_9OptionSetE
FNDA:2,_ZN5neml216GursonCavitation9set_valueEbbb
FNF:3
FNH:3
DA:36,1
DA:38,1
DA:39,1
DA:40,1
DA:42,4
DA:43,4
DA:44,3
DA:46,1
DA:47,0
DA:49,1
DA:51,2
DA:52,1
DA:53,2
DA:55,1
DA:58,2
DA:60,2
DA:62,2
DA:63,2
DA:65,2
DA:67,1
DA:69,1
DA:70,1
DA:71,1
DA:72,2
LF:24
LH:23
end_of_record
TN:
SF:/home/runner/work/neml2/neml2/src/neml2/models/solid_mechanics/IsotropicHardening.cxx
FN:31,40,_ZN5neml218IsotropicHardening16expected_optionsEv
FN:42,47,_ZN5neml218IsotropicHardeningC2ERKNS_9OptionSetE
FNDA:2,_ZN5neml218IsotropicHardening16expected_optionsEv
FNDA:4,_ZN5neml218IsotropicHardeningC2ERKNS_9OptionSetE
FNF:2
FNH:2
DA:31,2
DA:33,2
DA:34,2
DA:36,8
DA:37,6
DA:39,2
DA:40,0
DA:42,4
DA:44,8
DA:45,4
DA:47,4
LF:11
LH:10
end_of_record
TN:
SF:/home/runner/work/neml2/neml2/src/neml2/models/solid_mechanics/IsotropicHardeningStaticRecovery.cxx
FN:31,37,_ZN5neml232IsotropicHardeningStaticRecovery16expected_optionsEv
FN:39,44,_ZN5neml232IsotropicHardeningStaticRecoveryC2ERKNS_9OptionSetE
FNDA:1,_ZN5neml232IsotropicHardeningStaticRecovery16expected_optionsEv
FNDA:1,_ZN5neml232IsotropicHardeningStaticRecoveryC2ERKNS_9OptionSetE
FNF:2
FNH:2
DA:31,1
DA:33,1
DA:34,1
DA:35,3
DA:36,1
DA:37,0
DA:39,1
DA:41,2
DA:42,1
DA:44,1
LF:10
LH:9
end_of_record
TN:
SF:/home/runner/work/neml2/neml2/src/neml2/models/solid_mechanics/IsotropicMandelStress.cxx
FN:35,41,_ZN5neml221IsotropicMandelStress16expected_optionsEv
FN:44,53,_ZN5neml221IsotropicMandelStress9set_valueEbbb
FNDA:1,_ZN5neml221IsotropicMandelStress16expected_optionsEv
FNDA:20,_ZN5neml221IsotropicMandelStress9set_valueEbbb
FNF:2
FNH:2
DA:35,1
DA:37,1
DA:38,1
DA:39,1
DA:40,1
DA:41,0
DA:44,20
DA:48,20
DA:49,20
DA:51,20
DA:52,10
DA:53,20
LF:12
LH:11
end_of_record
TN:
SF:/home/runner/work/neml2/neml2/src/neml2/models/solid_mechanics/KinematicHardening.cxx
FN:31,40,_ZN5neml218KinematicHardening16expected_optionsEv
FN:42,47,_ZN5neml218KinematicHardeningC2ERKNS_9OptionSetE
FNDA:1,_ZN5neml218KinematicHardening16expected_optionsEv
FNDA:2,_ZN5neml218KinematicHardeningC2ERKNS_9OptionSetE
FNF:2
FNH:2
DA:31,1
DA:33,1
DA:34,1
DA:36,4
DA:37,3
DA:39,1
DA:40,0
DA:42,2
DA:44,4
DA:45,2
DA:47,2
LF:11
LH:10
end_of_record
TN:
SF:/home/runner/work/neml2/neml2/src/neml2/models/solid_mechanics/KinematicHardeningStaticRecovery.cxx
FN:32,38,_ZN5neml232KinematicHardeningStaticRecovery16expected_optionsEv
FN:40,45,_ZN5neml232KinematicHardeningStaticRecoveryC2ERKNS_9OptionSetE
FNDA:1,_ZN5neml232KinematicHardeningStaticRecovery16expected_optionsEv
FNDA:1,_ZN5neml232KinematicHardeningStaticRecoveryC2ERKNS_9OptionSetE
FNF:2
FNH:2
DA:32,1
DA:34,1
DA:35,1
DA:36,3
DA:37,1
DA:38,0
DA:40,1
DA:42,2
DA:43,1
DA:45,1
LF:10
LH:9
end_of_record
TN:
SF:/home/runner/work/neml2/neml2/src/neml2/models/solid_mechanics/KocksMeckingActivationEnergy.cxx
FN:34,54,_ZN5neml228KocksMeckingActivationEnergy16expected_optionsEv
FN:56,66,_ZN5neml228KocksMeckingActivationEnergyC2ERKNS_9OptionSetE
FN:69,82,_ZN5neml228KocksMeckingActivationEnergy9set_valueEbbb
FNDA:1,_ZN5neml228KocksMeckingActivationEnergy16expected_optionsEv
FNDA:2,_ZN5neml228KocksMeckingActivationEnergyC2ERKNS_9OptionSetE
FNDA:4,_ZN5neml228KocksMeckingActivationEnergy9set_valueEbbb
FNF:3
FNH:3
DA:34,1
DA:36,1
DA:37,1
DA:42,1
DA:44,4
DA:46,4
DA:47,4
DA:48,4
DA:50,4
DA:51,4
DA:52,3
DA:53,1
DA:54,0
DA:56,2
DA:58,8
DA:59,4
DA:60,4
DA:61,10
DA:62,2
DA:63,2
DA:64,4
DA:66,2
DA:69,4
DA:71,4
DA:72,4
DA:74,4
DA:76,2
DA:77,2
DA:79,6
DA:80,1
DA:82,4
LF:31
LH:30
end_of_record
TN:
SF:/home/runner/work/neml2/neml2/src/neml2/models/solid_mechanics/KocksMeckingFlowSwitch.cxx
FN:36,58,_ZN5neml222KocksMeckingFlowSwitch16expected_optionsEv
FN:60,69,_ZN5neml222KocksMeckingFlowSwitchC2ERKNS_9OptionSetE
FN:72,92,_ZN5neml222KocksMeckingFlowSwitch9set_valueEbbb
FNDA:1,_ZN5neml222KocksMeckingFlowSwitch16expected_optionsEv
FNDA:2,_ZN5neml222KocksMeckingFlowSwitchC2ERKNS_9OptionSetE
FNDA:4,_ZN5neml222KocksMeckingFlowSwitch9set_valueEbbb
FNF:3
FNH:3
DA:36,1
DA:38,1
DA:39,1
DA:43,1
DA:45,4
DA:46,4
DA:47,3
DA:49,2
DA:53,4
DA:54,4
DA:55,3
DA:57,1
DA:58,0
DA:60,2
DA:62,6
DA:63,2
DA:64,2
DA:65,2
DA:66,2
DA:67,4
DA:69,2
DA:72,4
DA:74,4
DA:76,4
DA:77,4
DA:79,4
DA:81,2
DA:82,2
DA:84,2
DA:85,2
DA:87,2
DA:89,6
DA:90,1
DA:91,2
DA:92,4
LF:35
LH:34
end_of_record
TN:
SF:/home/runner/work/neml2/neml2/src/neml2/models/solid_mechanics/KocksMeckingFlowViscosity.cxx
FN:35,61,_ZN5neml225KocksMeckingFlowViscosity16expected_optionsEv
FN:63,74,_ZN5neml225KocksMeckingFlowViscosityC2ERKNS_9OptionSetE
FN:77,159,_ZN5neml225KocksMeckingFlowViscosity9set_valueEbbb
FNDA:1,_ZN5neml225KocksMeckingFlowViscosity16expected_optionsEv
FNDA:2,_ZN5neml225KocksMeckingFlowViscosityC2ERKNS_9OptionSetE
FNDA:6,_ZN5neml225KocksMeckingFlowViscosity9set_valueEbbb
FNF:3
FNH:3
DA:35,1
DA:37,1
DA:38,1
DA:46,1
DA:48,3
DA:50,4
DA:51,4
DA:52,4
DA:54,4
DA:55,4
DA:56,4
DA:58,3
DA:60,1
DA:61,0
DA:63,2
DA:65,6
DA:66,8
DA:67,10
DA:68,4
DA:69,4
DA:70,10
DA:71,2
DA:72,4
DA:74,2
DA:77,6
DA:79,6
DA:81,6
DA:82,6
DA:84,6
DA:86,3
DA:88,12
DA:89,2
DA:91,9
DA:92,2
DA:94,9
DA:95,2
DA:98,6
DA:101,2
DA:103,6
DA:104,3
DA:105,4
DA:107,6
DA:108,1
DA:110,6
DA:111,1
DA:114,6
DA:116,3
DA:117,4
DA:119,1
DA:121,3
DA:122,1
DA:124,3
DA:125,1
DA:129,6
DA:131,1
DA:133,3
DA:134,1
DA:136,1
DA:138,3
DA:139,1
DA:140,2
DA:144,6
DA:146,1
DA:148,3
DA:149,1
DA:151,3
DA:152,1
DA:153,2
DA:155,1
DA:156,2
DA:159,6
LF:71
LH:70
end_of_record
TN:
SF:/home/runner/work/neml2/neml2/src/neml2/models/solid_mechanics/KocksMeckingIntercept.cxx
FN:34,48,_ZN5neml221KocksMeckingIntercept16expected_optionsEv
FN:50,57,_ZN5neml221KocksMeckingInterceptC2ERKNS_9OptionSetE
FN:60,96,_ZN5neml221KocksMeckingIntercept9set_valueEbbb
FNDA:1,_ZN5neml221KocksMeckingIntercept16expected_optionsEv
FNDA:2,_ZN5neml221KocksMeckingInterceptC2ERKNS_9OptionSetE
FNDA:6,_ZN5neml221KocksMeckingIntercept9set_valueEbbb
FNF:3
FNH:3
DA:34,1
DA:36,1
DA:37,1
DA:38,1
DA:40,3
DA:42,4
DA:43,4
DA:44,4
DA:45,3
DA:47,1
DA:48,0
DA:50,2
DA:52,6
DA:53,8
DA:54,8
DA:55,4
DA:57,2
DA:60,6
DA:62,6
DA:63,6
DA:65,6
DA:67,9
DA:68,2
DA:70,9
DA:71,2
DA:73,9
DA:74,2
DA:77,6
DA:79,6
DA:81,1
DA:82,3
DA:83,1
DA:84,3
DA:85,1
DA:88,8
DA:89,3
DA:90,1
DA:92,6
DA:93,3
DA:94,1
DA:96,6
LF:41
LH:40
end_of_record
TN:
SF:/home/runner/work/neml2/neml2/src/neml2/models/solid_mechanics/KocksMeckingRateSensitivity.cxx
FN:33,54,_ZN5neml227KocksMeckingRateSensitivity16expected_optionsEv
FN:56,65,_ZN5neml227KocksMeckingRateSensitivityC2ERKNS_9OptionSetE
FN:68,113,_ZN5neml227KocksMeckingRateSensitivity9set_valueEbbb
FNDA:1,_ZN5neml227KocksMeckingRateSensitivity16expected_optionsEv
FNDA:2,_ZN5neml227KocksMeckingRateSensitivityC2ERKNS_9OptionSetE
FNDA:6,_ZN5neml227KocksMeckingRateSensitivity9set_valueEbbb
FNF:3
FNH:3
DA:33,1
DA:35,1
DA:36,1
DA:40,1
DA:42,3
DA:44,4
DA:45,4
DA:47,4
DA:48,4
DA:50,4
DA:51,3
DA:53,1
DA:54,0
DA:56,2
DA:58,6
DA:59,10
DA:60,4
DA:61,10
DA:62,2
DA:63,4
DA:65,2
DA:68,6
DA:70,6
DA:71,6
DA:73,6
DA:75,3
DA:76,9
DA:77,2
DA:78,9
DA:79,2
DA:82,6
DA:85,2
DA:87,6
DA:90,1
DA:92,1
DA:93,1
DA:94,1
DA:95,1
DA:97,6
DA:100,1
DA:101,1
DA:102,1
DA:104,3
DA:107,1
DA:108,1
DA:109,1
DA:110,1
DA:111,1
DA:113,6
LF:49
LH:48
end_of_record
TN:
SF:/home/runner/work/neml2/neml2/src/neml2/models/solid_mechanics/KocksMeckingYieldStress.cxx
FN:34,49,_ZN5neml223KocksMeckingYieldStress16expected_optionsEv
FN:51,57,_ZN5neml223KocksMeckingYieldStressC2ERKNS_9OptionSetE
FN:60,87,_ZN5neml223KocksMeckingYieldStress9set_valueEbbb
FNDA:1,_ZN5neml223KocksMeckingYieldStress16expected_optionsEv
FNDA:2,_ZN5neml223KocksMeckingYieldStressC2ERKNS_9OptionSetE
FNDA:5,_ZN5neml223KocksMeckingYieldStress9set_valueEbbb
FNF:3
FNH:3
DA:34,1
DA:36,1
DA:38,1
DA:40,1
DA:42,3
DA:44,4
DA:45,4
DA:46,3
DA:48,1
DA:49,0
DA:51,2
DA:53,6
DA:54,8
DA:55,4
DA:57,2
DA:60,5
DA:62,5
DA:63,5
DA:65,5
DA:67,9
DA:68,2
DA:70,9
DA:71,2
DA:74,5
DA:76,3
DA:78,1
DA:80,3
DA:82,1
DA:83,1
DA:87,5
LF:30
LH:29
end_of_record
TN:
SF:/home/runner/work/neml2/neml2/src/neml2/models/solid_mechanics/LinearIsotropicElasticJ2TrialStressUpdate.cxx
FN:33,46,_ZN5neml241LinearIsotropicElasticJ2TrialStressUpdate16expected_optionsEv
FN:48,58,_ZN5neml241LinearIsotropicElasticJ2TrialStressUpdateC2ERKNS_9OptionSetE
FN:61,88,_ZN5neml241LinearIsotropicElasticJ2TrialStressUpdate9set_valueEbbb
FNDA:1,_ZN5neml241LinearIsotropicElasticJ2TrialStressUpdate16expected_optionsEv
FNDA:1,_ZN5neml241LinearIsotropicElasticJ2TrialStressUpdateC2ERKNS_9OptionSetE
FNDA:2,_ZN5neml241LinearIsotropicElasticJ2TrialStressUpdate9set_valueEbbb
FNF:3
FNH:3
DA:33,1
DA:35,1
DA:37,1
DA:38,1
DA:40,4
DA:41,4
DA:42,3
DA:45,1
DA:46,0
DA:48,1
DA:49,1
DA:51,2
DA:52,1
DA:53,1
DA:54,1
DA:55,1
DA:56,2
DA:58,1
DA:61,2
DA:63,2
DA:64,2
DA:66,2
DA:67,4
DA:68,6
DA:70,2
DA:72,1
DA:73,2
DA:74,1
DA:75,1
DA:77,1
DA:78,0
DA:80,1
DA:81,0
DA:88,2
LF:34
LH:31
end_of_record
TN:
SF:/home/runner/work/neml2/neml2/src/neml2/models/solid_mechanics/LinearIsotropicHardening.cxx
FN:33,45,_ZN5neml224LinearIsotropicHardening16expected_optionsEv
FN:47,51,_ZN5neml224LinearIsotropicHardeningC2ERKNS_9OptionSetE
FN:54,61,_ZN5neml224LinearIsotropicHardening9set_valueEbbb
FNDA:1,_ZN5neml224LinearIsotropicHardening16expected_optionsEv
FNDA:2,_ZN5neml224LinearIsotropicHardeningC2ERKNS_9OptionSetE
FNDA:2,_ZN5neml224LinearIsotropicHardening9set_valueEbbb
FNF:3
FNH:3
DA:33,1
DA:35,1
DA:36,1
DA:38,1
DA:40,3
DA:42,3
DA:44,1
DA:45,0
DA:47,2
DA:49,9
DA:51,2
DA:54,2
DA:56,2
DA:57,2
DA:59,2
DA:60,1
DA:61,2
LF:17
LH:16
end_of_record
TN:
SF:/home/runner/work/neml2/neml2/src/neml2/models/solid_mechanics/LinearKinematicHardening.cxx
FN:36,47,_ZN5neml224LinearKinematicHardening16expected_optionsEv
FN:49,53,_ZN5neml224LinearKinematicHardeningC2ERKNS_9OptionSetE
FN:56,68,_ZN5neml224LinearKinematicHardening9set_valueEbbb
FNDA:1,_ZN5neml224LinearKinematicHardening16expected_optionsEv
FNDA:2,_ZN5neml224LinearKinematicHardeningC2ERKNS_9OptionSetE
FNDA:4,_ZN5neml224LinearKinematicHardening9set_valueEbbb
FNF:3
FNH:3
DA:36,1
DA:38,1
DA:39,1
DA:40,1
DA:42,3
DA:44,3
DA:46,1
DA:47,0
DA:49,2
DA:51,8
DA:53,2
DA:56,4
DA:58,4
DA:59,4
DA:61,4
DA:63,2
DA:65,6
DA:66,1
DA:68,4
LF:19
LH:18
end_of_record
TN:
SF:/home/runner/work/neml2/neml2/src/neml2/models/solid_mechanics/MandelStress.cxx
FN:31,40,_ZN5neml212MandelStress16expected_optionsEv
FN:42,47,_ZN5neml212MandelStressC2ERKNS_9OptionSetE
FNDA:1,_ZN5neml212MandelStress16expected_optionsEv
FNDA:4,_ZN5neml212MandelStressC2ERKNS_9OptionSetE
FNF:2
FNH:2
DA:31,1
DA:33,1
DA:34,1
DA:36,4
DA:37,3
DA:39,1
DA:40,0
DA:42,4
DA:44,8
DA:45,4
DA:47,4
LF:11
LH:10
end_of_record
TN:
SF:/home/runner/work/neml2/neml2/src/neml2/models/solid_mechanics/Normality.cxx
FN:33,45,_ZN5neml29Normality16expected_optionsEv
FN:47,65,_ZN5neml29NormalityC2ERKNS_9OptionSetE
FN:68,106,_ZN5neml29Normality9set_valueEbbb
FNDA:1,_ZN5neml29Normality16expected_optionsEv
FNDA:4,_ZN5neml29NormalityC2ERKNS_9OptionSetE
FNDA:20,_ZN5neml29Normality9set_valueEbbb
FNF:3
FNH:3
DA:33,1
DA:35,1
DA:36,1
DA:37,1
DA:39,4
DA:40,4
DA:41,4
DA:42,3
DA:44,1
DA:45,0
DA:47,4
DA:49,8
DA:50,12
DA:53,8
DA:54,4
DA:55,4
DA:57,4
DA:59,4
DA:63,10
DA:64,6
DA:65,4
DA:68,20
DA:74,20
DA:75,20
DA:76,20
DA:78,20
DA:79,44
DA:81,24
DA:82,24
DA:83,0
DA:85,24
DA:87,24
DA:89,24
DA:91,0
DA:92,0
DA:95,24
DA:98,24
DA:99,30
DA:100,18
DA:101,13
DA:102,13
DA:103,13
DA:104,26
DA:106,20
LF:44
LH:40
end_of_record
TN:
SF:/home/runner/work/neml2/neml2/src/neml2/models/solid_mechanics/OlevskySinteringStress.cxx
FN:33,50,_ZN5neml222OlevskySinteringStress16expected_optionsEv
FN:52,59,_ZN5neml222OlevskySinteringStressC2ERKNS_9OptionSetE
FN:62,72,_ZN5neml222OlevskySinteringStress9set_valueEbbb
FNDA:1,_ZN5neml222OlevskySinteringStress16expected_optionsEv
FNDA:1,_ZN5neml222OlevskySinteringStressC2ERKNS_9OptionSetE
FNDA:3,_ZN5neml222OlevskySinteringStress9set_valueEbbb
FNF:3
FNH:3
DA:33,1
DA:35,1
DA:36,1
DA:40,1
DA:42,3
DA:44,4
DA:45,4
DA:46,4
DA:47,3
DA:49,1
DA:50,0
DA:52,1
DA:54,2
DA:55,1
DA:56,4
DA:57,5
DA:59,1
DA:62,3
DA:64,3
DA:65,3
DA:67,3
DA:68,1
DA:70,3
DA:71,1
DA:72,3
LF:25
LH:24
end_of_record
TN:
SF:/home/runner/work/neml2/neml2/src/neml2/models/solid_mechanics/PerzynaPlasticFlowRate.cxx
FN:37,50,_ZN5neml222PerzynaPlasticFlowRate16expected_optionsEv
FN:52,57,_ZN5neml222PerzynaPlasticFlowRateC2ERKNS_9OptionSetE
FN:60,82,_ZN5neml222PerzynaPlasticFlowRate9set_valueEbbb
FNDA:1,_ZN5neml222PerzynaPlasticFlowRate16expected_optionsEv
FNDA:5,_ZN5neml222PerzynaPlasticFlowRateC2ERKNS_9OptionSetE
FNDA:22,_ZN5neml222PerzynaPlasticFlowRate9set_valueEbbb
FNF:3
FNH:3
DA:37,1
DA:39,1
DA:40,1
DA:44,1
DA:46,4
DA:47,3
DA:49,1
DA:50,0
DA:52,5
DA:54,15
DA:55,25
DA:57,5
DA:60,22
DA:63,22
DA:64,22
DA:65,22
DA:66,22
DA:68,22
DA:69,22
DA:71,22
DA:73,11
DA:74,11
DA:76,33
DA:77,1
DA:79,33
DA:80,1
DA:81,11
DA:82,22
LF:28
LH:27
end_of_record
TN:
SF:/home/runner/work/neml2/neml2/src/neml2/models/solid_mechanics/PhaseTransformationEigenstrain.cxx
FN:32,47,_ZN5neml230PhaseTransformationEigenstrain16expected_optionsEv
FN:49,54,_ZN5neml230PhaseTransformationEigenstrainC2ERKNS_9OptionSetE
FN:57,73,_ZN5neml230PhaseTransformationEigenstrain9set_valueEbbb
FNDA:1,_ZN5neml230PhaseTransformationEigenstrain16expected_optionsEv
FNDA:1,_ZN5neml230PhaseTransformationEigenstrainC2ERKNS_9OptionSetE
FNDA:2,_ZN5neml230PhaseTransformationEigenstrain9set_valueEbbb
FNF:3
FNH:3
DA:32,1
DA:34,1
DA:35,1
DA:39,1
DA:40,3
DA:42,4
DA:44,3
DA:46,1
DA:47,0
DA:49,1
DA:51,2
DA:52,1
DA:54,1
DA:57,2
DA:59,2
DA:60,2
DA:62,2
DA:64,1
DA:65,1
DA:68,2
DA:70,0
DA:71,0
DA:73,2
LF:23
LH:20
end_of_record
TN:
SF:/home/runner/work/neml2/neml2/src/neml2/models/solid_mechanics/PlasticFlowRate.cxx
FN:31,39,_ZN5neml215PlasticFlowRate16expected_optionsEv
FN:41,46,_ZN5neml215PlasticFlowRateC2ERKNS_9OptionSetE
FNDA:1,_ZN5neml215PlasticFlowRate16expected_optionsEv
FNDA:5,_ZN5neml215PlasticFlowRateC2ERKNS_9OptionSetE
FNF:2
FNH:2
DA:31,1
DA:33,1
DA:35,4
DA:36,3
DA:38,1
DA:39,0
DA:41,5
DA:43,10
DA:44,5
DA:46,5
LF:10
LH:9
end_of_record
TN:
SF:/home/runner/work/neml2/neml2/src/neml2/models/solid_mechanics/PowerLawIsotropicHardeningStaticRecovery.cxx
FN:36,47,_ZN5neml240PowerLawIsotropicHardeningStaticRecovery16expected_optionsEv
FN:49,55,_ZN5neml240PowerLawIsotropicHardeningStaticRecoveryC2ERKNS_9OptionSetE
FN:58,74,_ZN5neml240PowerLawIsotropicHardeningStaticRecovery9set_valueEbbb
FNDA:1,_ZN5neml240PowerLawIsotropicHardeningStaticRecovery16expected_optionsEv
FNDA:1,_ZN5neml240PowerLawIsotropicHardeningStaticRecoveryC2ERKNS_9OptionSetE
FNDA:2,_ZN5neml240PowerLawIsotropicHardeningStaticRecovery9set_valueEbbb
FNF:3
FNH:3
DA:36,1
DA:38,1
DA:39,1
DA:41,1
DA:43,4
DA:44,3
DA:46,1
DA:47,0
DA:49,1
DA:50,1
DA:52,3
DA:53,5
DA:55,1
DA:58,2
DA:60,2
DA:61,2
DA:63,2
DA:65,1
DA:67,3
DA:68,1
DA:70,3
DA:71,3
DA:72,4
DA:74,2
LF:24
LH:23
end_of_record
TN:
SF:/home/runner/work/neml2/neml2/src/neml2/models/solid_mechanics/PowerLawKinematicHardeningStaticRecovery.cxx
FN:40,54,_ZN5neml240PowerLawKinematicHardeningStaticRecovery16expected_optionsEv
FN:56,62,_ZN5neml240PowerLawKinematicHardeningStaticRecoveryC2ERKNS_9OptionSetE
FN:65,85,_ZN5neml240PowerLawKinematicHardeningStaticRecovery9set_valueEbbb
FNDA:1,_ZN5neml240PowerLawKinematicHardeningStaticRecovery16expected_optionsEv
FNDA:1,_ZN5neml240PowerLawKinematicHardeningStaticRecoveryC2ERKNS_9OptionSetE
FNDA:2,_ZN5neml240PowerLawKinematicHardeningStaticRecovery9set_valueEbbb
FNF:3
FNH:3
DA:40,1
DA:42,1
DA:43,1
DA:48,1
DA:50,4
DA:51,3
DA:53,1
DA:54,0
DA:56,1
DA:57,1
DA:59,3
DA:60,5
DA:62,1
DA:65,2
DA:67,2
DA:69,2
DA:71,2
DA:72,2
DA:74,2
DA:76,1
DA:77,1
DA:79,3
DA:80,1
DA:82,3
DA:83,1
DA:84,1
DA:85,2
LF:27
LH:26
end_of_record
TN:
SF:/home/runner/work/neml2/neml2/src/neml2/models/solid_mechanics/SlopeSaturationVoceIsotropicHardening.cxx
FN:34,51,_ZN5neml237SlopeSaturationVoceIsotropicHardening16expected_optionsEv
FN:53,61,_ZN5neml237SlopeSaturationVoceIsotropicHardeningC2ERKNS_9OptionSetE
FN:64,80,_ZN5neml237SlopeSaturationVoceIsotropicHardening9set_valueEbbb
FNDA:1,_ZN5neml237SlopeSaturationVoceIsotropicHardening16expected_optionsEv
FNDA:4,_ZN5neml237SlopeSaturationVoceIsotropicHardeningC2ERKNS_9OptionSetE
FNDA:8,_ZN5neml237SlopeSaturationVoceIsotropicHardening9set_valueEbbb
FNF:3
FNH:3
DA:34,1
DA:36,1
DA:37,1
DA:44,1
DA:46,4
DA:47,4
DA:48,3
DA:50,1
DA:51,0
DA:53,4
DA:54,4
DA:56,8
DA:57,4
DA:58,16
DA:59,20
DA:61,4
DA:64,8
DA:66,8
DA:67,8
DA:69,8
DA:71,4
DA:72,4
DA:74,12
DA:75,2
DA:77,12
DA:78,2
DA:80,8
LF:27
LH:26
end_of_record
TN:
SF:/home/runner/work/neml2/neml2/src/neml2/models/solid_mechanics/SwellingAndPhaseChangeDeformationJacobian.cxx
FN:33,56,_ZN5neml241SwellingAndPhaseChangeDeformationJacobian16expected_optionsEv
FN:58,67,_ZN5neml241SwellingAndPhaseChangeDeformationJacobianC2ERKNS_9OptionSetE
FN:70,82,_ZN5neml241SwellingAndPhaseChangeDeformationJacobian9set_valueEbbb
FNDA:1,_ZN5neml241SwellingAndPhaseChangeDeformationJacobian16expected_optionsEv
FNDA:1,_ZN5neml241SwellingAndPhaseChangeDeformationJacobianC2ERKNS_9OptionSetE
FNDA:2,_ZN5neml241SwellingAndPhaseChangeDeformationJacobian9set_valueEbbb
FNF:3
FNH:3
DA:33,1
DA:35,1
DA:36,1
DA:42,1
DA:44,4
DA:45,4
DA:47,4
DA:50,4
DA:51,3
DA:55,1
DA:56,0
DA:58,1
DA:59,1
DA:61,2
DA:62,4
DA:63,4
DA:64,4
DA:65,2
DA:67,1
DA:70,2
DA:72,2
DA:73,2
DA:75,2
DA:77,1
DA:79,3
DA:80,1
DA:82,2
LF:27
LH:26
end_of_record
TN:
SF:/home/runner/work/neml2/neml2/src/neml2/models/solid_mechanics/ThermalDeformationJacobian.cxx
FN:33,47,_ZN5neml226ThermalDeformationJacobian16expected_optionsEv
FN:49,56,_ZN5neml226ThermalDeformationJacobianC2ERKNS_9OptionSetE
FN:59,71,_ZN5neml226ThermalDeformationJacobian9set_valueEbbb
FNDA:1,_ZN5neml226ThermalDeformationJacobian16expected_optionsEv
FNDA:1,_ZN5neml226ThermalDeformationJacobianC2ERKNS_9OptionSetE
FNDA:2,_ZN5neml226ThermalDeformationJacobian9set_valueEbbb
FNF:3
FNH:3
DA:33,1
DA:35,1
DA:36,1
DA:39,1
DA:41,4
DA:42,4
DA:43,4
DA:44,3
DA:46,1
DA:47,0
DA:49,1
DA:51,2
DA:52,4
DA:53,4
DA:54,2
DA:56,1
DA:59,2
DA:61,2
DA:62,2
DA:64,2
DA:66,1
DA:68,3
DA:69,0
DA:71,2
LF:24
LH:22
end_of_record
TN:
SF:/home/runner/work/neml2/neml2/src/neml2/models/solid_mechanics/ThermalEigenstrain.cxx
FN:34,49,_ZN5neml218ThermalEigenstrain16expected_optionsEv
FN:51,57,_ZN5neml218ThermalEigenstrainC2ERKNS_9OptionSetE
FN:60,81,_ZN5neml218ThermalEigenstrain9set_valueEbbb
FNDA:1,_ZN5neml218ThermalEigenstrain16expected_optionsEv
FNDA:2,_ZN5neml218ThermalEigenstrainC2ERKNS_9OptionSetE
FNDA:4,_ZN5neml218ThermalEigenstrain9set_valueEbbb
FNF:3
FNH:3
DA:34,1
DA:36,1
DA:37,1
DA:41,1
DA:42,3
DA:44,4
DA:45,4
DA:46,3
DA:48,1
DA:49,0
DA:51,2
DA:53,4
DA:54,8
DA:55,10
DA:57,2
DA:60,4
DA:62,4
DA:63,4
DA:65,4
DA:67,2
DA:69,6
DA:70,1
DA:73,4
DA:75,0
DA:77,0
DA:78,0
DA:81,4
LF:27
LH:23
end_of_record
TN:
SF:/home/runner/work/neml2/neml2/src/neml2/models/solid_mechanics/TwoStageThermalAnnealing.cxx
FN:44,68,_ZN5neml224TwoStageThermalAnnealingINS_3SR2EE16expected_optionsEv
FN:44,68,_ZN5neml224TwoStageThermalAnnealingINS_6ScalarEE16expected_optionsEv
FN:71,81,_ZN5neml224TwoStageThermalAnnealingINS_3SR2EEC2ERKNS_9OptionSetE
FN:71,81,_ZN5neml224TwoStageThermalAnnealingINS_6ScalarEEC2ERKNS_9OptionSetE
FN:85,102,_ZN5neml224TwoStageThermalAnnealingINS_3SR2EE9set_valueEbbb
FN:85,102,_ZN5neml224TwoStageThermalAnnealingINS_6ScalarEE9set_valueEbbb
FNDA:1,_ZN5neml224TwoStageThermalAnnealingINS_3SR2EE16expected_optionsEv
FNDA:1,_ZN5neml224TwoStageThermalAnnealingINS_6ScalarEE16expected_optionsEv
FNDA:1,_ZN5neml224TwoStageThermalAnnealingINS_3SR2EEC2ERKNS_9OptionSetE
FNDA:1,_ZN5neml224TwoStageThermalAnnealingINS_6ScalarEEC2ERKNS_9OptionSetE
FNDA:2,_ZN5neml224TwoStageThermalAnnealingINS_3SR2EE9set_valueEbbb
FNDA:2,_ZN5neml224TwoStageThermalAnnealingINS_6ScalarEE9set_valueEbbb
FNF:6
FNH:6
DA:44,2
DA:48,2
DA:50,2
DA:51,2
DA:58,8
DA:59,8
DA:60,8
DA:61,8
DA:63,8
DA:64,8
DA:65,6
DA:67,4
DA:68,2
DA:71,2
DA:73,4
DA:74,2
DA:75,2
DA:76,2
DA:77,8
DA:78,8
DA:79,10
DA:81,2
DA:85,4
DA:87,4
DA:88,4
DA:89,4
DA:90,4
DA:92,4
DA:93,4
DA:95,4
DA:97,2
DA:99,2
DA:100,2
DA:101,2
DA:102,4
LF:35
LH:35
end_of_record
TN:
SF:/home/runner/work/neml2/neml2/src/neml2/models/solid_mechanics/VoceIsotropicHardening.cxx
FN:34,48,_ZN5neml222VoceIsotropicHardening16expected_optionsEv
FN:50,55,_ZN5neml222VoceIsotropicHardeningC2ERKNS_9OptionSetE
FN:58,76,_ZN5neml222VoceIsotropicHardening9set_valueEbbb
FNDA:1,_ZN5neml222VoceIsotropicHardening16expected_optionsEv
FNDA:2,_ZN5neml222VoceIsotropicHardeningC2ERKNS_9OptionSetE
FNDA:5,_ZN5neml222VoceIsotropicHardening9set_valueEbbb
FNF:3
FNH:3
DA:34,1
DA:36,1
DA:37,1
DA:40,1
DA:42,3
DA:44,4
DA:45,3
DA:47,1
DA:48,0
DA:50,2
DA:52,6
DA:53,10
DA:55,2
DA:58,5
DA:60,5
DA:61,5
DA:63,5
DA:65,2
DA:67,6
DA:68,1
DA:70,6
DA:71,1
DA:74,5
DA:75,1
DA:76,5
LF:25
LH:24
end_of_record
TN:
SF:/home/runner/work/neml2/neml2/src/neml2/models/solid_mechanics/VolumeAdjustDeformationGradient.cxx
FN:36,51,_ZN5neml231VolumeAdjustDeformationGradient16expected_optionsEv
FN:53,59,_ZN5neml231VolumeAdjustDeformationGradientC2ERKNS_9OptionSetE
FN:62,73,_ZN5neml231VolumeAdjustDeformationGradient9set_valueEbbb
FNDA:1,_ZN5neml231VolumeAdjustDeformationGradient16expected_optionsEv
FNDA:1,_ZN5neml231VolumeAdjustDeformationGradientC2ERKNS_9OptionSetE
FNDA:2,_ZN5neml231VolumeAdjustDeformationGradient9set_valueEbbb
FNF:3
FNH:3
DA:36,1
DA:38,1
DA:39,1
DA:42,1
DA:44,4
DA:45,4
DA:48,3
DA:50,1
DA:51,0
DA:53,1
DA:55,2
DA:56,1
DA:57,2
DA:59,1
DA:62,2
DA:64,2
DA:65,2
DA:67,2
DA:69,1
DA:70,1
DA:71,1
DA:72,1
DA:73,2
LF:23
LH:22
end_of_record
TN:
SF:/home/runner/work/neml2/neml2/src/neml2/models/solid_mechanics/VolumeChangeEigenstrain.cxx
FN:33,48,_ZN5neml223VolumeChangeEigenstrain16expected_optionsEv
FN:50,55,_ZN5neml223VolumeChangeEigenstrainC2ERKNS_9OptionSetE
FN:58,69,_ZN5neml223VolumeChangeEigenstrain9set_valueEbbb
FNDA:1,_ZN5neml223VolumeChangeEigenstrain16expected_optionsEv
FNDA:1,_ZN5neml223VolumeChangeEigenstrainC2ERKNS_9OptionSetE
FNDA:2,_ZN5neml223VolumeChangeEigenstrain9set_valueEbbb
FNF:3
FNH:3
DA:33,1
DA:35,1
DA:36,1
DA:40,1
DA:42,4
DA:43,3
DA:45,2
DA:47,1
DA:48,0
DA:50,1
DA:52,3
DA:53,2
DA:55,1
DA:58,2
DA:60,2
DA:61,2
DA:63,2
DA:64,1
DA:66,2
DA:67,0
DA:68,0
DA:69,2
LF:22
LH:19
end_of_record
TN:
SF:/home/runner/work/neml2/neml2/src/neml2/models/solid_mechanics/YieldFunction.cxx
FN:34,50,_ZN5neml213YieldFunction16expected_optionsEv
FN:52,61,_ZN5neml213YieldFunctionC2ERKNS_9OptionSetE
FN:64,91,_ZN5neml213YieldFunction9set_valueEbbb
FNDA:1,_ZN5neml213YieldFunction16expected_optionsEv
FNDA:13,_ZN5neml213YieldFunctionC2ERKNS_9OptionSetE
FNDA:56,_ZN5neml213YieldFunction9set_valueEbbb
FNF:3
FNH:3
DA:34,1
DA:36,1
DA:37,1
DA:40,1
DA:42,3
DA:44,4
DA:45,4
DA:46,4
DA:47,3
DA:49,1
DA:50,0
DA:52,13
DA:54,13
DA:55,26
DA:56,13
DA:58,13
DA:59,65
DA:61,13
DA:64,56
DA:66,56
DA:68,56
DA:69,8
DA:71,48
DA:74,56
DA:76,41
DA:78,41
DA:80,41
DA:81,6
DA:83,123
DA:84,4
DA:85,41
DA:91,56
LF:32
LH:31
end_of_record
TN:
SF:/home/runner/work/neml2/neml2/src/neml2/models/solid_mechanics/crystal_plasticity/CrystalPlasticityStrainPredictor.cxx
FN:34,50,_ZN5neml232CrystalPlasticityStrainPredictor16expected_optionsEv
FN:52,60,_ZN5neml232CrystalPlasticityStrainPredictorC2ERKNS_9OptionSetE
FN:63,67,_ZN5neml232CrystalPlasticityStrainPredictor9set_valueEbbb
FNDA:1,_ZN5neml232CrystalPlasticityStrainPredictor16expected_optionsEv
FNDA:0,_ZN5neml232CrystalPlasticityStrainPredictorC2ERKNS_9OptionSetE
FNDA:0,_ZN5neml232CrystalPlasticityStrainPredictor9set_valueEbbb
FNF:3
FNH:1
DA:34,1
DA:36,1
DA:37,1
DA:41,1
DA:43,6
DA:44,6
DA:45,6
DA:46,2
DA:47,3
DA:49,1
DA:50,0
DA:52,0
DA:54,0
DA:55,0
DA:56,0
DA:57,0
DA:58,0
DA:60,0
DA:63,0
DA:65,0
DA:66,0
DA:67,0
LF:22
LH:10
end_of_record
TN:
SF:/home/runner/work/neml2/neml2/src/neml2/models/solid_mechanics/crystal_plasticity/DislocationObstacleStrengthMap.cxx
FN:35,49,_ZN5neml230DislocationObstacleStrengthMap16expected_optionsEv
FN:51,59,_ZN5neml230DislocationObstacleStrengthMapC2ERKNS_9OptionSetE
FN:62,86,_ZN5neml230DislocationObstacleStrengthMap9set_valueEbbb
FNDA:1,_ZN5neml230DislocationObstacleStrengthMap16expected_optionsEv
FNDA:1,_ZN5neml230DislocationObstacleStrengthMapC2ERKNS_9OptionSetE
FNDA:2,_ZN5neml230DislocationObstacleStrengthMap9set_valueEbbb
FNF:3
FNH:3
DA:35,1
DA:37,1
DA:38,1
DA:40,1
DA:42,4
DA:43,4
DA:44,4
DA:45,4
DA:46,3
DA:48,1
DA:49,0
DA:51,1
DA:53,2
DA:54,4
DA:55,4
DA:56,4
DA:57,5
DA:59,1
DA:62,2
DA:64,2
DA:65,2
DA:67,2
DA:68,2
DA:70,2
DA:72,1
DA:74,3
DA:75,0
DA:77,3
DA:78,0
DA:80,3
DA:81,0
DA:83,3
DA:84,0
DA:86,2
LF:34
LH:29
end_of_record
TN:
SF:/home/runner/work/neml2/neml2/src/neml2/models/solid_mechanics/crystal_plasticity/ElasticStrainRate.cxx
FN:38,54,_ZN5neml217ElasticStrainRate16expected_optionsEv
FN:56,64,_ZN5neml217ElasticStrainRateC2ERKNS_9OptionSetE
FN:67,74,_ZN5neml2L19skew_and_sym_to_symERKNS_3SR2ERKNS_3WR2E
FN:77,82,_ZN5neml2L27d_skew_and_sym_to_sym_d_symERKNS_3WR2E
FN:85,90,_ZN5neml2L28d_skew_and_sym_to_sym_d_skewERKNS_3SR2E
FN:93,107,_ZN5neml217ElasticStrainRate9set_valueEbbb
FNDA:1,_ZN5neml217ElasticStrainRate16expected_optionsEv
FNDA:1,_ZN5neml217ElasticStrainRateC2ERKNS_9OptionSetE
FNDA:2,_ZN5neml2L19skew_and_sym_to_symERKNS_3SR2ERKNS_3WR2E
FNDA:1,_ZN5neml2L27d_skew_and_sym_to_sym_d_symERKNS_3WR2E
FNDA:1,_ZN5neml2L28d_skew_and_sym_to_sym_d_skewERKNS_3SR2E
FNDA:2,_ZN5neml217ElasticStrainRate9set_valueEbbb
FNF:6
FNH:6
DA:38,1
DA:40,1
DA:42,1
DA:46,1
DA:48,4
DA:49,4
DA:50,4
DA:51,3
DA:53,1
DA:54,0
DA:56,1
DA:58,2
DA:59,1
DA:60,1
DA:61,1
DA:62,2
DA:64,1
DA:67,2
DA:71,2
DA:72,2
DA:73,4
DA:74,2
DA:77,1
DA:79,1
DA:80,1
DA:81,7
DA:82,3
DA:85,1
DA:87,1
DA:88,1
DA:89,7
DA:90,3
DA:93,2
DA:95,2
DA:96,2
DA:98,2
DA:100,1
DA:102,1
DA:103,1
DA:104,1
DA:105,1
DA:106,1
DA:107,2
LF:43
LH:42
end_of_record
TN:
SF:/home/runner/work/neml2/neml2/src/neml2/models/solid_mechanics/crystal_plasticity/FixOrientation.cxx
FN:36,52,_ZN5neml214FixOrientation16expected_optionsEv
FN:54,60,_ZN5neml214FixOrientationC2ERKNS_9OptionSetE
FN:63,73,_ZN5neml214FixOrientation9set_valueEbbb
FNDA:1,_ZN5neml214FixOrientation16expected_optionsEv
FNDA:1,_ZN5neml214FixOrientationC2ERKNS_9OptionSetE
FNDA:2,_ZN5neml214FixOrientation9set_valueEbbb
FNF:3
FNH:3
DA:36,1
DA:38,1
DA:40,1
DA:44,1
DA:46,4
DA:47,4
DA:49,3
DA:51,1
DA:52,0
DA:54,1
DA:56,2
DA:57,1
DA:58,2
DA:60,1
DA:63,2
DA:65,2
DA:66,2
DA:68,2
DA:70,1
DA:71,1
DA:72,1
DA:73,2
LF:22
LH:21
end_of_record
TN:
SF:/home/runner/work/neml2/neml2/src/neml2/models/solid_mechanics/crystal_plasticity/LinearSingleSlipHardeningRule.cxx
FN:33,44,_ZN5neml229LinearSingleSlipHardeningRule16expected_optionsEv
FN:46,50,_ZN5neml229LinearSingleSlipHardeningRuleC2ERKNS_9OptionSetE
FN:53,65,_ZN5neml229LinearSingleSlipHardeningRule9set_valueEbbb
FNDA:1,_ZN5neml229LinearSingleSlipHardeningRule16expected_optionsEv
FNDA:2,_ZN5neml229LinearSingleSlipHardeningRuleC2ERKNS_9OptionSetE
FNDA:4,_ZN5neml229LinearSingleSlipHardeningRule9set_valueEbbb
FNF:3
FNH:3
DA:33,1
DA:35,1
DA:37,1
DA:39,1
DA:41,3
DA:43,1
DA:44,0
DA:46,2
DA:48,8
DA:50,2
DA:53,4
DA:55,4
DA:56,4
DA:58,4
DA:60,2
DA:62,6
DA:63,1
DA:65,4
LF:18
LH:17
end_of_record
TN:
SF:/home/runner/work/neml2/neml2/src/neml2/models/solid_mechanics/crystal_plasticity/OrientationRate.cxx
FN:38,56,_ZN5neml215OrientationRate16expected_optionsEv
FN:58,66,_ZN5neml215OrientationRateC2ERKNS_9OptionSetE
FN:69,75,_ZN5neml2L22multiply_and_make_skewERKNS_3SR2ES2_
FN:78,83,_ZN5neml2L32d_multiply_and_make_skew_d_firstERKNS_3SR2E
FN:86,91,_ZN5neml2L33d_multiply_and_make_skew_d_secondERKNS_3SR2E
FN:94,108,_ZN5neml215OrientationRate9set_valueEbbb
FNDA:1,_ZN5neml215OrientationRate16expected_optionsEv
FNDA:1,_ZN5neml215OrientationRateC2ERKNS_9OptionSetE
FNDA:2,_ZN5neml2L22multiply_and_make_skewERKNS_3SR2ES2_
FNDA:1,_ZN5neml2L32d_multiply_and_make_skew_d_firstERKNS_3SR2E
FNDA:1,_ZN5neml2L33d_multiply_and_make_skew_d_secondERKNS_3SR2E
FNDA:2,_ZN5neml215OrientationRate9set_valueEbbb
FNF:6
FNH:6
DA:38,1
DA:40,1
DA:42,1
DA:47,1
DA:49,4
DA:50,4
DA:51,4
DA:52,4
DA:53,3
DA:55,1
DA:56,0
DA:58,1
DA:60,1
DA:61,1
DA:62,1
DA:63,1
DA:64,2
DA:66,1
DA:69,2
DA:71,2
DA:72,2
DA:74,4
DA:75,2
DA:78,1
DA:80,1
DA:81,1
DA:82,7
DA:83,3
DA:86,1
DA:88,1
DA:89,1
DA:90,7
DA:91,3
DA:94,2
DA:96,2
DA:97,2
DA:99,2
DA:101,1
DA:103,1
DA:104,1
DA:105,1
DA:106,1
DA:107,1
DA:108,2
LF:44
LH:43
end_of_record
TN:
SF:/home/runner/work/neml2/neml2/src/neml2/models/solid_mechanics/crystal_plasticity/PerSlipForestDislocationEvolution.cxx
FN:37,52,_ZN5neml233PerSlipForestDislocationEvolution16expected_optionsEv
FN:54,62,_ZN5neml233PerSlipForestDislocationEvolutionC2ERKNS_9OptionSetE
FN:65,85,_ZN5neml233PerSlipForestDislocationEvolution9set_valueEbbb
FNDA:1,_ZN5neml233PerSlipForestDislocationEvolution16expected_optionsEv
FNDA:1,_ZN5neml233PerSlipForestDislocationEvolutionC2ERKNS_9OptionSetE
FNDA:2,_ZN5neml233PerSlipForestDislocationEvolution9set_valueEbbb
FNF:3
FNH:3
DA:37,1
DA:39,1
DA:41,1
DA:43,1
DA:45,4
DA:46,4
DA:48,4
DA:49,3
DA:51,1
DA:52,0
DA:54,1
DA:56,2
DA:57,1
DA:58,1
DA:59,4
DA:60,5
DA:62,1
DA:65,2
DA:67,2
DA:68,2
DA:69,2
DA:71,2
DA:72,2
DA:74,2
DA:76,1
DA:77,1
DA:79,3
DA:80,0
DA:82,3
DA:83,0
DA:85,2
LF:31
LH:28
end_of_record
TN:
SF:/home/runner/work/neml2/neml2/src/neml2/models/solid_mechanics/crystal_plasticity/PlasticDeformationRate.cxx
FN:39,59,_ZN5neml222PlasticDeformationRate16expected_optionsEv
FN:61,69,_ZN5neml222PlasticDeformationRateC2ERKNS_9OptionSetE
FN:72,85,_ZN5neml222PlasticDeformationRate9set_valueEbbb
FNDA:1,_ZN5neml222PlasticDeformationRate16expected_optionsEv
FNDA:1,_ZN5neml222PlasticDeformationRateC2ERKNS_9OptionSetE
FNDA:2,_ZN5neml222PlasticDeformationRate9set_valueEbbb
FNF:3
FNH:3
DA:39,1
DA:41,1
DA:43,1
DA:47,1
DA:49,4
DA:50,4
DA:51,4
DA:53,5
DA:58,1
DA:59,0
DA:61,1
DA:63,1
DA:64,2
DA:65,1
DA:66,1
DA:67,2
DA:69,1
DA:72,2
DA:74,2
DA:75,2
DA:77,2
DA:78,2
DA:80,2
DA:82,1
DA:83,1
DA:85,2
LF:26
LH:25
end_of_record
TN:
SF:/home/runner/work/neml2/neml2/src/neml2/models/solid_mechanics/crystal_plasticity/PlasticSpatialVelocityGradient.cxx
FN:39,61,_ZN5neml230PlasticSpatialVelocityGradient16expected_optionsEv
FN:63,71,_ZN5neml230PlasticSpatialVelocityGradientC2ERKNS_9OptionSetE
FN:74,86,_ZN5neml230PlasticSpatialVelocityGradient9set_valueEbbb
FNDA:1,_ZN5neml230PlasticSpatialVelocityGradient16expected_optionsEv
FNDA:1,_ZN5neml230PlasticSpatialVelocityGradientC2ERKNS_9OptionSetE
FNDA:2,_ZN5neml230PlasticSpatialVelocityGradient9set_valueEbbb
FNF:3
FNH:3
DA:39,1
DA:41,1
DA:43,1
DA:48,1
DA:50,4
DA:52,4
DA:53,4
DA:55,5
DA:60,1
DA:61,0
DA:63,1
DA:65,1
DA:66,2
DA:67,1
DA:68,1
DA:69,2
DA:71,1
DA:74,2
DA:76,2
DA:78,2
DA:79,2
DA:81,2
DA:83,1
DA:84,1
DA:86,2
LF:25
LH:24
end_of_record
TN:
SF:/home/runner/work/neml2/neml2/src/neml2/models/solid_mechanics/crystal_plasticity/PlasticVorticity.cxx
FN:39,59,_ZN5neml216PlasticVorticity16expected_optionsEv
FN:61,69,_ZN5neml216PlasticVorticityC2ERKNS_9OptionSetE
FN:72,85,_ZN5neml216PlasticVorticity9set_valueEbbb
FNDA:1,_ZN5neml216PlasticVorticity16expected_optionsEv
FNDA:1,_ZN5neml216PlasticVorticityC2ERKNS_9OptionSetE
FNDA:2,_ZN5neml216PlasticVorticity9set_valueEbbb
FNF:3
FNH:3
DA:39,1
DA:41,1
DA:43,1
DA:47,1
DA:49,4
DA:50,4
DA:51,4
DA:53,5
DA:58,1
DA:59,0
DA:61,1
DA:63,1
DA:64,2
DA:65,1
DA:66,1
DA:67,2
DA:69,1
DA:72,2
DA:74,2
DA:75,2
DA:77,2
DA:78,2
DA:80,2
DA:82,1
DA:83,1
DA:85,2
LF:26
LH:25
end_of_record
TN:
SF:/home/runner/work/neml2/neml2/src/neml2/models/solid_mechanics/crystal_plasticity/PowerLawSlipRule.cxx
FN:38,52,_ZN5neml216PowerLawSlipRule16expected_optionsEv
FN:54,59,_ZN5neml216PowerLawSlipRuleC2ERKNS_9OptionSetE
FN:62,78,_ZN5neml216PowerLawSlipRule9set_valueEbbb
FNDA:1,_ZN5neml216PowerLawSlipRule16expected_optionsEv
FNDA:3,_ZN5neml216PowerLawSlipRuleC2ERKNS_9OptionSetE
FNDA:6,_ZN5neml216PowerLawSlipRule9set_valueEbbb
FNF:3
FNH:3
DA:38,1
DA:40,1
DA:41,1
DA:46,1
DA:48,4
DA:49,3
DA:51,1
DA:52,0
DA:54,3
DA:56,9
DA:57,15
DA:59,3
DA:62,6
DA:64,6
DA:65,6
DA:67,6
DA:69,3
DA:70,3
DA:72,9
DA:73,2
DA:75,9
DA:76,1
DA:78,6
LF:23
LH:22
end_of_record
TN:
SF:/home/runner/work/neml2/neml2/src/neml2/models/solid_mechanics/crystal_plasticity/ResolvedShear.cxx
FN:39,58,_ZN5neml213ResolvedShear16expected_optionsEv
FN:60,68,_ZN5neml213ResolvedShearC2ERKNS_9OptionSetE
FN:71,87,_ZN5neml213ResolvedShear9set_valueEbbb
FNDA:1,_ZN5neml213ResolvedShear16expected_optionsEv
FNDA:1,_ZN5neml213ResolvedShearC2ERKNS_9OptionSetE
FNDA:2,_ZN5neml213ResolvedShear9set_valueEbbb
FNF:3
FNH:3
DA:39,1
DA:41,1
DA:43,1
DA:47,1
DA:49,4
DA:50,4
DA:51,4
DA:53,5
DA:57,1
DA:58,0
DA:60,1
DA:62,1
DA:63,2
DA:64,1
DA:65,1
DA:66,2
DA:68,1
DA:71,2
DA:74,2
DA:76,2
DA:77,2
DA:79,2
DA:80,2
DA:82,2
DA:84,1
DA:85,3
DA:87,3
LF:27
LH:26
end_of_record
TN:
SF:/home/runner/work/neml2/neml2/src/neml2/models/solid_mechanics/crystal_plasticity/SingleSlipHardeningRule.cxx
FN:32,43,_ZN5neml223SingleSlipHardeningRule16expected_optionsEv
FN:45,51,_ZN5neml223SingleSlipHardeningRuleC2ERKNS_9OptionSetE
FNDA:2,_ZN5neml223SingleSlipHardeningRule16expected_optionsEv
FNDA:4,_ZN5neml223SingleSlipHardeningRuleC2ERKNS_9OptionSetE
FNF:2
FNH:2
DA:32,2
DA:34,2
DA:36,2
DA:37,2
DA:39,8
DA:40,6
DA:42,2
DA:43,0
DA:45,4
DA:47,8
DA:48,4
DA:49,8
DA:51,4
LF:13
LH:12
end_of_record
TN:
SF:/home/runner/work/neml2/neml2/src/neml2/models/solid_mechanics/crystal_plasticity/SingleSlipStrengthMap.cxx
FN:33,47,_ZN5neml221SingleSlipStrengthMap16expected_optionsEv
FN:49,54,_ZN5neml221SingleSlipStrengthMapC2ERKNS_9OptionSetE
FN:57,69,_ZN5neml221SingleSlipStrengthMap9set_valueEbbb
FNDA:1,_ZN5neml221SingleSlipStrengthMap16expected_optionsEv
FNDA:2,_ZN5neml221SingleSlipStrengthMapC2ERKNS_9OptionSetE
FNDA:4,_ZN5neml221SingleSlipStrengthMap9set_valueEbbb
FNF:3
FNH:3
DA:33,1
DA:35,1
DA:37,1
DA:41,1
DA:43,4
DA:44,3
DA:46,1
DA:47,0
DA:49,2
DA:51,4
DA:52,8
DA:54,2
DA:57,4
DA:59,4
DA:60,4
DA:62,4
DA:64,2
DA:66,6
DA:67,1
DA:69,4
LF:20
LH:19
end_of_record
TN:
SF:/home/runner/work/neml2/neml2/src/neml2/models/solid_mechanics/crystal_plasticity/SlipRule.cxx
FN:32,44,_ZN5neml28SlipRule16expected_optionsEv
FN:46,52,_ZN5neml28SlipRuleC2ERKNS_9OptionSetE
FNDA:1,_ZN5neml28SlipRule16expected_optionsEv
FNDA:3,_ZN5neml28SlipRuleC2ERKNS_9OptionSetE
FNF:2
FNH:2
DA:32,1
DA:34,1
DA:36,1
DA:37,1
DA:39,4
DA:40,4
DA:41,3
DA:43,1
DA:44,0
DA:46,3
DA:48,6
DA:49,3
DA:50,6
DA:52,3
LF:14
LH:13
end_of_record
TN:
SF:/home/runner/work/neml2/neml2/src/neml2/models/solid_mechanics/crystal_plasticity/SlipStrengthMap.cxx
FN:32,40,_ZN5neml215SlipStrengthMap16expected_optionsEv
FN:42,46,_ZN5neml215SlipStrengthMapC2ERKNS_9OptionSetE
FNDA:2,_ZN5neml215SlipStrengthMap16expected_optionsEv
FNDA:3,_ZN5neml215SlipStrengthMapC2ERKNS_9OptionSetE
FNF:2
FNH:2
DA:32,2
DA:34,2
DA:35,2
DA:37,6
DA:39,2
DA:40,0
DA:42,3
DA:44,3
DA:46,3
LF:9
LH:8
end_of_record
TN:
SF:/home/runner/work/neml2/neml2/src/neml2/models/solid_mechanics/crystal_plasticity/SumSlipRates.cxx
FN:37,47,_ZN5neml212SumSlipRates16expected_optionsEv
FN:49,54,_ZN5neml212SumSlipRatesC2ERKNS_9OptionSetE
FN:57,63,_ZN5neml212SumSlipRates9set_valueEbbb
FNDA:1,_ZN5neml212SumSlipRates16expected_optionsEv
FNDA:1,_ZN5neml212SumSlipRatesC2ERKNS_9OptionSetE
FNDA:2,_ZN5neml212SumSlipRates9set_valueEbbb
FNF:3
FNH:3
DA:37,1
DA:39,1
DA:40,1
DA:41,1
DA:43,4
DA:44,3
DA:46,1
DA:47,0
DA:49,1
DA:51,2
DA:52,1
DA:54,1
DA:57,2
DA:59,2
DA:60,2
DA:61,2
DA:62,1
DA:63,2
LF:18
LH:17
end_of_record
TN:
SF:/home/runner/work/neml2/neml2/src/neml2/models/solid_mechanics/crystal_plasticity/VoceSingleSlipHardeningRule.cxx
FN:33,48,_ZN5neml227VoceSingleSlipHardeningRule16expected_optionsEv
FN:50,55,_ZN5neml227VoceSingleSlipHardeningRuleC2ERKNS_9OptionSetE
FN:58,74,_ZN5neml227VoceSingleSlipHardeningRule9set_valueEbbb
FNDA:1,_ZN5neml227VoceSingleSlipHardeningRule16expected_optionsEv
FNDA:2,_ZN5neml227VoceSingleSlipHardeningRuleC2ERKNS_9OptionSetE
FNDA:4,_ZN5neml227VoceSingleSlipHardeningRule9set_valueEbbb
FNF:3
FNH:3
DA:33,1
DA:35,1
DA:36,1
DA:41,1
DA:43,4
DA:44,3
DA:47,1
DA:48,0
DA:50,2
DA:52,6
DA:53,10
DA:55,2
DA:58,4
DA:60,4
DA:61,4
DA:63,4
DA:65,2
DA:66,2
DA:68,6
DA:69,1
DA:71,6
DA:72,1
DA:74,4
LF:23
LH:22
end_of_record
TN:
SF:/home/runner/work/neml2/neml2/src/neml2/models/solid_mechanics/elasticity/AnisotropicElasticity.cxx
FN:30,36,_ZN5neml221AnisotropicElasticity16expected_optionsEv
FN:38,42,_ZN5neml221AnisotropicElasticityC2ERKNS_9OptionSetE
FNDA:1,_ZN5neml221AnisotropicElasticity16expected_optionsEv
FNDA:5,_ZN5neml221AnisotropicElasticityC2ERKNS_9OptionSetE
FNF:2
FNH:2
DA:30,1
DA:32,1
DA:33,1
DA:34,3
DA:35,1
DA:36,0
DA:38,5
DA:40,5
DA:42,5
LF:9
LH:8
end_of_record
TN:
SF:/home/runner/work/neml2/neml2/src/neml2/models/solid_mechanics/elasticity/CubicElasticityConverter.cxx
FN:39,53,_ZN5neml224CubicElasticityConverter12G_E_nu_to_C1ERKSt5arrayINS_6ScalarELm3EERKS1_IbLm3EE
FN:56,70,_ZN5neml224CubicElasticityConverter12G_E_nu_to_C2ERKSt5arrayINS_6ScalarELm3EERKS1_IbLm3EE
FN:73,85,_ZN5neml224CubicElasticityConverter12G_E_nu_to_C3ERKSt5arrayINS_6ScalarELm3EERKS1_IbLm3EE
FNDA:4,_ZN5neml224CubicElasticityConverter12G_E_nu_to_C1ERKSt5arrayINS_6ScalarELm3EERKS1_IbLm3EE
FNDA:4,_ZN5neml224CubicElasticityConverter12G_E_nu_to_C2ERKSt5arrayINS_6ScalarELm3EERKS1_IbLm3EE
FNDA:4,_ZN5neml224CubicElasticityConverter12G_E_nu_to_C3ERKSt5arrayINS_6ScalarELm3EERKS1_IbLm3EE
FNF:3
FNH:3
DA:39,4
DA:41,4
DA:42,4
DA:43,4
DA:45,4
DA:46,4
DA:47,4
DA:48,12
DA:49,8
DA:50,12
DA:52,8
DA:53,8
DA:56,4
DA:58,4
DA:59,4
DA:60,4
DA:62,4
DA:63,4
DA:64,4
DA:66,16
DA:67,12
DA:69,8
DA:70,8
DA:73,4
DA:75,4
DA:76,4
DA:77,4
DA:79,4
DA:80,4
DA:81,4
DA:82,4
DA:84,8
DA:85,8
LF:33
LH:33
end_of_record
TN:
SF:/home/runner/work/neml2/neml2/src/neml2/models/solid_mechanics/elasticity/CubicElasticityTensor.cxx
FN:33,40,_ZN5neml221CubicElasticityTensor16expected_optionsEv
FN:42,47,_ZN5neml221CubicElasticityTensorC2ERKNS_9OptionSetE
FN:50,75,_ZN5neml221CubicElasticityTensor9set_valueEbbb
FNDA:1,_ZN5neml221CubicElasticityTensor16expected_optionsEv
FNDA:2,_ZN5neml221CubicElasticityTensorC2ERKNS_9OptionSetE
FNDA:4,_ZN5neml221CubicElasticityTensor9set_valueEbbb
FNF:3
FNH:3
DA:33,1
DA:35,1
DA:36,1
DA:37,1
DA:39,1
DA:40,0
DA:42,2
DA:44,2
DA:45,2
DA:47,2
DA:50,4
DA:52,4
DA:53,4
DA:54,4
DA:55,4
DA:57,4
DA:58,4
DA:59,4
DA:61,4
DA:62,4
DA:64,4
DA:66,2
DA:67,2
DA:69,2
DA:70,2
DA:72,2
DA:73,2
DA:75,4
LF:28
LH:27
end_of_record
TN:
SF:/home/runner/work/neml2/neml2/src/neml2/models/solid_mechanics/elasticity/Elasticity.cxx
FN:30,51,_ZN5neml210Elasticity16expected_optionsEv
FN:53,64,_ZN5neml210ElasticityC2ERKNS_9OptionSetE
FNDA:2,_ZN5neml210Elasticity16expected_optionsEv
FNDA:21,_ZN5neml210ElasticityC2ERKNS_9OptionSetE
FNF:2
FNH:2
DA:30,2
DA:32,2
DA:33,2
DA:35,8
DA:36,8
DA:38,6
DA:40,4
DA:44,4
DA:46,4
DA:50,2
DA:51,0
DA:53,21
DA:55,42
DA:56,42
DA:57,42
DA:58,21
DA:59,37
DA:60,16
DA:61,37
DA:62,37
DA:64,21
LF:21
LH:20
end_of_record
TN:
SF:/home/runner/work/neml2/neml2/src/neml2/models/solid_mechanics/elasticity/ElasticityConverter.cxx
FN:30,55,_ZN5neml24nameB5cxx11ENS_15ElasticConstantE
FNDA:170,_ZN5neml24nameB5cxx11ENS_15ElasticConstantE
FNF:1
FNH:1
DA:30,170
DA:32,170
DA:34,20
DA:35,40
DA:36,62
DA:37,124
DA:38,0
DA:39,0
DA:40,26
DA:41,52
DA:42,62
DA:43,124
DA:44,0
DA:45,0
DA:46,0
DA:47,0
DA:48,0
DA:49,0
DA:50,0
DA:51,0
DA:52,0
DA:53,0
LF:22
LH:10
end_of_record
TN:
SF:/home/runner/work/neml2/neml2/src/neml2/models/solid_mechanics/elasticity/GeneralElasticity.cxx
FN:35,42,_ZN5neml217GeneralElasticity16expected_optionsEv
FN:44,48,_ZN5neml217GeneralElasticityC2ERKNS_9OptionSetE
FN:51,78,_ZN5neml217GeneralElasticity9set_valueEbbb
FNDA:1,_ZN5neml217GeneralElasticity16expected_optionsEv
FNDA:5,_ZN5neml217GeneralElasticityC2ERKNS_9OptionSetE
FNDA:10,_ZN5neml217GeneralElasticity9set_valueEbbb
FNF:3
FNH:3
DA:35,1
DA:37,1
DA:38,1
DA:39,1
DA:40,3
DA:41,1
DA:42,0
DA:44,5
DA:46,20
DA:48,5
DA:51,10
DA:53,10
DA:54,10
DA:56,10
DA:57,10
DA:59,10
DA:61,5
DA:63,5
DA:64,5
DA:65,10
DA:67,9
DA:69,15
DA:71,2
DA:72,2
DA:73,5
DA:75,3
DA:76,2
DA:77,5
DA:78,17
LF:29
LH:28
end_of_record
TN:
SF:/home/runner/work/neml2/neml2/src/neml2/models/solid_mechanics/elasticity/GreenLagrangeStrain.cxx
FN:36,47,_ZN5neml219GreenLagrangeStrain16expected_optionsEv
FN:49,54,_ZN5neml219GreenLagrangeStrainC2ERKNS_9OptionSetE
FN:57,72,_ZN5neml219GreenLagrangeStrain9set_valueEbbb
FNDA:1,_ZN5neml219GreenLagrangeStrain16expected_optionsEv
FNDA:1,_ZN5neml219GreenLagrangeStrainC2ERKNS_9OptionSetE
FNDA:2,_ZN5neml219GreenLagrangeStrain9set_valueEbbb
FNF:3
FNH:3
DA:36,1
DA:38,1
DA:39,1
DA:41,1
DA:43,4
DA:44,3
DA:46,1
DA:47,0
DA:49,1
DA:51,2
DA:52,1
DA:54,1
DA:57,2
DA:59,2
DA:61,2
DA:62,2
DA:63,2
DA:65,2
DA:67,1
DA:69,8
DA:70,1
DA:71,1
DA:72,4
LF:23
LH:22
end_of_record
TN:
SF:/home/runner/work/neml2/neml2/src/neml2/models/solid_mechanics/elasticity/IsotropicElasticityConverter.cxx
FN:37,45,_ZN5neml228IsotropicElasticityConverter8K_G_to_KERKSt5arrayINS_6ScalarELm2EERKS1_IbLm2EE
FN:48,56,_ZN5neml228IsotropicElasticityConverter8K_G_to_GERKSt5arrayINS_6ScalarELm2EERKS1_IbLm2EE
FN:59,69,_ZN5neml228IsotropicElasticityConverter9E_nu_to_KERKSt5arrayINS_6ScalarELm2EERKS1_IbLm2EE
FN:72,82,_ZN5neml228IsotropicElasticityConverter9E_nu_to_GERKSt5arrayINS_6ScalarELm2EERKS1_IbLm2EE
FNDA:30,_ZN5neml228IsotropicElasticityConverter8K_G_to_KERKSt5arrayINS_6ScalarELm2EERKS1_IbLm2EE
FNDA:30,_ZN5neml228IsotropicElasticityConverter8K_G_to_GERKSt5arrayINS_6ScalarELm2EERKS1_IbLm2EE
FNDA:35,_ZN5neml228IsotropicElasticityConverter9E_nu_to_KERKSt5arrayINS_6ScalarELm2EERKS1_IbLm2EE
FNDA:37,_ZN5neml228IsotropicElasticityConverter9E_nu_to_GERKSt5arrayINS_6ScalarELm2EERKS1_IbLm2EE
FNF:4
FNH:4
DA:37,30
DA:39,30
DA:41,30
DA:42,30
DA:44,60
DA:45,60
DA:48,30
DA:50,30
DA:52,30
DA:53,30
DA:55,60
DA:56,60
DA:59,35
DA:61,35
DA:62,35
DA:64,35
DA:65,35
DA:66,35
DA:68,70
DA:69,70
DA:72,37
DA:74,37
DA:75,37
DA:77,37
DA:78,37
DA:79,37
DA:81,74
DA:82,74
LF:28
LH:28
end_of_record
TN:
SF:/home/runner/work/neml2/neml2/src/neml2/models/solid_mechanics/elasticity/IsotropicElasticityTensor.cxx
FN:33,40,_ZN5neml225IsotropicElasticityTensor16expected_optionsEv
FN:42,47,_ZN5neml225IsotropicElasticityTensorC2ERKNS_9OptionSetE
FN:50,70,_ZN5neml225IsotropicElasticityTensor9set_valueEbbb
FNDA:1,_ZN5neml225IsotropicElasticityTensor16expected_optionsEv
FNDA:2,_ZN5neml225IsotropicElasticityTensorC2ERKNS_9OptionSetE
FNDA:4,_ZN5neml225IsotropicElasticityTensor9set_valueEbbb
FNF:3
FNH:3
DA:33,1
DA:35,1
DA:36,1
DA:37,1
DA:39,1
DA:40,0
DA:42,2
DA:44,2
DA:45,2
DA:47,2
DA:50,4
DA:52,4
DA:53,4
DA:54,4
DA:56,4
DA:57,4
DA:59,4
DA:60,4
DA:62,4
DA:64,2
DA:65,2
DA:67,2
DA:68,2
DA:70,4
LF:24
LH:23
end_of_record
TN:
SF:/home/runner/work/neml2/neml2/src/neml2/models/solid_mechanics/elasticity/LinearIsotropicElasticity.cxx
FN:35,44,_ZN5neml225LinearIsotropicElasticity16expected_optionsEv
FN:46,50,_ZN5neml225LinearIsotropicElasticityC2ERKNS_9OptionSetE
FN:53,82,_ZN5neml225LinearIsotropicElasticity9set_valueEbbb
FNDA:1,_ZN5neml225LinearIsotropicElasticity16expected_optionsEv
FNDA:16,_ZN5neml225LinearIsotropicElasticityC2ERKNS_9OptionSetE
FNDA:31,_ZN5neml225LinearIsotropicElasticity9set_valueEbbb
FNF:3
FNH:3
DA:35,1
DA:37,1
DA:38,1
DA:41,1
DA:43,1
DA:44,0
DA:46,16
DA:48,16
DA:50,16
DA:53,31
DA:55,31
DA:56,31
DA:57,31
DA:58,31
DA:59,31
DA:61,31
DA:62,31
DA:64,31
DA:66,15
DA:67,15
DA:69,15
DA:71,15
DA:72,15
DA:73,15
DA:74,15
DA:76,15
DA:77,5
DA:79,15
DA:80,2
DA:81,15
DA:82,31
LF:31
LH:30
end_of_record
TN:
SF:/home/runner/work/neml2/neml2/src/neml2/neml2.cxx
FN:31,38,_ZN5neml218force_link_runtimeEv
FN:41,55,_ZN5neml210load_inputERKNSt10filesystem7__cxx114pathERKNSt7__cxx1112basic_stringIcSt11char_traitsIcESaIcEEE
FN:58,62,_ZN5neml210load_modelERKNSt10filesystem7__cxx114pathERKNSt7__cxx1112basic_stringIcSt11char_traitsIcESaIcEEE
FNDA:340,_ZN5neml218force_link_runtimeEv
FNDA:340,_ZN5neml210load_inputERKNSt10filesystem7__cxx114pathERKNSt7__cxx1112basic_stringIcSt11char_traitsIcESaIcEEE
FNDA:14,_ZN5neml210load_modelERKNSt10filesystem7__cxx114pathERKNSt7__cxx1112basic_stringIcSt11char_traitsIcESaIcEEE
FNF:3
FNH:3
DA:31,340
DA:33,340
DA:34,340
DA:35,340
DA:36,340
DA:37,340
DA:38,340
DA:41,340
DA:44,340
DA:47,340
DA:49,340
DA:50,340
DA:51,680
DA:52,340
DA:54,0
DA:58,14
DA:60,14
DA:61,27
DA:62,14
LF:19
LH:18
end_of_record
TN:
SF:/home/runner/work/neml2/neml2/src/neml2/solvers/DenseLU.cxx
FN:36,43,_ZN5neml27DenseLU16expected_optionsEv
FN:45,48,_ZN5neml27DenseLUC2ERKNS_9OptionSetE
FN:51,57,_ZNK5neml27DenseLU5solveERKNS_15AssembledMatrixERKNS_15AssembledVectorE
FN:60,67,_ZNK5neml27DenseLU5solveERKNS_15AssembledMatrixES3_
FNDA:1,_ZN5neml27DenseLU16expected_optionsEv
FNDA:15,_ZN5neml27DenseLUC2ERKNS_9OptionSetE
FNDA:860,_ZNK5neml27DenseLU5solveERKNS_15AssembledMatrixERKNS_15AssembledVectorE
FNDA:145,_ZNK5neml27DenseLU5solveERKNS_15AssembledMatrixES3_
FNF:4
FNH:4
DA:36,1
DA:38,1
DA:39,1
DA:41,1
DA:42,1
DA:43,0
DA:45,15
DA:46,15
DA:48,15
DA:51,860
DA:53,860
DA:55,860
DA:56,3440
DA:57,1720
DA:60,145
DA:62,435
DA:63,290
DA:65,145
DA:66,725
DA:67,580
LF:20
LH:19
end_of_record
TN:
SF:/home/runner/work/neml2/neml2/src/neml2/solvers/LinearSolver.cxx
FN:32,36,_ZN5neml212LinearSolver16expected_optionsEv
FN:38,41,_ZN5neml212LinearSolverC2ERKNS_9OptionSetE
FN:44,60,_ZNK5neml212LinearSolver12check_errorsEv
FNDA:2,_ZN5neml212LinearSolver16expected_optionsEv
FNDA:18,_ZN5neml212LinearSolverC2ERKNS_9OptionSetE
FNDA:1005,_ZNK5neml212LinearSolver12check_errorsEv
FNF:3
FNH:3
DA:32,2
DA:34,2
DA:35,2
DA:38,18
DA:39,18
DA:41,18
DA:44,1005
DA:56,1005
LF:8
LH:8
end_of_record
TN:
SF:/home/runner/work/neml2/neml2/src/neml2/solvers/Newton.cxx
FN:109,121,_ZN5neml26Newton6updateERNS_15NonlinearSystemE
FN:124,129,_ZN5neml26Newton12final_updateERNS_15NonlinearSystemE
FN:38,43,_ZN5neml26Newton16expected_optionsEv
FN:45,48,_ZN5neml26NewtonC2ERKNS_9OptionSetE
FN:51,93,_ZN5neml26Newton5solveERNS_15NonlinearSystemE
FN:96,106,_ZNK5neml26Newton9convergedEmRKNS_6ScalarES3_
FNDA:670,_ZN5neml26Newton6updateERNS_15NonlinearSystemE
FNDA:33,_ZN5neml26Newton12final_updateERNS_15NonlinearSystemE
FNDA:2,_ZN5neml26Newton16expected_optionsEv
FNDA:15,_ZN5neml26NewtonC2ERKNS_9OptionSetE
FNDA:219,_ZN5neml26Newton5solveERNS_15NonlinearSystemE
FNDA:906,_ZNK5neml26Newton9convergedEmRKNS_6ScalarES3_
FNF:6
FNH:6
DA:38,2
DA:40,2
DA:41,2
DA:42,2
DA:43,0
DA:45,15
DA:46,15
DA:48,15
DA:51,219
DA:54,219
DA:55,218
DA:56,218
DA:59,218
DA:62,6
DA:63,3
DA:65,6
DA:69,212
DA:75,688
DA:77,688
DA:78,688
DA:79,688
DA:82,688
DA:85,212
DA:86,30
DA:88,212
DA:92,0
DA:93,218
DA:96,906
DA:105,906
DA:109,670
DA:111,670
DA:112,670
DA:115,670
DA:116,1472
DA:117,802
DA:118,56
DA:120,670
DA:121,670
DA:124,33
DA:126,33
DA:127,33
DA:128,33
DA:129,33
LF:43
LH:41
end_of_record
TN:
SF:/home/runner/work/neml2/neml2/src/neml2/solvers/NewtonWithLineSearch.cxx
FN:39,72,_ZN5neml220NewtonWithLineSearch16expected_optionsEv
FN:74,82,_ZN5neml220NewtonWithLineSearchC2ERKNS_9OptionSetE
FN:85,128,_ZN5neml220NewtonWithLineSearch6updateERNS_15NonlinearSystemE
FNDA:1,_ZN5neml220NewtonWithLineSearch16expected_optionsEv
FNDA:2,_ZN5neml220NewtonWithLineSearchC2ERKNS_9OptionSetE
FNDA:18,_ZN5neml220NewtonWithLineSearch6updateERNS_15NonlinearSystemE
FNF:3
FNH:3
DA:39,1
DA:41,1
DA:42,1
DA:44,4
DA:45,1
DA:47,3
DA:49,3
DA:50,2
DA:55,3
DA:56,2
DA:60,3
DA:62,2
DA:65,2
DA:67,2
DA:71,2
DA:72,1
DA:74,2
DA:76,4
DA:77,4
DA:78,4
DA:79,4
DA:80,4
DA:82,2
DA:85,18
DA:87,18
DA:88,18
DA:89,18
DA:90,18
DA:91,18
DA:92,18
DA:93,18
DA:95,23
DA:97,23
DA:98,23
DA:99,23
DA:100,23
DA:102,46
DA:103,23
DA:104,0
DA:105,0
DA:107,23
DA:108,0
DA:109,0
DA:110,0
DA:111,0
DA:113,23
DA:115,23
DA:116,18
DA:118,5
DA:119,40
DA:120,77
DA:122,18
DA:123,0
DA:126,0
DA:127,0
DA:128,48
LF:56
LH:47
end_of_record
TN:
SF:/home/runner/work/neml2/neml2/src/neml2/solvers/NonlinearSolver.cxx
FN:32,44,_ZN5neml215NonlinearSolver16expected_optionsEv
FN:46,58,_ZN5neml215NonlinearSolverC2ERKNS_9OptionSetE
FN:61,64,_ZN5neml215NonlinearSolver2toERKN3c1013TensorOptionsE
FNDA:2,_ZN5neml215NonlinearSolver16expected_optionsEv
FNDA:15,_ZN5neml215NonlinearSolverC2ERKNS_9OptionSetE
FNDA:3,_ZN5neml215NonlinearSolver2toERKN3c1013TensorOptionsE
FNF:3
FNH:3
DA:32,2
DA:34,2
DA:36,8
DA:38,8
DA:39,8
DA:40,4
DA:41,4
DA:43,2
DA:44,0
DA:46,15
DA:48,30
DA:49,30
DA:50,45
DA:52,15
DA:53,15
DA:57,30
DA:58,15
DA:61,3
DA:63,3
DA:64,3
LF:20
LH:19
end_of_record
TN:
SF:/home/runner/work/neml2/neml2/src/neml2/solvers/SchurComplement.cxx
FN:124,175,_ZNK5neml215SchurComplement5solveERKNS_15AssembledMatrixES3_
FN:35,57,_ZN5neml215SchurComplement16expected_optionsEv
FN:59,70,_ZN5neml215SchurComplementC2ERKNS_9OptionSetE
FN:73,121,_ZNK5neml215SchurComplement5solveERKNS_15AssembledMatrixERKNS_15AssembledVectorE
FNDA:1,_ZNK5neml215SchurComplement5solveERKNS_15AssembledMatrixES3_
FNDA:1,_ZN5neml215SchurComplement16expected_optionsEv
FNDA:3,_ZN5neml215SchurComplementC2ERKNS_9OptionSetE
FNDA:139,_ZNK5neml215SchurComplement5solveERKNS_15AssembledMatrixERKNS_15AssembledVectorE
FNF:4
FNH:4
DA:35,1
DA:37,1
DA:38,1
DA:40,1
DA:42,3
DA:44,2
DA:47,3
DA:49,2
DA:53,4
DA:54,3
DA:56,1
DA:57,0
DA:59,3
DA:61,3
DA:62,3
DA:63,3
DA:64,3
DA:65,6
DA:66,9
DA:68,3
DA:69,3
DA:70,3
DA:73,139
DA:75,139
DA:78,139
DA:81,139
DA:86,139
DA:87,139
DA:88,139
DA:89,139
DA:92,139
DA:93,139
DA:96,139
DA:99,139
DA:102,139
DA:105,139
DA:108,139
DA:111,139
DA:114,139
DA:115,139
DA:116,139
DA:117,139
DA:118,139
DA:120,278
DA:121,139
DA:124,1
DA:126,1
DA:129,1
DA:132,1
DA:135,1
DA:140,1
DA:141,1
DA:142,1
DA:143,1
DA:146,1
DA:147,1
DA:150,1
DA:153,1
DA:156,1
DA:159,1
DA:162,1
DA:165,1
DA:168,1
DA:169,1
DA:170,1
DA:171,1
DA:172,1
DA:174,2
DA:175,1
LF:69
LH:68
end_of_record
TN:
SF:/home/runner/work/neml2/neml2/src/neml2/solvers/Solver.cxx
FN:30,36,_ZN5neml26Solver16expected_optionsEv
FN:38,42,_ZN5neml26SolverC2ERKNS_9OptionSetE
FNDA:4,_ZN5neml26Solver16expected_optionsEv
FNDA:33,_ZN5neml26SolverC2ERKNS_9OptionSetE
FNF:2
FNH:2
DA:30,4
DA:32,4
DA:33,4
DA:34,12
DA:35,4
DA:36,0
DA:38,33
DA:40,66
DA:42,33
LF:9
LH:8
end_of_record
TN:
SF:/home/runner/work/neml2/neml2/src/neml2/solvers/link_anchor.cxx
FN:30,34,_neml2_force_link_solvers
FNDA:340,_neml2_force_link_solvers
FNF:1
FNH:1
DA:30,340
DA:33,340
DA:34,340
LF:3
LH:3
end_of_record
TN:
SF:/home/runner/work/neml2/neml2/src/neml2/tensors/Derivative.cxx
FN:100,103,_ZNK5neml210DerivativeILm1EE8var_nameB5cxx11Ev
FN:100,103,_ZNK5neml210DerivativeILm2EE8var_nameB5cxx11Ev
FN:107,112,_ZNK5neml210DerivativeILm1EE8arg_nameB5cxx11Em
FN:107,112,_ZNK5neml210DerivativeILm2EE8arg_nameB5cxx11Em
FN:116,128,_ZNK5neml210DerivativeILm1EE6tensorEv
FN:116,128,_ZNK5neml210DerivativeILm2EE6tensorEv
FN:132,135,_ZN5neml210DerivativeILm1EE5clearEv
FN:132,135,_ZN5neml210DerivativeILm2EE5clearEv
FN:139,142,_ZNK5neml210DerivativeILm1EE7definedEv
FN:139,142,_ZNK5neml210DerivativeILm2EE7definedEv
FN:146,150,_ZNK5neml210DerivativeILm1EE25is_intrsc_intmd_broadcastEv
FN:146,150,_ZNK5neml210DerivativeILm2EE25is_intrsc_intmd_broadcastEv
FN:154,157,_ZNK5neml210DerivativeILm1EE11intmd_sizesEv
FN:154,157,_ZNK5neml210DerivativeILm2EE11intmd_sizesEv
FN:161,172,_ZNK5neml210DerivativeILm1EE18extrsc_intmd_sizesEv
FN:161,172,_ZNK5neml210DerivativeILm2EE18extrsc_intmd_sizesEv
FN:176,187,_ZNK5neml210DerivativeILm1EE18intrsc_intmd_sizesEv
FN:176,187,_ZNK5neml210DerivativeILm2EE18intrsc_intmd_sizesEv
FN:191,194,_ZNK5neml210DerivativeILm1EE15var_intmd_sizesEv
FN:191,194,_ZNK5neml210DerivativeILm2EE15var_intmd_sizesEv
FN:198,202,_ZNK5neml210DerivativeILm1EE22var_intrsc_intmd_sizesEv
FN:198,202,_ZNK5neml210DerivativeILm2EE22var_intrsc_intmd_sizesEv
FN:206,213,_ZNK5neml210DerivativeILm1EE15arg_intmd_sizesEm
FN:206,213,_ZNK5neml210DerivativeILm2EE15arg_intmd_sizesEm
FN:217,226,_ZNK5neml210DerivativeILm1EE22arg_intrsc_intmd_sizesEm
FN:217,226,_ZNK5neml210DerivativeILm2EE22arg_intrsc_intmd_sizesEm
FN:230,233,_ZNK5neml210DerivativeILm1EE10base_sizesEv
FN:230,233,_ZNK5neml210DerivativeILm2EE10base_sizesEv
FN:232,232,_ZZNK5neml210DerivativeILm1EE10base_sizesEvENKUlDpOT_E_clIJRKN3c1011SmallVectorIlLj8EEESB_EEEDaS4_
FN:232,232,_ZZNK5neml210DerivativeILm2EE10base_sizesEvENKUlDpOT_E_clIJRKN3c1011SmallVectorIlLj8EEESB_SB_EEEDaS4_
FN:237,240,_ZNK5neml210DerivativeILm1EE14var_base_sizesEv
FN:237,240,_ZNK5neml210DerivativeILm2EE14var_base_sizesEv
FN:244,251,_ZNK5neml210DerivativeILm1EE14arg_base_sizesEm
FN:244,251,_ZNK5neml210DerivativeILm2EE14arg_base_sizesEm
FN:255,258,_ZNK5neml210DerivativeILm1EE9intmd_dimEv
FN:255,258,_ZNK5neml210DerivativeILm2EE9intmd_dimEv
FN:262,265,_ZNK5neml210DerivativeILm1EE16intrsc_intmd_dimEv
FN:262,265,_ZNK5neml210DerivativeILm2EE16intrsc_intmd_dimEv
FN:269,272,_ZNK5neml210DerivativeILm1EE20var_intrsc_intmd_dimEv
FN:269,272,_ZNK5neml210DerivativeILm2EE20var_intrsc_intmd_dimEv
FN:276,284,_ZNK5neml210DerivativeILm1EE20arg_intrsc_intmd_dimEm
FN:276,284,_ZNK5neml210DerivativeILm2EE20arg_intrsc_intmd_dimEm
FN:288,294,_ZNK5neml210DerivativeILm1EE8base_dimEv
FN:288,294,_ZNK5neml210DerivativeILm2EE8base_dimEv
FN:293,293,_ZZNK5neml210DerivativeILm1EE8base_dimEvENKUllRKN3c1011SmallVectorIlLj8EEEE_clElS6_
FN:293,293,_ZZNK5neml210DerivativeILm2EE8base_dimEvENKUllRKN3c1011SmallVectorIlLj8EEEE_clElS6_
FN:298,301,_ZNK5neml210DerivativeILm1EE12var_base_dimEv
FN:298,301,_ZNK5neml210DerivativeILm2EE12var_base_dimEv
FN:305,310,_ZNK5neml210DerivativeILm1EE12arg_base_dimEm
FN:305,310,_ZNK5neml210DerivativeILm2EE12arg_base_dimEm
FN:314,318,_ZNK5neml210DerivativeILm2EE11reinterpretEm
FN:322,360,_ZNK5neml210DerivativeILm1EE11reinterpretEm
FN:364,399,_ZNK5neml210DerivativeILm1EE16try_intmd_expandERKNS_6TensorE
FN:364,399,_ZNK5neml210DerivativeILm2EE16try_intmd_expandERKNS_6TensorE
FN:39,89,_ZN5neml210DerivativeILm1EEC2EmRKSt5arrayImLm2EERKS2_IN3c108ArrayRefIlEELm2EESB_NSt7__cxx1112basic_stringIcSt11char_traitsIcESaIcEEES2_ISH_Lm1EE
FN:39,89,_ZN5neml210DerivativeILm2EEC2EmRKSt5arrayImLm3EERKS2_IN3c108ArrayRefIlEELm3EESB_NSt7__cxx1112basic_stringIcSt11char_traitsIcESaIcEEES2_ISH_Lm2EE
FN:403,461,_ZN5neml27fullifyILm1EEENS_6TensorERKS1_lSt5arrayIN3c1011SmallVectorIlLj8EEEXT_EE
FN:403,461,_ZN5neml27fullifyILm2EEENS_6TensorERKS1_lSt5arrayIN3c1011SmallVectorIlLj8EEEXT_EE
FN:403,461,_ZN5neml27fullifyILm3EEENS_6TensorERKS1_lSt5arrayIN3c1011SmallVectorIlLj8EEEXT_EE
FN:415,415,_ZZN5neml27fullifyILm1EEENS_6TensorERKS1_lSt5arrayIN3c1011SmallVectorIlLj8EEEXT_EEENKUlDpRKT_E_clIJS7_EEEDaSC_
FN:415,415,_ZZN5neml27fullifyILm2EEENS_6TensorERKS1_lSt5arrayIN3c1011SmallVectorIlLj8EEEXT_EEENKUlDpRKT_E_clIJS7_S7_EEEDaSC_
FN:415,415,_ZZN5neml27fullifyILm3EEENS_6TensorERKS1_lSt5arrayIN3c1011SmallVectorIlLj8EEEXT_EEENKUlDpRKT_E_clIJS7_S7_S7_EEEDaSC_
FN:47,47,_ZZN5neml210DerivativeILm1EEC4EmRKSt5arrayImLm2EERKS2_IN3c108ArrayRefIlEELm2EESB_NSt7__cxx1112basic_stringIcSt11char_traitsIcESaIcEEES2_ISH_Lm1EEENKUlDpT_E_clIJmmEEEDaSK_
FN:47,47,_ZZN5neml210DerivativeILm2EEC4EmRKSt5arrayImLm3EERKS2_IN3c108ArrayRefIlEELm3EESB_NSt7__cxx1112basic_stringIcSt11char_traitsIcESaIcEEES2_ISH_Lm2EEENKUlDpT_E_clIJmmmEEEDaSK_
FN:470,475,_ZNK5neml210DerivativeILm1EE7fullifyEv
FN:479,485,_ZNK5neml210DerivativeILm2EE7fullifyEv
FN:48,48,_ZZN5neml210DerivativeILm1EEC4EmRKSt5arrayImLm2EERKS2_IN3c108ArrayRefIlEELm2EESB_NSt7__cxx1112basic_stringIcSt11char_traitsIcESaIcEEES2_ISH_Lm1EEENKUlDpT_E0_clIJS8_S8_EEEDaSK_
FN:48,48,_ZZN5neml210DerivativeILm2EEC4EmRKSt5arrayImLm3EERKS2_IN3c108ArrayRefIlEELm3EESB_NSt7__cxx1112basic_stringIcSt11char_traitsIcESaIcEEES2_ISH_Lm2EEENKUlDpT_E0_clIJS8_S8_S8_EEEDaSK_
FN:489,503,_ZN5neml210DerivativeILm1EEaSERKNS_6TensorE
FN:489,503,_ZN5neml210DerivativeILm2EEaSERKNS_6TensorE
FN:49,49,_ZZN5neml210DerivativeILm1EEC4EmRKSt5arrayImLm2EERKS2_IN3c108ArrayRefIlEELm2EESB_NSt7__cxx1112basic_stringIcSt11char_traitsIcESaIcEEES2_ISH_Lm1EEENKUlDpT_E1_clIJS8_S8_EEEDaSK_
FN:49,49,_ZZN5neml210DerivativeILm2EEC4EmRKSt5arrayImLm3EERKS2_IN3c108ArrayRefIlEELm3EESB_NSt7__cxx1112basic_stringIcSt11char_traitsIcESaIcEEES2_ISH_Lm2EEENKUlDpT_E1_clIJS8_S8_S8_EEEDaSK_
FN:507,525,_ZN5neml210DerivativeILm1EEpLERKNS_6TensorE
FN:507,525,_ZN5neml210DerivativeILm2EEpLERKNS_6TensorE
FN:529,555,_ZN5neml210DerivativeILm1EEpLERKS1_
FN:529,555,_ZN5neml210DerivativeILm2EEpLERKS1_
FN:93,96,_ZNK5neml210DerivativeILm1EE4nameB5cxx11Ev
FN:93,96,_ZNK5neml210DerivativeILm2EE4nameB5cxx11Ev
FNDA:476,_ZNK5neml210DerivativeILm1EE8var_nameB5cxx11Ev
FNDA:0,_ZNK5neml210DerivativeILm2EE8var_nameB5cxx11Ev
FNDA:476,_ZNK5neml210DerivativeILm1EE8arg_nameB5cxx11Em
FNDA:0,_ZNK5neml210DerivativeILm2EE8arg_nameB5cxx11Em
FNDA:9376,_ZNK5neml210DerivativeILm1EE6tensorEv
FNDA:717,_ZNK5neml210DerivativeILm2EE6tensorEv
FNDA:19938,_ZN5neml210DerivativeILm1EE5clearEv
FNDA:10368,_ZN5neml210DerivativeILm2EE5clearEv
FNDA:8815,_ZNK5neml210DerivativeILm1EE7definedEv
FNDA:680,_ZNK5neml210DerivativeILm2EE7definedEv
FNDA:3966,_ZNK5neml210DerivativeILm1EE25is_intrsc_intmd_broadcastEv
FNDA:411,_ZNK5neml210DerivativeILm2EE25is_intrsc_intmd_broadcastEv
FNDA:0,_ZNK5neml210DerivativeILm1EE11intmd_sizesEv
FNDA:0,_ZNK5neml210DerivativeILm2EE11intmd_sizesEv
FNDA:0,_ZNK5neml210DerivativeILm1EE18extrsc_intmd_sizesEv
FNDA:0,_ZNK5neml210DerivativeILm2EE18extrsc_intmd_sizesEv
FNDA:6,_ZNK5neml210DerivativeILm1EE18intrsc_intmd_sizesEv
FNDA:0,_ZNK5neml210DerivativeILm2EE18intrsc_intmd_sizesEv
FNDA:501,_ZNK5neml210DerivativeILm1EE15var_intmd_sizesEv
FNDA:79,_ZNK5neml210DerivativeILm2EE15var_intmd_sizesEv
FNDA:11890,_ZNK5neml210DerivativeILm1EE22var_intrsc_intmd_sizesEv
FNDA:712,_ZNK5neml210DerivativeILm2EE22var_intrsc_intmd_sizesEv
FNDA:596,_ZNK5neml210DerivativeILm1EE15arg_intmd_sizesEm
FNDA:89,_ZNK5neml210DerivativeILm2EE15arg_intmd_sizesEm
FNDA:11857,_ZNK5neml210DerivativeILm1EE22arg_intrsc_intmd_sizesEm
FNDA:1424,_ZNK5neml210DerivativeILm2EE22arg_intrsc_intmd_sizesEm
FNDA:22774,_ZNK5neml210DerivativeILm1EE10base_sizesEv
FNDA:1424,_ZNK5neml210DerivativeILm2EE10base_sizesEv
FNDA:22774,_ZZNK5neml210DerivativeILm1EE10base_sizesEvENKUlDpOT_E_clIJRKN3c1011SmallVectorIlLj8EEESB_EEEDaS4_
FNDA:1424,_ZZNK5neml210DerivativeILm2EE10base_sizesEvENKUlDpOT_E_clIJRKN3c1011SmallVectorIlLj8EEESB_SB_EEEDaS4_
FNDA:1566,_ZNK5neml210DerivativeILm1EE14var_base_sizesEv
FNDA:105,_ZNK5neml210DerivativeILm2EE14var_base_sizesEv
FNDA:1566,_ZNK5neml210DerivativeILm1EE14arg_base_sizesEm
FNDA:210,_ZNK5neml210DerivativeILm2EE14arg_base_sizesEm
FNDA:17596,_ZNK5neml210DerivativeILm1EE9intmd_dimEv
FNDA:462,_ZNK5neml210DerivativeILm2EE9intmd_dimEv
FNDA:1482,_ZNK5neml210DerivativeILm1EE16intrsc_intmd_dimEv
FNDA:137,_ZNK5neml210DerivativeILm2EE16intrsc_intmd_dimEv
FNDA:4443,_ZNK5neml210DerivativeILm1EE20var_intrsc_intmd_dimEv
FNDA:411,_ZNK5neml210DerivativeILm2EE20var_intrsc_intmd_dimEv
FNDA:4434,_ZNK5neml210DerivativeILm1EE20arg_intrsc_intmd_dimEm
FNDA:822,_ZNK5neml210DerivativeILm2EE20arg_intrsc_intmd_dimEm
FNDA:8798,_ZNK5neml210DerivativeILm1EE8base_dimEv
FNDA:231,_ZNK5neml210DerivativeILm2EE8base_dimEv
FNDA:17596,_ZZNK5neml210DerivativeILm1EE8base_dimEvENKUllRKN3c1011SmallVectorIlLj8EEEE_clElS6_
FNDA:693,_ZZNK5neml210DerivativeILm2EE8base_dimEvENKUllRKN3c1011SmallVectorIlLj8EEEE_clElS6_
FNDA:0,_ZNK5neml210DerivativeILm1EE12var_base_dimEv
FNDA:0,_ZNK5neml210DerivativeILm2EE12var_base_dimEv
FNDA:0,_ZNK5neml210DerivativeILm1EE12arg_base_dimEm
FNDA:0,_ZNK5neml210DerivativeILm2EE12arg_base_dimEm
FNDA:0,_ZNK5neml210DerivativeILm2EE11reinterpretEm
FNDA:3,_ZNK5neml210DerivativeILm1EE11reinterpretEm
FNDA:11387,_ZNK5neml210DerivativeILm1EE16try_intmd_expandERKNS_6TensorE
FNDA:712,_ZNK5neml210DerivativeILm2EE16try_intmd_expandERKNS_6TensorE
FNDA:2497,_ZN5neml210DerivativeILm1EEC2EmRKSt5arrayImLm2EERKS2_IN3c108ArrayRefIlEELm2EESB_NSt7__cxx1112basic_stringIcSt11char_traitsIcESaIcEEES2_ISH_Lm1EE
FNDA:572,_ZN5neml210DerivativeILm2EEC2EmRKSt5arrayImLm3EERKS2_IN3c108ArrayRefIlEELm3EESB_NSt7__cxx1112basic_stringIcSt11char_traitsIcESaIcEEES2_ISH_Lm2EE
FNDA:6512,_ZN5neml27fullifyILm1EEENS_6TensorERKS1_lSt5arrayIN3c1011SmallVectorIlLj8EEEXT_EE
FNDA:5809,_ZN5neml27fullifyILm2EEENS_6TensorERKS1_lSt5arrayIN3c1011SmallVectorIlLj8EEEXT_EE
FNDA:0,_ZN5neml27fullifyILm3EEENS_6TensorERKS1_lSt5arrayIN3c1011SmallVectorIlLj8EEEXT_EE
FNDA:6512,_ZZN5neml27fullifyILm1EEENS_6TensorERKS1_lSt5arrayIN3c1011SmallVectorIlLj8EEEXT_EEENKUlDpRKT_E_clIJS7_EEEDaSC_
FNDA:5809,_ZZN5neml27fullifyILm2EEENS_6TensorERKS1_lSt5arrayIN3c1011SmallVectorIlLj8EEEXT_EEENKUlDpRKT_E_clIJS7_S7_EEEDaSC_
FNDA:0,_ZZN5neml27fullifyILm3EEENS_6TensorERKS1_lSt5arrayIN3c1011SmallVectorIlLj8EEEXT_EEENKUlDpRKT_E_clIJS7_S7_S7_EEEDaSC_
FNDA:2497,_ZZN5neml210DerivativeILm1EEC4EmRKSt5arrayImLm2EERKS2_IN3c108ArrayRefIlEELm2EESB_NSt7__cxx1112basic_stringIcSt11char_traitsIcESaIcEEES2_ISH_Lm1EEENKUlDpT_E_clIJmmEEEDaSK_
FNDA:572,_ZZN5neml210DerivativeILm2EEC4EmRKSt5arrayImLm3EERKS2_IN3c108ArrayRefIlEELm3EESB_NSt7__cxx1112basic_stringIcSt11char_traitsIcESaIcEEES2_ISH_Lm2EEENKUlDpT_E_clIJmmmEEEDaSK_
FNDA:470,_ZNK5neml210DerivativeILm1EE7fullifyEv
FNDA:0,_ZNK5neml210DerivativeILm2EE7fullifyEv
FNDA:2497,_ZZN5neml210DerivativeILm1EEC4EmRKSt5arrayImLm2EERKS2_IN3c108ArrayRefIlEELm2EESB_NSt7__cxx1112basic_stringIcSt11char_traitsIcESaIcEEES2_ISH_Lm1EEENKUlDpT_E0_clIJS8_S8_EEEDaSK_
FNDA:572,_ZZN5neml210DerivativeILm2EEC4EmRKSt5arrayImLm3EERKS2_IN3c108ArrayRefIlEELm3EESB_NSt7__cxx1112basic_stringIcSt11char_traitsIcESaIcEEES2_ISH_Lm2EEENKUlDpT_E0_clIJS8_S8_S8_EEEDaSK_
FNDA:10302,_ZN5neml210DerivativeILm1EEaSERKNS_6TensorE
FNDA:575,_ZN5neml210DerivativeILm2EEaSERKNS_6TensorE
FNDA:2497,_ZZN5neml210DerivativeILm1EEC4EmRKSt5arrayImLm2EERKS2_IN3c108ArrayRefIlEELm2EESB_NSt7__cxx1112basic_stringIcSt11char_traitsIcESaIcEEES2_ISH_Lm1EEENKUlDpT_E1_clIJS8_S8_EEEDaSK_
FNDA:572,_ZZN5neml210DerivativeILm2EEC4EmRKSt5arrayImLm3EERKS2_IN3c108ArrayRefIlEELm3EESB_NSt7__cxx1112basic_stringIcSt11char_traitsIcESaIcEEES2_ISH_Lm2EEENKUlDpT_E1_clIJS8_S8_S8_EEEDaSK_
FNDA:1085,_ZN5neml210DerivativeILm1EEpLERKNS_6TensorE
FNDA:137,_ZN5neml210DerivativeILm2EEpLERKNS_6TensorE
FNDA:1004,_ZN5neml210DerivativeILm1EEpLERKS1_
FNDA:137,_ZN5neml210DerivativeILm2EEpLERKS1_
FNDA:48822,_ZNK5neml210DerivativeILm1EE4nameB5cxx11Ev
FNDA:6683,_ZNK5neml210DerivativeILm2EE4nameB5cxx11Ev
FNF:78
FNH:63
DA:39,3069
DA:45,3069
DA:47,6138
DA:48,6138
DA:49,6138
DA:50,3069
DA:51,3069
DA:54,3069
DA:62,6710
DA:63,3641
DA:75,3069
DA:76,3069
DA:89,3069
DA:93,55505
DA:95,55505
DA:100,476
DA:102,476
DA:107,476
DA:109,476
DA:111,476
DA:116,10093
DA:118,10093
DA:127,10093
DA:132,30306
DA:134,30306
DA:135,30306
DA:139,9495
DA:141,9495
DA:146,4377
DA:148,4377
DA:149,4377
DA:154,0
DA:156,0
DA:161,0
DA:163,0
DA:171,0
DA:176,6
DA:178,6
DA:186,6
DA:191,580
DA:193,580
DA:198,12602
DA:200,12602
DA:201,12602
DA:206,685
DA:208,685
DA:212,685
DA:217,13281
DA:219,13281
DA:224,13281
DA:225,13281
DA:230,24198
DA:232,72594
DA:237,1671
DA:239,1671
DA:244,1776
DA:246,1776
DA:250,1776
DA:255,18058
DA:257,18058
DA:262,1619
DA:264,1619
DA:269,4854
DA:271,4854
DA:276,5256
DA:278,5256
DA:283,5256
DA:288,9029
DA:290,9029
DA:293,27318
DA:298,0
DA:300,0
DA:305,0
DA:307,0
DA:309,0
DA:314,0
DA:316,0
DA:322,3
DA:324,3
DA:325,3
DA:336,3
DA:337,3
DA:338,6
DA:339,6
DA:340,6
DA:341,3
DA:342,18
DA:343,6
DA:344,3
DA:345,0
DA:348,0
DA:350,0
DA:351,0
DA:352,0
DA:353,0
DA:354,0
DA:355,0
DA:357,0
DA:358,0
DA:359,0
DA:364,12099
DA:366,12099
DA:367,12099
DA:368,2
DA:371,12099
DA:372,12099
DA:373,11387
DA:375,712
DA:379,12099
DA:380,12090
DA:384,9
DA:394,9
DA:395,9
DA:396,9
DA:397,9
DA:398,9
DA:399,12099
DA:403,12321
DA:405,12321
DA:411,12321
DA:414,12321
DA:415,12321
DA:416,12321
DA:417,12317
DA:421,4
DA:422,4
DA:423,4
DA:431,4
DA:432,2
DA:435,2
DA:438,2
DA:439,2
DA:440,0
DA:444,2
DA:445,2
DA:446,0
DA:447,2
DA:450,4
DA:451,2
DA:452,2
DA:453,2
DA:455,0
DA:456,0
DA:457,0
DA:459,2
DA:460,2
DA:461,12321
DA:470,470
DA:473,470
DA:474,940
DA:475,470
DA:479,0
DA:481,0
DA:482,0
DA:483,0
DA:484,0
DA:485,0
DA:489,10877
DA:491,10877
DA:499,10877
DA:500,10877
DA:502,10877
DA:507,1222
DA:509,1222
DA:517,1222
DA:518,100
DA:520,1122
DA:522,1222
DA:524,1222
DA:529,1141
DA:532,1141
DA:533,2419
DA:534,1278
DA:539,1141
DA:540,0
DA:541,1141
DA:542,0
DA:545,1141
DA:546,1141
DA:547,0
DA:548,1141
DA:549,0
DA:551,1141
DA:552,3423
DA:553,2282
DA:554,1141
DA:555,1141
LF:187
LH:149
end_of_record
TN:
SF:/home/runner/work/neml2/neml2/src/neml2/tensors/Quaternion.cxx
FN:40,44,_ZN5neml210QuaternionC2ERKNS_3RotE
FN:47,64,_ZNK5neml210Quaternion15rotation_matrixEv
FN:67,71,_ZNK5neml210Quaternion4distERKS0_
FNDA:1,_ZN5neml210QuaternionC2ERKNS_3RotE
FNDA:3258,_ZNK5neml210Quaternion15rotation_matrixEv
FNDA:2,_ZNK5neml210Quaternion4distERKS0_
FNF:3
FNH:3
DA:40,1
DA:41,5
DA:42,4
DA:44,4
DA:47,3258
DA:49,3258
DA:51,3258
DA:52,3258
DA:53,3258
DA:55,6516
DA:56,6516
DA:57,6516
DA:58,6516
DA:59,6516
DA:60,6516
DA:61,6516
DA:62,6516
DA:63,13032
DA:64,3258
DA:67,2
DA:69,2
DA:70,4
DA:71,2
LF:23
LH:23
end_of_record
TN:
SF:/home/runner/work/neml2/neml2/src/neml2/tensors/R2.cxx
FN:111,118,_ZN5neml22R24skewERKNS_3VecE
FN:121,124,_ZN5neml22R28identityERKN3c1013TensorOptionsE
FN:127,130,_ZNK5neml22R26rotateERKNS_3RotE
FN:133,136,_ZNK5neml22R26rotateERKS0_
FN:139,145,_ZNK5neml22R27drotateERKNS_3RotE
FN:148,153,_ZNK5neml22R27drotateERKS0_
FN:156,159,_ZNK5neml22R23rowEl
FN:162,165,_ZNK5neml22R23colEl
FN:168,171,_ZNK5neml22R29transposeEv
FN:174,177,_ZN5neml2mlERKNS_2R2ES2_
FN:180,183,_ZN5neml2mlERKNS_2R2ERKNS_3VecE
FN:41,44,_ZN5neml22R2C2ERKNS_3SR2E
FN:46,49,_ZN5neml22R2C2ERKNS_3WR2E
FN:52,55,_ZN5neml22R24fillERKN3c106ScalarERKNS1_13TensorOptionsE
FN:58,61,_ZN5neml22R24fillERKNS_6ScalarE
FN:64,70,_ZN5neml22R24fillERKN3c106ScalarES4_S4_RKNS1_13TensorOptionsE
FN:73,77,_ZN5neml22R24fillERKNS_6ScalarES3_S3_
FN:80,94,_ZN5neml22R24fillERKN3c106ScalarES4_S4_S4_S4_S4_RKNS1_13TensorOptionsE
FN:97,108,_ZN5neml22R24fillERKNS_6ScalarES3_S3_S3_S3_S3_
FNDA:8647,_ZN5neml22R24skewERKNS_3VecE
FNDA:8811,_ZN5neml22R28identityERKN3c1013TensorOptionsE
FNDA:11,_ZNK5neml22R26rotateERKNS_3RotE
FNDA:40,_ZNK5neml22R26rotateERKS0_
FNDA:2,_ZNK5neml22R27drotateERKNS_3RotE
FNDA:5,_ZNK5neml22R27drotateERKS0_
FNDA:3,_ZNK5neml22R23rowEl
FNDA:63,_ZNK5neml22R23colEl
FNDA:3370,_ZNK5neml22R29transposeEv
FNDA:18201,_ZN5neml2mlERKNS_2R2ES2_
FNDA:98,_ZN5neml2mlERKNS_2R2ERKNS_3VecE
FNDA:81,_ZN5neml22R2C2ERKNS_3SR2E
FNDA:6,_ZN5neml22R2C2ERKNS_3WR2E
FNDA:4,_ZN5neml22R24fillERKN3c106ScalarERKNS1_13TensorOptionsE
FNDA:20,_ZN5neml22R24fillERKNS_6ScalarE
FNDA:8,_ZN5neml22R24fillERKN3c106ScalarES4_S4_RKNS1_13TensorOptionsE
FNDA:36,_ZN5neml22R24fillERKNS_6ScalarES3_S3_
FNDA:8,_ZN5neml22R24fillERKN3c106ScalarES4_S4_S4_S4_S4_RKNS1_13TensorOptionsE
FNDA:52,_ZN5neml22R24fillERKNS_6ScalarES3_S3_S3_S3_S3_
FNF:19
FNH:19
DA:41,81
DA:42,81
DA:44,81
DA:46,6
DA:47,6
DA:49,6
DA:52,4
DA:54,4
DA:58,20
DA:60,20
DA:64,8
DA:69,8
DA:73,36
DA:75,36
DA:76,72
DA:77,36
DA:80,8
DA:88,16
DA:89,16
DA:90,16
DA:91,16
DA:92,16
DA:93,24
DA:97,52
DA:104,468
DA:105,208
DA:106,208
DA:107,104
DA:108,780
DA:111,8647
DA:113,8647
DA:114,95117
DA:115,51882
DA:116,51882
DA:117,17294
DA:118,181587
DA:121,8811
DA:123,8811
DA:127,11
DA:129,11
DA:133,40
DA:135,40
DA:139,2
DA:141,2
DA:142,2
DA:143,10
DA:144,14
DA:145,6
DA:148,5
DA:150,5
DA:151,25
DA:152,30
DA:153,20
DA:156,3
DA:158,18
DA:159,6
DA:162,63
DA:164,378
DA:165,126
DA:168,3370
DA:170,3370
DA:174,18201
DA:176,18201
DA:180,98
DA:182,98
LF:65
LH:65
end_of_record
TN:
SF:/home/runner/work/neml2/neml2/src/neml2/tensors/R3.cxx
FN:32,39,_ZN5neml22R311levi_civitaERKN3c1013TensorOptionsE
FNDA:8633,_ZN5neml22R311levi_civitaERKN3c1013TensorOptionsE
FNF:1
FNH:1
DA:32,8633
DA:34,379852
DA:38,51798
DA:39,353953
LF:4
LH:4
end_of_record
TN:
SF:/home/runner/work/neml2/neml2/src/neml2/tensors/R4.cxx
FN:37,40,_ZN5neml22R4C2ERKNS_4SSR4E
FN:42,45,_ZN5neml22R4C2ERKNS_4WWR4E
FN:48,52,_ZNK5neml22R46rotateERKNS_3RotE
FN:55,69,_ZNK5neml22R47drotateERKNS_3RotE
FN:72,76,_ZNK5neml22R412drotate_selfERKNS_3RotE
FN:79,82,_ZNK5neml22R49transposeEll
FN:85,88,_ZNK5neml22R415transpose_minorEv
FN:91,94,_ZNK5neml22R415transpose_majorEv
FNDA:63,_ZN5neml22R4C2ERKNS_4SSR4E
FNDA:0,_ZN5neml22R4C2ERKNS_4WWR4E
FNDA:139,_ZNK5neml22R46rotateERKNS_3RotE
FNDA:7,_ZNK5neml22R47drotateERKNS_3RotE
FNDA:1,_ZNK5neml22R412drotate_selfERKNS_3RotE
FNDA:155,_ZNK5neml22R49transposeEll
FNDA:76,_ZNK5neml22R415transpose_minorEv
FNDA:1,_ZNK5neml22R415transpose_majorEv
FNF:8
FNH:7
DA:37,63
DA:38,63
DA:40,63
DA:42,0
DA:43,0
DA:45,0
DA:48,139
DA:50,139
DA:51,973
DA:52,278
DA:55,7
DA:57,7
DA:58,7
DA:61,42
DA:63,42
DA:65,42
DA:67,42
DA:68,14
DA:69,35
DA:72,1
DA:74,1
DA:75,6
DA:76,2
DA:79,155
DA:81,155
DA:85,76
DA:87,76
DA:91,1
DA:93,1
LF:29
LH:26
end_of_record
TN:
SF:/home/runner/work/neml2/neml2/src/neml2/tensors/Rot.cxx
FN:140,155,_ZN5neml23Rot11fill_matrixERKNS_2R2E
FN:158,166,_ZN5neml23Rot14fill_rodriguesERKNS_6ScalarES3_S3_
FN:169,178,_ZN5neml23Rot16rotation_from_toERKNS_3VecES3_
FN:181,187,_ZN5neml23Rot10axis_angleERKNS_3VecERKNS_6ScalarE
FN:190,194,_ZN5neml23Rot19axis_angle_standardERKNS_3VecERKNS_6ScalarE
FN:197,205,_ZNK5neml23Rot15euler_rodriguesEv
FN:208,220,_ZNK5neml23Rot16deuler_rodriguesEv
FN:223,226,_ZNK5neml23Rot6rotateERKS0_
FN:229,242,_ZNK5neml23Rot7drotateERKS0_
FN:245,258,_ZNK5neml23Rot12drotate_selfERKS0_
FN:261,264,_ZNK5neml23Rot6shadowEv
FN:267,271,_ZNK5neml23Rot7dshadowEv
FN:274,284,_ZNK5neml23Rot4distERKS0_
FN:287,293,_ZNK5neml23Rot5gdistERKS0_
FN:296,299,_ZNK5neml23Rot2dVEv
FN:302,327,_ZNK5neml23Rot15to_euler_anglesERKNSt7__cxx1112basic_stringIcSt11char_traitsIcESaIcEEES8_
FN:330,337,_ZN5neml2mlERKNS_3RotES2_
FN:340,371,_ZN5neml231convert_euler_angles_from_kocksERKNS_3VecERKNSt7__cxx1112basic_stringIcSt11char_traitsIcESaIcEEE
FN:63,66,_ZN5neml23Rot4randERKN3c1013TensorOptionsE
FN:69,83,_ZN5neml23Rot4randERKNS_20TraceableTensorShapeEN3c108ArrayRefIlEERKNS4_13TensorOptionsE
FN:86,89,_ZN5neml23Rot8identityERKN3c1013TensorOptionsE
FN:92,137,_ZN5neml23Rot17fill_euler_anglesERKNS_3VecERKNSt7__cxx1112basic_stringIcSt11char_traitsIcESaIcEEESB_
FNDA:2125,_ZN5neml23Rot11fill_matrixERKNS_2R2E
FNDA:2125,_ZN5neml23Rot14fill_rodriguesERKNS_6ScalarES3_S3_
FNDA:1,_ZN5neml23Rot16rotation_from_toERKNS_3VecES3_
FNDA:3,_ZN5neml23Rot10axis_angleERKNS_3VecERKNS_6ScalarE
FNDA:1,_ZN5neml23Rot19axis_angle_standardERKNS_3VecERKNS_6ScalarE
FNDA:8616,_ZNK5neml23Rot15euler_rodriguesEv
FNDA:16,_ZNK5neml23Rot16deuler_rodriguesEv
FNDA:21,_ZNK5neml23Rot6rotateERKS0_
FNDA:5,_ZNK5neml23Rot7drotateERKS0_
FNDA:3,_ZNK5neml23Rot12drotate_selfERKS0_
FNDA:7,_ZNK5neml23Rot6shadowEv
FNDA:2,_ZNK5neml23Rot7dshadowEv
FNDA:0,_ZNK5neml23Rot4distERKS0_
FNDA:0,_ZNK5neml23Rot5gdistERKS0_
FNDA:0,_ZNK5neml23Rot2dVEv
FNDA:6,_ZNK5neml23Rot15to_euler_anglesERKNSt7__cxx1112basic_stringIcSt11char_traitsIcESaIcEEES8_
FNDA:22,_ZN5neml2mlERKNS_3RotES2_
FNDA:6,_ZN5neml231convert_euler_angles_from_kocksERKNS_3VecERKNSt7__cxx1112basic_stringIcSt11char_traitsIcESaIcEEE
FNDA:3,_ZN5neml23Rot4randERKN3c1013TensorOptionsE
FNDA:17,_ZN5neml23Rot4randERKNS_20TraceableTensorShapeEN3c108ArrayRefIlEERKNS4_13TensorOptionsE
FNDA:2,_ZN5neml23Rot8identityERKN3c1013TensorOptionsE
FNDA:16,_ZN5neml23Rot17fill_euler_anglesERKNS_3VecERKNSt7__cxx1112basic_stringIcSt11char_traitsIcESaIcEEESB_
FNF:22
FNH:19
DA:63,3
DA:65,3
DA:69,17
DA:73,17
DA:75,17
DA:76,17
DA:77,17
DA:78,17
DA:80,102
DA:82,34
DA:83,34
DA:86,2
DA:88,2
DA:92,16
DA:96,16
DA:98,16
DA:99,10
DA:101,6
DA:103,16
DA:105,40
DA:106,40
DA:107,40
DA:109,8
DA:111,16
DA:114,4
DA:117,16
DA:118,32
DA:119,32
DA:120,32
DA:121,48
DA:122,32
DA:123,48
DA:124,32
DA:125,64
DA:126,48
DA:127,32
DA:128,48
DA:129,32
DA:130,64
DA:131,64
DA:132,64
DA:133,64
DA:136,32
DA:137,264
DA:140,2125
DA:143,2125
DA:144,2125
DA:147,2125
DA:148,10625
DA:150,2125
DA:151,2125
DA:152,2125
DA:154,4250
DA:155,10625
DA:158,2125
DA:161,2125
DA:162,2125
DA:165,12750
DA:166,4250
DA:169,1
DA:171,1
DA:172,1
DA:174,1
DA:175,1
DA:177,2
DA:178,1
DA:181,3
DA:183,3
DA:184,3
DA:186,6
DA:187,3
DA:190,1
DA:192,1
DA:193,2
DA:194,1
DA:197,8616
DA:199,8616
DA:200,8616
DA:201,8616
DA:203,17232
DA:204,34464
DA:205,8616
DA:208,16
DA:210,16
DA:211,16
DA:212,16
DA:213,16
DA:215,64
DA:216,96
DA:217,48
DA:218,32
DA:219,144
DA:220,96
DA:223,21
DA:225,21
DA:229,5
DA:231,5
DA:233,5
DA:234,5
DA:235,5
DA:236,5
DA:237,5
DA:239,10
DA:240,10
DA:241,30
DA:242,5
DA:245,3
DA:247,3
DA:249,3
DA:250,3
DA:251,3
DA:252,3
DA:253,3
DA:255,6
DA:256,6
DA:257,18
DA:258,3
DA:261,7
DA:263,7
DA:267,2
DA:269,2
DA:270,4
DA:271,2
DA:274,0
DA:276,0
DA:277,0
DA:278,0
DA:279,0
DA:280,0
DA:281,0
DA:283,0
DA:284,0
DA:287,0
DA:289,0
DA:290,0
DA:291,0
DA:292,0
DA:296,0
DA:298,0
DA:302,6
DA:304,6
DA:305,6
DA:307,42
DA:308,36
DA:310,18
DA:311,6
DA:312,36
DA:313,36
DA:314,30
DA:316,24
DA:318,6
DA:320,6
DA:322,6
DA:323,3
DA:325,3
DA:326,12
DA:327,72
DA:330,22
DA:332,22
DA:333,22
DA:335,44
DA:336,88
DA:337,22
DA:340,6
DA:342,6
DA:344,6
DA:346,2
DA:348,4
DA:350,4
DA:351,4
DA:352,4
DA:354,16
DA:356,6
DA:357,2
DA:358,2
DA:360,4
DA:361,4
DA:362,4
DA:364,10
DA:365,2
DA:368,0
DA:370,6
DA:371,26
LF:183
LH:166
end_of_record
TN:
SF:/home/runner/work/neml2/neml2/src/neml2/tensors/SR2.cxx
FN:105,108,_ZN5neml23SR28identityERKN3c1013TensorOptionsE
FN:111,114,_ZNK5neml23SR26rotateERKNS_3RotE
FN:117,120,_ZNK5neml23SR26rotateERKNS_2R2E
FN:123,127,_ZNK5neml23SR27drotateERKNS_3RotE
FN:130,134,_ZNK5neml23SR27drotateERKNS_2R2E
FN:137,141,_ZNK5neml23SR2clEll
FN:144,147,_ZNK5neml23SR29transposeEv
FN:42,45,_ZN5neml23SR2C2ERKNS_2R2E
FN:48,51,_ZN5neml23SR24fillERKN3c106ScalarERKNS1_13TensorOptionsE
FN:54,57,_ZN5neml23SR24fillERKNS_6ScalarE
FN:60,66,_ZN5neml23SR24fillERKN3c106ScalarES4_S4_RKNS1_13TensorOptionsE
FN:69,73,_ZN5neml23SR24fillERKNS_6ScalarES3_S3_
FN:76,90,_ZN5neml23SR24fillERKN3c106ScalarES4_S4_S4_S4_S4_RKNS1_13TensorOptionsE
FN:93,102,_ZN5neml23SR24fillERKNS_6ScalarES3_S3_S3_S3_S3_
FNDA:348,_ZN5neml23SR28identityERKN3c1013TensorOptionsE
FNDA:5,_ZNK5neml23SR26rotateERKNS_3RotE
FNDA:16,_ZNK5neml23SR26rotateERKNS_2R2E
FNDA:1,_ZNK5neml23SR27drotateERKNS_3RotE
FNDA:3,_ZNK5neml23SR27drotateERKNS_2R2E
FNDA:9,_ZNK5neml23SR2clEll
FNDA:0,_ZNK5neml23SR29transposeEv
FNDA:119,_ZN5neml23SR2C2ERKNS_2R2E
FNDA:3,_ZN5neml23SR24fillERKN3c106ScalarERKNS1_13TensorOptionsE
FNDA:24,_ZN5neml23SR24fillERKNS_6ScalarE
FNDA:3,_ZN5neml23SR24fillERKN3c106ScalarES4_S4_RKNS1_13TensorOptionsE
FNDA:58,_ZN5neml23SR24fillERKNS_6ScalarES3_S3_
FNDA:7,_ZN5neml23SR24fillERKN3c106ScalarES4_S4_S4_S4_S4_RKNS1_13TensorOptionsE
FNDA:112,_ZN5neml23SR24fillERKNS_6ScalarES3_S3_S3_S3_S3_
FNF:14
FNH:13
DA:42,119
DA:43,119
DA:45,119
DA:48,3
DA:50,3
DA:54,24
DA:56,24
DA:60,3
DA:65,3
DA:69,58
DA:71,58
DA:72,522
DA:73,116
DA:76,7
DA:84,14
DA:85,14
DA:86,14
DA:87,14
DA:88,14
DA:89,21
DA:93,112
DA:100,1008
DA:101,560
DA:102,448
DA:105,348
DA:107,2436
DA:108,348
DA:111,5
DA:113,5
DA:117,16
DA:119,16
DA:123,1
DA:125,1
DA:126,2
DA:127,1
DA:130,3
DA:132,3
DA:133,6
DA:134,3
DA:137,9
DA:139,9
DA:140,27
DA:141,9
DA:144,0
DA:146,0
LF:45
LH:43
end_of_record
TN:
SF:/home/runner/work/neml2/neml2/src/neml2/tensors/SSR4.cxx
FN:101,104,_ZN5neml24SSR412identity_symERKN3c1013TensorOptionsE
FN:107,110,_ZN5neml24SSR412identity_volERKN3c1013TensorOptionsE
FN:113,116,_ZN5neml24SSR412identity_devERKN3c1013TensorOptionsE
FN:119,130,_ZN5neml24SSR414isotropic_E_nuERKNS_6ScalarES3_
FN:133,136,_ZN5neml24SSR414isotropic_E_nuERKdS2_RKN3c1013TensorOptionsE
FN:139,145,_ZN5neml24SSR413fill_C1_C2_C3ERKNS_6ScalarES3_S3_
FN:148,154,_ZN5neml24SSR413fill_C1_C2_C3ERKdS2_S2_RKN3c1013TensorOptionsE
FN:157,160,_ZNK5neml24SSR46rotateERKNS_3RotE
FN:163,167,_ZNK5neml24SSR47drotateERKNS_3RotE
FN:170,180,_ZNK5neml24SSR412drotate_selfERKNS_3RotE
FN:183,188,_ZNK5neml24SSR4clEllll
FN:191,194,_ZNK5neml24SSR415transpose_minorEv
FN:197,200,_ZNK5neml24SSR415transpose_majorEv
FN:203,206,_ZN5neml2mlERKNS_4SSR4ES2_
FN:209,212,_ZN5neml2mlERKNS_4SSR4ERKNS_3SR2E
FN:40,46,_ZN5neml24SSR4C2ERKNS_2R4E
FN:49,59,_ZN5neml24SSR48identityERKN3c1013TensorOptionsE
FN:62,72,_ZN5neml24SSR411identity_C1ERKN3c1013TensorOptionsE
FN:75,85,_ZN5neml24SSR411identity_C2ERKN3c1013TensorOptionsE
FN:88,98,_ZN5neml24SSR411identity_C3ERKN3c1013TensorOptionsE
FNDA:176,_ZN5neml24SSR412identity_symERKN3c1013TensorOptionsE
FNDA:20,_ZN5neml24SSR412identity_volERKN3c1013TensorOptionsE
FNDA:54,_ZN5neml24SSR412identity_devERKN3c1013TensorOptionsE
FNDA:1,_ZN5neml24SSR414isotropic_E_nuERKNS_6ScalarES3_
FNDA:0,_ZN5neml24SSR414isotropic_E_nuERKdS2_RKN3c1013TensorOptionsE
FNDA:1,_ZN5neml24SSR413fill_C1_C2_C3ERKNS_6ScalarES3_S3_
FNDA:0,_ZN5neml24SSR413fill_C1_C2_C3ERKdS2_S2_RKN3c1013TensorOptionsE
FNDA:52,_ZNK5neml24SSR46rotateERKNS_3RotE
FNDA:6,_ZNK5neml24SSR47drotateERKNS_3RotE
FNDA:3,_ZNK5neml24SSR412drotate_selfERKNS_3RotE
FNDA:405,_ZNK5neml24SSR4clEllll
FNDA:0,_ZNK5neml24SSR415transpose_minorEv
FNDA:1,_ZNK5neml24SSR415transpose_majorEv
FNDA:19,_ZN5neml2mlERKNS_4SSR4ES2_
FNDA:18,_ZN5neml2mlERKNS_4SSR4ERKNS_3SR2E
FNDA:70,_ZN5neml24SSR4C2ERKNS_2R4E
FNDA:106,_ZN5neml24SSR48identityERKN3c1013TensorOptionsE
FNDA:5,_ZN5neml24SSR411identity_C1ERKN3c1013TensorOptionsE
FNDA:5,_ZN5neml24SSR411identity_C2ERKN3c1013TensorOptionsE
FNDA:5,_ZN5neml24SSR411identity_C3ERKN3c1013TensorOptionsE
FNF:20
FNH:17
DA:40,70
DA:41,140
DA:42,140
DA:44,70
DA:46,70
DA:49,106
DA:51,4664
DA:58,954
DA:59,4028
DA:62,5
DA:64,220
DA:71,45
DA:72,190
DA:75,5
DA:77,220
DA:84,45
DA:85,190
DA:88,5
DA:90,220
DA:97,45
DA:98,190
DA:101,176
DA:103,176
DA:107,20
DA:109,40
DA:113,54
DA:115,54
DA:119,1
DA:121,1
DA:123,1
DA:124,1
DA:125,1
DA:126,1
DA:127,1
DA:129,2
DA:130,1
DA:133,0
DA:135,0
DA:139,1
DA:141,1
DA:143,2
DA:144,3
DA:148,0
DA:153,0
DA:157,52
DA:159,52
DA:163,6
DA:165,6
DA:166,12
DA:167,6
DA:170,3
DA:172,3
DA:173,18
DA:174,24
DA:175,21
DA:176,21
DA:177,6
DA:178,6
DA:179,6
DA:180,15
DA:183,405
DA:185,405
DA:186,405
DA:187,1620
DA:188,405
DA:191,0
DA:193,0
DA:197,1
DA:199,1
DA:203,19
DA:205,19
DA:209,18
DA:211,18
LF:73
LH:67
end_of_record
TN:
SF:/home/runner/work/neml2/neml2/src/neml2/tensors/SWR4.cxx
FN:32,35,_ZN5neml24SWR4C2ERKNS_2R4E
FNDA:1,_ZN5neml24SWR4C2ERKNS_2R4E
FNF:1
FNH:1
DA:32,1
DA:33,1
DA:35,1
LF:3
LH:3
end_of_record
TN:
SF:/home/runner/work/neml2/neml2/src/neml2/tensors/Scalar.cxx
FN:30,37,_ZN5neml26ScalarC2ERKN3c106ScalarERKNS1_13TensorOptionsE
FNDA:909,_ZN5neml26ScalarC2ERKN3c106ScalarERKNS1_13TensorOptionsE
FNF:1
FNH:1
DA:30,909
DA:31,909
DA:33,909
DA:37,909
LF:4
LH:4
end_of_record
TN:
SF:/home/runner/work/neml2/neml2/src/neml2/tensors/Tensor.cxx
FN:100,103,_ZN5neml26TensorC2ERKN2at6TensorERKNS_20TraceableTensorShapeEl
FN:106,109,_ZN5neml26Tensor6createERKN5torch6detail19TensorDataContainerERKN3c1013TensorOptionsE
FN:112,122,_ZN5neml26Tensor6createERKN5torch6detail19TensorDataContainerEllRKN3c1013TensorOptionsE
FN:125,128,_ZN5neml26Tensor5emptyEN3c108ArrayRefIlEERKNS1_13TensorOptionsE
FN:131,147,_ZN5neml26Tensor5emptyERKNS_20TraceableTensorShapeEN3c108ArrayRefIlEES6_RKNS4_13TensorOptionsE
FN:150,153,_ZN5neml26Tensor5zerosEN3c108ArrayRefIlEERKNS1_13TensorOptionsE
FN:156,171,_ZN5neml26Tensor5zerosERKNS_20TraceableTensorShapeEN3c108ArrayRefIlEES6_RKNS4_13TensorOptionsE
FN:174,177,_ZN5neml26Tensor4onesEN3c108ArrayRefIlEERKNS1_13TensorOptionsE
FN:180,195,_ZN5neml26Tensor4onesERKNS_20TraceableTensorShapeEN3c108ArrayRefIlEES6_RKNS4_13TensorOptionsE
FN:198,201,_ZN5neml26Tensor4fullEN3c108ArrayRefIlEERKNS1_6ScalarERKNS1_13TensorOptionsE
FN:204,220,_ZN5neml26Tensor4fullERKNS_20TraceableTensorShapeEN3c108ArrayRefIlEES6_RKNS4_6ScalarERKNS4_13TensorOptionsE
FN:223,226,_ZN5neml26Tensor4randEN3c108ArrayRefIlEERKNS1_13TensorOptionsE
FN:229,244,_ZN5neml26Tensor4randERKNS_20TraceableTensorShapeEN3c108ArrayRefIlEES6_RKNS4_13TensorOptionsE
FN:247,250,_ZN5neml26Tensor8identityElRKN3c1013TensorOptionsE
FN:37,43,_ZN5neml25utilsL11pad_prependERKN2at6TensorEll
FN:46,66,_ZN5neml25utils23broadcast_dynamic_sizesERKSt6vectorINS_6TensorESaIS2_EE
FN:69,92,_ZN5neml25utils21broadcast_intmd_sizesERKSt6vectorINS_6TensorESaIS2_EE
FN:95,98,_ZN5neml26TensorC2ERKN2at6TensorEll
FNDA:3263090,_ZN5neml26TensorC2ERKN2at6TensorERKNS_20TraceableTensorShapeEl
FNDA:416,_ZN5neml26Tensor6createERKN5torch6detail19TensorDataContainerERKN3c1013TensorOptionsE
FNDA:598,_ZN5neml26Tensor6createERKN5torch6detail19TensorDataContainerEllRKN3c1013TensorOptionsE
FNDA:136,_ZN5neml26Tensor5emptyEN3c108ArrayRefIlEERKNS1_13TensorOptionsE
FNDA:154,_ZN5neml26Tensor5emptyERKNS_20TraceableTensorShapeEN3c108ArrayRefIlEES6_RKNS4_13TensorOptionsE
FNDA:1255,_ZN5neml26Tensor5zerosEN3c108ArrayRefIlEERKNS1_13TensorOptionsE
FNDA:738,_ZN5neml26Tensor5zerosERKNS_20TraceableTensorShapeEN3c108ArrayRefIlEES6_RKNS4_13TensorOptionsE
FNDA:328,_ZN5neml26Tensor4onesEN3c108ArrayRefIlEERKNS1_13TensorOptionsE
FNDA:122,_ZN5neml26Tensor4onesERKNS_20TraceableTensorShapeEN3c108ArrayRefIlEES6_RKNS4_13TensorOptionsE
FNDA:1955,_ZN5neml26Tensor4fullEN3c108ArrayRefIlEERKNS1_6ScalarERKNS1_13TensorOptionsE
FNDA:333,_ZN5neml26Tensor4fullERKNS_20TraceableTensorShapeEN3c108ArrayRefIlEES6_RKNS4_6ScalarERKNS4_13TensorOptionsE
FNDA:48,_ZN5neml26Tensor4randEN3c108ArrayRefIlEERKNS1_13TensorOptionsE
FNDA:85,_ZN5neml26Tensor4randERKNS_20TraceableTensorShapeEN3c108ArrayRefIlEES6_RKNS4_13TensorOptionsE
FNDA:8844,_ZN5neml26Tensor8identityElRKN3c1013TensorOptionsE
FNDA:835,_ZN5neml25utilsL11pad_prependERKN2at6TensorEll
FNDA:6441,_ZN5neml25utils23broadcast_dynamic_sizesERKSt6vectorINS_6TensorESaIS2_EE
FNDA:6091,_ZN5neml25utils21broadcast_intmd_sizesERKSt6vectorINS_6TensorESaIS2_EE
FNDA:71989,_ZN5neml26TensorC2ERKN2at6TensorEll
FNF:18
FNH:18
DA:37,835
DA:39,835
DA:40,835
DA:41,835
DA:42,5010
DA:43,2505
DA:46,6441
DA:48,6441
DA:49,6441
DA:50,21214
DA:51,14773
DA:53,14755
DA:54,14755
DA:55,14755
DA:56,835
DA:57,14755
DA:58,6441
DA:59,5733
DA:61,1543
DA:62,835
DA:64,708
DA:65,708
DA:66,6441
DA:69,6091
DA:71,6091
DA:72,6091
DA:73,20164
DA:74,14073
DA:76,14055
DA:77,14055
DA:79,6091
DA:80,0
DA:82,20146
DA:83,14055
DA:84,6091
DA:86,6091
DA:87,0
DA:88,0
DA:89,0
DA:91,6091
DA:92,6091
DA:95,71989
DA:96,71989
DA:98,71989
DA:100,3263090
DA:101,3263090
DA:103,3263090
DA:106,416
DA:108,416
DA:112,598
DA:117,1196
DA:118,598
DA:121,1196
DA:125,136
DA:127,136
DA:131,154
DA:137,154
DA:138,0
DA:139,0
DA:140,0
DA:141,0
DA:144,308
DA:146,462
DA:150,1255
DA:152,1255
DA:156,738
DA:162,1037
DA:163,299
DA:164,0
DA:165,0
DA:168,1476
DA:170,2214
DA:174,328
DA:176,328
DA:180,122
DA:186,122
DA:187,0
DA:188,0
DA:189,0
DA:192,244
DA:194,366
DA:198,1955
DA:200,1955
DA:204,333
DA:211,804
DA:212,471
DA:213,0
DA:214,0
DA:217,666
DA:219,999
DA:223,48
DA:225,48
DA:229,85
DA:235,118
DA:236,33
DA:237,0
DA:238,0
DA:241,170
DA:243,255
DA:247,8844
DA:249,8844
LF:101
LH:84
end_of_record
TN:
SF:/home/runner/work/neml2/neml2/src/neml2/tensors/TensorCache.cxx
FN:30,33,_ZN5neml211TensorCacheC2EOSt8functionIFNS_6TensorERKN3c1013TensorOptionsEEE
FN:36,47,_ZN5neml211TensorCacheclERKN3c1013TensorOptionsE
FN:50,53,_ZNK5neml211TensorCache8CacheKeyeqERKS1_
FNDA:8,_ZN5neml211TensorCacheC2EOSt8functionIFNS_6TensorERKN3c1013TensorOptionsEEE
FNDA:1106,_ZN5neml211TensorCacheclERKN3c1013TensorOptionsE
FNDA:1109,_ZNK5neml211TensorCache8CacheKeyeqERKS1_
FNF:3
FNH:3
DA:30,8
DA:31,8
DA:33,8
DA:36,1106
DA:38,1106
DA:39,1106
DA:40,1106
DA:42,9
DA:43,9
DA:44,9
DA:46,1097
DA:50,1109
DA:52,1109
LF:13
LH:13
end_of_record
TN:
SF:/home/runner/work/neml2/neml2/src/neml2/tensors/TensorValue.cxx
FN:31,34,_ZNK5neml215TensorValueBase9intmd_dimEv
FN:37,40,_ZNK5neml215TensorValueBase10static_dimEv
FN:44,47,_ZN5neml211TensorValueINS_10QuaternionEE3to_ERKN3c1013TensorOptionsE
FN:44,47,_ZN5neml211TensorValueINS_11MillerIndexEE3to_ERKN3c1013TensorOptionsE
FN:44,47,_ZN5neml211TensorValueINS_2R2EE3to_ERKN3c1013TensorOptionsE
FN:44,47,_ZN5neml211TensorValueINS_2R3EE3to_ERKN3c1013TensorOptionsE
FN:44,47,_ZN5neml211TensorValueINS_2R4EE3to_ERKN3c1013TensorOptionsE
FN:44,47,_ZN5neml211TensorValueINS_3RotEE3to_ERKN3c1013TensorOptionsE
FN:44,47,_ZN5neml211TensorValueINS_3SR2EE3to_ERKN3c1013TensorOptionsE
FN:44,47,_ZN5neml211TensorValueINS_3VecEE3to_ERKN3c1013TensorOptionsE
FN:44,47,_ZN5neml211TensorValueINS_3WR2EE3to_ERKN3c1013TensorOptionsE
FN:44,47,_ZN5neml211TensorValueINS_4SFR3EE3to_ERKN3c1013TensorOptionsE
FN:44,47,_ZN5neml211TensorValueINS_4SSR4EE3to_ERKN3c1013TensorOptionsE
FN:44,47,_ZN5neml211TensorValueINS_4SWR4EE3to_ERKN3c1013TensorOptionsE
FN:44,47,_ZN5neml211TensorValueINS_4WSR4EE3to_ERKN3c1013TensorOptionsE
FN:44,47,_ZN5neml211TensorValueINS_4WWR4EE3to_ERKN3c1013TensorOptionsE
FN:44,47,_ZN5neml211TensorValueINS_5SFFR4EE3to_ERKN3c1013TensorOptionsE
FN:44,47,_ZN5neml211TensorValueINS_5WFFR4EE3to_ERKN3c1013TensorOptionsE
FN:44,47,_ZN5neml211TensorValueINS_6ScalarEE3to_ERKN3c1013TensorOptionsE
FN:44,47,_ZN5neml211TensorValueINS_6TensorEE3to_ERKN3c1013TensorOptionsE
FN:51,54,_ZN5neml211TensorValueINS_10QuaternionEE14requires_grad_Eb
FN:51,54,_ZN5neml211TensorValueINS_11MillerIndexEE14requires_grad_Eb
FN:51,54,_ZN5neml211TensorValueINS_2R2EE14requires_grad_Eb
FN:51,54,_ZN5neml211TensorValueINS_2R3EE14requires_grad_Eb
FN:51,54,_ZN5neml211TensorValueINS_2R4EE14requires_grad_Eb
FN:51,54,_ZN5neml211TensorValueINS_3RotEE14requires_grad_Eb
FN:51,54,_ZN5neml211TensorValueINS_3SR2EE14requires_grad_Eb
FN:51,54,_ZN5neml211TensorValueINS_3VecEE14requires_grad_Eb
FN:51,54,_ZN5neml211TensorValueINS_3WR2EE14requires_grad_Eb
FN:51,54,_ZN5neml211TensorValueINS_4SFR3EE14requires_grad_Eb
FN:51,54,_ZN5neml211TensorValueINS_4SSR4EE14requires_grad_Eb
FN:51,54,_ZN5neml211TensorValueINS_4SWR4EE14requires_grad_Eb
FN:51,54,_ZN5neml211TensorValueINS_4WSR4EE14requires_grad_Eb
FN:51,54,_ZN5neml211TensorValueINS_4WWR4EE14requires_grad_Eb
FN:51,54,_ZN5neml211TensorValueINS_5SFFR4EE14requires_grad_Eb
FN:51,54,_ZN5neml211TensorValueINS_5WFFR4EE14requires_grad_Eb
FN:51,54,_ZN5neml211TensorValueINS_6ScalarEE14requires_grad_Eb
FN:51,54,_ZN5neml211TensorValueINS_6TensorEE14requires_grad_Eb
FN:57,61,_ZNK5neml211TensorValueINS_10QuaternionEEcvNS_6TensorEEv
FN:57,61,_ZNK5neml211TensorValueINS_11MillerIndexEEcvNS_6TensorEEv
FN:57,61,_ZNK5neml211TensorValueINS_2R2EEcvNS_6TensorEEv
FN:57,61,_ZNK5neml211TensorValueINS_2R3EEcvNS_6TensorEEv
FN:57,61,_ZNK5neml211TensorValueINS_2R4EEcvNS_6TensorEEv
FN:57,61,_ZNK5neml211TensorValueINS_3RotEEcvNS_6TensorEEv
FN:57,61,_ZNK5neml211TensorValueINS_3SR2EEcvNS_6TensorEEv
FN:57,61,_ZNK5neml211TensorValueINS_3VecEEcvNS_6TensorEEv
FN:57,61,_ZNK5neml211TensorValueINS_3WR2EEcvNS_6TensorEEv
FN:57,61,_ZNK5neml211TensorValueINS_4SFR3EEcvNS_6TensorEEv
FN:57,61,_ZNK5neml211TensorValueINS_4SSR4EEcvNS_6TensorEEv
FN:57,61,_ZNK5neml211TensorValueINS_4SWR4EEcvNS_6TensorEEv
FN:57,61,_ZNK5neml211TensorValueINS_4WSR4EEcvNS_6TensorEEv
FN:57,61,_ZNK5neml211TensorValueINS_4WWR4EEcvNS_6TensorEEv
FN:57,61,_ZNK5neml211TensorValueINS_5SFFR4EEcvNS_6TensorEEv
FN:57,61,_ZNK5neml211TensorValueINS_5WFFR4EEcvNS_6TensorEEv
FN:57,61,_ZNK5neml211TensorValueINS_6ScalarEEcvNS_6TensorEEv
FN:57,61,_ZNK5neml211TensorValueINS_6TensorEEcvS1_Ev
FN:65,69,_ZN5neml211TensorValueINS_10QuaternionEEaSERKNS_6TensorE
FN:65,69,_ZN5neml211TensorValueINS_11MillerIndexEEaSERKNS_6TensorE
FN:65,69,_ZN5neml211TensorValueINS_2R2EEaSERKNS_6TensorE
FN:65,69,_ZN5neml211TensorValueINS_2R3EEaSERKNS_6TensorE
FN:65,69,_ZN5neml211TensorValueINS_2R4EEaSERKNS_6TensorE
FN:65,69,_ZN5neml211TensorValueINS_3RotEEaSERKNS_6TensorE
FN:65,69,_ZN5neml211TensorValueINS_3SR2EEaSERKNS_6TensorE
FN:65,69,_ZN5neml211TensorValueINS_3VecEEaSERKNS_6TensorE
FN:65,69,_ZN5neml211TensorValueINS_3WR2EEaSERKNS_6TensorE
FN:65,69,_ZN5neml211TensorValueINS_4SFR3EEaSERKNS_6TensorE
FN:65,69,_ZN5neml211TensorValueINS_4SSR4EEaSERKNS_6TensorE
FN:65,69,_ZN5neml211TensorValueINS_4SWR4EEaSERKNS_6TensorE
FN:65,69,_ZN5neml211TensorValueINS_4WSR4EEaSERKNS_6TensorE
FN:65,69,_ZN5neml211TensorValueINS_4WWR4EEaSERKNS_6TensorE
FN:65,69,_ZN5neml211TensorValueINS_5SFFR4EEaSERKNS_6TensorE
FN:65,69,_ZN5neml211TensorValueINS_5WFFR4EEaSERKNS_6TensorE
FN:65,69,_ZN5neml211TensorValueINS_6ScalarEEaSERKNS_6TensorE
FN:65,69,_ZN5neml211TensorValueINS_6TensorEEaSERKS1_
FN:73,76,_ZNK5neml211TensorValueINS_10QuaternionEE4typeEv
FN:73,76,_ZNK5neml211TensorValueINS_11MillerIndexEE4typeEv
FN:73,76,_ZNK5neml211TensorValueINS_2R2EE4typeEv
FN:73,76,_ZNK5neml211TensorValueINS_2R3EE4typeEv
FN:73,76,_ZNK5neml211TensorValueINS_2R4EE4typeEv
FN:73,76,_ZNK5neml211TensorValueINS_3RotEE4typeEv
FN:73,76,_ZNK5neml211TensorValueINS_3SR2EE4typeEv
FN:73,76,_ZNK5neml211TensorValueINS_3VecEE4typeEv
FN:73,76,_ZNK5neml211TensorValueINS_3WR2EE4typeEv
FN:73,76,_ZNK5neml211TensorValueINS_4SFR3EE4typeEv
FN:73,76,_ZNK5neml211TensorValueINS_4SSR4EE4typeEv
FN:73,76,_ZNK5neml211TensorValueINS_4SWR4EE4typeEv
FN:73,76,_ZNK5neml211TensorValueINS_4WSR4EE4typeEv
FN:73,76,_ZNK5neml211TensorValueINS_4WWR4EE4typeEv
FN:73,76,_ZNK5neml211TensorValueINS_5SFFR4EE4typeEv
FN:73,76,_ZNK5neml211TensorValueINS_5WFFR4EE4typeEv
FN:73,76,_ZNK5neml211TensorValueINS_6ScalarEE4typeEv
FN:73,76,_ZNK5neml211TensorValueINS_6TensorEE4typeEv
FN:80,83,_ZN5neml211TensorValueINS_10QuaternionEE6assignERKN2at6TensorENS_15TracerPrivilegeE
FN:80,83,_ZN5neml211TensorValueINS_11MillerIndexEE6assignERKN2at6TensorENS_15TracerPrivilegeE
FN:80,83,_ZN5neml211TensorValueINS_2R2EE6assignERKN2at6TensorENS_15TracerPrivilegeE
FN:80,83,_ZN5neml211TensorValueINS_2R3EE6assignERKN2at6TensorENS_15TracerPrivilegeE
FN:80,83,_ZN5neml211TensorValueINS_2R4EE6assignERKN2at6TensorENS_15TracerPrivilegeE
FN:80,83,_ZN5neml211TensorValueINS_3RotEE6assignERKN2at6TensorENS_15TracerPrivilegeE
FN:80,83,_ZN5neml211TensorValueINS_3SR2EE6assignERKN2at6TensorENS_15TracerPrivilegeE
FN:80,83,_ZN5neml211TensorValueINS_3VecEE6assignERKN2at6TensorENS_15TracerPrivilegeE
FN:80,83,_ZN5neml211TensorValueINS_3WR2EE6assignERKN2at6TensorENS_15TracerPrivilegeE
FN:80,83,_ZN5neml211TensorValueINS_4SFR3EE6assignERKN2at6TensorENS_15TracerPrivilegeE
FN:80,83,_ZN5neml211TensorValueINS_4SSR4EE6assignERKN2at6TensorENS_15TracerPrivilegeE
FN:80,83,_ZN5neml211TensorValueINS_4SWR4EE6assignERKN2at6TensorENS_15TracerPrivilegeE
FN:80,83,_ZN5neml211TensorValueINS_4WSR4EE6assignERKN2at6TensorENS_15TracerPrivilegeE
FN:80,83,_ZN5neml211TensorValueINS_4WWR4EE6assignERKN2at6TensorENS_15TracerPrivilegeE
FN:80,83,_ZN5neml211TensorValueINS_5SFFR4EE6assignERKN2at6TensorENS_15TracerPrivilegeE
FN:80,83,_ZN5neml211TensorValueINS_5WFFR4EE6assignERKN2at6TensorENS_15TracerPrivilegeE
FN:80,83,_ZN5neml211TensorValueINS_6ScalarEE6assignERKN2at6TensorENS_15TracerPrivilegeE
FN:80,83,_ZN5neml211TensorValueINS_6TensorEE6assignERKN2at6TensorENS_15TracerPrivilegeE
FN:87,90,_ZNK5neml211TensorValueINS_10QuaternionEE8base_dimEv
FN:87,90,_ZNK5neml211TensorValueINS_11MillerIndexEE8base_dimEv
FN:87,90,_ZNK5neml211TensorValueINS_2R2EE8base_dimEv
FN:87,90,_ZNK5neml211TensorValueINS_2R3EE8base_dimEv
FN:87,90,_ZNK5neml211TensorValueINS_2R4EE8base_dimEv
FN:87,90,_ZNK5neml211TensorValueINS_3RotEE8base_dimEv
FN:87,90,_ZNK5neml211TensorValueINS_3SR2EE8base_dimEv
FN:87,90,_ZNK5neml211TensorValueINS_3VecEE8base_dimEv
FN:87,90,_ZNK5neml211TensorValueINS_3WR2EE8base_dimEv
FN:87,90,_ZNK5neml211TensorValueINS_4SFR3EE8base_dimEv
FN:87,90,_ZNK5neml211TensorValueINS_4SSR4EE8base_dimEv
FN:87,90,_ZNK5neml211TensorValueINS_4SWR4EE8base_dimEv
FN:87,90,_ZNK5neml211TensorValueINS_4WSR4EE8base_dimEv
FN:87,90,_ZNK5neml211TensorValueINS_4WWR4EE8base_dimEv
FN:87,90,_ZNK5neml211TensorValueINS_5SFFR4EE8base_dimEv
FN:87,90,_ZNK5neml211TensorValueINS_5WFFR4EE8base_dimEv
FN:87,90,_ZNK5neml211TensorValueINS_6ScalarEE8base_dimEv
FN:94,97,_ZNK5neml211TensorValueINS_6TensorEE8base_dimEv
FNDA:1166,_ZNK5neml215TensorValueBase9intmd_dimEv
FNDA:583,_ZNK5neml215TensorValueBase10static_dimEv
FNDA:0,_ZN5neml211TensorValueINS_10QuaternionEE3to_ERKN3c1013TensorOptionsE
FNDA:0,_ZN5neml211TensorValueINS_11MillerIndexEE3to_ERKN3c1013TensorOptionsE
FNDA:0,_ZN5neml211TensorValueINS_2R2EE3to_ERKN3c1013TensorOptionsE
FNDA:0,_ZN5neml211TensorValueINS_2R3EE3to_ERKN3c1013TensorOptionsE
FNDA:0,_ZN5neml211TensorValueINS_2R4EE3to_ERKN3c1013TensorOptionsE
