TN:
SF:/home/runner/work/neml2/neml2/src/neml2/base/DiagnosticsInterface.cxx
FN:31,35,_ZN5neml210DiagnosingC2Eb
FN:37,37,_ZN5neml210DiagnosingD2Ev
FN:40,44,_ZN5neml224current_diagnostic_stateEv
FN:47,51,_ZN5neml217current_diagnosesEv
FN:54,77,_ZN5neml28diagnoseERKNS_20DiagnosticsInterfaceE
FN:80,94,_ZN5neml218diagnose_and_throwERKNS_20DiagnosticsInterfaceE
FN:96,99,_ZN5neml220DiagnosticsInterfaceC2EPNS_11NEML2ObjectE
FNDA:293,_ZN5neml210DiagnosingC2Eb
FNDA:293,_ZN5neml210DiagnosingD2Ev
FNDA:1372,_ZN5neml224current_diagnostic_stateEv
FNDA:496,_ZN5neml217current_diagnosesEv
FNDA:293,_ZN5neml28diagnoseERKNS_20DiagnosticsInterfaceE
FNDA:195,_ZN5neml218diagnose_and_throwERKNS_20DiagnosticsInterfaceE
FNDA:679,_ZN5neml220DiagnosticsInterfaceC2EPNS_11NEML2ObjectE
FNF:7
FNH:7
DA:31,293
DA:32,293
DA:34,293
DA:35,293
DA:37,293
DA:40,1372
DA:42,1372
DA:43,1372
DA:47,496
DA:49,496
DA:50,496
DA:54,293
DA:56,293
DA:57,293
DA:58,293
DA:62,293
DA:63,293
DA:64,293
DA:67,293
DA:70,293
DA:72,198
DA:73,198
DA:76,293
DA:77,0
DA:80,195
DA:82,195
DA:83,195
DA:85,195
DA:86,195
DA:88,1
DA:89,1
DA:90,2
DA:91,1
DA:92,1
DA:93,1
DA:94,195
DA:96,679
DA:97,679
DA:99,679
LF:39
LH:38
end_of_record
TN:
SF:/home/runner/work/neml2/neml2/src/neml2/base/EnumSelection.cxx
FN:31,35,_ZN5neml2lsERSoRKNS_13EnumSelectionE
FN:38,42,_ZN5neml2rsERNSt7__cxx1118basic_stringstreamIcSt11char_traitsIcESaIcEEERNS_13EnumSelectionE
FN:44,49,_ZN5neml213EnumSelectionC2ERKSt6vectorINSt7__cxx1112basic_stringIcSt11char_traitsIcESaIcEEESaIS7_EERKS7_
FN:51,57,_ZN5neml213EnumSelectionC2ERKSt6vectorINSt7__cxx1112basic_stringIcSt11char_traitsIcESaIcEEESaIS7_EERKS1_IiSaIiEERKS7_
FN:60,64,_ZNK5neml213EnumSelectioneqERKS0_
FN:67,70,_ZNK5neml213EnumSelectionneERKS0_
FN:73,76,_ZNK5neml213EnumSelectioneqERKNSt7__cxx1112basic_stringIcSt11char_traitsIcESaIcEEE
FN:79,82,_ZNK5neml213EnumSelectionneERKNSt7__cxx1112basic_stringIcSt11char_traitsIcESaIcEEE
FN:85,91,_ZN5neml213EnumSelection6selectERKNSt7__cxx1112basic_stringIcSt11char_traitsIcESaIcEEE
FNDA:1,_ZN5neml2lsERSoRKNS_13EnumSelectionE
FNDA:108,_ZN5neml2rsERNSt7__cxx1118basic_stringstreamIcSt11char_traitsIcESaIcEEERNS_13EnumSelectionE
FNDA:101,_ZN5neml213EnumSelectionC2ERKSt6vectorINSt7__cxx1112basic_stringIcSt11char_traitsIcESaIcEEESaIS7_EERKS7_
FNDA:24,_ZN5neml213EnumSelectionC2ERKSt6vectorINSt7__cxx1112basic_stringIcSt11char_traitsIcESaIcEEESaIS7_EERKS1_IiSaIiEERKS7_
FNDA:7,_ZNK5neml213EnumSelectioneqERKS0_
FNDA:5,_ZNK5neml213EnumSelectionneERKS0_
FNDA:488,_ZNK5neml213EnumSelectioneqERKNSt7__cxx1112basic_stringIcSt11char_traitsIcESaIcEEE
FNDA:0,_ZNK5neml213EnumSelectionneERKNSt7__cxx1112basic_stringIcSt11char_traitsIcESaIcEEE
FNDA:230,_ZN5neml213EnumSelection6selectERKNSt7__cxx1112basic_stringIcSt11char_traitsIcESaIcEEE
FNF:9
FNH:8
DA:31,1
DA:33,1
DA:34,1
DA:38,108
DA:40,108
DA:41,107
DA:44,101
DA:45,101
DA:46,201
DA:48,100
DA:49,101
DA:51,24
DA:53,24
DA:54,46
DA:56,22
DA:57,23
DA:60,7
DA:62,9
DA:63,9
DA:67,5
DA:69,5
DA:73,488
DA:75,488
DA:79,0
DA:81,0
DA:85,230
DA:87,230
DA:88,696
DA:89,227
DA:90,227
DA:91,227
LF:31
LH:29
end_of_record
TN:
SF:/home/runner/work/neml2/neml2/src/neml2/base/EnumSelectionBase.cxx
FN:32,41,_ZN5neml217EnumSelectionBaseC2ERKSt6vectorINSt7__cxx1112basic_stringIcSt11char_traitsIcESaIcEEESaIS7_EE
FN:43,58,_ZN5neml217EnumSelectionBaseC2ERKSt6vectorINSt7__cxx1112basic_stringIcSt11char_traitsIcESaIcEEESaIS7_EERKS1_IiSaIiEE
FN:61,73,_ZNK5neml217EnumSelectionBase4joinERKNSt7__cxx1112basic_stringIcSt11char_traitsIcESaIcEEE
FNDA:374,_ZN5neml217EnumSelectionBaseC2ERKSt6vectorINSt7__cxx1112basic_stringIcSt11char_traitsIcESaIcEEESaIS7_EE
FNDA:43,_ZN5neml217EnumSelectionBaseC2ERKSt6vectorINSt7__cxx1112basic_stringIcSt11char_traitsIcESaIcEEESaIS7_EERKS1_IiSaIiEE
FNDA:992,_ZNK5neml217EnumSelectionBase4joinERKNSt7__cxx1112basic_stringIcSt11char_traitsIcESaIcEEE
FNF:3
FNH:3
DA:32,374
DA:34,374
DA:35,374
DA:38,373
DA:39,4641
DA:40,4268
DA:41,375
DA:43,43
DA:44,43
DA:46,43
DA:49,42
DA:50,42
DA:53,42
DA:54,42
DA:56,216
DA:57,175
DA:58,45
DA:61,992
DA:63,992
DA:64,992
DA:65,10684
DA:67,9692
DA:68,9692
DA:69,8700
DA:70,9692
DA:72,1984
DA:73,992
LF:27
LH:27
end_of_record
TN:
SF:/home/runner/work/neml2/neml2/src/neml2/base/Factory.cxx
FN:33,37,_ZN5neml27FactoryC2ENS_9InputFileE
FN:40,43,_ZN5neml27Factory10has_objectERKNSt7__cxx1112basic_stringIcSt11char_traitsIcESaIcEEES8_
FN:46,64,_ZN5neml27Factory13create_objectERKNSt7__cxx1112basic_stringIcSt11char_traitsIcESaIcEEERKNS_9OptionSetE
FN:67,70,_ZNK5neml27Factory18options_compatibleERKSt10shared_ptrINS_11NEML2ObjectEERKNS_9OptionSetE
FN:87,90,_ZN5neml27Factory5clearEv
FNDA:318,_ZN5neml27FactoryC2ENS_9InputFileE
FNDA:158,_ZN5neml27Factory10has_objectERKNSt7__cxx1112basic_stringIcSt11char_traitsIcESaIcEEES8_
FNDA:1440,_ZN5neml27Factory13create_objectERKNSt7__cxx1112basic_stringIcSt11char_traitsIcESaIcEEERKNS_9OptionSetE
FNDA:5,_ZNK5neml27Factory18options_compatibleERKSt10shared_ptrINS_11NEML2ObjectEERKNS_9OptionSetE
FNDA:0,_ZN5neml27Factory5clearEv
FNF:5
FNH:4
DA:33,318
DA:34,318
DA:35,318
DA:37,318
DA:40,158
DA:42,158
DA:46,1440
DA:48,1440
DA:49,1440
DA:51,1440
DA:52,1440
DA:53,1439
DA:57,1439
DA:59,21
DA:61,42
DA:62,63
DA:63,21
DA:64,1439
DA:67,5
DA:69,5
DA:87,0
DA:89,0
DA:90,0
LF:23
LH:20
end_of_record
TN:
SF:/home/runner/work/neml2/neml2/src/neml2/base/HITParser.cxx
FN:100,114,_ZNK5neml29HITParser22extract_object_optionsEPN3hit4NodeES3_
FN:117,122,_ZNK5neml29HITParser15extract_optionsEPN3hit4NodeERNS_9OptionSetE
FN:126,179,_ZNK5neml29HITParser14extract_optionEPN3hit4NodeERNS_9OptionSetE
FN:42,70,_ZNK5neml29HITParser5parseERKNSt10filesystem7__cxx114pathERKNSt7__cxx1112basic_stringIcSt11char_traitsIcESaIcEEE
FN:73,97,_ZNK5neml29HITParser5parseEPN3hit4NodeE
FNDA:2308,_ZNK5neml29HITParser22extract_object_optionsEPN3hit4NodeES3_
FNDA:2322,_ZNK5neml29HITParser15extract_optionsEPN3hit4NodeERNS_9OptionSetE
FNDA:5390,_ZNK5neml29HITParser14extract_optionEPN3hit4NodeERNS_9OptionSetE
FNDA:330,_ZNK5neml29HITParser5parseERKNSt10filesystem7__cxx114pathERKNSt7__cxx1112basic_stringIcSt11char_traitsIcESaIcEEE
FNDA:330,_ZNK5neml29HITParser5parseEPN3hit4NodeE
FNF:5
FNH:5
DA:42,330
DA:45,330
DA:46,330
DA:49,330
DA:50,330
DA:51,330
DA:54,330
DA:55,330
DA:58,330
DA:59,330
DA:62,330
DA:63,330
DA:64,330
DA:65,660
DA:66,330
DA:67,330
DA:69,657
DA:70,351
DA:73,330
DA:76,330
DA:77,990
DA:78,14
DA:81,330
DA:82,2298
DA:84,1971
DA:85,1971
DA:87,724
DA:88,3029
DA:90,2308
DA:91,2305
DA:92,2305
DA:93,724
DA:96,654
DA:97,333
DA:100,2308
DA:103,4616
DA:105,2308
DA:106,2308
DA:109,2305
DA:110,2305
DA:111,2305
DA:113,4610
DA:114,2311
DA:117,2322
DA:119,10017
DA:120,7698
DA:121,7709
DA:122,2319
DA:126,5390
DA:140,5390
DA:142,5390
DA:143,92471
DA:144,92471
DA:146,5390
DA:148,5390
DA:151,5389
DA:155,5389
DA:156,5179
DA:157,4833
DA:158,4719
DA:159,4498
DA:160,4498
DA:161,4391
DA:162,3897
DA:163,2219
DA:164,1388
DA:165,1282
DA:166,1252
DA:167,30
DA:168,30
DA:173,5387
DA:175,5387
DA:177,5387
DA:179,5387
LF:74
LH:74
end_of_record
TN:
SF:/home/runner/work/neml2/neml2/src/neml2/base/InputFile.cxx
FN:32,36,_ZN5neml29InputFileC2ERKNS_9OptionSetE
FN:39,42,_ZN5neml29InputFileixERKNSt7__cxx1112basic_stringIcSt11char_traitsIcESaIcEEE
FN:45,48,_ZNK5neml29InputFileixERKNSt7__cxx1112basic_stringIcSt11char_traitsIcESaIcEEE
FNDA:331,_ZN5neml29InputFileC2ERKNS_9OptionSetE
FNDA:3968,_ZN5neml29InputFileixERKNSt7__cxx1112basic_stringIcSt11char_traitsIcESaIcEEE
FNDA:0,_ZNK5neml29InputFileixERKNSt7__cxx1112basic_stringIcSt11char_traitsIcESaIcEEE
FNF:3
FNH:2
DA:32,331
DA:33,331
DA:34,331
DA:36,331
DA:39,3968
DA:41,3968
DA:45,0
DA:47,0
LF:8
LH:6
end_of_record
TN:
SF:/home/runner/work/neml2/neml2/src/neml2/base/LabeledAxis.cxx
FN:117,126,_ZN5neml211LabeledAxis15set_intmd_sizesERKNS_19LabeledAxisAccessorEN3c108ArrayRefIlEE
FN:129,194,_ZN5neml211LabeledAxis12setup_layoutEv
FN:197,213,_ZNK5neml211LabeledAxis4sizeEv
FN:216,261,_ZNK5neml211LabeledAxis4sizeERKNS_19LabeledAxisAccessorE
FN:264,284,_ZNK5neml211LabeledAxis5sliceERKNS_19LabeledAxisAccessorE
FN:287,298,_ZNK5neml211LabeledAxis9nvariableEv
FN:301,316,_ZNK5neml211LabeledAxis12has_variableERKNS_19LabeledAxisAccessorE
FN:31,34,_ZN5neml211LabeledAxisC2ENS_19LabeledAxisAccessorE
FN:319,330,_ZNK5neml211LabeledAxis11variable_idERKNS_19LabeledAxisAccessorE
FN:333,346,_ZNK5neml211LabeledAxis20variable_names_unsrtEv
FN:349,353,_ZNK5neml211LabeledAxis14variable_namesEv
FN:356,360,_ZNK5neml211LabeledAxis15variable_slicesEv
FN:363,367,_ZNK5neml211LabeledAxis14variable_sliceERKNS_19LabeledAxisAccessorE
FN:37,47,_ZN5neml211LabeledAxis5clearEv
FN:370,374,_ZNK5neml211LabeledAxis14variable_sizesEv
FN:377,397,_ZNK5neml211LabeledAxis13variable_sizeERKNS_19LabeledAxisAccessorE
FN:400,404,_ZNK5neml211LabeledAxis20variable_intmd_sizesEv
FN:407,411,_ZNK5neml211LabeledAxis19variable_base_sizesEv
FN:414,417,_ZNK5neml211LabeledAxis8nsubaxisEv
FN:420,430,_ZNK5neml211LabeledAxis11has_subaxisERKNS_19LabeledAxisAccessorE
FN:433,443,_ZNK5neml211LabeledAxis10subaxis_idERKNSt7__cxx1112basic_stringIcSt11char_traitsIcESaIcEEE
FN:446,450,_ZNK5neml211LabeledAxis7subaxesEv
FN:453,465,_ZNK5neml211LabeledAxis7subaxisERKNS_19LabeledAxisAccessorE
FN:468,472,_ZN5neml211LabeledAxis7subaxisERKNS_19LabeledAxisAccessorE
FN:475,482,_ZNK5neml211LabeledAxis19subaxis_names_unsrtB5cxx11Ev
FN:485,489,_ZNK5neml211LabeledAxis13subaxis_namesB5cxx11Ev
FN:492,496,_ZNK5neml211LabeledAxis14subaxis_slicesEv
FN:499,514,_ZNK5neml211LabeledAxis13subaxis_sliceERKNS_19LabeledAxisAccessorE
FN:50,66,_ZN5neml211LabeledAxis10clear_dataEv
FN:517,521,_ZNK5neml211LabeledAxis13subaxis_sizesEv
FN:524,534,_ZNK5neml211LabeledAxis12subaxis_sizeERKNS_19LabeledAxisAccessorE
FN:537,558,_ZNK5neml211LabeledAxis6equalsERKS0_
FN:561,564,_ZNK5neml211LabeledAxis16ensure_setup_dbgEv
FN:567,594,_ZN5neml2lsERSoRKNS_11LabeledAxisE
FN:597,600,_ZN5neml2eqERKNS_11LabeledAxisES2_
FN:603,606,_ZN5neml2neERKNS_11LabeledAxisES2_
FN:69,72,_ZNK5neml211LabeledAxis7qualifyERKNS_19LabeledAxisAccessorE
FN:75,84,_ZNK5neml211LabeledAxis10disqualifyERKNS_19LabeledAxisAccessorE
FN:87,94,_ZN5neml211LabeledAxis11add_subaxisERKNSt7__cxx1112basic_stringIcSt11char_traitsIcESaIcEEE
FN:97,114,_ZN5neml211LabeledAxis12add_variableERKNS_19LabeledAxisAccessorEN3c108ArrayRefIlEES6_
FNDA:0,_ZN5neml211LabeledAxis15set_intmd_sizesERKNS_19LabeledAxisAccessorEN3c108ArrayRefIlEE
FNDA:318,_ZN5neml211LabeledAxis12setup_layoutEv
FNDA:226,_ZNK5neml211LabeledAxis4sizeEv
FNDA:78,_ZNK5neml211LabeledAxis4sizeERKNS_19LabeledAxisAccessorE
FNDA:27,_ZNK5neml211LabeledAxis5sliceERKNS_19LabeledAxisAccessorE
FNDA:25,_ZNK5neml211LabeledAxis9nvariableEv
FNDA:171,_ZNK5neml211LabeledAxis12has_variableERKNS_19LabeledAxisAccessorE
FNDA:2578,_ZN5neml211LabeledAxisC2ENS_19LabeledAxisAccessorE
FNDA:94,_ZNK5neml211LabeledAxis11variable_idERKNS_19LabeledAxisAccessorE
FNDA:0,_ZNK5neml211LabeledAxis20variable_names_unsrtEv
FNDA:3670,_ZNK5neml211LabeledAxis14variable_namesEv
FNDA:16,_ZNK5neml211LabeledAxis15variable_slicesEv
FNDA:40,_ZNK5neml211LabeledAxis14variable_sliceERKNS_19LabeledAxisAccessorE
FNDA:229,_ZN5neml211LabeledAxis5clearEv
FNDA:32098,_ZNK5neml211LabeledAxis14variable_sizesEv
FNDA:50,_ZNK5neml211LabeledAxis13variable_sizeERKNS_19LabeledAxisAccessorE
FNDA:0,_ZNK5neml211LabeledAxis20variable_intmd_sizesEv
FNDA:0,_ZNK5neml211LabeledAxis19variable_base_sizesEv
FNDA:8,_ZNK5neml211LabeledAxis8nsubaxisEv
FNDA:23,_ZNK5neml211LabeledAxis11has_subaxisERKNS_19LabeledAxisAccessorE
FNDA:22,_ZNK5neml211LabeledAxis10subaxis_idERKNSt7__cxx1112basic_stringIcSt11char_traitsIcESaIcEEE
FNDA:2,_ZNK5neml211LabeledAxis7subaxesEv
FNDA:4186,_ZNK5neml211LabeledAxis7subaxisERKNS_19LabeledAxisAccessorE
FNDA:4098,_ZN5neml211LabeledAxis7subaxisERKNS_19LabeledAxisAccessorE
FNDA:0,_ZNK5neml211LabeledAxis19subaxis_names_unsrtB5cxx11Ev
FNDA:9,_ZNK5neml211LabeledAxis13subaxis_namesB5cxx11Ev
FNDA:3,_ZNK5neml211LabeledAxis14subaxis_slicesEv
FNDA:14,_ZNK5neml211LabeledAxis13subaxis_sliceERKNS_19LabeledAxisAccessorE
FNDA:229,_ZN5neml211LabeledAxis10clear_dataEv
FNDA:9,_ZNK5neml211LabeledAxis13subaxis_sizesEv
FNDA:14,_ZNK5neml211LabeledAxis12subaxis_sizeERKNS_19LabeledAxisAccessorE
FNDA:3,_ZNK5neml211LabeledAxis6equalsERKS0_
FNDA:36004,_ZNK5neml211LabeledAxis16ensure_setup_dbgEv
FNDA:0,_ZN5neml2lsERSoRKNS_11LabeledAxisE
FNDA:1,_ZN5neml2eqERKNS_11LabeledAxisES2_
FNDA:2,_ZN5neml2neERKNS_11LabeledAxisES2_
FNDA:14469,_ZNK5neml211LabeledAxis7qualifyERKNS_19LabeledAxisAccessorE
FNDA:0,_ZNK5neml211LabeledAxis10disqualifyERKNS_19LabeledAxisAccessorE
FNDA:2578,_ZN5neml211LabeledAxis11add_subaxisERKNSt7__cxx1112basic_stringIcSt11char_traitsIcESaIcEEE
FNDA:4767,_ZN5neml211LabeledAxis12add_variableERKNS_19LabeledAxisAccessorEN3c108ArrayRefIlEES6_
FNF:40
FNH:33
DA:31,2578
DA:32,2578
DA:34,2578
DA:37,229
DA:39,360
DA:40,131
DA:42,229
DA:43,229
DA:44,229
DA:46,229
DA:47,229
DA:50,229
DA:52,229
DA:54,229
DA:55,229
DA:56,229
DA:57,229
DA:58,229
DA:59,229
DA:61,229
DA:62,229
DA:63,229
DA:64,229
DA:65,229
DA:66,229
DA:69,14469
DA:71,14469
DA:75,0
DA:77,0
DA:81,0
DA:83,0
DA:87,2578
DA:89,2578
DA:90,2578
DA:91,2578
DA:92,2578
DA:93,2578
DA:97,4767
DA:101,4767
DA:102,4767
DA:104,4767
DA:106,2315
DA:108,2315
DA:110,2315
DA:113,2452
DA:114,4767
DA:117,0
DA:119,0
DA:120,0
DA:122,0
DA:123,0
DA:125,0
DA:129,318
DA:132,318
DA:134,318
DA:135,318
DA:136,318
DA:137,318
DA:138,318
DA:139,318
DA:141,318
DA:142,318
DA:143,318
DA:144,318
DA:145,318
DA:148,689
DA:150,371
DA:151,371
DA:152,371
DA:153,371
DA:154,371
DA:155,371
DA:156,371
DA:157,371
DA:158,371
DA:162,512
DA:164,194
DA:165,194
DA:166,194
DA:167,194
DA:168,194
DA:169,194
DA:170,194
DA:171,194
DA:174,596
DA:176,402
DA:177,402
DA:178,402
DA:179,402
DA:180,402
DA:181,402
DA:182,402
DA:185,402
DA:186,402
DA:187,402
DA:188,402
DA:189,402
DA:193,318
DA:194,318
DA:197,226
DA:200,226
DA:201,203
DA:204,23
DA:205,69
DA:207,46
DA:208,46
DA:210,32
DA:211,9
DA:212,23
DA:216,78
DA:218,78
DA:221,78
DA:224,46
DA:225,46
DA:227,36
DA:229,18
DA:230,18
DA:234,18
DA:235,18
DA:239,10
DA:240,10
DA:245,10
DA:247,5
DA:248,5
DA:250,5
DA:254,32
DA:255,32
DA:260,32
DA:264,27
DA:266,27
DA:267,27
DA:270,27
DA:272,22
DA:273,22
DA:277,5
DA:282,5
DA:283,5
DA:287,25
DA:290,25
DA:291,16
DA:294,9
DA:295,14
DA:296,5
DA:297,9
DA:301,171
DA:303,171
DA:306,171
DA:307,32
DA:308,64
DA:311,139
DA:312,60
DA:314,79
DA:315,79
DA:319,94
DA:321,94
DA:322,94
DA:323,94
DA:324,94
DA:329,188
DA:333,0
DA:335,0
DA:336,0
DA:337,0
DA:338,0
DA:339,0
DA:341,0
DA:342,0
DA:343,0
DA:344,0
DA:345,0
DA:346,0
DA:349,3670
DA:351,3670
DA:352,3670
DA:356,16
DA:358,16
DA:359,16
DA:363,40
DA:365,40
DA:366,40
DA:370,32098
DA:372,32098
DA:373,32098
DA:377,50
DA:380,50
DA:381,18
DA:384,32
DA:386,18
DA:387,18
DA:388,18
DA:389,18
DA:390,18
DA:393,14
DA:394,14
DA:395,14
DA:396,14
DA:400,0
DA:402,0
DA:403,0
DA:407,0
DA:409,0
DA:410,0
DA:414,8
DA:416,8
DA:420,23
DA:422,23
DA:424,23
DA:426,23
DA:427,19
DA:429,4
DA:433,22
DA:435,22
DA:436,22
DA:437,22
DA:442,44
DA:446,2
DA:448,2
DA:449,2
DA:453,4186
DA:455,4186
DA:457,4186
DA:458,4186
DA:459,4186
DA:461,4186
DA:462,4182
DA:464,4
DA:468,4098
DA:471,4098
DA:475,0
DA:477,0
DA:478,0
DA:479,0
DA:480,0
DA:481,0
DA:482,0
DA:485,9
DA:487,9
DA:488,9
DA:492,3
DA:494,3
DA:495,3
DA:499,14
DA:501,14
DA:504,14
DA:505,10
DA:508,4
DA:509,4
DA:510,4
DA:511,4
DA:512,4
DA:513,4
DA:517,9
DA:519,9
DA:520,9
DA:524,14
DA:526,14
DA:527,14
DA:528,14
DA:530,14
DA:531,10
DA:533,4
DA:537,3
DA:540,3
DA:541,2
DA:544,1
DA:545,0
DA:548,1
DA:550,0
DA:551,0
DA:553,0
DA:554,0
DA:557,1
DA:561,36004
DA:563,36004
DA:564,36004
DA:567,0
DA:570,0
DA:573,0
DA:574,0
DA:576,0
DA:577,0
DA:578,0
DA:579,0
DA:582,0
DA:584,0
DA:585,0
DA:586,0
DA:587,0
DA:588,0
DA:589,0
DA:590,0
DA:593,0
DA:594,0
DA:597,1
DA:599,1
DA:603,2
DA:605,2
LF:297
LH:239
end_of_record
TN:
SF:/home/runner/work/neml2/neml2/src/neml2/base/LabeledAxisAccessor.cxx
FN:100,107,_ZNK5neml219LabeledAxisAccessor5sliceEmm
FN:110,113,_ZNK5neml219LabeledAxisAccessor7remountERKS0_l
FN:116,119,_ZNK5neml219LabeledAxisAccessor10start_withERKS0_
FN:122,125,_ZNK5neml219LabeledAxisAccessor8is_stateEv
FN:128,131,_ZNK5neml219LabeledAxisAccessor12is_old_stateEv
FN:134,137,_ZNK5neml219LabeledAxisAccessor8is_forceEv
FN:140,143,_ZNK5neml219LabeledAxisAccessor12is_old_forceEv
FN:146,149,_ZNK5neml219LabeledAxisAccessor11is_residualEv
FN:152,155,_ZNK5neml219LabeledAxisAccessor12is_parameterEv
FN:158,167,_ZNK5neml219LabeledAxisAccessor7currentEv
FN:170,179,_ZNK5neml219LabeledAxisAccessor3oldEv
FN:182,190,_ZNK5neml219LabeledAxisAccessor18validate_item_nameERKNSt7__cxx1112basic_stringIcSt11char_traitsIcESaIcEEE
FN:193,196,_ZN5neml2neERKNS_19LabeledAxisAccessorES2_
FN:199,202,_ZN5neml2eqERKNS_19LabeledAxisAccessorES2_
FN:205,208,_ZN5neml2ltERKNS_19LabeledAxisAccessorES2_
FN:211,220,_ZN5neml2lsERSoRKNS_19LabeledAxisAccessorE
FN:34,37,_ZN5neml222reserved_subaxis_namesB5cxx11Ev
FN:39,43,_ZNK5neml219LabeledAxisAccessorcvSt6vectorINSt7__cxx1112basic_stringIcSt11char_traitsIcESaIcEEESaIS7_EEEv
FN:46,49,_ZNK5neml219LabeledAxisAccessor3strB5cxx11Ev
FN:52,55,_ZNK5neml219LabeledAxisAccessor5emptyEv
FN:58,61,_ZNK5neml219LabeledAxisAccessor4sizeEv
FN:64,67,_ZNK5neml219LabeledAxisAccessorixB5cxx11Em
FN:70,75,_ZNK5neml219LabeledAxisAccessor11with_suffixERKNSt7__cxx1112basic_stringIcSt11char_traitsIcESaIcEEE
FN:78,81,_ZNK5neml219LabeledAxisAccessor6appendERKS0_
FN:84,89,_ZNK5neml219LabeledAxisAccessor7prependERKS0_
FN:92,97,_ZNK5neml219LabeledAxisAccessor5sliceEm
FNDA:2930,_ZNK5neml219LabeledAxisAccessor5sliceEmm
FNDA:671,_ZNK5neml219LabeledAxisAccessor7remountERKS0_l
FNDA:2928,_ZNK5neml219LabeledAxisAccessor10start_withERKS0_
FNDA:1618,_ZNK5neml219LabeledAxisAccessor8is_stateEv
FNDA:253,_ZNK5neml219LabeledAxisAccessor12is_old_stateEv
FNDA:596,_ZNK5neml219LabeledAxisAccessor8is_forceEv
FNDA:48,_ZNK5neml219LabeledAxisAccessor12is_old_forceEv
FNDA:160,_ZNK5neml219LabeledAxisAccessor11is_residualEv
FNDA:109,_ZNK5neml219LabeledAxisAccessor12is_parameterEv
FNDA:0,_ZNK5neml219LabeledAxisAccessor7currentEv
FNDA:91,_ZNK5neml219LabeledAxisAccessor3oldEv
FNDA:60334,_ZNK5neml219LabeledAxisAccessor18validate_item_nameERKNSt7__cxx1112basic_stringIcSt11char_traitsIcESaIcEEE
FNDA:7801,_ZN5neml2neERKNS_19LabeledAxisAccessorES2_
FNDA:5401,_ZN5neml2eqERKNS_19LabeledAxisAccessorES2_
FNDA:177641,_ZN5neml2ltERKNS_19LabeledAxisAccessorES2_
FNDA:81533,_ZN5neml2lsERSoRKNS_19LabeledAxisAccessorE
FNDA:0,_ZN5neml222reserved_subaxis_namesB5cxx11Ev
FNDA:1,_ZNK5neml219LabeledAxisAccessorcvSt6vectorINSt7__cxx1112basic_stringIcSt11char_traitsIcESaIcEEESaIS7_EEEv
FNDA:75295,_ZNK5neml219LabeledAxisAccessor3strB5cxx11Ev
FNDA:10507,_ZNK5neml219LabeledAxisAccessor5emptyEv
FNDA:21284,_ZNK5neml219LabeledAxisAccessor4sizeEv
FNDA:16222,_ZNK5neml219LabeledAxisAccessorixB5cxx11Em
FNDA:167,_ZNK5neml219LabeledAxisAccessor11with_suffixERKNSt7__cxx1112basic_stringIcSt11char_traitsIcESaIcEEE
FNDA:2579,_ZNK5neml219LabeledAxisAccessor6appendERKS0_
FNDA:18123,_ZNK5neml219LabeledAxisAccessor7prependERKS0_
FNDA:3243,_ZNK5neml219LabeledAxisAccessor5sliceEm
FNF:26
FNH:24
DA:34,0
DA:36,0
DA:37,0
DA:39,1
DA:41,1
DA:42,1
DA:46,75295
DA:48,75295
DA:52,10507
DA:54,10507
DA:58,21284
DA:60,21284
DA:64,16222
DA:66,16222
DA:70,167
DA:72,167
DA:73,167
DA:74,334
DA:75,167
DA:78,2579
DA:80,2579
DA:84,18123
DA:86,18123
DA:87,18123
DA:88,36246
DA:89,18123
DA:92,3243
DA:94,3243
DA:95,3243
DA:96,6486
DA:97,3243
DA:100,2930
DA:102,2930
DA:103,2930
DA:104,0
DA:105,2930
DA:106,5860
DA:107,2930
DA:110,671
DA:112,671
DA:116,2928
DA:118,2928
DA:122,1618
DA:124,1618
DA:128,253
DA:130,253
DA:134,596
DA:136,596
DA:140,48
DA:142,48
DA:146,160
DA:148,160
DA:152,109
DA:154,109
DA:158,0
DA:160,0
DA:161,0
DA:162,0
DA:163,0
DA:164,0
DA:165,0
DA:166,0
DA:170,91
DA:172,91
DA:173,91
DA:174,38
DA:175,53
DA:176,53
DA:177,0
DA:178,0
DA:182,60334
DA:184,60334
DA:185,60334
DA:186,60334
DA:190,60333
DA:193,7801
DA:195,7801
DA:199,5401
DA:201,5401
DA:205,177641
DA:207,177641
DA:211,81533
DA:213,265980
DA:215,184447
DA:216,102914
DA:217,184447
DA:219,81533
LF:87
LH:73
end_of_record
TN:
SF:/home/runner/work/neml2/neml2/src/neml2/base/MultiEnumSelection.cxx
FN:32,44,_ZN5neml2lsERSoRKNS_18MultiEnumSelectionE
FN:47,51,_ZN5neml2rsERNSt7__cxx1118basic_stringstreamIcSt11char_traitsIcESaIcEEERNS_18MultiEnumSelectionE
FN:53,58,_ZN5neml218MultiEnumSelectionC2ERKSt6vectorINSt7__cxx1112basic_stringIcSt11char_traitsIcESaIcEEESaIS7_EESB_
FN:60,66,_ZN5neml218MultiEnumSelectionC2ERKSt6vectorINSt7__cxx1112basic_stringIcSt11char_traitsIcESaIcEEESaIS7_EERKS1_IiSaIiEESB_
FN:69,73,_ZNK5neml218MultiEnumSelectioneqERKS0_
FN:76,79,_ZNK5neml218MultiEnumSelectionneERKS0_
FN:82,94,_ZN5neml218MultiEnumSelection6selectERKSt6vectorINSt7__cxx1112basic_stringIcSt11char_traitsIcESaIcEEESaIS7_EE
FN:97,100,_ZNK5neml218MultiEnumSelection4sizeEv
FNDA:1,_ZN5neml2lsERSoRKNS_18MultiEnumSelectionE
FNDA:38,_ZN5neml2rsERNSt7__cxx1118basic_stringstreamIcSt11char_traitsIcESaIcEEERNS_18MultiEnumSelectionE
FNDA:273,_ZN5neml218MultiEnumSelectionC2ERKSt6vectorINSt7__cxx1112basic_stringIcSt11char_traitsIcESaIcEEESaIS7_EESB_
FNDA:19,_ZN5neml218MultiEnumSelectionC2ERKSt6vectorINSt7__cxx1112basic_stringIcSt11char_traitsIcESaIcEEESaIS7_EERKS1_IiSaIiEESB_
FNDA:4,_ZNK5neml218MultiEnumSelectioneqERKS0_
FNDA:3,_ZNK5neml218MultiEnumSelectionneERKS0_
FNDA:330,_ZN5neml218MultiEnumSelection6selectERKSt6vectorINSt7__cxx1112basic_stringIcSt11char_traitsIcESaIcEEESaIS7_EE
FNDA:3,_ZNK5neml218MultiEnumSelection4sizeEv
FNF:8
FNH:8
DA:32,1
DA:34,1
DA:35,1
DA:36,3
DA:38,2
DA:39,2
DA:40,1
DA:42,1
DA:43,1
DA:47,38
DA:49,40
DA:50,37
DA:53,273
DA:54,273
DA:55,273
DA:57,273
DA:58,275
DA:60,19
DA:62,19
DA:63,19
DA:65,19
DA:66,21
DA:69,4
DA:71,5
DA:72,5
DA:76,3
DA:78,3
DA:82,330
DA:84,330
DA:85,330
DA:86,702
DA:88,375
DA:90,1131
DA:91,372
DA:92,372
DA:94,327
DA:97,3
DA:99,3
LF:38
LH:38
end_of_record
TN:
SF:/home/runner/work/neml2/neml2/src/neml2/base/NEML2Object.cxx
FN:33,47,_ZN5neml211NEML2Object16expected_optionsEv
FN:49,55,_ZN5neml211NEML2ObjectC2ERKNS_9OptionSetE
FN:59,65,_ZN5neml211NEML2Object14resolve_tensorINS_10QuaternionEEERKT_RKNSt7__cxx1112basic_stringIcSt11char_traitsIcESaIcEEE
FN:59,65,_ZN5neml211NEML2Object14resolve_tensorINS_11MillerIndexEEERKT_RKNSt7__cxx1112basic_stringIcSt11char_traitsIcESaIcEEE
FN:59,65,_ZN5neml211NEML2Object14resolve_tensorINS_2R2EEERKT_RKNSt7__cxx1112basic_stringIcSt11char_traitsIcESaIcEEE
FN:59,65,_ZN5neml211NEML2Object14resolve_tensorINS_2R3EEERKT_RKNSt7__cxx1112basic_stringIcSt11char_traitsIcESaIcEEE
FN:59,65,_ZN5neml211NEML2Object14resolve_tensorINS_2R4EEERKT_RKNSt7__cxx1112basic_stringIcSt11char_traitsIcESaIcEEE
FN:59,65,_ZN5neml211NEML2Object14resolve_tensorINS_3RotEEERKT_RKNSt7__cxx1112basic_stringIcSt11char_traitsIcESaIcEEE
FN:59,65,_ZN5neml211NEML2Object14resolve_tensorINS_3SR2EEERKT_RKNSt7__cxx1112basic_stringIcSt11char_traitsIcESaIcEEE
FN:59,65,_ZN5neml211NEML2Object14resolve_tensorINS_3VecEEERKT_RKNSt7__cxx1112basic_stringIcSt11char_traitsIcESaIcEEE
FN:59,65,_ZN5neml211NEML2Object14resolve_tensorINS_3WR2EEERKT_RKNSt7__cxx1112basic_stringIcSt11char_traitsIcESaIcEEE
FN:59,65,_ZN5neml211NEML2Object14resolve_tensorINS_4SFR3EEERKT_RKNSt7__cxx1112basic_stringIcSt11char_traitsIcESaIcEEE
FN:59,65,_ZN5neml211NEML2Object14resolve_tensorINS_4SSR4EEERKT_RKNSt7__cxx1112basic_stringIcSt11char_traitsIcESaIcEEE
FN:59,65,_ZN5neml211NEML2Object14resolve_tensorINS_4SWR4EEERKT_RKNSt7__cxx1112basic_stringIcSt11char_traitsIcESaIcEEE
FN:59,65,_ZN5neml211NEML2Object14resolve_tensorINS_4WSR4EEERKT_RKNSt7__cxx1112basic_stringIcSt11char_traitsIcESaIcEEE
FN:59,65,_ZN5neml211NEML2Object14resolve_tensorINS_4WWR4EEERKT_RKNSt7__cxx1112basic_stringIcSt11char_traitsIcESaIcEEE
FN:59,65,_ZN5neml211NEML2Object14resolve_tensorINS_5SFFR4EEERKT_RKNSt7__cxx1112basic_stringIcSt11char_traitsIcESaIcEEE
FN:59,65,_ZN5neml211NEML2Object14resolve_tensorINS_5WFFR4EEERKT_RKNSt7__cxx1112basic_stringIcSt11char_traitsIcESaIcEEE
FN:59,65,_ZN5neml211NEML2Object14resolve_tensorINS_6ScalarEEERKT_RKNSt7__cxx1112basic_stringIcSt11char_traitsIcESaIcEEE
FN:59,65,_ZN5neml211NEML2Object14resolve_tensorINS_6TensorEEERKT_RKNSt7__cxx1112basic_stringIcSt11char_traitsIcESaIcEEE
FNDA:898,_ZN5neml211NEML2Object16expected_optionsEv
FNDA:1463,_ZN5neml211NEML2ObjectC2ERKNS_9OptionSetE
FNDA:0,_ZN5neml211NEML2Object14resolve_tensorINS_10QuaternionEEERKT_RKNSt7__cxx1112basic_stringIcSt11char_traitsIcESaIcEEE
FNDA:0,_ZN5neml211NEML2Object14resolve_tensorINS_11MillerIndexEEERKT_RKNSt7__cxx1112basic_stringIcSt11char_traitsIcESaIcEEE
FNDA:0,_ZN5neml211NEML2Object14resolve_tensorINS_2R2EEERKT_RKNSt7__cxx1112basic_stringIcSt11char_traitsIcESaIcEEE
FNDA:0,_ZN5neml211NEML2Object14resolve_tensorINS_2R3EEERKT_RKNSt7__cxx1112basic_stringIcSt11char_traitsIcESaIcEEE
FNDA:0,_ZN5neml211NEML2Object14resolve_tensorINS_2R4EEERKT_RKNSt7__cxx1112basic_stringIcSt11char_traitsIcESaIcEEE
FNDA:0,_ZN5neml211NEML2Object14resolve_tensorINS_3RotEEERKT_RKNSt7__cxx1112basic_stringIcSt11char_traitsIcESaIcEEE
FNDA:8,_ZN5neml211NEML2Object14resolve_tensorINS_3SR2EEERKT_RKNSt7__cxx1112basic_stringIcSt11char_traitsIcESaIcEEE
FNDA:0,_ZN5neml211NEML2Object14resolve_tensorINS_3VecEEERKT_RKNSt7__cxx1112basic_stringIcSt11char_traitsIcESaIcEEE
FNDA:1,_ZN5neml211NEML2Object14resolve_tensorINS_3WR2EEERKT_RKNSt7__cxx1112basic_stringIcSt11char_traitsIcESaIcEEE
FNDA:0,_ZN5neml211NEML2Object14resolve_tensorINS_4SFR3EEERKT_RKNSt7__cxx1112basic_stringIcSt11char_traitsIcESaIcEEE
FNDA:0,_ZN5neml211NEML2Object14resolve_tensorINS_4SSR4EEERKT_RKNSt7__cxx1112basic_stringIcSt11char_traitsIcESaIcEEE
FNDA:0,_ZN5neml211NEML2Object14resolve_tensorINS_4SWR4EEERKT_RKNSt7__cxx1112basic_stringIcSt11char_traitsIcESaIcEEE
FNDA:0,_ZN5neml211NEML2Object14resolve_tensorINS_4WSR4EEERKT_RKNSt7__cxx1112basic_stringIcSt11char_traitsIcESaIcEEE
FNDA:0,_ZN5neml211NEML2Object14resolve_tensorINS_4WWR4EEERKT_RKNSt7__cxx1112basic_stringIcSt11char_traitsIcESaIcEEE
FNDA:0,_ZN5neml211NEML2Object14resolve_tensorINS_5SFFR4EEERKT_RKNSt7__cxx1112basic_stringIcSt11char_traitsIcESaIcEEE
FNDA:0,_ZN5neml211NEML2Object14resolve_tensorINS_5WFFR4EEERKT_RKNSt7__cxx1112basic_stringIcSt11char_traitsIcESaIcEEE
FNDA:8,_ZN5neml211NEML2Object14resolve_tensorINS_6ScalarEEERKT_RKNSt7__cxx1112basic_stringIcSt11char_traitsIcESaIcEEE
FNDA:0,_ZN5neml211NEML2Object14resolve_tensorINS_6TensorEEERKT_RKNSt7__cxx1112basic_stringIcSt11char_traitsIcESaIcEEE
FNF:20
FNH:5
DA:33,898
DA:35,898
DA:37,1796
DA:38,898
DA:40,2694
DA:41,1796
DA:43,1796
DA:44,898
DA:46,898
DA:47,0
DA:49,1463
DA:50,1463
DA:51,2926
DA:52,2926
DA:53,2926
DA:55,1463
DA:59,17
DA:61,17
DA:62,0
DA:63,0
DA:64,17
LF:21
LH:18
end_of_record
TN:
SF:/home/runner/work/neml2/neml2/src/neml2/base/Option.cxx
FN:153,156,_ZN5neml27details13_print_helperIcEEvRSoPKT_
FN:160,163,_ZN5neml27details13_print_helperIhEEvRSoPKT_
FN:167,171,_ZN5neml27details13_print_helperIbEEvRSoPKSt6vectorIT_SaIS4_EE
FN:40,45,_ZN5neml26OptionIN3c1011SmallVectorIlLj8EEEEC2ERKNSt7__cxx1112basic_stringIcSt11char_traitsIcESaIcEEE
FN:40,45,_ZN5neml26OptionINS_10TensorNameIN2at6TensorEEEEC2ERKNSt7__cxx1112basic_stringIcSt11char_traitsIcESaIcEEE
FN:40,45,_ZN5neml26OptionINS_10TensorNameINS_10QuaternionEEEEC2ERKNSt7__cxx1112basic_stringIcSt11char_traitsIcESaIcEEE
FN:40,45,_ZN5neml26OptionINS_10TensorNameINS_11MillerIndexEEEEC2ERKNSt7__cxx1112basic_stringIcSt11char_traitsIcESaIcEEE
FN:40,45,_ZN5neml26OptionINS_10TensorNameINS_2R2EEEEC2ERKNSt7__cxx1112basic_stringIcSt11char_traitsIcESaIcEEE
FN:40,45,_ZN5neml26OptionINS_10TensorNameINS_2R3EEEEC2ERKNSt7__cxx1112basic_stringIcSt11char_traitsIcESaIcEEE
FN:40,45,_ZN5neml26OptionINS_10TensorNameINS_2R4EEEEC2ERKNSt7__cxx1112basic_stringIcSt11char_traitsIcESaIcEEE
FN:40,45,_ZN5neml26OptionINS_10TensorNameINS_3RotEEEEC2ERKNSt7__cxx1112basic_stringIcSt11char_traitsIcESaIcEEE
FN:40,45,_ZN5neml26OptionINS_10TensorNameINS_3SR2EEEEC2ERKNSt7__cxx1112basic_stringIcSt11char_traitsIcESaIcEEE
FN:40,45,_ZN5neml26OptionINS_10TensorNameINS_3VecEEEEC2ERKNSt7__cxx1112basic_stringIcSt11char_traitsIcESaIcEEE
FN:40,45,_ZN5neml26OptionINS_10TensorNameINS_3WR2EEEEC2ERKNSt7__cxx1112basic_stringIcSt11char_traitsIcESaIcEEE
FN:40,45,_ZN5neml26OptionINS_10TensorNameINS_4SFR3EEEEC2ERKNSt7__cxx1112basic_stringIcSt11char_traitsIcESaIcEEE
FN:40,45,_ZN5neml26OptionINS_10TensorNameINS_4SSR4EEEEC2ERKNSt7__cxx1112basic_stringIcSt11char_traitsIcESaIcEEE
FN:40,45,_ZN5neml26OptionINS_10TensorNameINS_4SWR4EEEEC2ERKNSt7__cxx1112basic_stringIcSt11char_traitsIcESaIcEEE
FN:40,45,_ZN5neml26OptionINS_10TensorNameINS_4WSR4EEEEC2ERKNSt7__cxx1112basic_stringIcSt11char_traitsIcESaIcEEE
FN:40,45,_ZN5neml26OptionINS_10TensorNameINS_4WWR4EEEEC2ERKNSt7__cxx1112basic_stringIcSt11char_traitsIcESaIcEEE
FN:40,45,_ZN5neml26OptionINS_10TensorNameINS_5SFFR4EEEEC2ERKNSt7__cxx1112basic_stringIcSt11char_traitsIcESaIcEEE
FN:40,45,_ZN5neml26OptionINS_10TensorNameINS_5WFFR4EEEEC2ERKNSt7__cxx1112basic_stringIcSt11char_traitsIcESaIcEEE
FN:40,45,_ZN5neml26OptionINS_10TensorNameINS_6ScalarEEEEC2ERKNSt7__cxx1112basic_stringIcSt11char_traitsIcESaIcEEE
FN:40,45,_ZN5neml26OptionINS_10TensorNameINS_6TensorEEEEC2ERKNSt7__cxx1112basic_stringIcSt11char_traitsIcESaIcEEE
FN:40,45,_ZN5neml26OptionINS_13EnumSelectionEEC2ERKNSt7__cxx1112basic_stringIcSt11char_traitsIcESaIcEEE
FN:40,45,_ZN5neml26OptionINS_18MultiEnumSelectionEEC2ERKNSt7__cxx1112basic_stringIcSt11char_traitsIcESaIcEEE
FN:40,45,_ZN5neml26OptionINS_19LabeledAxisAccessorEEC2ERKNSt7__cxx1112basic_stringIcSt11char_traitsIcESaIcEEE
FN:40,45,_ZN5neml26OptionINSt7__cxx1112basic_stringIcSt11char_traitsIcESaIcEEEEC2ERKS6_
FN:40,45,_ZN5neml26OptionIPNS_11NEML2ObjectEEC2ERKNSt7__cxx1112basic_stringIcSt11char_traitsIcESaIcEEE
FN:40,45,_ZN5neml26OptionIPNS_7FactoryEEC2ERKNSt7__cxx1112basic_stringIcSt11char_traitsIcESaIcEEE
FN:40,45,_ZN5neml26OptionISt10shared_ptrINS_8SettingsEEEC2ERKNSt7__cxx1112basic_stringIcSt11char_traitsIcESaIcEEE
FN:40,45,_ZN5neml26OptionISt6vectorIN3c1011SmallVectorIlLj8EEESaIS4_EEEC2ERKNSt7__cxx1112basic_stringIcSt11char_traitsIcESaIcEEE
FN:40,45,_ZN5neml26OptionISt6vectorIN3c106DeviceESaIS3_EEEC2ERKNSt7__cxx1112basic_stringIcSt11char_traitsIcESaIcEEE
FN:40,45,_ZN5neml26OptionISt6vectorINS_10TensorNameIN2at6TensorEEESaIS5_EEEC2ERKNSt7__cxx1112basic_stringIcSt11char_traitsIcESaIcEEE
FN:40,45,_ZN5neml26OptionISt6vectorINS_10TensorNameINS_10QuaternionEEESaIS4_EEEC2ERKNSt7__cxx1112basic_stringIcSt11char_traitsIcESaIcEEE
FN:40,45,_ZN5neml26OptionISt6vectorINS_10TensorNameINS_11MillerIndexEEESaIS4_EEEC2ERKNSt7__cxx1112basic_stringIcSt11char_traitsIcESaIcEEE
FN:40,45,_ZN5neml26OptionISt6vectorINS_10TensorNameINS_2R2EEESaIS4_EEEC2ERKNSt7__cxx1112basic_stringIcSt11char_traitsIcESaIcEEE
FN:40,45,_ZN5neml26OptionISt6vectorINS_10TensorNameINS_2R3EEESaIS4_EEEC2ERKNSt7__cxx1112basic_stringIcSt11char_traitsIcESaIcEEE
FN:40,45,_ZN5neml26OptionISt6vectorINS_10TensorNameINS_2R4EEESaIS4_EEEC2ERKNSt7__cxx1112basic_stringIcSt11char_traitsIcESaIcEEE
FN:40,45,_ZN5neml26OptionISt6vectorINS_10TensorNameINS_3RotEEESaIS4_EEEC2ERKNSt7__cxx1112basic_stringIcSt11char_traitsIcESaIcEEE
FN:40,45,_ZN5neml26OptionISt6vectorINS_10TensorNameINS_3SR2EEESaIS4_EEEC2ERKNSt7__cxx1112basic_stringIcSt11char_traitsIcESaIcEEE
FN:40,45,_ZN5neml26OptionISt6vectorINS_10TensorNameINS_3VecEEESaIS4_EEEC2ERKNSt7__cxx1112basic_stringIcSt11char_traitsIcESaIcEEE
FN:40,45,_ZN5neml26OptionISt6vectorINS_10TensorNameINS_3WR2EEESaIS4_EEEC2ERKNSt7__cxx1112basic_stringIcSt11char_traitsIcESaIcEEE
FN:40,45,_ZN5neml26OptionISt6vectorINS_10TensorNameINS_4SFR3EEESaIS4_EEEC2ERKNSt7__cxx1112basic_stringIcSt11char_traitsIcESaIcEEE
FN:40,45,_ZN5neml26OptionISt6vectorINS_10TensorNameINS_4SSR4EEESaIS4_EEEC2ERKNSt7__cxx1112basic_stringIcSt11char_traitsIcESaIcEEE
FN:40,45,_ZN5neml26OptionISt6vectorINS_10TensorNameINS_4SWR4EEESaIS4_EEEC2ERKNSt7__cxx1112basic_stringIcSt11char_traitsIcESaIcEEE
FN:40,45,_ZN5neml26OptionISt6vectorINS_10TensorNameINS_4WSR4EEESaIS4_EEEC2ERKNSt7__cxx1112basic_stringIcSt11char_traitsIcESaIcEEE
FN:40,45,_ZN5neml26OptionISt6vectorINS_10TensorNameINS_4WWR4EEESaIS4_EEEC2ERKNSt7__cxx1112basic_stringIcSt11char_traitsIcESaIcEEE
FN:40,45,_ZN5neml26OptionISt6vectorINS_10TensorNameINS_5SFFR4EEESaIS4_EEEC2ERKNSt7__cxx1112basic_stringIcSt11char_traitsIcESaIcEEE
FN:40,45,_ZN5neml26OptionISt6vectorINS_10TensorNameINS_5WFFR4EEESaIS4_EEEC2ERKNSt7__cxx1112basic_stringIcSt11char_traitsIcESaIcEEE
FN:40,45,_ZN5neml26OptionISt6vectorINS_10TensorNameINS_6ScalarEEESaIS4_EEEC2ERKNSt7__cxx1112basic_stringIcSt11char_traitsIcESaIcEEE
FN:40,45,_ZN5neml26OptionISt6vectorINS_10TensorNameINS_6TensorEEESaIS4_EEEC2ERKNSt7__cxx1112basic_stringIcSt11char_traitsIcESaIcEEE
FN:40,45,_ZN5neml26OptionISt6vectorINS_19LabeledAxisAccessorESaIS2_EEEC2ERKNSt7__cxx1112basic_stringIcSt11char_traitsIcESaIcEEE
FN:40,45,_ZN5neml26OptionISt6vectorINSt7__cxx1112basic_stringIcSt11char_traitsIcESaIcEEESaIS7_EEEC2ERKS7_
FN:40,45,_ZN5neml26OptionISt6vectorIS1_IN3c1011SmallVectorIlLj8EEESaIS4_EESaIS6_EEEC2ERKNSt7__cxx1112basic_stringIcSt11char_traitsIcESaIcEEE
FN:40,45,_ZN5neml26OptionISt6vectorIS1_IN3c106DeviceESaIS3_EESaIS5_EEEC2ERKNSt7__cxx1112basic_stringIcSt11char_traitsIcESaIcEEE
FN:40,45,_ZN5neml26OptionISt6vectorIS1_INS_10TensorNameIN2at6TensorEEESaIS5_EESaIS7_EEEC2ERKNSt7__cxx1112basic_stringIcSt11char_traitsIcESaIcEEE
FN:40,45,_ZN5neml26OptionISt6vectorIS1_INS_10TensorNameINS_10QuaternionEEESaIS4_EESaIS6_EEEC2ERKNSt7__cxx1112basic_stringIcSt11char_traitsIcESaIcEEE
FN:40,45,_ZN5neml26OptionISt6vectorIS1_INS_10TensorNameINS_11MillerIndexEEESaIS4_EESaIS6_EEEC2ERKNSt7__cxx1112basic_stringIcSt11char_traitsIcESaIcEEE
FN:40,45,_ZN5neml26OptionISt6vectorIS1_INS_10TensorNameINS_2R2EEESaIS4_EESaIS6_EEEC2ERKNSt7__cxx1112basic_stringIcSt11char_traitsIcESaIcEEE
FN:40,45,_ZN5neml26OptionISt6vectorIS1_INS_10TensorNameINS_2R3EEESaIS4_EESaIS6_EEEC2ERKNSt7__cxx1112basic_stringIcSt11char_traitsIcESaIcEEE
FN:40,45,_ZN5neml26OptionISt6vectorIS1_INS_10TensorNameINS_2R4EEESaIS4_EESaIS6_EEEC2ERKNSt7__cxx1112basic_stringIcSt11char_traitsIcESaIcEEE
FN:40,45,_ZN5neml26OptionISt6vectorIS1_INS_10TensorNameINS_3RotEEESaIS4_EESaIS6_EEEC2ERKNSt7__cxx1112basic_stringIcSt11char_traitsIcESaIcEEE
FN:40,45,_ZN5neml26OptionISt6vectorIS1_INS_10TensorNameINS_3SR2EEESaIS4_EESaIS6_EEEC2ERKNSt7__cxx1112basic_stringIcSt11char_traitsIcESaIcEEE
FN:40,45,_ZN5neml26OptionISt6vectorIS1_INS_10TensorNameINS_3VecEEESaIS4_EESaIS6_EEEC2ERKNSt7__cxx1112basic_stringIcSt11char_traitsIcESaIcEEE
FN:40,45,_ZN5neml26OptionISt6vectorIS1_INS_10TensorNameINS_3WR2EEESaIS4_EESaIS6_EEEC2ERKNSt7__cxx1112basic_stringIcSt11char_traitsIcESaIcEEE
FN:40,45,_ZN5neml26OptionISt6vectorIS1_INS_10TensorNameINS_4SFR3EEESaIS4_EESaIS6_EEEC2ERKNSt7__cxx1112basic_stringIcSt11char_traitsIcESaIcEEE
FN:40,45,_ZN5neml26OptionISt6vectorIS1_INS_10TensorNameINS_4SSR4EEESaIS4_EESaIS6_EEEC2ERKNSt7__cxx1112basic_stringIcSt11char_traitsIcESaIcEEE
FN:40,45,_ZN5neml26OptionISt6vectorIS1_INS_10TensorNameINS_4SWR4EEESaIS4_EESaIS6_EEEC2ERKNSt7__cxx1112basic_stringIcSt11char_traitsIcESaIcEEE
FN:40,45,_ZN5neml26OptionISt6vectorIS1_INS_10TensorNameINS_4WSR4EEESaIS4_EESaIS6_EEEC2ERKNSt7__cxx1112basic_stringIcSt11char_traitsIcESaIcEEE
FN:40,45,_ZN5neml26OptionISt6vectorIS1_INS_10TensorNameINS_4WWR4EEESaIS4_EESaIS6_EEEC2ERKNSt7__cxx1112basic_stringIcSt11char_traitsIcESaIcEEE
FN:40,45,_ZN5neml26OptionISt6vectorIS1_INS_10TensorNameINS_5SFFR4EEESaIS4_EESaIS6_EEEC2ERKNSt7__cxx1112basic_stringIcSt11char_traitsIcESaIcEEE
FN:40,45,_ZN5neml26OptionISt6vectorIS1_INS_10TensorNameINS_5WFFR4EEESaIS4_EESaIS6_EEEC2ERKNSt7__cxx1112basic_stringIcSt11char_traitsIcESaIcEEE
FN:40,45,_ZN5neml26OptionISt6vectorIS1_INS_10TensorNameINS_6ScalarEEESaIS4_EESaIS6_EEEC2ERKNSt7__cxx1112basic_stringIcSt11char_traitsIcESaIcEEE
FN:40,45,_ZN5neml26OptionISt6vectorIS1_INS_10TensorNameINS_6TensorEEESaIS4_EESaIS6_EEEC2ERKNSt7__cxx1112basic_stringIcSt11char_traitsIcESaIcEEE
FN:40,45,_ZN5neml26OptionISt6vectorIS1_INS_19LabeledAxisAccessorESaIS2_EESaIS4_EEEC2ERKNSt7__cxx1112basic_stringIcSt11char_traitsIcESaIcEEE
FN:40,45,_ZN5neml26OptionISt6vectorIS1_INSt7__cxx1112basic_stringIcSt11char_traitsIcESaIcEEESaIS7_EESaIS9_EEEC2ERKS7_
FN:40,45,_ZN5neml26OptionISt6vectorIS1_IbSaIbEESaIS3_EEEC2ERKNSt7__cxx1112basic_stringIcSt11char_traitsIcESaIcEEE
FN:40,45,_ZN5neml26OptionISt6vectorIS1_IdSaIdEESaIS3_EEEC2ERKNSt7__cxx1112basic_stringIcSt11char_traitsIcESaIcEEE
FN:40,45,_ZN5neml26OptionISt6vectorIS1_IiSaIiEESaIS3_EEEC2ERKNSt7__cxx1112basic_stringIcSt11char_traitsIcESaIcEEE
FN:40,45,_ZN5neml26OptionISt6vectorIS1_IjSaIjEESaIS3_EEEC2ERKNSt7__cxx1112basic_stringIcSt11char_traitsIcESaIcEEE
FN:40,45,_ZN5neml26OptionISt6vectorIS1_IlSaIlEESaIS3_EEEC2ERKNSt7__cxx1112basic_stringIcSt11char_traitsIcESaIcEEE
FN:40,45,_ZN5neml26OptionISt6vectorIS1_ImSaImEESaIS3_EEEC2ERKNSt7__cxx1112basic_stringIcSt11char_traitsIcESaIcEEE
FN:40,45,_ZN5neml26OptionISt6vectorIbSaIbEEEC2ERKNSt7__cxx1112basic_stringIcSt11char_traitsIcESaIcEEE
FN:40,45,_ZN5neml26OptionISt6vectorIdSaIdEEEC2ERKNSt7__cxx1112basic_stringIcSt11char_traitsIcESaIcEEE
FN:40,45,_ZN5neml26OptionISt6vectorIiSaIiEEEC2ERKNSt7__cxx1112basic_stringIcSt11char_traitsIcESaIcEEE
FN:40,45,_ZN5neml26OptionISt6vectorIjSaIjEEEC2ERKNSt7__cxx1112basic_stringIcSt11char_traitsIcESaIcEEE
FN:40,45,_ZN5neml26OptionISt6vectorIlSaIlEEEC2ERKNSt7__cxx1112basic_stringIcSt11char_traitsIcESaIcEEE
FN:40,45,_ZN5neml26OptionISt6vectorImSaImEEEC2ERKNSt7__cxx1112basic_stringIcSt11char_traitsIcESaIcEEE
FN:40,45,_ZN5neml26OptionIbEC2ERKNSt7__cxx1112basic_stringIcSt11char_traitsIcESaIcEEE
FN:40,45,_ZN5neml26OptionIdEC2ERKNSt7__cxx1112basic_stringIcSt11char_traitsIcESaIcEEE
FN:40,45,_ZN5neml26OptionIiEC2ERKNSt7__cxx1112basic_stringIcSt11char_traitsIcESaIcEEE
FN:40,45,_ZN5neml26OptionIjEC2ERKNSt7__cxx1112basic_stringIcSt11char_traitsIcESaIcEEE
FN:40,45,_ZN5neml26OptionIlEC2ERKNSt7__cxx1112basic_stringIcSt11char_traitsIcESaIcEEE
FN:40,45,_ZN5neml26OptionImEC2ERKNSt7__cxx1112basic_stringIcSt11char_traitsIcESaIcEEE
FN:48,53,_ZN5neml26OptionIN3c106DeviceEEC2ERKNSt7__cxx1112basic_stringIcSt11char_traitsIcESaIcEEE
FN:57,64,_ZNK5neml26OptionIN3c1011SmallVectorIlLj8EEEEeqERKNS_10OptionBaseE
FN:57,64,_ZNK5neml26OptionIN3c106DeviceEEeqERKNS_10OptionBaseE
FN:57,64,_ZNK5neml26OptionINS_10TensorNameIN2at6TensorEEEEeqERKNS_10OptionBaseE
FN:57,64,_ZNK5neml26OptionINS_10TensorNameINS_10QuaternionEEEEeqERKNS_10OptionBaseE
FN:57,64,_ZNK5neml26OptionINS_10TensorNameINS_11MillerIndexEEEEeqERKNS_10OptionBaseE
FN:57,64,_ZNK5neml26OptionINS_10TensorNameINS_2R2EEEEeqERKNS_10OptionBaseE
FN:57,64,_ZNK5neml26OptionINS_10TensorNameINS_2R3EEEEeqERKNS_10OptionBaseE
FN:57,64,_ZNK5neml26OptionINS_10TensorNameINS_2R4EEEEeqERKNS_10OptionBaseE
FN:57,64,_ZNK5neml26OptionINS_10TensorNameINS_3RotEEEEeqERKNS_10OptionBaseE
FN:57,64,_ZNK5neml26OptionINS_10TensorNameINS_3SR2EEEEeqERKNS_10OptionBaseE
FN:57,64,_ZNK5neml26OptionINS_10TensorNameINS_3VecEEEEeqERKNS_10OptionBaseE
FN:57,64,_ZNK5neml26OptionINS_10TensorNameINS_3WR2EEEEeqERKNS_10OptionBaseE
FN:57,64,_ZNK5neml26OptionINS_10TensorNameINS_4SFR3EEEEeqERKNS_10OptionBaseE
FN:57,64,_ZNK5neml26OptionINS_10TensorNameINS_4SSR4EEEEeqERKNS_10OptionBaseE
FN:57,64,_ZNK5neml26OptionINS_10TensorNameINS_4SWR4EEEEeqERKNS_10OptionBaseE
FN:57,64,_ZNK5neml26OptionINS_10TensorNameINS_4WSR4EEEEeqERKNS_10OptionBaseE
FN:57,64,_ZNK5neml26OptionINS_10TensorNameINS_4WWR4EEEEeqERKNS_10OptionBaseE
FN:57,64,_ZNK5neml26OptionINS_10TensorNameINS_5SFFR4EEEEeqERKNS_10OptionBaseE
FN:57,64,_ZNK5neml26OptionINS_10TensorNameINS_5WFFR4EEEEeqERKNS_10OptionBaseE
FN:57,64,_ZNK5neml26OptionINS_10TensorNameINS_6ScalarEEEEeqERKNS_10OptionBaseE
FN:57,64,_ZNK5neml26OptionINS_10TensorNameINS_6TensorEEEEeqERKNS_10OptionBaseE
FN:57,64,_ZNK5neml26OptionINS_13EnumSelectionEEeqERKNS_10OptionBaseE
FN:57,64,_ZNK5neml26OptionINS_18MultiEnumSelectionEEeqERKNS_10OptionBaseE
FN:57,64,_ZNK5neml26OptionINS_19LabeledAxisAccessorEEeqERKNS_10OptionBaseE
FN:57,64,_ZNK5neml26OptionINSt7__cxx1112basic_stringIcSt11char_traitsIcESaIcEEEEeqERKNS_10OptionBaseE
FN:57,64,_ZNK5neml26OptionIPNS_11NEML2ObjectEEeqERKNS_10OptionBaseE
FN:57,64,_ZNK5neml26OptionIPNS_7FactoryEEeqERKNS_10OptionBaseE
FN:57,64,_ZNK5neml26OptionISt10shared_ptrINS_8SettingsEEEeqERKNS_10OptionBaseE
FN:57,64,_ZNK5neml26OptionISt6vectorIN3c1011SmallVectorIlLj8EEESaIS4_EEEeqERKNS_10OptionBaseE
FN:57,64,_ZNK5neml26OptionISt6vectorIN3c106DeviceESaIS3_EEEeqERKNS_10OptionBaseE
FN:57,64,_ZNK5neml26OptionISt6vectorINS_10TensorNameIN2at6TensorEEESaIS5_EEEeqERKNS_10OptionBaseE
FN:57,64,_ZNK5neml26OptionISt6vectorINS_10TensorNameINS_10QuaternionEEESaIS4_EEEeqERKNS_10OptionBaseE
FN:57,64,_ZNK5neml26OptionISt6vectorINS_10TensorNameINS_11MillerIndexEEESaIS4_EEEeqERKNS_10OptionBaseE
FN:57,64,_ZNK5neml26OptionISt6vectorINS_10TensorNameINS_2R2EEESaIS4_EEEeqERKNS_10OptionBaseE
FN:57,64,_ZNK5neml26OptionISt6vectorINS_10TensorNameINS_2R3EEESaIS4_EEEeqERKNS_10OptionBaseE
FN:57,64,_ZNK5neml26OptionISt6vectorINS_10TensorNameINS_2R4EEESaIS4_EEEeqERKNS_10OptionBaseE
FN:57,64,_ZNK5neml26OptionISt6vectorINS_10TensorNameINS_3RotEEESaIS4_EEEeqERKNS_10OptionBaseE
FN:57,64,_ZNK5neml26OptionISt6vectorINS_10TensorNameINS_3SR2EEESaIS4_EEEeqERKNS_10OptionBaseE
FN:57,64,_ZNK5neml26OptionISt6vectorINS_10TensorNameINS_3VecEEESaIS4_EEEeqERKNS_10OptionBaseE
FN:57,64,_ZNK5neml26OptionISt6vectorINS_10TensorNameINS_3WR2EEESaIS4_EEEeqERKNS_10OptionBaseE
FN:57,64,_ZNK5neml26OptionISt6vectorINS_10TensorNameINS_4SFR3EEESaIS4_EEEeqERKNS_10OptionBaseE
FN:57,64,_ZNK5neml26OptionISt6vectorINS_10TensorNameINS_4SSR4EEESaIS4_EEEeqERKNS_10OptionBaseE
FN:57,64,_ZNK5neml26OptionISt6vectorINS_10TensorNameINS_4SWR4EEESaIS4_EEEeqERKNS_10OptionBaseE
FN:57,64,_ZNK5neml26OptionISt6vectorINS_10TensorNameINS_4WSR4EEESaIS4_EEEeqERKNS_10OptionBaseE
FN:57,64,_ZNK5neml26OptionISt6vectorINS_10TensorNameINS_4WWR4EEESaIS4_EEEeqERKNS_10OptionBaseE
FN:57,64,_ZNK5neml26OptionISt6vectorINS_10TensorNameINS_5SFFR4EEESaIS4_EEEeqERKNS_10OptionBaseE
FN:57,64,_ZNK5neml26OptionISt6vectorINS_10TensorNameINS_5WFFR4EEESaIS4_EEEeqERKNS_10OptionBaseE
FN:57,64,_ZNK5neml26OptionISt6vectorINS_10TensorNameINS_6ScalarEEESaIS4_EEEeqERKNS_10OptionBaseE
FN:57,64,_ZNK5neml26OptionISt6vectorINS_10TensorNameINS_6TensorEEESaIS4_EEEeqERKNS_10OptionBaseE
FN:57,64,_ZNK5neml26OptionISt6vectorINS_19LabeledAxisAccessorESaIS2_EEEeqERKNS_10OptionBaseE
FN:57,64,_ZNK5neml26OptionISt6vectorINSt7__cxx1112basic_stringIcSt11char_traitsIcESaIcEEESaIS7_EEEeqERKNS_10OptionBaseE
FN:57,64,_ZNK5neml26OptionISt6vectorIS1_IN3c1011SmallVectorIlLj8EEESaIS4_EESaIS6_EEEeqERKNS_10OptionBaseE
FN:57,64,_ZNK5neml26OptionISt6vectorIS1_IN3c106DeviceESaIS3_EESaIS5_EEEeqERKNS_10OptionBaseE
FN:57,64,_ZNK5neml26OptionISt6vectorIS1_INS_10TensorNameIN2at6TensorEEESaIS5_EESaIS7_EEEeqERKNS_10OptionBaseE
FN:57,64,_ZNK5neml26OptionISt6vectorIS1_INS_10TensorNameINS_10QuaternionEEESaIS4_EESaIS6_EEEeqERKNS_10OptionBaseE
FN:57,64,_ZNK5neml26OptionISt6vectorIS1_INS_10TensorNameINS_11MillerIndexEEESaIS4_EESaIS6_EEEeqERKNS_10OptionBaseE
FN:57,64,_ZNK5neml26OptionISt6vectorIS1_INS_10TensorNameINS_2R2EEESaIS4_EESaIS6_EEEeqERKNS_10OptionBaseE
FN:57,64,_ZNK5neml26OptionISt6vectorIS1_INS_10TensorNameINS_2R3EEESaIS4_EESaIS6_EEEeqERKNS_10OptionBaseE
FN:57,64,_ZNK5neml26OptionISt6vectorIS1_INS_10TensorNameINS_2R4EEESaIS4_EESaIS6_EEEeqERKNS_10OptionBaseE
FN:57,64,_ZNK5neml26OptionISt6vectorIS1_INS_10TensorNameINS_3RotEEESaIS4_EESaIS6_EEEeqERKNS_10OptionBaseE
FN:57,64,_ZNK5neml26OptionISt6vectorIS1_INS_10TensorNameINS_3SR2EEESaIS4_EESaIS6_EEEeqERKNS_10OptionBaseE
FN:57,64,_ZNK5neml26OptionISt6vectorIS1_INS_10TensorNameINS_3VecEEESaIS4_EESaIS6_EEEeqERKNS_10OptionBaseE
FN:57,64,_ZNK5neml26OptionISt6vectorIS1_INS_10TensorNameINS_3WR2EEESaIS4_EESaIS6_EEEeqERKNS_10OptionBaseE
FN:57,64,_ZNK5neml26OptionISt6vectorIS1_INS_10TensorNameINS_4SFR3EEESaIS4_EESaIS6_EEEeqERKNS_10OptionBaseE
FN:57,64,_ZNK5neml26OptionISt6vectorIS1_INS_10TensorNameINS_4SSR4EEESaIS4_EESaIS6_EEEeqERKNS_10OptionBaseE
FN:57,64,_ZNK5neml26OptionISt6vectorIS1_INS_10TensorNameINS_4SWR4EEESaIS4_EESaIS6_EEEeqERKNS_10OptionBaseE
FN:57,64,_ZNK5neml26OptionISt6vectorIS1_INS_10TensorNameINS_4WSR4EEESaIS4_EESaIS6_EEEeqERKNS_10OptionBaseE
FN:57,64,_ZNK5neml26OptionISt6vectorIS1_INS_10TensorNameINS_4WWR4EEESaIS4_EESaIS6_EEEeqERKNS_10OptionBaseE
FN:57,64,_ZNK5neml26OptionISt6vectorIS1_INS_10TensorNameINS_5SFFR4EEESaIS4_EESaIS6_EEEeqERKNS_10OptionBaseE
FN:57,64,_ZNK5neml26OptionISt6vectorIS1_INS_10TensorNameINS_5WFFR4EEESaIS4_EESaIS6_EEEeqERKNS_10OptionBaseE
FN:57,64,_ZNK5neml26OptionISt6vectorIS1_INS_10TensorNameINS_6ScalarEEESaIS4_EESaIS6_EEEeqERKNS_10OptionBaseE
FN:57,64,_ZNK5neml26OptionISt6vectorIS1_INS_10TensorNameINS_6TensorEEESaIS4_EESaIS6_EEEeqERKNS_10OptionBaseE
FN:57,64,_ZNK5neml26OptionISt6vectorIS1_INS_19LabeledAxisAccessorESaIS2_EESaIS4_EEEeqERKNS_10OptionBaseE
FN:57,64,_ZNK5neml26OptionISt6vectorIS1_INSt7__cxx1112basic_stringIcSt11char_traitsIcESaIcEEESaIS7_EESaIS9_EEEeqERKNS_10OptionBaseE
FN:57,64,_ZNK5neml26OptionISt6vectorIS1_IbSaIbEESaIS3_EEEeqERKNS_10OptionBaseE
FN:57,64,_ZNK5neml26OptionISt6vectorIS1_IdSaIdEESaIS3_EEEeqERKNS_10OptionBaseE
FN:57,64,_ZNK5neml26OptionISt6vectorIS1_IiSaIiEESaIS3_EEEeqERKNS_10OptionBaseE
FN:57,64,_ZNK5neml26OptionISt6vectorIS1_IjSaIjEESaIS3_EEEeqERKNS_10OptionBaseE
FN:57,64,_ZNK5neml26OptionISt6vectorIS1_IlSaIlEESaIS3_EEEeqERKNS_10OptionBaseE
FN:57,64,_ZNK5neml26OptionISt6vectorIS1_ImSaImEESaIS3_EEEeqERKNS_10OptionBaseE
FN:57,64,_ZNK5neml26OptionISt6vectorIbSaIbEEEeqERKNS_10OptionBaseE
FN:57,64,_ZNK5neml26OptionISt6vectorIdSaIdEEEeqERKNS_10OptionBaseE
FN:57,64,_ZNK5neml26OptionISt6vectorIiSaIiEEEeqERKNS_10OptionBaseE
FN:57,64,_ZNK5neml26OptionISt6vectorIjSaIjEEEeqERKNS_10OptionBaseE
FN:57,64,_ZNK5neml26OptionISt6vectorIlSaIlEEEeqERKNS_10OptionBaseE
FN:57,64,_ZNK5neml26OptionISt6vectorImSaImEEEeqERKNS_10OptionBaseE
FN:57,64,_ZNK5neml26OptionIbEeqERKNS_10OptionBaseE
FN:57,64,_ZNK5neml26OptionIdEeqERKNS_10OptionBaseE
FN:57,64,_ZNK5neml26OptionIiEeqERKNS_10OptionBaseE
FN:57,64,_ZNK5neml26OptionIjEeqERKNS_10OptionBaseE
FN:57,64,_ZNK5neml26OptionIlEeqERKNS_10OptionBaseE
FN:57,64,_ZNK5neml26OptionImEeqERKNS_10OptionBaseE
FN:68,71,_ZNK5neml26OptionIN3c1011SmallVectorIlLj8EEEEneERKNS_10OptionBaseE
FN:68,71,_ZNK5neml26OptionIN3c106DeviceEEneERKNS_10OptionBaseE
FN:68,71,_ZNK5neml26OptionINS_10TensorNameIN2at6TensorEEEEneERKNS_10OptionBaseE
FN:68,71,_ZNK5neml26OptionINS_10TensorNameINS_10QuaternionEEEEneERKNS_10OptionBaseE
FN:68,71,_ZNK5neml26OptionINS_10TensorNameINS_11MillerIndexEEEEneERKNS_10OptionBaseE
FN:68,71,_ZNK5neml26OptionINS_10TensorNameINS_2R2EEEEneERKNS_10OptionBaseE
FN:68,71,_ZNK5neml26OptionINS_10TensorNameINS_2R3EEEEneERKNS_10OptionBaseE
FN:68,71,_ZNK5neml26OptionINS_10TensorNameINS_2R4EEEEneERKNS_10OptionBaseE
FN:68,71,_ZNK5neml26OptionINS_10TensorNameINS_3RotEEEEneERKNS_10OptionBaseE
FN:68,71,_ZNK5neml26OptionINS_10TensorNameINS_3SR2EEEEneERKNS_10OptionBaseE
FN:68,71,_ZNK5neml26OptionINS_10TensorNameINS_3VecEEEEneERKNS_10OptionBaseE
FN:68,71,_ZNK5neml26OptionINS_10TensorNameINS_3WR2EEEEneERKNS_10OptionBaseE
FN:68,71,_ZNK5neml26OptionINS_10TensorNameINS_4SFR3EEEEneERKNS_10OptionBaseE
FN:68,71,_ZNK5neml26OptionINS_10TensorNameINS_4SSR4EEEEneERKNS_10OptionBaseE
FN:68,71,_ZNK5neml26OptionINS_10TensorNameINS_4SWR4EEEEneERKNS_10OptionBaseE
FN:68,71,_ZNK5neml26OptionINS_10TensorNameINS_4WSR4EEEEneERKNS_10OptionBaseE
FN:68,71,_ZNK5neml26OptionINS_10TensorNameINS_4WWR4EEEEneERKNS_10OptionBaseE
FN:68,71,_ZNK5neml26OptionINS_10TensorNameINS_5SFFR4EEEEneERKNS_10OptionBaseE
FN:68,71,_ZNK5neml26OptionINS_10TensorNameINS_5WFFR4EEEEneERKNS_10OptionBaseE
FN:68,71,_ZNK5neml26OptionINS_10TensorNameINS_6ScalarEEEEneERKNS_10OptionBaseE
FN:68,71,_ZNK5neml26OptionINS_10TensorNameINS_6TensorEEEEneERKNS_10OptionBaseE
FN:68,71,_ZNK5neml26OptionINS_13EnumSelectionEEneERKNS_10OptionBaseE
FN:68,71,_ZNK5neml26OptionINS_18MultiEnumSelectionEEneERKNS_10OptionBaseE
FN:68,71,_ZNK5neml26OptionINS_19LabeledAxisAccessorEEneERKNS_10OptionBaseE
FN:68,71,_ZNK5neml26OptionINSt7__cxx1112basic_stringIcSt11char_traitsIcESaIcEEEEneERKNS_10OptionBaseE
FN:68,71,_ZNK5neml26OptionIPNS_11NEML2ObjectEEneERKNS_10OptionBaseE
FN:68,71,_ZNK5neml26OptionIPNS_7FactoryEEneERKNS_10OptionBaseE
FN:68,71,_ZNK5neml26OptionISt10shared_ptrINS_8SettingsEEEneERKNS_10OptionBaseE
FN:68,71,_ZNK5neml26OptionISt6vectorIN3c1011SmallVectorIlLj8EEESaIS4_EEEneERKNS_10OptionBaseE
FN:68,71,_ZNK5neml26OptionISt6vectorIN3c106DeviceESaIS3_EEEneERKNS_10OptionBaseE
FN:68,71,_ZNK5neml26OptionISt6vectorINS_10TensorNameIN2at6TensorEEESaIS5_EEEneERKNS_10OptionBaseE
FN:68,71,_ZNK5neml26OptionISt6vectorINS_10TensorNameINS_10QuaternionEEESaIS4_EEEneERKNS_10OptionBaseE
FN:68,71,_ZNK5neml26OptionISt6vectorINS_10TensorNameINS_11MillerIndexEEESaIS4_EEEneERKNS_10OptionBaseE
FN:68,71,_ZNK5neml26OptionISt6vectorINS_10TensorNameINS_2R2EEESaIS4_EEEneERKNS_10OptionBaseE
FN:68,71,_ZNK5neml26OptionISt6vectorINS_10TensorNameINS_2R3EEESaIS4_EEEneERKNS_10OptionBaseE
FN:68,71,_ZNK5neml26OptionISt6vectorINS_10TensorNameINS_2R4EEESaIS4_EEEneERKNS_10OptionBaseE
FN:68,71,_ZNK5neml26OptionISt6vectorINS_10TensorNameINS_3RotEEESaIS4_EEEneERKNS_10OptionBaseE
FN:68,71,_ZNK5neml26OptionISt6vectorINS_10TensorNameINS_3SR2EEESaIS4_EEEneERKNS_10OptionBaseE
FN:68,71,_ZNK5neml26OptionISt6vectorINS_10TensorNameINS_3VecEEESaIS4_EEEneERKNS_10OptionBaseE
FN:68,71,_ZNK5neml26OptionISt6vectorINS_10TensorNameINS_3WR2EEESaIS4_EEEneERKNS_10OptionBaseE
FN:68,71,_ZNK5neml26OptionISt6vectorINS_10TensorNameINS_4SFR3EEESaIS4_EEEneERKNS_10OptionBaseE
FN:68,71,_ZNK5neml26OptionISt6vectorINS_10TensorNameINS_4SSR4EEESaIS4_EEEneERKNS_10OptionBaseE
FN:68,71,_ZNK5neml26OptionISt6vectorINS_10TensorNameINS_4SWR4EEESaIS4_EEEneERKNS_10OptionBaseE
FN:68,71,_ZNK5neml26OptionISt6vectorINS_10TensorNameINS_4WSR4EEESaIS4_EEEneERKNS_10OptionBaseE
FN:68,71,_ZNK5neml26OptionISt6vectorINS_10TensorNameINS_4WWR4EEESaIS4_EEEneERKNS_10OptionBaseE
FN:68,71,_ZNK5neml26OptionISt6vectorINS_10TensorNameINS_5SFFR4EEESaIS4_EEEneERKNS_10OptionBaseE
FN:68,71,_ZNK5neml26OptionISt6vectorINS_10TensorNameINS_5WFFR4EEESaIS4_EEEneERKNS_10OptionBaseE
FN:68,71,_ZNK5neml26OptionISt6vectorINS_10TensorNameINS_6ScalarEEESaIS4_EEEneERKNS_10OptionBaseE
FN:68,71,_ZNK5neml26OptionISt6vectorINS_10TensorNameINS_6TensorEEESaIS4_EEEneERKNS_10OptionBaseE
FN:68,71,_ZNK5neml26OptionISt6vectorINS_19LabeledAxisAccessorESaIS2_EEEneERKNS_10OptionBaseE
FN:68,71,_ZNK5neml26OptionISt6vectorINSt7__cxx1112basic_stringIcSt11char_traitsIcESaIcEEESaIS7_EEEneERKNS_10OptionBaseE
FN:68,71,_ZNK5neml26OptionISt6vectorIS1_IN3c1011SmallVectorIlLj8EEESaIS4_EESaIS6_EEEneERKNS_10OptionBaseE
FN:68,71,_ZNK5neml26OptionISt6vectorIS1_IN3c106DeviceESaIS3_EESaIS5_EEEneERKNS_10OptionBaseE
FN:68,71,_ZNK5neml26OptionISt6vectorIS1_INS_10TensorNameIN2at6TensorEEESaIS5_EESaIS7_EEEneERKNS_10OptionBaseE
FN:68,71,_ZNK5neml26OptionISt6vectorIS1_INS_10TensorNameINS_10QuaternionEEESaIS4_EESaIS6_EEEneERKNS_10OptionBaseE
FN:68,71,_ZNK5neml26OptionISt6vectorIS1_INS_10TensorNameINS_11MillerIndexEEESaIS4_EESaIS6_EEEneERKNS_10OptionBaseE
FN:68,71,_ZNK5neml26OptionISt6vectorIS1_INS_10TensorNameINS_2R2EEESaIS4_EESaIS6_EEEneERKNS_10OptionBaseE
FN:68,71,_ZNK5neml26OptionISt6vectorIS1_INS_10TensorNameINS_2R3EEESaIS4_EESaIS6_EEEneERKNS_10OptionBaseE
FN:68,71,_ZNK5neml26OptionISt6vectorIS1_INS_10TensorNameINS_2R4EEESaIS4_EESaIS6_EEEneERKNS_10OptionBaseE
FN:68,71,_ZNK5neml26OptionISt6vectorIS1_INS_10TensorNameINS_3RotEEESaIS4_EESaIS6_EEEneERKNS_10OptionBaseE
FN:68,71,_ZNK5neml26OptionISt6vectorIS1_INS_10TensorNameINS_3SR2EEESaIS4_EESaIS6_EEEneERKNS_10OptionBaseE
FN:68,71,_ZNK5neml26OptionISt6vectorIS1_INS_10TensorNameINS_3VecEEESaIS4_EESaIS6_EEEneERKNS_10OptionBaseE
FN:68,71,_ZNK5neml26OptionISt6vectorIS1_INS_10TensorNameINS_3WR2EEESaIS4_EESaIS6_EEEneERKNS_10OptionBaseE
FN:68,71,_ZNK5neml26OptionISt6vectorIS1_INS_10TensorNameINS_4SFR3EEESaIS4_EESaIS6_EEEneERKNS_10OptionBaseE
FN:68,71,_ZNK5neml26OptionISt6vectorIS1_INS_10TensorNameINS_4SSR4EEESaIS4_EESaIS6_EEEneERKNS_10OptionBaseE
FN:68,71,_ZNK5neml26OptionISt6vectorIS1_INS_10TensorNameINS_4SWR4EEESaIS4_EESaIS6_EEEneERKNS_10OptionBaseE
FN:68,71,_ZNK5neml26OptionISt6vectorIS1_INS_10TensorNameINS_4WSR4EEESaIS4_EESaIS6_EEEneERKNS_10OptionBaseE
FN:68,71,_ZNK5neml26OptionISt6vectorIS1_INS_10TensorNameINS_4WWR4EEESaIS4_EESaIS6_EEEneERKNS_10OptionBaseE
FN:68,71,_ZNK5neml26OptionISt6vectorIS1_INS_10TensorNameINS_5SFFR4EEESaIS4_EESaIS6_EEEneERKNS_10OptionBaseE
FN:68,71,_ZNK5neml26OptionISt6vectorIS1_INS_10TensorNameINS_5WFFR4EEESaIS4_EESaIS6_EEEneERKNS_10OptionBaseE
FN:68,71,_ZNK5neml26OptionISt6vectorIS1_INS_10TensorNameINS_6ScalarEEESaIS4_EESaIS6_EEEneERKNS_10OptionBaseE
FN:68,71,_ZNK5neml26OptionISt6vectorIS1_INS_10TensorNameINS_6TensorEEESaIS4_EESaIS6_EEEneERKNS_10OptionBaseE
FN:68,71,_ZNK5neml26OptionISt6vectorIS1_INS_19LabeledAxisAccessorESaIS2_EESaIS4_EEEneERKNS_10OptionBaseE
FN:68,71,_ZNK5neml26OptionISt6vectorIS1_INSt7__cxx1112basic_stringIcSt11char_traitsIcESaIcEEESaIS7_EESaIS9_EEEneERKNS_10OptionBaseE
FN:68,71,_ZNK5neml26OptionISt6vectorIS1_IbSaIbEESaIS3_EEEneERKNS_10OptionBaseE
FN:68,71,_ZNK5neml26OptionISt6vectorIS1_IdSaIdEESaIS3_EEEneERKNS_10OptionBaseE
FN:68,71,_ZNK5neml26OptionISt6vectorIS1_IiSaIiEESaIS3_EEEneERKNS_10OptionBaseE
FN:68,71,_ZNK5neml26OptionISt6vectorIS1_IjSaIjEESaIS3_EEEneERKNS_10OptionBaseE
FN:68,71,_ZNK5neml26OptionISt6vectorIS1_IlSaIlEESaIS3_EEEneERKNS_10OptionBaseE
FN:68,71,_ZNK5neml26OptionISt6vectorIS1_ImSaImEESaIS3_EEEneERKNS_10OptionBaseE
FN:68,71,_ZNK5neml26OptionISt6vectorIbSaIbEEEneERKNS_10OptionBaseE
FN:68,71,_ZNK5neml26OptionISt6vectorIdSaIdEEEneERKNS_10OptionBaseE
FN:68,71,_ZNK5neml26OptionISt6vectorIiSaIiEEEneERKNS_10OptionBaseE
FN:68,71,_ZNK5neml26OptionISt6vectorIjSaIjEEEneERKNS_10OptionBaseE
FN:68,71,_ZNK5neml26OptionISt6vectorIlSaIlEEEneERKNS_10OptionBaseE
FN:68,71,_ZNK5neml26OptionISt6vectorImSaImEEEneERKNS_10OptionBaseE
FN:68,71,_ZNK5neml26OptionIbEneERKNS_10OptionBaseE
FN:68,71,_ZNK5neml26OptionIdEneERKNS_10OptionBaseE
FN:68,71,_ZNK5neml26OptionIiEneERKNS_10OptionBaseE
FN:68,71,_ZNK5neml26OptionIjEneERKNS_10OptionBaseE
FN:68,71,_ZNK5neml26OptionIlEneERKNS_10OptionBaseE
FN:68,71,_ZNK5neml26OptionImEneERKNS_10OptionBaseE
FN:84,90,_ZNK5neml26OptionIN3c1011SmallVectorIlLj8EEEE5cloneEv
FN:84,90,_ZNK5neml26OptionIN3c106DeviceEE5cloneEv
FN:84,90,_ZNK5neml26OptionINS_10TensorNameIN2at6TensorEEEE5cloneEv
FN:84,90,_ZNK5neml26OptionINS_10TensorNameINS_10QuaternionEEEE5cloneEv
FN:84,90,_ZNK5neml26OptionINS_10TensorNameINS_11MillerIndexEEEE5cloneEv
FN:84,90,_ZNK5neml26OptionINS_10TensorNameINS_2R2EEEE5cloneEv
FN:84,90,_ZNK5neml26OptionINS_10TensorNameINS_2R3EEEE5cloneEv
FN:84,90,_ZNK5neml26OptionINS_10TensorNameINS_2R4EEEE5cloneEv
FN:84,90,_ZNK5neml26OptionINS_10TensorNameINS_3RotEEEE5cloneEv
FN:84,90,_ZNK5neml26OptionINS_10TensorNameINS_3SR2EEEE5cloneEv
FN:84,90,_ZNK5neml26OptionINS_10TensorNameINS_3VecEEEE5cloneEv
FN:84,90,_ZNK5neml26OptionINS_10TensorNameINS_3WR2EEEE5cloneEv
FN:84,90,_ZNK5neml26OptionINS_10TensorNameINS_4SFR3EEEE5cloneEv
FN:84,90,_ZNK5neml26OptionINS_10TensorNameINS_4SSR4EEEE5cloneEv
FN:84,90,_ZNK5neml26OptionINS_10TensorNameINS_4SWR4EEEE5cloneEv
FN:84,90,_ZNK5neml26OptionINS_10TensorNameINS_4WSR4EEEE5cloneEv
FN:84,90,_ZNK5neml26OptionINS_10TensorNameINS_4WWR4EEEE5cloneEv
FN:84,90,_ZNK5neml26OptionINS_10TensorNameINS_5SFFR4EEEE5cloneEv
FN:84,90,_ZNK5neml26OptionINS_10TensorNameINS_5WFFR4EEEE5cloneEv
FN:84,90,_ZNK5neml26OptionINS_10TensorNameINS_6ScalarEEEE5cloneEv
FN:84,90,_ZNK5neml26OptionINS_10TensorNameINS_6TensorEEEE5cloneEv
FN:84,90,_ZNK5neml26OptionINS_13EnumSelectionEE5cloneEv
FN:84,90,_ZNK5neml26OptionINS_18MultiEnumSelectionEE5cloneEv
FN:84,90,_ZNK5neml26OptionINS_19LabeledAxisAccessorEE5cloneEv
FN:84,90,_ZNK5neml26OptionINSt7__cxx1112basic_stringIcSt11char_traitsIcESaIcEEEE5cloneEv
FN:84,90,_ZNK5neml26OptionIPNS_11NEML2ObjectEE5cloneEv
FN:84,90,_ZNK5neml26OptionIPNS_7FactoryEE5cloneEv
FN:84,90,_ZNK5neml26OptionISt10shared_ptrINS_8SettingsEEE5cloneEv
FN:84,90,_ZNK5neml26OptionISt6vectorIN3c1011SmallVectorIlLj8EEESaIS4_EEE5cloneEv
FN:84,90,_ZNK5neml26OptionISt6vectorIN3c106DeviceESaIS3_EEE5cloneEv
FN:84,90,_ZNK5neml26OptionISt6vectorINS_10TensorNameIN2at6TensorEEESaIS5_EEE5cloneEv
FN:84,90,_ZNK5neml26OptionISt6vectorINS_10TensorNameINS_10QuaternionEEESaIS4_EEE5cloneEv
FN:84,90,_ZNK5neml26OptionISt6vectorINS_10TensorNameINS_11MillerIndexEEESaIS4_EEE5cloneEv
FN:84,90,_ZNK5neml26OptionISt6vectorINS_10TensorNameINS_2R2EEESaIS4_EEE5cloneEv
FN:84,90,_ZNK5neml26OptionISt6vectorINS_10TensorNameINS_2R3EEESaIS4_EEE5cloneEv
FN:84,90,_ZNK5neml26OptionISt6vectorINS_10TensorNameINS_2R4EEESaIS4_EEE5cloneEv
FN:84,90,_ZNK5neml26OptionISt6vectorINS_10TensorNameINS_3RotEEESaIS4_EEE5cloneEv
FN:84,90,_ZNK5neml26OptionISt6vectorINS_10TensorNameINS_3SR2EEESaIS4_EEE5cloneEv
FN:84,90,_ZNK5neml26OptionISt6vectorINS_10TensorNameINS_3VecEEESaIS4_EEE5cloneEv
FN:84,90,_ZNK5neml26OptionISt6vectorINS_10TensorNameINS_3WR2EEESaIS4_EEE5cloneEv
FN:84,90,_ZNK5neml26OptionISt6vectorINS_10TensorNameINS_4SFR3EEESaIS4_EEE5cloneEv
FN:84,90,_ZNK5neml26OptionISt6vectorINS_10TensorNameINS_4SSR4EEESaIS4_EEE5cloneEv
FN:84,90,_ZNK5neml26OptionISt6vectorINS_10TensorNameINS_4SWR4EEESaIS4_EEE5cloneEv
FN:84,90,_ZNK5neml26OptionISt6vectorINS_10TensorNameINS_4WSR4EEESaIS4_EEE5cloneEv
FN:84,90,_ZNK5neml26OptionISt6vectorINS_10TensorNameINS_4WWR4EEESaIS4_EEE5cloneEv
FN:84,90,_ZNK5neml26OptionISt6vectorINS_10TensorNameINS_5SFFR4EEESaIS4_EEE5cloneEv
FN:84,90,_ZNK5neml26OptionISt6vectorINS_10TensorNameINS_5WFFR4EEESaIS4_EEE5cloneEv
FN:84,90,_ZNK5neml26OptionISt6vectorINS_10TensorNameINS_6ScalarEEESaIS4_EEE5cloneEv
FN:84,90,_ZNK5neml26OptionISt6vectorINS_10TensorNameINS_6TensorEEESaIS4_EEE5cloneEv
FN:84,90,_ZNK5neml26OptionISt6vectorINS_19LabeledAxisAccessorESaIS2_EEE5cloneEv
FN:84,90,_ZNK5neml26OptionISt6vectorINSt7__cxx1112basic_stringIcSt11char_traitsIcESaIcEEESaIS7_EEE5cloneEv
FN:84,90,_ZNK5neml26OptionISt6vectorIS1_IN3c1011SmallVectorIlLj8EEESaIS4_EESaIS6_EEE5cloneEv
FN:84,90,_ZNK5neml26OptionISt6vectorIS1_IN3c106DeviceESaIS3_EESaIS5_EEE5cloneEv
FN:84,90,_ZNK5neml26OptionISt6vectorIS1_INS_10TensorNameIN2at6TensorEEESaIS5_EESaIS7_EEE5cloneEv
FN:84,90,_ZNK5neml26OptionISt6vectorIS1_INS_10TensorNameINS_10QuaternionEEESaIS4_EESaIS6_EEE5cloneEv
FN:84,90,_ZNK5neml26OptionISt6vectorIS1_INS_10TensorNameINS_11MillerIndexEEESaIS4_EESaIS6_EEE5cloneEv
FN:84,90,_ZNK5neml26OptionISt6vectorIS1_INS_10TensorNameINS_2R2EEESaIS4_EESaIS6_EEE5cloneEv
FN:84,90,_ZNK5neml26OptionISt6vectorIS1_INS_10TensorNameINS_2R3EEESaIS4_EESaIS6_EEE5cloneEv
FN:84,90,_ZNK5neml26OptionISt6vectorIS1_INS_10TensorNameINS_2R4EEESaIS4_EESaIS6_EEE5cloneEv
FN:84,90,_ZNK5neml26OptionISt6vectorIS1_INS_10TensorNameINS_3RotEEESaIS4_EESaIS6_EEE5cloneEv
FN:84,90,_ZNK5neml26OptionISt6vectorIS1_INS_10TensorNameINS_3SR2EEESaIS4_EESaIS6_EEE5cloneEv
FN:84,90,_ZNK5neml26OptionISt6vectorIS1_INS_10TensorNameINS_3VecEEESaIS4_EESaIS6_EEE5cloneEv
FN:84,90,_ZNK5neml26OptionISt6vectorIS1_INS_10TensorNameINS_3WR2EEESaIS4_EESaIS6_EEE5cloneEv
FN:84,90,_ZNK5neml26OptionISt6vectorIS1_INS_10TensorNameINS_4SFR3EEESaIS4_EESaIS6_EEE5cloneEv
FN:84,90,_ZNK5neml26OptionISt6vectorIS1_INS_10TensorNameINS_4SSR4EEESaIS4_EESaIS6_EEE5cloneEv
FN:84,90,_ZNK5neml26OptionISt6vectorIS1_INS_10TensorNameINS_4SWR4EEESaIS4_EESaIS6_EEE5cloneEv
FN:84,90,_ZNK5neml26OptionISt6vectorIS1_INS_10TensorNameINS_4WSR4EEESaIS4_EESaIS6_EEE5cloneEv
FN:84,90,_ZNK5neml26OptionISt6vectorIS1_INS_10TensorNameINS_4WWR4EEESaIS4_EESaIS6_EEE5cloneEv
FN:84,90,_ZNK5neml26OptionISt6vectorIS1_INS_10TensorNameINS_5SFFR4EEESaIS4_EESaIS6_EEE5cloneEv
FN:84,90,_ZNK5neml26OptionISt6vectorIS1_INS_10TensorNameINS_5WFFR4EEESaIS4_EESaIS6_EEE5cloneEv
FN:84,90,_ZNK5neml26OptionISt6vectorIS1_INS_10TensorNameINS_6ScalarEEESaIS4_EESaIS6_EEE5cloneEv
FN:84,90,_ZNK5neml26OptionISt6vectorIS1_INS_10TensorNameINS_6TensorEEESaIS4_EESaIS6_EEE5cloneEv
FN:84,90,_ZNK5neml26OptionISt6vectorIS1_INS_19LabeledAxisAccessorESaIS2_EESaIS4_EEE5cloneEv
FN:84,90,_ZNK5neml26OptionISt6vectorIS1_INSt7__cxx1112basic_stringIcSt11char_traitsIcESaIcEEESaIS7_EESaIS9_EEE5cloneEv
FN:84,90,_ZNK5neml26OptionISt6vectorIS1_IbSaIbEESaIS3_EEE5cloneEv
FN:84,90,_ZNK5neml26OptionISt6vectorIS1_IdSaIdEESaIS3_EEE5cloneEv
FN:84,90,_ZNK5neml26OptionISt6vectorIS1_IiSaIiEESaIS3_EEE5cloneEv
FN:84,90,_ZNK5neml26OptionISt6vectorIS1_IjSaIjEESaIS3_EEE5cloneEv
FN:84,90,_ZNK5neml26OptionISt6vectorIS1_IlSaIlEESaIS3_EEE5cloneEv
FN:84,90,_ZNK5neml26OptionISt6vectorIS1_ImSaImEESaIS3_EEE5cloneEv
FN:84,90,_ZNK5neml26OptionISt6vectorIbSaIbEEE5cloneEv
FN:84,90,_ZNK5neml26OptionISt6vectorIdSaIdEEE5cloneEv
FN:84,90,_ZNK5neml26OptionISt6vectorIiSaIiEEE5cloneEv
FN:84,90,_ZNK5neml26OptionISt6vectorIjSaIjEEE5cloneEv
FN:84,90,_ZNK5neml26OptionISt6vectorIlSaIlEEE5cloneEv
FN:84,90,_ZNK5neml26OptionISt6vectorImSaImEEE5cloneEv
FN:84,90,_ZNK5neml26OptionIbE5cloneEv
FN:84,90,_ZNK5neml26OptionIdE5cloneEv
FN:84,90,_ZNK5neml26OptionIiE5cloneEv
FN:84,90,_ZNK5neml26OptionIjE5cloneEv
FN:84,90,_ZNK5neml26OptionIlE5cloneEv
FN:84,90,_ZNK5neml26OptionImE5cloneEv
FNDA:0,_ZN5neml27details13_print_helperIcEEvRSoPKT_
FNDA:0,_ZN5neml27details13_print_helperIhEEvRSoPKT_
FNDA:0,_ZN5neml27details13_print_helperIbEEvRSoPKSt6vectorIT_SaIS4_EE
FNDA:3885,_ZN5neml26OptionIN3c1011SmallVectorIlLj8EEEEC2ERKNSt7__cxx1112basic_stringIcSt11char_traitsIcESaIcEEE
FNDA:0,_ZN5neml26OptionINS_10TensorNameIN2at6TensorEEEEC2ERKNSt7__cxx1112basic_stringIcSt11char_traitsIcESaIcEEE
FNDA:36,_ZN5neml26OptionINS_10TensorNameINS_10QuaternionEEEEC2ERKNSt7__cxx1112basic_stringIcSt11char_traitsIcESaIcEEE
FNDA:336,_ZN5neml26OptionINS_10TensorNameINS_11MillerIndexEEEEC2ERKNSt7__cxx1112basic_stringIcSt11char_traitsIcESaIcEEE
FNDA:192,_ZN5neml26OptionINS_10TensorNameINS_2R2EEEEC2ERKNSt7__cxx1112basic_stringIcSt11char_traitsIcESaIcEEE
FNDA:36,_ZN5neml26OptionINS_10TensorNameINS_2R3EEEEC2ERKNSt7__cxx1112basic_stringIcSt11char_traitsIcESaIcEEE
FNDA:36,_ZN5neml26OptionINS_10TensorNameINS_2R4EEEEC2ERKNSt7__cxx1112basic_stringIcSt11char_traitsIcESaIcEEE
FNDA:36,_ZN5neml26OptionINS_10TensorNameINS_3RotEEEEC2ERKNSt7__cxx1112basic_stringIcSt11char_traitsIcESaIcEEE
FNDA:409,_ZN5neml26OptionINS_10TensorNameINS_3SR2EEEEC2ERKNSt7__cxx1112basic_stringIcSt11char_traitsIcESaIcEEE
FNDA:218,_ZN5neml26OptionINS_10TensorNameINS_3VecEEEEC2ERKNSt7__cxx1112basic_stringIcSt11char_traitsIcESaIcEEE
FNDA:57,_ZN5neml26OptionINS_10TensorNameINS_3WR2EEEEC2ERKNSt7__cxx1112basic_stringIcSt11char_traitsIcESaIcEEE
FNDA:36,_ZN5neml26OptionINS_10TensorNameINS_4SFR3EEEEC2ERKNSt7__cxx1112basic_stringIcSt11char_traitsIcESaIcEEE
FNDA:67,_ZN5neml26OptionINS_10TensorNameINS_4SSR4EEEEC2ERKNSt7__cxx1112basic_stringIcSt11char_traitsIcESaIcEEE
FNDA:36,_ZN5neml26OptionINS_10TensorNameINS_4SWR4EEEEC2ERKNSt7__cxx1112basic_stringIcSt11char_traitsIcESaIcEEE
FNDA:36,_ZN5neml26OptionINS_10TensorNameINS_4WSR4EEEEC2ERKNSt7__cxx1112basic_stringIcSt11char_traitsIcESaIcEEE
FNDA:36,_ZN5neml26OptionINS_10TensorNameINS_4WWR4EEEEC2ERKNSt7__cxx1112basic_stringIcSt11char_traitsIcESaIcEEE
FNDA:36,_ZN5neml26OptionINS_10TensorNameINS_5SFFR4EEEEC2ERKNSt7__cxx1112basic_stringIcSt11char_traitsIcESaIcEEE
FNDA:36,_ZN5neml26OptionINS_10TensorNameINS_5WFFR4EEEEC2ERKNSt7__cxx1112basic_stringIcSt11char_traitsIcESaIcEEE
FNDA:2779,_ZN5neml26OptionINS_10TensorNameINS_6ScalarEEEEC2ERKNSt7__cxx1112basic_stringIcSt11char_traitsIcESaIcEEE
FNDA:86,_ZN5neml26OptionINS_10TensorNameINS_6TensorEEEEC2ERKNSt7__cxx1112basic_stringIcSt11char_traitsIcESaIcEEE
FNDA:3369,_ZN5neml26OptionINS_13EnumSelectionEEC2ERKNSt7__cxx1112basic_stringIcSt11char_traitsIcESaIcEEE
FNDA:7395,_ZN5neml26OptionINS_18MultiEnumSelectionEEC2ERKNSt7__cxx1112basic_stringIcSt11char_traitsIcESaIcEEE
FNDA:7621,_ZN5neml26OptionINS_19LabeledAxisAccessorEEC2ERKNSt7__cxx1112basic_stringIcSt11char_traitsIcESaIcEEE
FNDA:7428,_ZN5neml26OptionINSt7__cxx1112basic_stringIcSt11char_traitsIcESaIcEEEEC2ERKS6_
FNDA:12964,_ZN5neml26OptionIPNS_11NEML2ObjectEEC2ERKNSt7__cxx1112basic_stringIcSt11char_traitsIcESaIcEEE
FNDA:12399,_ZN5neml26OptionIPNS_7FactoryEEC2ERKNSt7__cxx1112basic_stringIcSt11char_traitsIcESaIcEEE
FNDA:12399,_ZN5neml26OptionISt10shared_ptrINS_8SettingsEEEC2ERKNSt7__cxx1112basic_stringIcSt11char_traitsIcESaIcEEE
FNDA:7283,_ZN5neml26OptionISt6vectorIN3c1011SmallVectorIlLj8EEESaIS4_EEEC2ERKNSt7__cxx1112basic_stringIcSt11char_traitsIcESaIcEEE
FNDA:52,_ZN5neml26OptionISt6vectorIN3c106DeviceESaIS3_EEEC2ERKNSt7__cxx1112basic_stringIcSt11char_traitsIcESaIcEEE
FNDA:0,_ZN5neml26OptionISt6vectorINS_10TensorNameIN2at6TensorEEESaIS5_EEEC2ERKNSt7__cxx1112basic_stringIcSt11char_traitsIcESaIcEEE
FNDA:2066,_ZN5neml26OptionISt6vectorINS_10TensorNameINS_10QuaternionEEESaIS4_EEEC2ERKNSt7__cxx1112basic_stringIcSt11char_traitsIcESaIcEEE
FNDA:2066,_ZN5neml26OptionISt6vectorINS_10TensorNameINS_11MillerIndexEEESaIS4_EEEC2ERKNSt7__cxx1112basic_stringIcSt11char_traitsIcESaIcEEE
FNDA:2066,_ZN5neml26OptionISt6vectorINS_10TensorNameINS_2R2EEESaIS4_EEEC2ERKNSt7__cxx1112basic_stringIcSt11char_traitsIcESaIcEEE
FNDA:2066,_ZN5neml26OptionISt6vectorINS_10TensorNameINS_2R3EEESaIS4_EEEC2ERKNSt7__cxx1112basic_stringIcSt11char_traitsIcESaIcEEE
FNDA:2066,_ZN5neml26OptionISt6vectorINS_10TensorNameINS_2R4EEESaIS4_EEEC2ERKNSt7__cxx1112basic_stringIcSt11char_traitsIcESaIcEEE
FNDA:2066,_ZN5neml26OptionISt6vectorINS_10TensorNameINS_3RotEEESaIS4_EEEC2ERKNSt7__cxx1112basic_stringIcSt11char_traitsIcESaIcEEE
FNDA:2066,_ZN5neml26OptionISt6vectorINS_10TensorNameINS_3SR2EEESaIS4_EEEC2ERKNSt7__cxx1112basic_stringIcSt11char_traitsIcESaIcEEE
FNDA:2066,_ZN5neml26OptionISt6vectorINS_10TensorNameINS_3VecEEESaIS4_EEEC2ERKNSt7__cxx1112basic_stringIcSt11char_traitsIcESaIcEEE
FNDA:2066,_ZN5neml26OptionISt6vectorINS_10TensorNameINS_3WR2EEESaIS4_EEEC2ERKNSt7__cxx1112basic_stringIcSt11char_traitsIcESaIcEEE
FNDA:2066,_ZN5neml26OptionISt6vectorINS_10TensorNameINS_4SFR3EEESaIS4_EEEC2ERKNSt7__cxx1112basic_stringIcSt11char_traitsIcESaIcEEE
FNDA:2066,_ZN5neml26OptionISt6vectorINS_10TensorNameINS_4SSR4EEESaIS4_EEEC2ERKNSt7__cxx1112basic_stringIcSt11char_traitsIcESaIcEEE
FNDA:2066,_ZN5neml26OptionISt6vectorINS_10TensorNameINS_4SWR4EEESaIS4_EEEC2ERKNSt7__cxx1112basic_stringIcSt11char_traitsIcESaIcEEE
FNDA:2066,_ZN5neml26OptionISt6vectorINS_10TensorNameINS_4WSR4EEESaIS4_EEEC2ERKNSt7__cxx1112basic_stringIcSt11char_traitsIcESaIcEEE
FNDA:2066,_ZN5neml26OptionISt6vectorINS_10TensorNameINS_4WWR4EEESaIS4_EEEC2ERKNSt7__cxx1112basic_stringIcSt11char_traitsIcESaIcEEE
FNDA:2066,_ZN5neml26OptionISt6vectorINS_10TensorNameINS_5SFFR4EEESaIS4_EEEC2ERKNSt7__cxx1112basic_stringIcSt11char_traitsIcESaIcEEE
FNDA:2066,_ZN5neml26OptionISt6vectorINS_10TensorNameINS_5WFFR4EEESaIS4_EEEC2ERKNSt7__cxx1112basic_stringIcSt11char_traitsIcESaIcEEE
FNDA:3433,_ZN5neml26OptionISt6vectorINS_10TensorNameINS_6ScalarEEESaIS4_EEEC2ERKNSt7__cxx1112basic_stringIcSt11char_traitsIcESaIcEEE
FNDA:2066,_ZN5neml26OptionISt6vectorINS_10TensorNameINS_6TensorEEESaIS4_EEEC2ERKNSt7__cxx1112basic_stringIcSt11char_traitsIcESaIcEEE
FNDA:37780,_ZN5neml26OptionISt6vectorINS_19LabeledAxisAccessorESaIS2_EEEC2ERKNSt7__cxx1112basic_stringIcSt11char_traitsIcESaIcEEE
FNDA:2923,_ZN5neml26OptionISt6vectorINSt7__cxx1112basic_stringIcSt11char_traitsIcESaIcEEESaIS7_EEEC2ERKS7_
FNDA:36,_ZN5neml26OptionISt6vectorIS1_IN3c1011SmallVectorIlLj8EEESaIS4_EESaIS6_EEEC2ERKNSt7__cxx1112basic_stringIcSt11char_traitsIcESaIcEEE
FNDA:36,_ZN5neml26OptionISt6vectorIS1_IN3c106DeviceESaIS3_EESaIS5_EEEC2ERKNSt7__cxx1112basic_stringIcSt11char_traitsIcESaIcEEE
FNDA:0,_ZN5neml26OptionISt6vectorIS1_INS_10TensorNameIN2at6TensorEEESaIS5_EESaIS7_EEEC2ERKNSt7__cxx1112basic_stringIcSt11char_traitsIcESaIcEEE
FNDA:0,_ZN5neml26OptionISt6vectorIS1_INS_10TensorNameINS_10QuaternionEEESaIS4_EESaIS6_EEEC2ERKNSt7__cxx1112basic_stringIcSt11char_traitsIcESaIcEEE
FNDA:0,_ZN5neml26OptionISt6vectorIS1_INS_10TensorNameINS_11MillerIndexEEESaIS4_EESaIS6_EEEC2ERKNSt7__cxx1112basic_stringIcSt11char_traitsIcESaIcEEE
FNDA:0,_ZN5neml26OptionISt6vectorIS1_INS_10TensorNameINS_2R2EEESaIS4_EESaIS6_EEEC2ERKNSt7__cxx1112basic_stringIcSt11char_traitsIcESaIcEEE
FNDA:0,_ZN5neml26OptionISt6vectorIS1_INS_10TensorNameINS_2R3EEESaIS4_EESaIS6_EEEC2ERKNSt7__cxx1112basic_stringIcSt11char_traitsIcESaIcEEE
FNDA:0,_ZN5neml26OptionISt6vectorIS1_INS_10TensorNameINS_2R4EEESaIS4_EESaIS6_EEEC2ERKNSt7__cxx1112basic_stringIcSt11char_traitsIcESaIcEEE
FNDA:0,_ZN5neml26OptionISt6vectorIS1_INS_10TensorNameINS_3RotEEESaIS4_EESaIS6_EEEC2ERKNSt7__cxx1112basic_stringIcSt11char_traitsIcESaIcEEE
FNDA:0,_ZN5neml26OptionISt6vectorIS1_INS_10TensorNameINS_3SR2EEESaIS4_EESaIS6_EEEC2ERKNSt7__cxx1112basic_stringIcSt11char_traitsIcESaIcEEE
FNDA:0,_ZN5neml26OptionISt6vectorIS1_INS_10TensorNameINS_3VecEEESaIS4_EESaIS6_EEEC2ERKNSt7__cxx1112basic_stringIcSt11char_traitsIcESaIcEEE
FNDA:0,_ZN5neml26OptionISt6vectorIS1_INS_10TensorNameINS_3WR2EEESaIS4_EESaIS6_EEEC2ERKNSt7__cxx1112basic_stringIcSt11char_traitsIcESaIcEEE
FNDA:0,_ZN5neml26OptionISt6vectorIS1_INS_10TensorNameINS_4SFR3EEESaIS4_EESaIS6_EEEC2ERKNSt7__cxx1112basic_stringIcSt11char_traitsIcESaIcEEE
FNDA:0,_ZN5neml26OptionISt6vectorIS1_INS_10TensorNameINS_4SSR4EEESaIS4_EESaIS6_EEEC2ERKNSt7__cxx1112basic_stringIcSt11char_traitsIcESaIcEEE
FNDA:0,_ZN5neml26OptionISt6vectorIS1_INS_10TensorNameINS_4SWR4EEESaIS4_EESaIS6_EEEC2ERKNSt7__cxx1112basic_stringIcSt11char_traitsIcESaIcEEE
FNDA:0,_ZN5neml26OptionISt6vectorIS1_INS_10TensorNameINS_4WSR4EEESaIS4_EESaIS6_EEEC2ERKNSt7__cxx1112basic_stringIcSt11char_traitsIcESaIcEEE
FNDA:0,_ZN5neml26OptionISt6vectorIS1_INS_10TensorNameINS_4WWR4EEESaIS4_EESaIS6_EEEC2ERKNSt7__cxx1112basic_stringIcSt11char_traitsIcESaIcEEE
FNDA:0,_ZN5neml26OptionISt6vectorIS1_INS_10TensorNameINS_5SFFR4EEESaIS4_EESaIS6_EEEC2ERKNSt7__cxx1112basic_stringIcSt11char_traitsIcESaIcEEE
FNDA:0,_ZN5neml26OptionISt6vectorIS1_INS_10TensorNameINS_5WFFR4EEESaIS4_EESaIS6_EEEC2ERKNSt7__cxx1112basic_stringIcSt11char_traitsIcESaIcEEE
FNDA:0,_ZN5neml26OptionISt6vectorIS1_INS_10TensorNameINS_6ScalarEEESaIS4_EESaIS6_EEEC2ERKNSt7__cxx1112basic_stringIcSt11char_traitsIcESaIcEEE
FNDA:0,_ZN5neml26OptionISt6vectorIS1_INS_10TensorNameINS_6TensorEEESaIS4_EESaIS6_EEEC2ERKNSt7__cxx1112basic_stringIcSt11char_traitsIcESaIcEEE
FNDA:0,_ZN5neml26OptionISt6vectorIS1_INS_19LabeledAxisAccessorESaIS2_EESaIS4_EEEC2ERKNSt7__cxx1112basic_stringIcSt11char_traitsIcESaIcEEE
FNDA:36,_ZN5neml26OptionISt6vectorIS1_INSt7__cxx1112basic_stringIcSt11char_traitsIcESaIcEEESaIS7_EESaIS9_EEEC2ERKS7_
FNDA:36,_ZN5neml26OptionISt6vectorIS1_IbSaIbEESaIS3_EEEC2ERKNSt7__cxx1112basic_stringIcSt11char_traitsIcESaIcEEE
FNDA:36,_ZN5neml26OptionISt6vectorIS1_IdSaIdEESaIS3_EEEC2ERKNSt7__cxx1112basic_stringIcSt11char_traitsIcESaIcEEE
FNDA:36,_ZN5neml26OptionISt6vectorIS1_IiSaIiEESaIS3_EEEC2ERKNSt7__cxx1112basic_stringIcSt11char_traitsIcESaIcEEE
FNDA:36,_ZN5neml26OptionISt6vectorIS1_IjSaIjEESaIS3_EEEC2ERKNSt7__cxx1112basic_stringIcSt11char_traitsIcESaIcEEE
FNDA:0,_ZN5neml26OptionISt6vectorIS1_IlSaIlEESaIS3_EEEC2ERKNSt7__cxx1112basic_stringIcSt11char_traitsIcESaIcEEE
FNDA:0,_ZN5neml26OptionISt6vectorIS1_ImSaImEESaIS3_EEEC2ERKNSt7__cxx1112basic_stringIcSt11char_traitsIcESaIcEEE
FNDA:425,_ZN5neml26OptionISt6vectorIbSaIbEEEC2ERKNSt7__cxx1112basic_stringIcSt11char_traitsIcESaIcEEE
FNDA:1440,_ZN5neml26OptionISt6vectorIdSaIdEEEC2ERKNSt7__cxx1112basic_stringIcSt11char_traitsIcESaIcEEE
FNDA:36,_ZN5neml26OptionISt6vectorIiSaIiEEEC2ERKNSt7__cxx1112basic_stringIcSt11char_traitsIcESaIcEEE
FNDA:1686,_ZN5neml26OptionISt6vectorIjSaIjEEEC2ERKNSt7__cxx1112basic_stringIcSt11char_traitsIcESaIcEEE
FNDA:0,_ZN5neml26OptionISt6vectorIlSaIlEEEC2ERKNSt7__cxx1112basic_stringIcSt11char_traitsIcESaIcEEE
FNDA:32,_ZN5neml26OptionISt6vectorImSaImEEEC2ERKNSt7__cxx1112basic_stringIcSt11char_traitsIcESaIcEEE
FNDA:37766,_ZN5neml26OptionIbEC2ERKNSt7__cxx1112basic_stringIcSt11char_traitsIcESaIcEEE
FNDA:13697,_ZN5neml26OptionIdEC2ERKNSt7__cxx1112basic_stringIcSt11char_traitsIcESaIcEEE
FNDA:1686,_ZN5neml26OptionIiEC2ERKNSt7__cxx1112basic_stringIcSt11char_traitsIcESaIcEEE
FNDA:6683,_ZN5neml26OptionIjEC2ERKNSt7__cxx1112basic_stringIcSt11char_traitsIcESaIcEEE
FNDA:2922,_ZN5neml26OptionIlEC2ERKNSt7__cxx1112basic_stringIcSt11char_traitsIcESaIcEEE
FNDA:48,_ZN5neml26OptionImEC2ERKNSt7__cxx1112basic_stringIcSt11char_traitsIcESaIcEEE
FNDA:36,_ZN5neml26OptionIN3c106DeviceEEC2ERKNSt7__cxx1112basic_stringIcSt11char_traitsIcESaIcEEE
FNDA:0,_ZNK5neml26OptionIN3c1011SmallVectorIlLj8EEEEeqERKNS_10OptionBaseE
FNDA:0,_ZNK5neml26OptionIN3c106DeviceEEeqERKNS_10OptionBaseE
FNDA:0,_ZNK5neml26OptionINS_10TensorNameIN2at6TensorEEEEeqERKNS_10OptionBaseE
FNDA:0,_ZNK5neml26OptionINS_10TensorNameINS_10QuaternionEEEEeqERKNS_10OptionBaseE
FNDA:0,_ZNK5neml26OptionINS_10TensorNameINS_11MillerIndexEEEEeqERKNS_10OptionBaseE
FNDA:0,_ZNK5neml26OptionINS_10TensorNameINS_2R2EEEEeqERKNS_10OptionBaseE
FNDA:0,_ZNK5neml26OptionINS_10TensorNameINS_2R3EEEEeqERKNS_10OptionBaseE
FNDA:0,_ZNK5neml26OptionINS_10TensorNameINS_2R4EEEEeqERKNS_10OptionBaseE
FNDA:0,_ZNK5neml26OptionINS_10TensorNameINS_3RotEEEEeqERKNS_10OptionBaseE
FNDA:0,_ZNK5neml26OptionINS_10TensorNameINS_3SR2EEEEeqERKNS_10OptionBaseE
FNDA:0,_ZNK5neml26OptionINS_10TensorNameINS_3VecEEEEeqERKNS_10OptionBaseE
FNDA:0,_ZNK5neml26OptionINS_10TensorNameINS_3WR2EEEEeqERKNS_10OptionBaseE
FNDA:0,_ZNK5neml26OptionINS_10TensorNameINS_4SFR3EEEEeqERKNS_10OptionBaseE
FNDA:0,_ZNK5neml26OptionINS_10TensorNameINS_4SSR4EEEEeqERKNS_10OptionBaseE
FNDA:0,_ZNK5neml26OptionINS_10TensorNameINS_4SWR4EEEEeqERKNS_10OptionBaseE
FNDA:0,_ZNK5neml26OptionINS_10TensorNameINS_4WSR4EEEEeqERKNS_10OptionBaseE
FNDA:0,_ZNK5neml26OptionINS_10TensorNameINS_4WWR4EEEEeqERKNS_10OptionBaseE
FNDA:0,_ZNK5neml26OptionINS_10TensorNameINS_5SFFR4EEEEeqERKNS_10OptionBaseE
FNDA:0,_ZNK5neml26OptionINS_10TensorNameINS_5WFFR4EEEEeqERKNS_10OptionBaseE
FNDA:0,_ZNK5neml26OptionINS_10TensorNameINS_6ScalarEEEEeqERKNS_10OptionBaseE
FNDA:0,_ZNK5neml26OptionINS_10TensorNameINS_6TensorEEEEeqERKNS_10OptionBaseE
FNDA:0,_ZNK5neml26OptionINS_13EnumSelectionEEeqERKNS_10OptionBaseE
FNDA:0,_ZNK5neml26OptionINS_18MultiEnumSelectionEEeqERKNS_10OptionBaseE
FNDA:4,_ZNK5neml26OptionINS_19LabeledAxisAccessorEEeqERKNS_10OptionBaseE
FNDA:4,_ZNK5neml26OptionINSt7__cxx1112basic_stringIcSt11char_traitsIcESaIcEEEEeqERKNS_10OptionBaseE
FNDA:7,_ZNK5neml26OptionIPNS_11NEML2ObjectEEeqERKNS_10OptionBaseE
FNDA:2,_ZNK5neml26OptionIPNS_7FactoryEEeqERKNS_10OptionBaseE
FNDA:2,_ZNK5neml26OptionISt10shared_ptrINS_8SettingsEEEeqERKNS_10OptionBaseE
FNDA:0,_ZNK5neml26OptionISt6vectorIN3c1011SmallVectorIlLj8EEESaIS4_EEEeqERKNS_10OptionBaseE
FNDA:0,_ZNK5neml26OptionISt6vectorIN3c106DeviceESaIS3_EEEeqERKNS_10OptionBaseE
FNDA:0,_ZNK5neml26OptionISt6vectorINS_10TensorNameIN2at6TensorEEESaIS5_EEEeqERKNS_10OptionBaseE
FNDA:0,_ZNK5neml26OptionISt6vectorINS_10TensorNameINS_10QuaternionEEESaIS4_EEEeqERKNS_10OptionBaseE
FNDA:0,_ZNK5neml26OptionISt6vectorINS_10TensorNameINS_11MillerIndexEEESaIS4_EEEeqERKNS_10OptionBaseE
FNDA:0,_ZNK5neml26OptionISt6vectorINS_10TensorNameINS_2R2EEESaIS4_EEEeqERKNS_10OptionBaseE
FNDA:0,_ZNK5neml26OptionISt6vectorINS_10TensorNameINS_2R3EEESaIS4_EEEeqERKNS_10OptionBaseE
FNDA:0,_ZNK5neml26OptionISt6vectorINS_10TensorNameINS_2R4EEESaIS4_EEEeqERKNS_10OptionBaseE
FNDA:0,_ZNK5neml26OptionISt6vectorINS_10TensorNameINS_3RotEEESaIS4_EEEeqERKNS_10OptionBaseE
FNDA:0,_ZNK5neml26OptionISt6vectorINS_10TensorNameINS_3SR2EEESaIS4_EEEeqERKNS_10OptionBaseE
FNDA:0,_ZNK5neml26OptionISt6vectorINS_10TensorNameINS_3VecEEESaIS4_EEEeqERKNS_10OptionBaseE
FNDA:0,_ZNK5neml26OptionISt6vectorINS_10TensorNameINS_3WR2EEESaIS4_EEEeqERKNS_10OptionBaseE
FNDA:0,_ZNK5neml26OptionISt6vectorINS_10TensorNameINS_4SFR3EEESaIS4_EEEeqERKNS_10OptionBaseE
FNDA:0,_ZNK5neml26OptionISt6vectorINS_10TensorNameINS_4SSR4EEESaIS4_EEEeqERKNS_10OptionBaseE
FNDA:0,_ZNK5neml26OptionISt6vectorINS_10TensorNameINS_4SWR4EEESaIS4_EEEeqERKNS_10OptionBaseE
FNDA:0,_ZNK5neml26OptionISt6vectorINS_10TensorNameINS_4WSR4EEESaIS4_EEEeqERKNS_10OptionBaseE
FNDA:0,_ZNK5neml26OptionISt6vectorINS_10TensorNameINS_4WWR4EEESaIS4_EEEeqERKNS_10OptionBaseE
FNDA:0,_ZNK5neml26OptionISt6vectorINS_10TensorNameINS_5SFFR4EEESaIS4_EEEeqERKNS_10OptionBaseE
FNDA:0,_ZNK5neml26OptionISt6vectorINS_10TensorNameINS_5WFFR4EEESaIS4_EEEeqERKNS_10OptionBaseE
FNDA:0,_ZNK5neml26OptionISt6vectorINS_10TensorNameINS_6ScalarEEESaIS4_EEEeqERKNS_10OptionBaseE
FNDA:0,_ZNK5neml26OptionISt6vectorINS_10TensorNameINS_6TensorEEESaIS4_EEEeqERKNS_10OptionBaseE
FNDA:0,_ZNK5neml26OptionISt6vectorINS_19LabeledAxisAccessorESaIS2_EEEeqERKNS_10OptionBaseE
FNDA:0,_ZNK5neml26OptionISt6vectorINSt7__cxx1112basic_stringIcSt11char_traitsIcESaIcEEESaIS7_EEEeqERKNS_10OptionBaseE
FNDA:0,_ZNK5neml26OptionISt6vectorIS1_IN3c1011SmallVectorIlLj8EEESaIS4_EESaIS6_EEEeqERKNS_10OptionBaseE
FNDA:0,_ZNK5neml26OptionISt6vectorIS1_IN3c106DeviceESaIS3_EESaIS5_EEEeqERKNS_10OptionBaseE
FNDA:0,_ZNK5neml26OptionISt6vectorIS1_INS_10TensorNameIN2at6TensorEEESaIS5_EESaIS7_EEEeqERKNS_10OptionBaseE
FNDA:0,_ZNK5neml26OptionISt6vectorIS1_INS_10TensorNameINS_10QuaternionEEESaIS4_EESaIS6_EEEeqERKNS_10OptionBaseE
FNDA:0,_ZNK5neml26OptionISt6vectorIS1_INS_10TensorNameINS_11MillerIndexEEESaIS4_EESaIS6_EEEeqERKNS_10OptionBaseE
FNDA:0,_ZNK5neml26OptionISt6vectorIS1_INS_10TensorNameINS_2R2EEESaIS4_EESaIS6_EEEeqERKNS_10OptionBaseE
FNDA:0,_ZNK5neml26OptionISt6vectorIS1_INS_10TensorNameINS_2R3EEESaIS4_EESaIS6_EEEeqERKNS_10OptionBaseE
FNDA:0,_ZNK5neml26OptionISt6vectorIS1_INS_10TensorNameINS_2R4EEESaIS4_EESaIS6_EEEeqERKNS_10OptionBaseE
FNDA:0,_ZNK5neml26OptionISt6vectorIS1_INS_10TensorNameINS_3RotEEESaIS4_EESaIS6_EEEeqERKNS_10OptionBaseE
FNDA:0,_ZNK5neml26OptionISt6vectorIS1_INS_10TensorNameINS_3SR2EEESaIS4_EESaIS6_EEEeqERKNS_10OptionBaseE
FNDA:0,_ZNK5neml26OptionISt6vectorIS1_INS_10TensorNameINS_3VecEEESaIS4_EESaIS6_EEEeqERKNS_10OptionBaseE
FNDA:0,_ZNK5neml26OptionISt6vectorIS1_INS_10TensorNameINS_3WR2EEESaIS4_EESaIS6_EEEeqERKNS_10OptionBaseE
FNDA:0,_ZNK5neml26OptionISt6vectorIS1_INS_10TensorNameINS_4SFR3EEESaIS4_EESaIS6_EEEeqERKNS_10OptionBaseE
FNDA:0,_ZNK5neml26OptionISt6vectorIS1_INS_10TensorNameINS_4SSR4EEESaIS4_EESaIS6_EEEeqERKNS_10OptionBaseE
FNDA:0,_ZNK5neml26OptionISt6vectorIS1_INS_10TensorNameINS_4SWR4EEESaIS4_EESaIS6_EEEeqERKNS_10OptionBaseE
FNDA:0,_ZNK5neml26OptionISt6vectorIS1_INS_10TensorNameINS_4WSR4EEESaIS4_EESaIS6_EEEeqERKNS_10OptionBaseE
FNDA:0,_ZNK5neml26OptionISt6vectorIS1_INS_10TensorNameINS_4WWR4EEESaIS4_EESaIS6_EEEeqERKNS_10OptionBaseE
FNDA:0,_ZNK5neml26OptionISt6vectorIS1_INS_10TensorNameINS_5SFFR4EEESaIS4_EESaIS6_EEEeqERKNS_10OptionBaseE
FNDA:0,_ZNK5neml26OptionISt6vectorIS1_INS_10TensorNameINS_5WFFR4EEESaIS4_EESaIS6_EEEeqERKNS_10OptionBaseE
FNDA:0,_ZNK5neml26OptionISt6vectorIS1_INS_10TensorNameINS_6ScalarEEESaIS4_EESaIS6_EEEeqERKNS_10OptionBaseE
FNDA:0,_ZNK5neml26OptionISt6vectorIS1_INS_10TensorNameINS_6TensorEEESaIS4_EESaIS6_EEEeqERKNS_10OptionBaseE
FNDA:0,_ZNK5neml26OptionISt6vectorIS1_INS_19LabeledAxisAccessorESaIS2_EESaIS4_EEEeqERKNS_10OptionBaseE
FNDA:0,_ZNK5neml26OptionISt6vectorIS1_INSt7__cxx1112basic_stringIcSt11char_traitsIcESaIcEEESaIS7_EESaIS9_EEEeqERKNS_10OptionBaseE
FNDA:0,_ZNK5neml26OptionISt6vectorIS1_IbSaIbEESaIS3_EEEeqERKNS_10OptionBaseE
FNDA:0,_ZNK5neml26OptionISt6vectorIS1_IdSaIdEESaIS3_EEEeqERKNS_10OptionBaseE
FNDA:0,_ZNK5neml26OptionISt6vectorIS1_IiSaIiEESaIS3_EEEeqERKNS_10OptionBaseE
FNDA:0,_ZNK5neml26OptionISt6vectorIS1_IjSaIjEESaIS3_EEEeqERKNS_10OptionBaseE
FNDA:0,_ZNK5neml26OptionISt6vectorIS1_IlSaIlEESaIS3_EEEeqERKNS_10OptionBaseE
FNDA:0,_ZNK5neml26OptionISt6vectorIS1_ImSaImEESaIS3_EEEeqERKNS_10OptionBaseE
FNDA:0,_ZNK5neml26OptionISt6vectorIbSaIbEEEeqERKNS_10OptionBaseE
FNDA:0,_ZNK5neml26OptionISt6vectorIdSaIdEEEeqERKNS_10OptionBaseE
FNDA:0,_ZNK5neml26OptionISt6vectorIiSaIiEEEeqERKNS_10OptionBaseE
FNDA:0,_ZNK5neml26OptionISt6vectorIjSaIjEEEeqERKNS_10OptionBaseE
FNDA:0,_ZNK5neml26OptionISt6vectorIlSaIlEEEeqERKNS_10OptionBaseE
FNDA:0,_ZNK5neml26OptionISt6vectorImSaImEEEeqERKNS_10OptionBaseE
FNDA:14,_ZNK5neml26OptionIbEeqERKNS_10OptionBaseE
FNDA:2,_ZNK5neml26OptionIdEeqERKNS_10OptionBaseE
FNDA:0,_ZNK5neml26OptionIiEeqERKNS_10OptionBaseE
FNDA:2,_ZNK5neml26OptionIjEeqERKNS_10OptionBaseE
FNDA:0,_ZNK5neml26OptionIlEeqERKNS_10OptionBaseE
FNDA:0,_ZNK5neml26OptionImEeqERKNS_10OptionBaseE
FNDA:0,_ZNK5neml26OptionIN3c1011SmallVectorIlLj8EEEEneERKNS_10OptionBaseE
FNDA:0,_ZNK5neml26OptionIN3c106DeviceEEneERKNS_10OptionBaseE
FNDA:0,_ZNK5neml26OptionINS_10TensorNameIN2at6TensorEEEEneERKNS_10OptionBaseE
FNDA:0,_ZNK5neml26OptionINS_10TensorNameINS_10QuaternionEEEEneERKNS_10OptionBaseE
FNDA:0,_ZNK5neml26OptionINS_10TensorNameINS_11MillerIndexEEEEneERKNS_10OptionBaseE
FNDA:0,_ZNK5neml26OptionINS_10TensorNameINS_2R2EEEEneERKNS_10OptionBaseE
FNDA:0,_ZNK5neml26OptionINS_10TensorNameINS_2R3EEEEneERKNS_10OptionBaseE
FNDA:0,_ZNK5neml26OptionINS_10TensorNameINS_2R4EEEEneERKNS_10OptionBaseE
FNDA:0,_ZNK5neml26OptionINS_10TensorNameINS_3RotEEEEneERKNS_10OptionBaseE
FNDA:0,_ZNK5neml26OptionINS_10TensorNameINS_3SR2EEEEneERKNS_10OptionBaseE
FNDA:0,_ZNK5neml26OptionINS_10TensorNameINS_3VecEEEEneERKNS_10OptionBaseE
FNDA:0,_ZNK5neml26OptionINS_10TensorNameINS_3WR2EEEEneERKNS_10OptionBaseE
FNDA:0,_ZNK5neml26OptionINS_10TensorNameINS_4SFR3EEEEneERKNS_10OptionBaseE
FNDA:0,_ZNK5neml26OptionINS_10TensorNameINS_4SSR4EEEEneERKNS_10OptionBaseE
FNDA:0,_ZNK5neml26OptionINS_10TensorNameINS_4SWR4EEEEneERKNS_10OptionBaseE
FNDA:0,_ZNK5neml26OptionINS_10TensorNameINS_4WSR4EEEEneERKNS_10OptionBaseE
FNDA:0,_ZNK5neml26OptionINS_10TensorNameINS_4WWR4EEEEneERKNS_10OptionBaseE
FNDA:0,_ZNK5neml26OptionINS_10TensorNameINS_5SFFR4EEEEneERKNS_10OptionBaseE
FNDA:0,_ZNK5neml26OptionINS_10TensorNameINS_5WFFR4EEEEneERKNS_10OptionBaseE
FNDA:0,_ZNK5neml26OptionINS_10TensorNameINS_6ScalarEEEEneERKNS_10OptionBaseE
FNDA:0,_ZNK5neml26OptionINS_10TensorNameINS_6TensorEEEEneERKNS_10OptionBaseE
FNDA:0,_ZNK5neml26OptionINS_13EnumSelectionEEneERKNS_10OptionBaseE
FNDA:0,_ZNK5neml26OptionINS_18MultiEnumSelectionEEneERKNS_10OptionBaseE
FNDA:4,_ZNK5neml26OptionINS_19LabeledAxisAccessorEEneERKNS_10OptionBaseE
FNDA:4,_ZNK5neml26OptionINSt7__cxx1112basic_stringIcSt11char_traitsIcESaIcEEEEneERKNS_10OptionBaseE
FNDA:7,_ZNK5neml26OptionIPNS_11NEML2ObjectEEneERKNS_10OptionBaseE
FNDA:2,_ZNK5neml26OptionIPNS_7FactoryEEneERKNS_10OptionBaseE
FNDA:2,_ZNK5neml26OptionISt10shared_ptrINS_8SettingsEEEneERKNS_10OptionBaseE
FNDA:0,_ZNK5neml26OptionISt6vectorIN3c1011SmallVectorIlLj8EEESaIS4_EEEneERKNS_10OptionBaseE
FNDA:0,_ZNK5neml26OptionISt6vectorIN3c106DeviceESaIS3_EEEneERKNS_10OptionBaseE
FNDA:0,_ZNK5neml26OptionISt6vectorINS_10TensorNameIN2at6TensorEEESaIS5_EEEneERKNS_10OptionBaseE
FNDA:0,_ZNK5neml26OptionISt6vectorINS_10TensorNameINS_10QuaternionEEESaIS4_EEEneERKNS_10OptionBaseE
FNDA:0,_ZNK5neml26OptionISt6vectorINS_10TensorNameINS_11MillerIndexEEESaIS4_EEEneERKNS_10OptionBaseE
FNDA:0,_ZNK5neml26OptionISt6vectorINS_10TensorNameINS_2R2EEESaIS4_EEEneERKNS_10OptionBaseE
FNDA:0,_ZNK5neml26OptionISt6vectorINS_10TensorNameINS_2R3EEESaIS4_EEEneERKNS_10OptionBaseE
FNDA:0,_ZNK5neml26OptionISt6vectorINS_10TensorNameINS_2R4EEESaIS4_EEEneERKNS_10OptionBaseE
FNDA:0,_ZNK5neml26OptionISt6vectorINS_10TensorNameINS_3RotEEESaIS4_EEEneERKNS_10OptionBaseE
FNDA:0,_ZNK5neml26OptionISt6vectorINS_10TensorNameINS_3SR2EEESaIS4_EEEneERKNS_10OptionBaseE
FNDA:0,_ZNK5neml26OptionISt6vectorINS_10TensorNameINS_3VecEEESaIS4_EEEneERKNS_10OptionBaseE
FNDA:0,_ZNK5neml26OptionISt6vectorINS_10TensorNameINS_3WR2EEESaIS4_EEEneERKNS_10OptionBaseE
FNDA:0,_ZNK5neml26OptionISt6vectorINS_10TensorNameINS_4SFR3EEESaIS4_EEEneERKNS_10OptionBaseE
FNDA:0,_ZNK5neml26OptionISt6vectorINS_10TensorNameINS_4SSR4EEESaIS4_EEEneERKNS_10OptionBaseE
FNDA:0,_ZNK5neml26OptionISt6vectorINS_10TensorNameINS_4SWR4EEESaIS4_EEEneERKNS_10OptionBaseE
FNDA:0,_ZNK5neml26OptionISt6vectorINS_10TensorNameINS_4WSR4EEESaIS4_EEEneERKNS_10OptionBaseE
FNDA:0,_ZNK5neml26OptionISt6vectorINS_10TensorNameINS_4WWR4EEESaIS4_EEEneERKNS_10OptionBaseE
FNDA:0,_ZNK5neml26OptionISt6vectorINS_10TensorNameINS_5SFFR4EEESaIS4_EEEneERKNS_10OptionBaseE
FNDA:0,_ZNK5neml26OptionISt6vectorINS_10TensorNameINS_5WFFR4EEESaIS4_EEEneERKNS_10OptionBaseE
FNDA:0,_ZNK5neml26OptionISt6vectorINS_10TensorNameINS_6ScalarEEESaIS4_EEEneERKNS_10OptionBaseE
FNDA:0,_ZNK5neml26OptionISt6vectorINS_10TensorNameINS_6TensorEEESaIS4_EEEneERKNS_10OptionBaseE
FNDA:0,_ZNK5neml26OptionISt6vectorINS_19LabeledAxisAccessorESaIS2_EEEneERKNS_10OptionBaseE
FNDA:0,_ZNK5neml26OptionISt6vectorINSt7__cxx1112basic_stringIcSt11char_traitsIcESaIcEEESaIS7_EEEneERKNS_10OptionBaseE
FNDA:0,_ZNK5neml26OptionISt6vectorIS1_IN3c1011SmallVectorIlLj8EEESaIS4_EESaIS6_EEEneERKNS_10OptionBaseE
FNDA:0,_ZNK5neml26OptionISt6vectorIS1_IN3c106DeviceESaIS3_EESaIS5_EEEneERKNS_10OptionBaseE
FNDA:0,_ZNK5neml26OptionISt6vectorIS1_INS_10TensorNameIN2at6TensorEEESaIS5_EESaIS7_EEEneERKNS_10OptionBaseE
FNDA:0,_ZNK5neml26OptionISt6vectorIS1_INS_10TensorNameINS_10QuaternionEEESaIS4_EESaIS6_EEEneERKNS_10OptionBaseE
FNDA:0,_ZNK5neml26OptionISt6vectorIS1_INS_10TensorNameINS_11MillerIndexEEESaIS4_EESaIS6_EEEneERKNS_10OptionBaseE
FNDA:0,_ZNK5neml26OptionISt6vectorIS1_INS_10TensorNameINS_2R2EEESaIS4_EESaIS6_EEEneERKNS_10OptionBaseE
FNDA:0,_ZNK5neml26OptionISt6vectorIS1_INS_10TensorNameINS_2R3EEESaIS4_EESaIS6_EEEneERKNS_10OptionBaseE
FNDA:0,_ZNK5neml26OptionISt6vectorIS1_INS_10TensorNameINS_2R4EEESaIS4_EESaIS6_EEEneERKNS_10OptionBaseE
FNDA:0,_ZNK5neml26OptionISt6vectorIS1_INS_10TensorNameINS_3RotEEESaIS4_EESaIS6_EEEneERKNS_10OptionBaseE
FNDA:0,_ZNK5neml26OptionISt6vectorIS1_INS_10TensorNameINS_3SR2EEESaIS4_EESaIS6_EEEneERKNS_10OptionBaseE
FNDA:0,_ZNK5neml26OptionISt6vectorIS1_INS_10TensorNameINS_3VecEEESaIS4_EESaIS6_EEEneERKNS_10OptionBaseE
FNDA:0,_ZNK5neml26OptionISt6vectorIS1_INS_10TensorNameINS_3WR2EEESaIS4_EESaIS6_EEEneERKNS_10OptionBaseE
FNDA:0,_ZNK5neml26OptionISt6vectorIS1_INS_10TensorNameINS_4SFR3EEESaIS4_EESaIS6_EEEneERKNS_10OptionBaseE
FNDA:0,_ZNK5neml26OptionISt6vectorIS1_INS_10TensorNameINS_4SSR4EEESaIS4_EESaIS6_EEEneERKNS_10OptionBaseE
FNDA:0,_ZNK5neml26OptionISt6vectorIS1_INS_10TensorNameINS_4SWR4EEESaIS4_EESaIS6_EEEneERKNS_10OptionBaseE
FNDA:0,_ZNK5neml26OptionISt6vectorIS1_INS_10TensorNameINS_4WSR4EEESaIS4_EESaIS6_EEEneERKNS_10OptionBaseE
FNDA:0,_ZNK5neml26OptionISt6vectorIS1_INS_10TensorNameINS_4WWR4EEESaIS4_EESaIS6_EEEneERKNS_10OptionBaseE
FNDA:0,_ZNK5neml26OptionISt6vectorIS1_INS_10TensorNameINS_5SFFR4EEESaIS4_EESaIS6_EEEneERKNS_10OptionBaseE
FNDA:0,_ZNK5neml26OptionISt6vectorIS1_INS_10TensorNameINS_5WFFR4EEESaIS4_EESaIS6_EEEneERKNS_10OptionBaseE
FNDA:0,_ZNK5neml26OptionISt6vectorIS1_INS_10TensorNameINS_6ScalarEEESaIS4_EESaIS6_EEEneERKNS_10OptionBaseE
FNDA:0,_ZNK5neml26OptionISt6vectorIS1_INS_10TensorNameINS_6TensorEEESaIS4_EESaIS6_EEEneERKNS_10OptionBaseE
FNDA:0,_ZNK5neml26OptionISt6vectorIS1_INS_19LabeledAxisAccessorESaIS2_EESaIS4_EEEneERKNS_10OptionBaseE
FNDA:0,_ZNK5neml26OptionISt6vectorIS1_INSt7__cxx1112basic_stringIcSt11char_traitsIcESaIcEEESaIS7_EESaIS9_EEEneERKNS_10OptionBaseE
FNDA:0,_ZNK5neml26OptionISt6vectorIS1_IbSaIbEESaIS3_EEEneERKNS_10OptionBaseE
FNDA:0,_ZNK5neml26OptionISt6vectorIS1_IdSaIdEESaIS3_EEEneERKNS_10OptionBaseE
FNDA:0,_ZNK5neml26OptionISt6vectorIS1_IiSaIiEESaIS3_EEEneERKNS_10OptionBaseE
FNDA:0,_ZNK5neml26OptionISt6vectorIS1_IjSaIjEESaIS3_EEEneERKNS_10OptionBaseE
FNDA:0,_ZNK5neml26OptionISt6vectorIS1_IlSaIlEESaIS3_EEEneERKNS_10OptionBaseE
FNDA:0,_ZNK5neml26OptionISt6vectorIS1_ImSaImEESaIS3_EEEneERKNS_10OptionBaseE
FNDA:0,_ZNK5neml26OptionISt6vectorIbSaIbEEEneERKNS_10OptionBaseE
FNDA:0,_ZNK5neml26OptionISt6vectorIdSaIdEEEneERKNS_10OptionBaseE
FNDA:0,_ZNK5neml26OptionISt6vectorIiSaIiEEEneERKNS_10OptionBaseE
FNDA:0,_ZNK5neml26OptionISt6vectorIjSaIjEEEneERKNS_10OptionBaseE
FNDA:0,_ZNK5neml26OptionISt6vectorIlSaIlEEEneERKNS_10OptionBaseE
FNDA:0,_ZNK5neml26OptionISt6vectorImSaImEEEneERKNS_10OptionBaseE
FNDA:14,_ZNK5neml26OptionIbEneERKNS_10OptionBaseE
FNDA:2,_ZNK5neml26OptionIdEneERKNS_10OptionBaseE
FNDA:0,_ZNK5neml26OptionIiEneERKNS_10OptionBaseE
FNDA:2,_ZNK5neml26OptionIjEneERKNS_10OptionBaseE
FNDA:0,_ZNK5neml26OptionIlEneERKNS_10OptionBaseE
FNDA:0,_ZNK5neml26OptionImEneERKNS_10OptionBaseE
FNDA:3597,_ZNK5neml26OptionIN3c1011SmallVectorIlLj8EEEE5cloneEv
FNDA:34,_ZNK5neml26OptionIN3c106DeviceEE5cloneEv
FNDA:0,_ZNK5neml26OptionINS_10TensorNameIN2at6TensorEEEE5cloneEv
FNDA:24,_ZNK5neml26OptionINS_10TensorNameINS_10QuaternionEEEE5cloneEv
FNDA:316,_ZNK5neml26OptionINS_10TensorNameINS_11MillerIndexEEEE5cloneEv
FNDA:174,_ZNK5neml26OptionINS_10TensorNameINS_2R2EEEE5cloneEv
FNDA:24,_ZNK5neml26OptionINS_10TensorNameINS_2R3EEEE5cloneEv
FNDA:24,_ZNK5neml26OptionINS_10TensorNameINS_2R4EEEE5cloneEv
FNDA:24,_ZNK5neml26OptionINS_10TensorNameINS_3RotEEEE5cloneEv
FNDA:375,_ZNK5neml26OptionINS_10TensorNameINS_3SR2EEEE5cloneEv
FNDA:198,_ZNK5neml26OptionINS_10TensorNameINS_3VecEEEE5cloneEv
FNDA:43,_ZNK5neml26OptionINS_10TensorNameINS_3WR2EEEE5cloneEv
FNDA:24,_ZNK5neml26OptionINS_10TensorNameINS_4SFR3EEEE5cloneEv
FNDA:53,_ZNK5neml26OptionINS_10TensorNameINS_4SSR4EEEE5cloneEv
FNDA:24,_ZNK5neml26OptionINS_10TensorNameINS_4SWR4EEEE5cloneEv
FNDA:24,_ZNK5neml26OptionINS_10TensorNameINS_4WSR4EEEE5cloneEv
FNDA:24,_ZNK5neml26OptionINS_10TensorNameINS_4WWR4EEEE5cloneEv
FNDA:24,_ZNK5neml26OptionINS_10TensorNameINS_5SFFR4EEEE5cloneEv
FNDA:24,_ZNK5neml26OptionINS_10TensorNameINS_5WFFR4EEEE5cloneEv
FNDA:2538,_ZNK5neml26OptionINS_10TensorNameINS_6ScalarEEEE5cloneEv
FNDA:64,_ZNK5neml26OptionINS_10TensorNameINS_6TensorEEEE5cloneEv
FNDA:3262,_ZNK5neml26OptionINS_13EnumSelectionEE5cloneEv
FNDA:7115,_ZNK5neml26OptionINS_18MultiEnumSelectionEE5cloneEv
FNDA:6438,_ZNK5neml26OptionINS_19LabeledAxisAccessorEE5cloneEv
FNDA:6046,_ZNK5neml26OptionINSt7__cxx1112basic_stringIcSt11char_traitsIcESaIcEEEE5cloneEv
FNDA:11781,_ZNK5neml26OptionIPNS_11NEML2ObjectEE5cloneEv
FNDA:11501,_ZNK5neml26OptionIPNS_7FactoryEE5cloneEv
FNDA:11501,_ZNK5neml26OptionISt10shared_ptrINS_8SettingsEEE5cloneEv
FNDA:7003,_ZNK5neml26OptionISt6vectorIN3c1011SmallVectorIlLj8EEESaIS4_EEE5cloneEv
FNDA:44,_ZNK5neml26OptionISt6vectorIN3c106DeviceESaIS3_EEE5cloneEv
FNDA:0,_ZNK5neml26OptionISt6vectorINS_10TensorNameIN2at6TensorEEESaIS5_EEE5cloneEv
FNDA:2044,_ZNK5neml26OptionISt6vectorINS_10TensorNameINS_10QuaternionEEESaIS4_EEE5cloneEv
FNDA:2044,_ZNK5neml26OptionISt6vectorINS_10TensorNameINS_11MillerIndexEEESaIS4_EEE5cloneEv
FNDA:2044,_ZNK5neml26OptionISt6vectorINS_10TensorNameINS_2R2EEESaIS4_EEE5cloneEv
FNDA:2044,_ZNK5neml26OptionISt6vectorINS_10TensorNameINS_2R3EEESaIS4_EEE5cloneEv
FNDA:2044,_ZNK5neml26OptionISt6vectorINS_10TensorNameINS_2R4EEESaIS4_EEE5cloneEv
FNDA:2044,_ZNK5neml26OptionISt6vectorINS_10TensorNameINS_3RotEEESaIS4_EEE5cloneEv
FNDA:2044,_ZNK5neml26OptionISt6vectorINS_10TensorNameINS_3SR2EEESaIS4_EEE5cloneEv
FNDA:2044,_ZNK5neml26OptionISt6vectorINS_10TensorNameINS_3VecEEESaIS4_EEE5cloneEv
FNDA:2044,_ZNK5neml26OptionISt6vectorINS_10TensorNameINS_3WR2EEESaIS4_EEE5cloneEv
FNDA:2044,_ZNK5neml26OptionISt6vectorINS_10TensorNameINS_4SFR3EEESaIS4_EEE5cloneEv
FNDA:2044,_ZNK5neml26OptionISt6vectorINS_10TensorNameINS_4SSR4EEESaIS4_EEE5cloneEv
FNDA:2044,_ZNK5neml26OptionISt6vectorINS_10TensorNameINS_4SWR4EEESaIS4_EEE5cloneEv
FNDA:2044,_ZNK5neml26OptionISt6vectorINS_10TensorNameINS_4WSR4EEESaIS4_EEE5cloneEv
FNDA:2044,_ZNK5neml26OptionISt6vectorINS_10TensorNameINS_4WWR4EEESaIS4_EEE5cloneEv
FNDA:2044,_ZNK5neml26OptionISt6vectorINS_10TensorNameINS_5SFFR4EEESaIS4_EEE5cloneEv
FNDA:2044,_ZNK5neml26OptionISt6vectorINS_10TensorNameINS_5WFFR4EEESaIS4_EEE5cloneEv
FNDA:3382,_ZNK5neml26OptionISt6vectorINS_10TensorNameINS_6ScalarEEESaIS4_EEE5cloneEv
FNDA:2044,_ZNK5neml26OptionISt6vectorINS_10TensorNameINS_6TensorEEESaIS4_EEE5cloneEv
FNDA:37393,_ZNK5neml26OptionISt6vectorINS_19LabeledAxisAccessorESaIS2_EEE5cloneEv
FNDA:2537,_ZNK5neml26OptionISt6vectorINSt7__cxx1112basic_stringIcSt11char_traitsIcESaIcEEESaIS7_EEE5cloneEv
FNDA:34,_ZNK5neml26OptionISt6vectorIS1_IN3c1011SmallVectorIlLj8EEESaIS4_EESaIS6_EEE5cloneEv
FNDA:34,_ZNK5neml26OptionISt6vectorIS1_IN3c106DeviceESaIS3_EESaIS5_EEE5cloneEv
FNDA:0,_ZNK5neml26OptionISt6vectorIS1_INS_10TensorNameIN2at6TensorEEESaIS5_EESaIS7_EEE5cloneEv
FNDA:0,_ZNK5neml26OptionISt6vectorIS1_INS_10TensorNameINS_10QuaternionEEESaIS4_EESaIS6_EEE5cloneEv
FNDA:0,_ZNK5neml26OptionISt6vectorIS1_INS_10TensorNameINS_11MillerIndexEEESaIS4_EESaIS6_EEE5cloneEv
FNDA:0,_ZNK5neml26OptionISt6vectorIS1_INS_10TensorNameINS_2R2EEESaIS4_EESaIS6_EEE5cloneEv
FNDA:0,_ZNK5neml26OptionISt6vectorIS1_INS_10TensorNameINS_2R3EEESaIS4_EESaIS6_EEE5cloneEv
FNDA:0,_ZNK5neml26OptionISt6vectorIS1_INS_10TensorNameINS_2R4EEESaIS4_EESaIS6_EEE5cloneEv
FNDA:0,_ZNK5neml26OptionISt6vectorIS1_INS_10TensorNameINS_3RotEEESaIS4_EESaIS6_EEE5cloneEv
FNDA:0,_ZNK5neml26OptionISt6vectorIS1_INS_10TensorNameINS_3SR2EEESaIS4_EESaIS6_EEE5cloneEv
FNDA:0,_ZNK5neml26OptionISt6vectorIS1_INS_10TensorNameINS_3VecEEESaIS4_EESaIS6_EEE5cloneEv
FNDA:0,_ZNK5neml26OptionISt6vectorIS1_INS_10TensorNameINS_3WR2EEESaIS4_EESaIS6_EEE5cloneEv
FNDA:0,_ZNK5neml26OptionISt6vectorIS1_INS_10TensorNameINS_4SFR3EEESaIS4_EESaIS6_EEE5cloneEv
FNDA:0,_ZNK5neml26OptionISt6vectorIS1_INS_10TensorNameINS_4SSR4EEESaIS4_EESaIS6_EEE5cloneEv
FNDA:0,_ZNK5neml26OptionISt6vectorIS1_INS_10TensorNameINS_4SWR4EEESaIS4_EESaIS6_EEE5cloneEv
FNDA:0,_ZNK5neml26OptionISt6vectorIS1_INS_10TensorNameINS_4WSR4EEESaIS4_EESaIS6_EEE5cloneEv
FNDA:0,_ZNK5neml26OptionISt6vectorIS1_INS_10TensorNameINS_4WWR4EEESaIS4_EESaIS6_EEE5cloneEv
FNDA:0,_ZNK5neml26OptionISt6vectorIS1_INS_10TensorNameINS_5SFFR4EEESaIS4_EESaIS6_EEE5cloneEv
FNDA:0,_ZNK5neml26OptionISt6vectorIS1_INS_10TensorNameINS_5WFFR4EEESaIS4_EESaIS6_EEE5cloneEv
FNDA:0,_ZNK5neml26OptionISt6vectorIS1_INS_10TensorNameINS_6ScalarEEESaIS4_EESaIS6_EEE5cloneEv
FNDA:0,_ZNK5neml26OptionISt6vectorIS1_INS_10TensorNameINS_6TensorEEESaIS4_EESaIS6_EEE5cloneEv
FNDA:0,_ZNK5neml26OptionISt6vectorIS1_INS_19LabeledAxisAccessorESaIS2_EESaIS4_EEE5cloneEv
FNDA:34,_ZNK5neml26OptionISt6vectorIS1_INSt7__cxx1112basic_stringIcSt11char_traitsIcESaIcEEESaIS7_EESaIS9_EEE5cloneEv
FNDA:34,_ZNK5neml26OptionISt6vectorIS1_IbSaIbEESaIS3_EEE5cloneEv
FNDA:34,_ZNK5neml26OptionISt6vectorIS1_IdSaIdEESaIS3_EEE5cloneEv
FNDA:34,_ZNK5neml26OptionISt6vectorIS1_IiSaIiEESaIS3_EEE5cloneEv
FNDA:34,_ZNK5neml26OptionISt6vectorIS1_IjSaIjEESaIS3_EEE5cloneEv
FNDA:0,_ZNK5neml26OptionISt6vectorIS1_IlSaIlEESaIS3_EEE5cloneEv
FNDA:0,_ZNK5neml26OptionISt6vectorIS1_ImSaImEESaIS3_EEE5cloneEv
FNDA:402,_ZNK5neml26OptionISt6vectorIbSaIbEEE5cloneEv
FNDA:1391,_ZNK5neml26OptionISt6vectorIdSaIdEEE5cloneEv
FNDA:34,_ZNK5neml26OptionISt6vectorIiSaIiEEE5cloneEv
FNDA:1676,_ZNK5neml26OptionISt6vectorIjSaIjEEE5cloneEv
FNDA:0,_ZNK5neml26OptionISt6vectorIlSaIlEEE5cloneEv
FNDA:20,_ZNK5neml26OptionISt6vectorImSaImEEE5cloneEv
FNDA:32757,_ZNK5neml26OptionIbE5cloneEv
FNDA:12808,_ZNK5neml26OptionIdE5cloneEv
FNDA:1676,_ZNK5neml26OptionIiE5cloneEv
FNDA:5916,_ZNK5neml26OptionIjE5cloneEv
FNDA:2612,_ZNK5neml26OptionIlE5cloneEv
FNDA:26,_ZNK5neml26OptionImE5cloneEv
FNF:371
FNH:150
DA:40,225230
DA:41,225230
DA:43,225230
DA:44,225230
DA:45,225230
DA:48,36
DA:49,36
DA:51,36
DA:52,36
DA:53,36
DA:57,37
DA:59,37
DA:60,37
DA:61,0
DA:63,37
DA:68,37
DA:70,37
DA:84,209939
DA:86,209939
DA:87,209939
DA:88,209939
DA:89,419878
DA:90,209939
DA:153,0
DA:155,0
DA:156,0
DA:160,0
DA:162,0
DA:163,0
DA:167,0
DA:169,0
DA:170,0
DA:171,0
LF:33
LH:22
end_of_record
TN:
SF:/home/runner/work/neml2/neml2/src/neml2/base/OptionBase.cxx
FN:30,34,_ZN5neml2lsERSoRKNS_10OptionBaseE
FNDA:0,_ZN5neml2lsERSoRKNS_10OptionBaseE
FNF:1
FNH:0
DA:30,0
DA:32,0
DA:33,0
LF:3
LH:0
end_of_record
TN:
SF:/home/runner/work/neml2/neml2/src/neml2/base/OptionSet.cxx
FN:100,103,_ZN5neml29OptionSet5clearEv
FN:105,105,_ZN5neml29OptionSetC2ERKS0_
FN:107,107,_ZN5neml29OptionSetC2EOS0_
FN:110,116,_ZN5neml29OptionSetaSERKS0_
FN:119,125,_ZN5neml29OptionSetaSEOS0_
FN:128,132,_ZN5neml29OptionSetpLERKS0_
FN:135,139,_ZN5neml29OptionSetpLEOS0_
FN:189,192,_ZN5neml29OptionSet5beginB5cxx11Ev
FN:195,198,_ZNK5neml29OptionSet5beginB5cxx11Ev
FN:201,204,_ZN5neml29OptionSet3endB5cxx11Ev
FN:207,210,_ZNK5neml29OptionSet3endB5cxx11Ev
FN:34,44,_ZN5neml218options_compatibleERKNS_9OptionSetES2_
FN:47,50,_ZNK5neml29OptionSet8containsERKNSt7__cxx1112basic_stringIcSt11char_traitsIcESaIcEEE
FN:53,61,_ZNK5neml29OptionSet14user_specifiedERKNSt7__cxx1112basic_stringIcSt11char_traitsIcESaIcEEE
FN:64,73,_ZNK5neml29OptionSet3getERKNSt7__cxx1112basic_stringIcSt11char_traitsIcESaIcEEE
FN:76,85,_ZN5neml29OptionSet3setERKNSt7__cxx1112basic_stringIcSt11char_traitsIcESaIcEEE
FN:88,91,_ZN5neml29OptionSet9set_inputERKNSt7__cxx1112basic_stringIcSt11char_traitsIcESaIcEEE
FN:94,97,_ZN5neml29OptionSet10set_outputERKNSt7__cxx1112basic_stringIcSt11char_traitsIcESaIcEEE
FNDA:11502,_ZN5neml29OptionSet5clearEv
FNDA:8324,_ZN5neml29OptionSetC2ERKS0_
FNDA:0,_ZN5neml29OptionSetC2EOS0_
FNDA:10630,_ZN5neml29OptionSetaSERKS0_
FNDA:872,_ZN5neml29OptionSetaSEOS0_
FNDA:12942,_ZN5neml29OptionSetpLERKS0_
FNDA:600,_ZN5neml29OptionSetpLEOS0_
FNDA:5390,_ZN5neml29OptionSet5beginB5cxx11Ev
FNDA:7,_ZNK5neml29OptionSet5beginB5cxx11Ev
FNDA:5390,_ZN5neml29OptionSet3endB5cxx11Ev
FNDA:7,_ZNK5neml29OptionSet3endB5cxx11Ev
FNDA:7,_ZN5neml218options_compatibleERKNS_9OptionSetES2_
FNDA:80438,_ZNK5neml29OptionSet8containsERKNSt7__cxx1112basic_stringIcSt11char_traitsIcESaIcEEE
FNDA:3478,_ZNK5neml29OptionSet14user_specifiedERKNSt7__cxx1112basic_stringIcSt11char_traitsIcESaIcEEE
FNDA:356,_ZNK5neml29OptionSet3getERKNSt7__cxx1112basic_stringIcSt11char_traitsIcESaIcEEE
FNDA:15992,_ZN5neml29OptionSet3setERKNSt7__cxx1112basic_stringIcSt11char_traitsIcESaIcEEE
FNDA:616,_ZN5neml29OptionSet9set_inputERKNSt7__cxx1112basic_stringIcSt11char_traitsIcESaIcEEE
FNDA:499,_ZN5neml29OptionSet10set_outputERKNSt7__cxx1112basic_stringIcSt11char_traitsIcESaIcEEE
FNF:18
FNH:17
DA:34,7
DA:36,44
DA:38,37
DA:39,0
DA:40,37
DA:41,0
DA:43,7
DA:47,80438
DA:49,80438
DA:53,3478
DA:55,3478
DA:60,3478
DA:64,356
DA:66,356
DA:72,356
DA:76,15992
DA:78,15992
DA:84,15992
DA:88,616
DA:90,616
DA:94,499
DA:96,499
DA:100,11502
DA:102,11502
DA:103,11502
DA:105,8324
DA:107,0
DA:110,10630
DA:112,10630
DA:113,10630
DA:114,10630
DA:115,10630
DA:119,872
DA:121,872
DA:122,872
DA:123,872
DA:124,872
DA:128,12942
DA:130,221091
DA:131,208149
DA:132,12942
DA:135,600
DA:137,2390
DA:138,1790
DA:139,600
DA:189,5390
DA:191,5390
DA:195,7
DA:197,7
DA:201,5390
DA:203,5390
DA:207,7
DA:209,7
LF:53
LH:50
end_of_record
TN:
SF:/home/runner/work/neml2/neml2/src/neml2/base/Parser.cxx
FN:109,112,_ZN5neml25utils5parseIN3c106DeviceEEET_RKNSt7__cxx1112basic_stringIcSt11char_traitsIcESaIcEEE
FN:116,130,_ZN5neml25utils6parse_IN3c106DeviceEEEbRT_RKNSt7__cxx1112basic_stringIcSt11char_traitsIcESaIcEEE
FN:39,59,_ZN5neml25utils6parse_IbEEbRT_RKNSt7__cxx1112basic_stringIcSt11char_traitsIcESaIcEEE
FN:63,76,_ZN5neml25utils13parse_vector_IbEEbRSt6vectorIT_SaIS3_EERKNSt7__cxx1112basic_stringIcSt11char_traitsIcESaIcEEE
FN:80,85,_ZN5neml25utils6parse_INS_19LabeledAxisAccessorEEEbRT_RKNSt7__cxx1112basic_stringIcSt11char_traitsIcESaIcEEE
FN:89,105,_ZN5neml25utils6parse_IN3c1011SmallVectorIlLj8EEEEEbRT_RKNSt7__cxx1112basic_stringIcSt11char_traitsIcESaIcEEE
FNDA:0,_ZN5neml25utils5parseIN3c106DeviceEEET_RKNSt7__cxx1112basic_stringIcSt11char_traitsIcESaIcEEE
FNDA:90,_ZN5neml25utils6parse_IN3c106DeviceEEEbRT_RKNSt7__cxx1112basic_stringIcSt11char_traitsIcESaIcEEE
FNDA:466,_ZN5neml25utils6parse_IbEEbRT_RKNSt7__cxx1112basic_stringIcSt11char_traitsIcESaIcEEE
FNDA:55,_ZN5neml25utils13parse_vector_IbEEbRSt6vectorIT_SaIS3_EERKNSt7__cxx1112basic_stringIcSt11char_traitsIcESaIcEEE
FNDA:1187,_ZN5neml25utils6parse_INS_19LabeledAxisAccessorEEEbRT_RKNSt7__cxx1112basic_stringIcSt11char_traitsIcESaIcEEE
FNDA:295,_ZN5neml25utils6parse_IN3c1011SmallVectorIlLj8EEEEEbRT_RKNSt7__cxx1112basic_stringIcSt11char_traitsIcESaIcEEE
FNF:6
FNH:5
DA:39,466
DA:41,466
DA:42,466
DA:43,466
DA:44,0
DA:46,466
DA:48,331
DA:49,331
DA:52,135
DA:54,134
DA:55,134
DA:58,1
DA:59,466
DA:63,55
DA:65,55
DA:66,55
DA:67,205
DA:69,150
DA:70,150
DA:71,150
DA:72,0
DA:73,150
DA:75,55
DA:76,55
DA:80,1187
DA:82,1187
DA:83,1187
DA:84,1187
DA:85,1187
DA:89,295
DA:91,295
DA:92,1
DA:94,588
DA:95,294
DA:97,294
DA:98,745
DA:100,451
DA:101,451
DA:102,0
DA:104,294
DA:105,294
DA:109,0
DA:111,0
DA:116,90
DA:118,90
DA:121,90
DA:122,90
DA:124,0
DA:127,0
DA:128,0
DA:129,0
DA:130,90
LF:52
LH:43
end_of_record
TN:
SF:/home/runner/work/neml2/neml2/src/neml2/base/Registry.cxx
FN:36,40,_ZN5neml28Registry3getEv
FN:43,67,_ZN5neml28Registry4loadERKNSt10filesystem7__cxx114pathE
FN:70,73,_ZN5neml28Registry4infoB5cxx11Ev
FN:76,84,_ZN5neml28Registry4infoERKNSt7__cxx1112basic_stringIcSt11char_traitsIcESaIcEEE
FN:87,98,_ZN5neml28Registry9add_innerERKNSt7__cxx1112basic_stringIcSt11char_traitsIcESaIcEEES8_RKNS_9OptionSetEPFSt10shared_ptrINS_11NEML2ObjectEESB_E
FNDA:4558,_ZN5neml28Registry3getEv
FNDA:2,_ZN5neml28Registry4loadERKNSt10filesystem7__cxx114pathE
FNDA:2,_ZN5neml28Registry4infoB5cxx11Ev
FNDA:3748,_ZN5neml28Registry4infoERKNSt7__cxx1112basic_stringIcSt11char_traitsIcESaIcEEE
FNDA:807,_ZN5neml28Registry9add_innerERKNSt7__cxx1112basic_stringIcSt11char_traitsIcESaIcEEES8_RKNS_9OptionSetEPFSt10shared_ptrINS_11NEML2ObjectEESB_E
FNF:5
FNH:5
DA:36,4558
DA:38,4558
DA:39,4558
DA:43,2
DA:48,2
DA:51,2
DA:52,2
DA:53,2
DA:54,4
DA:56,2
DA:59,2
DA:60,2
DA:62,2
DA:66,2
DA:67,2
DA:70,2
DA:72,2
DA:76,3748
DA:78,3748
DA:79,3748
DA:80,3748
DA:83,3748
DA:87,807
DA:92,807
DA:93,807
DA:97,807
DA:98,807
LF:27
LH:27
end_of_record
TN:
SF:/home/runner/work/neml2/neml2/src/neml2/base/Settings.cxx
FN:32,71,_ZN5neml28Settings16expected_optionsEv
FN:73,83,_ZN5neml28SettingsC2ERKNS_9OptionSetE
FNDA:331,_ZN5neml28Settings16expected_optionsEv
FNDA:331,_ZN5neml28SettingsC2ERKNS_9OptionSetE
FNF:2
FNH:2
DA:32,331
DA:34,331
DA:35,331
DA:36,331
DA:38,662
DA:40,662
DA:41,993
DA:43,331
DA:45,662
DA:46,993
DA:48,331
DA:50,662
DA:51,993
DA:54,331
DA:56,662
DA:57,993
DA:61,331
DA:63,662
DA:64,662
DA:68,331
DA:70,331
DA:71,0
DA:73,331
DA:74,662
DA:75,662
DA:76,662
DA:77,662
DA:78,331
DA:81,332
DA:82,1
DA:83,331
LF:31
LH:30
end_of_record
TN:
SF:/home/runner/work/neml2/neml2/src/neml2/base/TensorName.cxx
FN:36,76,_ZNK5neml210TensorNameINS_10QuaternionEE7resolveEPNS_7FactoryE
FN:36,76,_ZNK5neml210TensorNameINS_11MillerIndexEE7resolveEPNS_7FactoryE
FN:36,76,_ZNK5neml210TensorNameINS_2R2EE7resolveEPNS_7FactoryE
FN:36,76,_ZNK5neml210TensorNameINS_2R3EE7resolveEPNS_7FactoryE
FN:36,76,_ZNK5neml210TensorNameINS_2R4EE7resolveEPNS_7FactoryE
FN:36,76,_ZNK5neml210TensorNameINS_3RotEE7resolveEPNS_7FactoryE
FN:36,76,_ZNK5neml210TensorNameINS_3SR2EE7resolveEPNS_7FactoryE
FN:36,76,_ZNK5neml210TensorNameINS_3VecEE7resolveEPNS_7FactoryE
FN:36,76,_ZNK5neml210TensorNameINS_3WR2EE7resolveEPNS_7FactoryE
FN:36,76,_ZNK5neml210TensorNameINS_4SFR3EE7resolveEPNS_7FactoryE
FN:36,76,_ZNK5neml210TensorNameINS_4SSR4EE7resolveEPNS_7FactoryE
FN:36,76,_ZNK5neml210TensorNameINS_4SWR4EE7resolveEPNS_7FactoryE
FN:36,76,_ZNK5neml210TensorNameINS_4WSR4EE7resolveEPNS_7FactoryE
FN:36,76,_ZNK5neml210TensorNameINS_4WWR4EE7resolveEPNS_7FactoryE
FN:36,76,_ZNK5neml210TensorNameINS_5SFFR4EE7resolveEPNS_7FactoryE
FN:36,76,_ZNK5neml210TensorNameINS_5WFFR4EE7resolveEPNS_7FactoryE
FN:36,76,_ZNK5neml210TensorNameINS_6ScalarEE7resolveEPNS_7FactoryE
FN:36,76,_ZNK5neml210TensorNameINS_6TensorEE7resolveEPNS_7FactoryE
FN:80,86,_ZNK5neml210TensorNameINS_10QuaternionEE14resolve_numberEd
FN:80,86,_ZNK5neml210TensorNameINS_11MillerIndexEE14resolve_numberEd
FN:80,86,_ZNK5neml210TensorNameINS_2R2EE14resolve_numberEd
FN:80,86,_ZNK5neml210TensorNameINS_2R3EE14resolve_numberEd
FN:80,86,_ZNK5neml210TensorNameINS_2R4EE14resolve_numberEd
FN:80,86,_ZNK5neml210TensorNameINS_3RotEE14resolve_numberEd
FN:80,86,_ZNK5neml210TensorNameINS_3SR2EE14resolve_numberEd
FN:80,86,_ZNK5neml210TensorNameINS_3VecEE14resolve_numberEd
FN:80,86,_ZNK5neml210TensorNameINS_3WR2EE14resolve_numberEd
FN:80,86,_ZNK5neml210TensorNameINS_4SFR3EE14resolve_numberEd
FN:80,86,_ZNK5neml210TensorNameINS_4SSR4EE14resolve_numberEd
FN:80,86,_ZNK5neml210TensorNameINS_4SWR4EE14resolve_numberEd
FN:80,86,_ZNK5neml210TensorNameINS_4WSR4EE14resolve_numberEd
FN:80,86,_ZNK5neml210TensorNameINS_4WWR4EE14resolve_numberEd
FN:80,86,_ZNK5neml210TensorNameINS_5SFFR4EE14resolve_numberEd
FN:80,86,_ZNK5neml210TensorNameINS_5WFFR4EE14resolve_numberEd
FN:80,86,_ZNK5neml210TensorNameINS_6ScalarEE14resolve_numberEd
FN:80,86,_ZNK5neml210TensorNameINS_6TensorEE14resolve_numberEd
FNDA:0,_ZNK5neml210TensorNameINS_10QuaternionEE7resolveEPNS_7FactoryE
FNDA:108,_ZNK5neml210TensorNameINS_11MillerIndexEE7resolveEPNS_7FactoryE
FNDA:36,_ZNK5neml210TensorNameINS_2R2EE7resolveEPNS_7FactoryE
FNDA:0,_ZNK5neml210TensorNameINS_2R3EE7resolveEPNS_7FactoryE
FNDA:0,_ZNK5neml210TensorNameINS_2R4EE7resolveEPNS_7FactoryE
FNDA:17,_ZNK5neml210TensorNameINS_3RotEE7resolveEPNS_7FactoryE
FNDA:174,_ZNK5neml210TensorNameINS_3SR2EE7resolveEPNS_7FactoryE
FNDA:17,_ZNK5neml210TensorNameINS_3VecEE7resolveEPNS_7FactoryE
FNDA:11,_ZNK5neml210TensorNameINS_3WR2EE7resolveEPNS_7FactoryE
FNDA:0,_ZNK5neml210TensorNameINS_4SFR3EE7resolveEPNS_7FactoryE
FNDA:11,_ZNK5neml210TensorNameINS_4SSR4EE7resolveEPNS_7FactoryE
FNDA:0,_ZNK5neml210TensorNameINS_4SWR4EE7resolveEPNS_7FactoryE
FNDA:0,_ZNK5neml210TensorNameINS_4WSR4EE7resolveEPNS_7FactoryE
FNDA:0,_ZNK5neml210TensorNameINS_4WWR4EE7resolveEPNS_7FactoryE
FNDA:0,_ZNK5neml210TensorNameINS_5SFFR4EE7resolveEPNS_7FactoryE
FNDA:0,_ZNK5neml210TensorNameINS_5WFFR4EE7resolveEPNS_7FactoryE
FNDA:1967,_ZNK5neml210TensorNameINS_6ScalarEE7resolveEPNS_7FactoryE
FNDA:6,_ZNK5neml210TensorNameINS_6TensorEE7resolveEPNS_7FactoryE
FNDA:0,_ZNK5neml210TensorNameINS_10QuaternionEE14resolve_numberEd
FNDA:0,_ZNK5neml210TensorNameINS_11MillerIndexEE14resolve_numberEd
FNDA:1,_ZNK5neml210TensorNameINS_2R2EE14resolve_numberEd
FNDA:0,_ZNK5neml210TensorNameINS_2R3EE14resolve_numberEd
FNDA:0,_ZNK5neml210TensorNameINS_2R4EE14resolve_numberEd
FNDA:0,_ZNK5neml210TensorNameINS_3RotEE14resolve_numberEd
FNDA:17,_ZNK5neml210TensorNameINS_3SR2EE14resolve_numberEd
FNDA:0,_ZNK5neml210TensorNameINS_3VecEE14resolve_numberEd
FNDA:0,_ZNK5neml210TensorNameINS_3WR2EE14resolve_numberEd
FNDA:0,_ZNK5neml210TensorNameINS_4SFR3EE14resolve_numberEd
FNDA:0,_ZNK5neml210TensorNameINS_4SSR4EE14resolve_numberEd
FNDA:0,_ZNK5neml210TensorNameINS_4SWR4EE14resolve_numberEd
FNDA:0,_ZNK5neml210TensorNameINS_4WSR4EE14resolve_numberEd
FNDA:0,_ZNK5neml210TensorNameINS_4WWR4EE14resolve_numberEd
FNDA:0,_ZNK5neml210TensorNameINS_5SFFR4EE14resolve_numberEd
FNDA:0,_ZNK5neml210TensorNameINS_5WFFR4EE14resolve_numberEd
FNDA:1624,_ZNK5neml210TensorNameINS_6ScalarEE14resolve_numberEd
FNDA:1,_ZNK5neml210TensorNameINS_6TensorEE14resolve_numberEd
FNF:36
FNH:13
DA:36,2347
DA:39,2347
DA:40,11
DA:41,2336
DA:42,2336
DA:43,2336
DA:44,1643
DA:47,693
DA:48,6
DA:50,687
DA:51,0
DA:53,0
DA:57,2140
DA:58,608
DA:60,158
DA:62,79
DA:63,316
DA:65,79
DA:66,79
DA:70,237
DA:71,0
DA:74,79
DA:75,79
DA:80,1643
DA:83,1
DA:85,1642
LF:26
LH:23
end_of_record
TN:
SF:/home/runner/work/neml2/neml2/src/neml2/base/TracingInterface.cxx
FN:106,114,_ZN5neml211TraceWriter20trace_duration_beginERKNSt7__cxx1112basic_stringIcSt11char_traitsIcESaIcEEES8_RKN8nlohmann16json_abi_v3_11_310basic_jsonISt3mapSt6vectorS6_blmdSaNSA_14adl_serializerESD_IhSaIhEEvEEj
FN:117,125,_ZN5neml211TraceWriter18trace_duration_endERKNSt7__cxx1112basic_stringIcSt11char_traitsIcESaIcEEES8_RKN8nlohmann16json_abi_v3_11_310basic_jsonISt3mapSt6vectorS6_blmdSaNSA_14adl_serializerESD_IhSaIhEEvEEj
FN:128,138,_ZN5neml211TraceWriter13trace_instantERKNSt7__cxx1112basic_stringIcSt11char_traitsIcESaIcEEES8_RKN8nlohmann16json_abi_v3_11_310basic_jsonISt3mapSt6vectorS6_blmdSaNSA_14adl_serializerESD_IhSaIhEEvEES8_j
FN:142,149,_ZN5neml216TracingInterface16expected_optionsEv
FN:151,155,_ZN5neml216TracingInterfaceC2ENSt7__cxx1112basic_stringIcSt11char_traitsIcESaIcEEE
FN:157,160,_ZN5neml216TracingInterfaceC2ERKNS_9OptionSetE
FN:163,183,_ZN5neml216TracingInterface11init_writerENSt7__cxx1112basic_stringIcSt11char_traitsIcESaIcEEE
FN:186,191,_ZNK5neml216TracingInterface18event_trace_writerEv
FN:36,40,_ZN5neml219event_trace_writersB5cxx11Ev
FN:42,60,_ZN5neml211TraceWriterC2ERKNSt10filesystem7__cxx114pathE
FN:62,72,_ZN5neml211TraceWriterD2Ev
FN:76,93,_ZN5neml211TraceWriter18write_event_commonERN8nlohmann16json_abi_v3_11_310basic_jsonISt3mapSt6vectorNSt7__cxx1112basic_stringIcSt11char_traitsIcESaIcEEEblmdSaNS2_14adl_serializerES5_IhSaIhEEvEERKSB_SI_RKSF_SI_j
FN:96,103,_ZN5neml211TraceWriter10dump_eventERKN8nlohmann16json_abi_v3_11_310basic_jsonISt3mapSt6vectorNSt7__cxx1112basic_stringIcSt11char_traitsIcESaIcEEEblmdSaNS2_14adl_serializerES5_IhSaIhEEvEEb
FNDA:7,_ZN5neml211TraceWriter20trace_duration_beginERKNSt7__cxx1112basic_stringIcSt11char_traitsIcESaIcEEES8_RKN8nlohmann16json_abi_v3_11_310basic_jsonISt3mapSt6vectorS6_blmdSaNSA_14adl_serializerESD_IhSaIhEEvEEj
FNDA:4,_ZN5neml211TraceWriter18trace_duration_endERKNSt7__cxx1112basic_stringIcSt11char_traitsIcESaIcEEES8_RKN8nlohmann16json_abi_v3_11_310basic_jsonISt3mapSt6vectorS6_blmdSaNSA_14adl_serializerESD_IhSaIhEEvEEj
FNDA:4,_ZN5neml211TraceWriter13trace_instantERKNSt7__cxx1112basic_stringIcSt11char_traitsIcESaIcEEES8_RKN8nlohmann16json_abi_v3_11_310basic_jsonISt3mapSt6vectorS6_blmdSaNSA_14adl_serializerESD_IhSaIhEEvEES8_j
FNDA:17,_ZN5neml216TracingInterface16expected_optionsEv
FNDA:15,_ZN5neml216TracingInterfaceC2ENSt7__cxx1112basic_stringIcSt11char_traitsIcESaIcEEE
FNDA:11,_ZN5neml216TracingInterfaceC2ERKNS_9OptionSetE
FNDA:4,_ZN5neml216TracingInterface11init_writerENSt7__cxx1112basic_stringIcSt11char_traitsIcESaIcEEE
FNDA:4,_ZNK5neml216TracingInterface18event_trace_writerEv
FNDA:8,_ZN5neml219event_trace_writersB5cxx11Ev
FNDA:3,_ZN5neml211TraceWriterC2ERKNSt10filesystem7__cxx114pathE
FNDA:3,_ZN5neml211TraceWriterD2Ev
FNDA:18,_ZN5neml211TraceWriter18write_event_commonERN8nlohmann16json_abi_v3_11_310basic_jsonISt3mapSt6vectorNSt7__cxx1112basic_stringIcSt11char_traitsIcESaIcEEEblmdSaNS2_14adl_serializerES5_IhSaIhEEvEERKSB_SI_RKSF_SI_j
FNDA:18,_ZN5neml211TraceWriter10dump_eventERKN8nlohmann16json_abi_v3_11_310basic_jsonISt3mapSt6vectorNSt7__cxx1112basic_stringIcSt11char_traitsIcESaIcEEEblmdSaNS2_14adl_serializerES5_IhSaIhEEvEEb
FNF:13
FNH:13
DA:36,8
DA:38,8
DA:39,8
DA:42,3
DA:43,3
DA:44,3
DA:48,3
DA:49,3
DA:50,3
DA:55,3
DA:56,3
DA:58,24
DA:60,15
DA:62,6
DA:65,3
DA:66,24
DA:67,3
DA:68,3
DA:69,3
DA:70,3
DA:72,15
DA:76,18
DA:83,18
DA:84,18
DA:85,18
DA:86,36
DA:87,18
DA:88,36
DA:89,18
DA:90,18
DA:91,36
DA:92,18
DA:93,18
DA:96,18
DA:98,18
DA:99,18
DA:100,18
DA:101,15
DA:102,18
DA:103,18
DA:106,7
DA:111,7
DA:112,7
DA:113,7
DA:114,7
DA:117,4
DA:122,4
DA:123,4
DA:124,4
DA:125,4
DA:128,4
DA:134,4
DA:135,4
DA:136,4
DA:137,4
DA:138,4
DA:142,17
DA:144,17
DA:145,34
DA:146,34
DA:147,17
DA:148,17
DA:149,0
DA:151,15
DA:152,30
DA:153,15
DA:155,15
DA:157,11
DA:158,11
DA:160,11
DA:163,4
DA:170,4
DA:172,4
DA:173,4
DA:174,4
DA:175,4
DA:176,1
DA:179,3
DA:180,3
DA:181,3
DA:182,3
DA:183,4
DA:186,4
DA:188,4
DA:189,4
DA:190,4
LF:86
LH:85
end_of_record
TN:
SF:/home/runner/work/neml2/neml2/src/neml2/dispatchers/SimpleMPIScheduler.cxx
FN:111,130,_ZN5neml218SimpleMPIScheduler19determine_my_deviceEv
FN:133,141,_ZNK5neml218SimpleMPIScheduler18schedule_work_implERN3c106DeviceERm
FN:144,147,_ZN5neml218SimpleMPIScheduler20dispatched_work_implEN3c106DeviceEm
FN:150,154,_ZN5neml218SimpleMPIScheduler19completed_work_implEN3c106DeviceEm
FN:157,160,_ZNK5neml218SimpleMPIScheduler18all_work_completedEv
FN:37,53,_ZN5neml218SimpleMPIScheduler16expected_optionsEv
FN:55,69,_ZN5neml218SimpleMPISchedulerC2ERKNS_9OptionSetE
FN:72,108,_ZN5neml218SimpleMPIScheduler5setupEv
FNDA:0,_ZN5neml218SimpleMPIScheduler19determine_my_deviceEv
FNDA:0,_ZNK5neml218SimpleMPIScheduler18schedule_work_implERN3c106DeviceERm
FNDA:0,_ZN5neml218SimpleMPIScheduler20dispatched_work_implEN3c106DeviceEm
FNDA:0,_ZN5neml218SimpleMPIScheduler19completed_work_implEN3c106DeviceEm
FNDA:0,_ZNK5neml218SimpleMPIScheduler18all_work_completedEv
FNDA:2,_ZN5neml218SimpleMPIScheduler16expected_optionsEv
FNDA:0,_ZN5neml218SimpleMPISchedulerC2ERKNS_9OptionSetE
FNDA:0,_ZN5neml218SimpleMPIScheduler5setupEv
FNF:8
FNH:1
DA:37,2
DA:39,2
DA:40,2
DA:41,2
DA:43,4
DA:44,4
DA:46,4
DA:47,2
DA:49,6
DA:50,2
DA:52,2
DA:53,0
DA:55,0
DA:57,0
DA:58,0
DA:59,0
DA:60,0
DA:61,0
DA:62,0
DA:64,0
DA:66,0
DA:67,0
DA:69,0
DA:72,0
DA:74,0
DA:79,0
DA:80,0
DA:82,0
DA:83,0
DA:84,0
DA:86,0
DA:92,0
DA:93,0
DA:95,0
DA:96,0
DA:98,0
DA:99,0
DA:100,0
DA:103,0
DA:105,0
DA:107,0
DA:108,0
DA:111,0
DA:115,0
DA:116,0
DA:117,0
DA:120,0
DA:123,0
DA:124,0
DA:126,0
DA:127,0
DA:130,0
DA:133,0
DA:135,0
DA:136,0
DA:138,0
DA:139,0
DA:140,0
DA:144,0
DA:146,0
DA:147,0
DA:150,0
DA:152,0
DA:153,0
DA:154,0
DA:157,0
DA:159,0
LF:67
LH:11
end_of_record
TN:
SF:/home/runner/work/neml2/neml2/src/neml2/dispatchers/SimpleScheduler.cxx
FN:34,50,_ZN5neml215SimpleScheduler16expected_optionsEv
FN:52,59,_ZN5neml215SimpleSchedulerC2ERKNS_9OptionSetE
FN:62,70,_ZNK5neml215SimpleScheduler18schedule_work_implERN3c106DeviceERm
FN:73,76,_ZN5neml215SimpleScheduler20dispatched_work_implEN3c106DeviceEm
FN:79,83,_ZN5neml215SimpleScheduler19completed_work_implEN3c106DeviceEm
FN:86,89,_ZNK5neml215SimpleScheduler18all_work_completedEv
FNDA:11,_ZN5neml215SimpleScheduler16expected_optionsEv
FNDA:9,_ZN5neml215SimpleSchedulerC2ERKNS_9OptionSetE
FNDA:84,_ZNK5neml215SimpleScheduler18schedule_work_implERN3c106DeviceERm
FNDA:23,_ZN5neml215SimpleScheduler20dispatched_work_implEN3c106DeviceEm
FNDA:23,_ZN5neml215SimpleScheduler19completed_work_implEN3c106DeviceEm
FNDA:12,_ZNK5neml215SimpleScheduler18all_work_completedEv
FNF:6
FNH:6
DA:34,11
DA:36,11
DA:37,11
DA:39,22
DA:40,22
DA:42,22
DA:43,22
DA:45,22
DA:46,22
DA:47,11
DA:49,11
DA:50,0
DA:52,9
DA:54,18
DA:55,18
DA:56,9
DA:57,9
DA:59,9
DA:62,84
DA:64,84
DA:65,38
DA:67,46
DA:68,46
DA:69,46
DA:73,23
DA:75,23
DA:76,23
DA:79,23
DA:81,23
DA:82,23
DA:83,23
DA:86,12
DA:88,12
LF:33
LH:32
end_of_record
TN:
SF:/home/runner/work/neml2/neml2/src/neml2/dispatchers/SliceGenerator.cxx
FN:30,39,_ZN5neml214SliceGeneratorC2Emm
FN:42,45,_ZNK5neml214SliceGenerator5totalEv
FN:48,53,_ZN5neml214SliceGenerator8generateEm
FNDA:14,_ZN5neml214SliceGeneratorC2Emm
FNDA:71,_ZNK5neml214SliceGenerator5totalEv
FNDA:57,_ZN5neml214SliceGenerator8generateEm
FNF:3
FNH:3
DA:30,14
DA:31,14
DA:32,14
DA:34,14
DA:36,14
DA:38,14
DA:39,14
DA:42,71
DA:44,71
DA:48,57
DA:50,57
DA:51,57
DA:52,114
DA:53,57
LF:14
LH:14
end_of_record
TN:
SF:/home/runner/work/neml2/neml2/src/neml2/dispatchers/StaticHybridScheduler.cxx
FN:140,143,_ZN5neml221StaticHybridScheduler27set_availability_calculatorESt8functionIFdRKNS0_12DeviceStatusEEE
FN:146,165,_ZNK5neml221StaticHybridScheduler18schedule_work_implERN3c106DeviceERm
FN:168,180,_ZN5neml221StaticHybridScheduler20dispatched_work_implEN3c106DeviceEm
FN:183,194,_ZN5neml221StaticHybridScheduler19completed_work_implEN3c106DeviceEm
FN:197,203,_ZNK5neml221StaticHybridScheduler18all_work_completedEv
FN:36,54,_ZN5neml221StaticHybridScheduler16expected_optionsEv
FN:56,60,_ZN5neml221StaticHybridSchedulerC2ERKNS_9OptionSetE
FN:63,137,_ZN5neml221StaticHybridScheduler5setupEv
FNDA:0,_ZN5neml221StaticHybridScheduler27set_availability_calculatorESt8functionIFdRKNS0_12DeviceStatusEEE
FNDA:0,_ZNK5neml221StaticHybridScheduler18schedule_work_implERN3c106DeviceERm
FNDA:5,_ZN5neml221StaticHybridScheduler20dispatched_work_implEN3c106DeviceEm
FNDA:4,_ZN5neml221StaticHybridScheduler19completed_work_implEN3c106DeviceEm
FNDA:0,_ZNK5neml221StaticHybridScheduler18all_work_completedEv
FNDA:4,_ZN5neml221StaticHybridScheduler16expected_optionsEv
FNDA:2,_ZN5neml221StaticHybridSchedulerC2ERKNS_9OptionSetE
FNDA:2,_ZN5neml221StaticHybridScheduler5setupEv
FNF:8
FNH:5
DA:36,4
DA:38,4
DA:39,4
DA:41,8
DA:42,8
DA:44,8
DA:45,4
DA:47,12
DA:48,4
DA:50,12
DA:51,4
DA:53,4
DA:54,0
DA:56,2
DA:58,6
DA:60,2
DA:63,2
DA:65,2
DA:67,4
DA:68,4
DA:69,4
DA:70,4
DA:76,6
DA:77,4
DA:79,2
DA:80,2
DA:82,2
DA:83,2
DA:85,0
DA:90,2
DA:91,2
DA:93,1
DA:94,4
DA:96,3
DA:97,1
DA:98,2
DA:99,2
DA:100,2
DA:103,2
DA:105,1
DA:108,2
DA:109,2
DA:110,1
DA:112,1
DA:116,2
DA:117,2
DA:118,0
DA:119,2
DA:120,1
DA:122,1
DA:126,2
DA:127,2
DA:128,0
DA:130,2
DA:134,6
DA:135,4
DA:136,4
DA:137,2
DA:140,0
DA:142,0
DA:143,0
DA:146,0
DA:148,0
DA:149,0
DA:151,0
DA:152,0
DA:155,0
DA:156,0
DA:158,0
DA:159,0
DA:160,0
DA:164,0
DA:168,5
DA:170,8
DA:171,8
DA:173,5
DA:175,5
DA:176,5
DA:179,0
DA:183,4
DA:185,7
DA:186,7
DA:188,4
DA:189,4
DA:190,4
DA:193,0
DA:197,0
DA:199,0
DA:200,0
DA:201,0
DA:202,0
LF:91
LH:66
end_of_record
TN:
SF:/home/runner/work/neml2/neml2/src/neml2/dispatchers/TensorLoader.cxx
FN:29,34,_ZN5neml212TensorLoaderC2ERKNS_6TensorEl
FN:37,40,_ZNK5neml212TensorLoader5totalEv
FN:43,48,_ZN5neml212TensorLoader8generateEm
FNDA:1,_ZN5neml212TensorLoaderC2ERKNS_6TensorEl
FNDA:5,_ZNK5neml212TensorLoader5totalEv
FNDA:3,_ZN5neml212TensorLoader8generateEm
FNF:3
FNH:3
DA:29,1
DA:30,1
DA:31,1
DA:32,1
DA:34,1
DA:37,5
DA:39,5
DA:43,3
DA:45,3
DA:46,3
DA:47,6
DA:48,3
LF:12
LH:12
end_of_record
TN:
SF:/home/runner/work/neml2/neml2/src/neml2/dispatchers/ValueMapLoader.cxx
FN:31,54,_ZN5neml2L22broadcast_dynamic_sizeERKSt3mapINS_19LabeledAxisAccessorENS_6TensorESt4lessIS1_ESaISt4pairIKS1_S2_EEEl
FN:56,61,_ZN5neml214ValueMapLoaderC2ERKSt3mapINS_19LabeledAxisAccessorENS_6TensorESt4lessIS2_ESaISt4pairIKS2_S3_EEEl
FN:64,67,_ZNK5neml214ValueMapLoader5totalEv
FN:70,89,_ZN5neml214ValueMapLoader8generateEm
FNDA:6,_ZN5neml2L22broadcast_dynamic_sizeERKSt3mapINS_19LabeledAxisAccessorENS_6TensorESt4lessIS1_ESaISt4pairIKS1_S2_EEEl
FNDA:6,_ZN5neml214ValueMapLoaderC2ERKSt3mapINS_19LabeledAxisAccessorENS_6TensorESt4lessIS2_ESaISt4pairIKS2_S3_EEEl
FNDA:17,_ZNK5neml214ValueMapLoader5totalEv
FNDA:13,_ZN5neml214ValueMapLoader8generateEm
FNF:4
FNH:4
DA:31,6
DA:33,6
DA:35,18
DA:36,12
DA:37,12
DA:39,18
DA:40,12
DA:42,12
DA:43,12
DA:53,6
DA:56,6
DA:57,6
DA:58,6
DA:59,6
DA:61,6
DA:64,17
DA:66,17
DA:70,13
DA:72,13
DA:74,13
DA:75,39
DA:77,26
DA:79,26
DA:80,13
DA:82,13
DA:85,0
DA:88,26
DA:89,13
LF:28
LH:27
end_of_record
TN:
SF:/home/runner/work/neml2/neml2/src/neml2/dispatchers/WorkScheduler.cxx
FN:105,114,_ZN5neml213WorkScheduler14completed_workEN3c106DeviceEm
FN:117,134,_ZN5neml213WorkScheduler19wait_for_completionEv
FN:128,128,_ZZN5neml213WorkScheduler19wait_for_completionEvENKUlvE_clEv
FN:32,39,_ZN5neml213WorkScheduler16expected_optionsEv
FN:41,45,_ZN5neml213WorkSchedulerC2ERKNS_9OptionSetE
FN:49,55,_ZN5neml2L7to_jsonERKN3c106DeviceERKm
FN:59,85,_ZN5neml213WorkScheduler13schedule_workERN3c106DeviceERm
FN:78,78,_ZZN5neml213WorkScheduler13schedule_workERN3c106DeviceERmENKUlvE_clEv
FN:88,102,_ZN5neml213WorkScheduler15dispatched_workEN3c106DeviceEm
FNDA:27,_ZN5neml213WorkScheduler14completed_workEN3c106DeviceEm
FNDA:4,_ZN5neml213WorkScheduler19wait_for_completionEv
FNDA:8,_ZZN5neml213WorkScheduler19wait_for_completionEvENKUlvE_clEv
FNDA:17,_ZN5neml213WorkScheduler16expected_optionsEv
FNDA:11,_ZN5neml213WorkSchedulerC2ERKNS_9OptionSetE
FNDA:0,_ZN5neml2L7to_jsonERKN3c106DeviceERKm
FNDA:46,_ZN5neml213WorkScheduler13schedule_workERN3c106DeviceERm
FNDA:38,_ZZN5neml213WorkScheduler13schedule_workERN3c106DeviceERmENKUlvE_clEv
FNDA:28,_ZN5neml213WorkScheduler15dispatched_workEN3c106DeviceEm
FNF:9
FNH:8
DA:32,17
DA:34,17
DA:35,17
DA:36,17
DA:38,17
DA:39,0
DA:41,11
DA:43,11
DA:45,11
DA:49,0
DA:51,0
DA:52,0
DA:53,0
DA:54,0
DA:55,0
DA:59,46
DA:61,46
DA:64,46
DA:65,0
DA:68,46
DA:71,27
DA:72,0
DA:73,0
DA:75,27
DA:77,19
DA:78,38
DA:81,19
DA:82,0
DA:83,0
DA:85,46
DA:88,28
DA:91,28
DA:92,0
DA:95,28
DA:96,28
DA:99,28
DA:100,0
DA:102,28
DA:105,27
DA:108,27
DA:109,0
DA:111,27
DA:112,27
DA:113,27
DA:114,27
DA:117,4
DA:119,4
DA:120,4
DA:123,0
DA:124,0
DA:126,0
DA:128,12
DA:131,4
DA:132,0
DA:134,4
LF:55
LH:36
end_of_record
TN:
SF:/home/runner/work/neml2/neml2/src/neml2/dispatchers/derivmap_helpers.cxx
FN:33,62,_ZN5neml219derivmap_cat_reduceEOSt6vectorISt3mapINS_19LabeledAxisAccessorES1_IS2_NS_6TensorESt4lessIS2_ESaISt4pairIKS2_S3_EEES5_SaIS6_IS7_SA_EEESaISD_EEl
FN:65,72,_ZN5neml220derivmap_move_deviceEOSt3mapINS_19LabeledAxisAccessorES0_IS1_NS_6TensorESt4lessIS1_ESaISt4pairIKS1_S2_EEES4_SaIS5_IS6_S9_EEEN3c106DeviceE
FN:75,78,_ZN5neml221derivmap_no_operationEOSt3mapINS_19LabeledAxisAccessorES0_IS1_NS_6TensorESt4lessIS1_ESaISt4pairIKS1_S2_EEES4_SaIS5_IS6_S9_EEE
FNDA:1,_ZN5neml219derivmap_cat_reduceEOSt6vectorISt3mapINS_19LabeledAxisAccessorES1_IS2_NS_6TensorESt4lessIS2_ESaISt4pairIKS2_S3_EEES5_SaIS6_IS7_SA_EEESaISD_EEl
FNDA:0,_ZN5neml220derivmap_move_deviceEOSt3mapINS_19LabeledAxisAccessorES0_IS1_NS_6TensorESt4lessIS1_ESaISt4pairIKS1_S2_EEES4_SaIS5_IS6_S9_EEEN3c106DeviceE
FNDA:1,_ZN5neml221derivmap_no_operationEOSt3mapINS_19LabeledAxisAccessorES0_IS1_NS_6TensorESt4lessIS1_ESaISt4pairIKS1_S2_EEES4_SaIS5_IS6_S9_EEE
FNF:3
FNH:2
DA:33,1
DA:36,1
DA:37,3
DA:38,4
DA:39,4
DA:40,2
DA:43,1
DA:44,2
DA:45,2
DA:47,1
DA:50,0
DA:51,0
DA:52,0
DA:53,0
DA:55,0
DA:58,1
DA:61,2
DA:62,1
DA:65,0
DA:68,0
DA:69,0
DA:70,0
DA:71,0
DA:75,1
DA:77,1
LF:25
LH:15
end_of_record
TN:
SF:/home/runner/work/neml2/neml2/src/neml2/dispatchers/valuemap_helpers.cxx
FN:34,87,_ZN5neml219valuemap_cat_reduceERKSt6vectorISt3mapINS_19LabeledAxisAccessorENS_6TensorESt4lessIS2_ESaISt4pairIKS2_S3_EEESaISA_EEl
FN:90,96,_ZN5neml220valuemap_move_deviceEOSt3mapINS_19LabeledAxisAccessorENS_6TensorESt4lessIS1_ESaISt4pairIKS1_S2_EEEN3c106DeviceE
FN:99,102,_ZN5neml221valuemap_no_operationEOSt3mapINS_19LabeledAxisAccessorENS_6TensorESt4lessIS1_ESaISt4pairIKS1_S2_EEE
FNDA:3,_ZN5neml219valuemap_cat_reduceERKSt6vectorISt3mapINS_19LabeledAxisAccessorENS_6TensorESt4lessIS2_ESaISt4pairIKS2_S3_EEESaISA_EEl
FNDA:10,_ZN5neml220valuemap_move_deviceEOSt3mapINS_19LabeledAxisAccessorENS_6TensorESt4lessIS1_ESaISt4pairIKS1_S2_EEEN3c106DeviceE
FNDA:11,_ZN5neml221valuemap_no_operationEOSt3mapINS_19LabeledAxisAccessorENS_6TensorESt4lessIS1_ESaISt4pairIKS1_S2_EEE
FNF:3
FNH:3
DA:34,3
DA:37,3
DA:38,15
DA:40,26
DA:41,14
DA:43,14
DA:44,14
DA:45,12
DA:47,2
DA:51,2
DA:59,0
DA:66,12
DA:67,12
DA:71,3
DA:72,15
DA:73,26
DA:75,14
DA:76,14
DA:78,0
DA:82,3
DA:83,7
DA:84,4
DA:86,6
DA:87,3
DA:90,10
DA:93,30
DA:94,20
DA:95,10
DA:99,11
DA:101,11
LF:30
LH:28
end_of_record
TN:
SF:/home/runner/work/neml2/neml2/src/neml2/drivers/Driver.cxx
FN:33,45,_ZN5neml26Driver16expected_optionsEv
FN:47,54,_ZN5neml26DriverC2ERKNS_9OptionSetE
FNDA:14,_ZN5neml26Driver16expected_optionsEv
FNDA:194,_ZN5neml26DriverC2ERKNS_9OptionSetE
FNF:2
FNH:2
DA:33,14
DA:35,14
DA:36,14
DA:38,28
DA:39,28
DA:41,28
DA:42,14
DA:44,14
DA:45,0
DA:47,194
DA:50,582
DA:52,388
DA:53,0
DA:54,194
LF:14
LH:12
end_of_record
TN:
SF:/home/runner/work/neml2/neml2/src/neml2/drivers/ModelDriver.cxx
FN:107,108,_ZZN5neml211ModelDriver5setupEvENKUlRKSt6vectorISt3mapINS_19LabeledAxisAccessorENS_6TensorESt4lessIS3_ESaISt4pairIKS3_S4_EEESaISB_EEE_clESF_
FN:110,111,_ZZN5neml211ModelDriver5setupEvENKUlOSt3mapINS_19LabeledAxisAccessorENS_6TensorESt4lessIS2_ESaISt4pairIKS2_S3_EEEE_clESB_
FN:113,121,_ZZN5neml211ModelDriver5setupEvENKUlN3c106DeviceEE_clES2_
FN:126,137,_ZZN5neml211ModelDriver5setupEvENKUlRKSt3mapINS_19LabeledAxisAccessorENS_6TensorESt4lessIS2_ESaISt4pairIKS2_S3_EEEN3c106DeviceEE_clESC_SE_
FN:152,163,_ZNK5neml211ModelDriver8diagnoseEv
FN:36,73,_ZN5neml211ModelDriver16expected_optionsEv
FN:75,90,_ZN5neml211ModelDriverC2ERKNS_9OptionSetE
FN:93,149,_ZN5neml211ModelDriver5setupEv
FNDA:0,_ZZN5neml211ModelDriver5setupEvENKUlRKSt6vectorISt3mapINS_19LabeledAxisAccessorENS_6TensorESt4lessIS3_ESaISt4pairIKS3_S4_EEESaISB_EEE_clESF_
FNDA:0,_ZZN5neml211ModelDriver5setupEvENKUlOSt3mapINS_19LabeledAxisAccessorENS_6TensorESt4lessIS2_ESaISt4pairIKS2_S3_EEEE_clESB_
FNDA:0,_ZZN5neml211ModelDriver5setupEvENKUlN3c106DeviceEE_clES2_
FNDA:0,_ZZN5neml211ModelDriver5setupEvENKUlRKSt3mapINS_19LabeledAxisAccessorENS_6TensorESt4lessIS2_ESaISt4pairIKS2_S3_EEEN3c106DeviceEE_clESC_SE_
FNDA:7,_ZNK5neml211ModelDriver8diagnoseEv
FNDA:8,_ZN5neml211ModelDriver16expected_optionsEv
FNDA:7,_ZN5neml211ModelDriverC2ERKNS_9OptionSetE
FNDA:7,_ZN5neml211ModelDriver5setupEv
FNF:8
FNH:4
DA:36,8
DA:38,8
DA:40,16
DA:41,8
DA:43,24
DA:44,16
DA:45,8
DA:47,24
DA:48,24
DA:49,8
DA:51,16
DA:52,16
DA:54,16
DA:55,24
DA:60,8
DA:62,16
DA:63,16
DA:66,16
DA:67,16
DA:68,16
DA:69,8
DA:72,8
DA:73,0
DA:75,7
DA:77,14
DA:78,14
DA:79,14
DA:80,7
DA:82,21
DA:83,14
DA:86,7
DA:87,28
DA:90,7
DA:93,7
DA:95,7
DA:98,7
DA:99,0
DA:102,7
DA:105,7
DA:107,0
DA:108,0
DA:110,0
DA:111,0
DA:113,0
DA:115,0
DA:116,0
DA:117,0
DA:118,0
DA:119,0
DA:120,0
DA:121,0
DA:123,0
DA:124,0
DA:125,0
DA:126,0
DA:128,0
DA:132,0
DA:133,0
DA:135,0
DA:136,0
DA:139,0
DA:141,0
DA:149,7
DA:152,7
DA:154,7
DA:155,7
DA:157,7
DA:158,7
DA:161,7
DA:162,0
DA:163,7
LF:71
LH:45
end_of_record
TN:
SF:/home/runner/work/neml2/neml2/src/neml2/drivers/TransientDriver.cxx
FN:108,145,_ZN5neml215TransientDriver16expected_optionsEv
FN:147,167,_ZN5neml215TransientDriverC2ERKNS_9OptionSetE
FN:170,180,_ZN5neml215TransientDriver5setupEv
FN:183,224,_ZNK5neml215TransientDriver8diagnoseEv
FN:227,235,_ZN5neml215TransientDriver3runEv
FN:238,270,_ZN5neml215TransientDriver5solveEv
FN:273,284,_ZN5neml215TransientDriver12advance_stepEv
FN:287,294,_ZN5neml215TransientDriver13update_forcesEv
FN:297,307,_ZN5neml215TransientDriver8apply_icEv
FN:310,343,_ZN5neml215TransientDriver15apply_predictorEv
FN:346,358,_ZN5neml215TransientDriver10solve_stepEv
FN:361,379,_ZN5neml215TransientDriver11postprocessEv
FN:382,385,_ZN5neml215TransientDriver11store_inputEv
FN:388,391,_ZNK5neml215TransientDriver12save_as_pathB5cxx11Ev
FN:394,422,_ZNK5neml215TransientDriver6resultEv
FN:425,446,_ZNK5neml215TransientDriver6outputEv
FN:449,452,_ZNK5neml215TransientDriver9output_ptERKNSt10filesystem7__cxx114pathE
FN:45,72,_ZN5neml2L6set_icINS_10QuaternionEEEvRSt3mapINS_19LabeledAxisAccessorENS_6TensorESt4lessIS3_ESaISt4pairIKS3_S4_EEERKNS_9OptionSetERKNSt7__cxx1112basic_stringIcSt11char_traitsIcESaIcEEESN_RKN3c106DeviceE
FN:45,72,_ZN5neml2L6set_icINS_11MillerIndexEEEvRSt3mapINS_19LabeledAxisAccessorENS_6TensorESt4lessIS3_ESaISt4pairIKS3_S4_EEERKNS_9OptionSetERKNSt7__cxx1112basic_stringIcSt11char_traitsIcESaIcEEESN_RKN3c106DeviceE
FN:45,72,_ZN5neml2L6set_icINS_2R2EEEvRSt3mapINS_19LabeledAxisAccessorENS_6TensorESt4lessIS3_ESaISt4pairIKS3_S4_EEERKNS_9OptionSetERKNSt7__cxx1112basic_stringIcSt11char_traitsIcESaIcEEESN_RKN3c106DeviceE
FN:45,72,_ZN5neml2L6set_icINS_2R3EEEvRSt3mapINS_19LabeledAxisAccessorENS_6TensorESt4lessIS3_ESaISt4pairIKS3_S4_EEERKNS_9OptionSetERKNSt7__cxx1112basic_stringIcSt11char_traitsIcESaIcEEESN_RKN3c106DeviceE
FN:45,72,_ZN5neml2L6set_icINS_2R4EEEvRSt3mapINS_19LabeledAxisAccessorENS_6TensorESt4lessIS3_ESaISt4pairIKS3_S4_EEERKNS_9OptionSetERKNSt7__cxx1112basic_stringIcSt11char_traitsIcESaIcEEESN_RKN3c106DeviceE
FN:45,72,_ZN5neml2L6set_icINS_3RotEEEvRSt3mapINS_19LabeledAxisAccessorENS_6TensorESt4lessIS3_ESaISt4pairIKS3_S4_EEERKNS_9OptionSetERKNSt7__cxx1112basic_stringIcSt11char_traitsIcESaIcEEESN_RKN3c106DeviceE
FN:45,72,_ZN5neml2L6set_icINS_3SR2EEEvRSt3mapINS_19LabeledAxisAccessorENS_6TensorESt4lessIS3_ESaISt4pairIKS3_S4_EEERKNS_9OptionSetERKNSt7__cxx1112basic_stringIcSt11char_traitsIcESaIcEEESN_RKN3c106DeviceE
FN:45,72,_ZN5neml2L6set_icINS_3VecEEEvRSt3mapINS_19LabeledAxisAccessorENS_6TensorESt4lessIS3_ESaISt4pairIKS3_S4_EEERKNS_9OptionSetERKNSt7__cxx1112basic_stringIcSt11char_traitsIcESaIcEEESN_RKN3c106DeviceE
FN:45,72,_ZN5neml2L6set_icINS_3WR2EEEvRSt3mapINS_19LabeledAxisAccessorENS_6TensorESt4lessIS3_ESaISt4pairIKS3_S4_EEERKNS_9OptionSetERKNSt7__cxx1112basic_stringIcSt11char_traitsIcESaIcEEESN_RKN3c106DeviceE
FN:45,72,_ZN5neml2L6set_icINS_4SFR3EEEvRSt3mapINS_19LabeledAxisAccessorENS_6TensorESt4lessIS3_ESaISt4pairIKS3_S4_EEERKNS_9OptionSetERKNSt7__cxx1112basic_stringIcSt11char_traitsIcESaIcEEESN_RKN3c106DeviceE
FN:45,72,_ZN5neml2L6set_icINS_4SSR4EEEvRSt3mapINS_19LabeledAxisAccessorENS_6TensorESt4lessIS3_ESaISt4pairIKS3_S4_EEERKNS_9OptionSetERKNSt7__cxx1112basic_stringIcSt11char_traitsIcESaIcEEESN_RKN3c106DeviceE
FN:45,72,_ZN5neml2L6set_icINS_4SWR4EEEvRSt3mapINS_19LabeledAxisAccessorENS_6TensorESt4lessIS3_ESaISt4pairIKS3_S4_EEERKNS_9OptionSetERKNSt7__cxx1112basic_stringIcSt11char_traitsIcESaIcEEESN_RKN3c106DeviceE
FN:45,72,_ZN5neml2L6set_icINS_4WSR4EEEvRSt3mapINS_19LabeledAxisAccessorENS_6TensorESt4lessIS3_ESaISt4pairIKS3_S4_EEERKNS_9OptionSetERKNSt7__cxx1112basic_stringIcSt11char_traitsIcESaIcEEESN_RKN3c106DeviceE
FN:45,72,_ZN5neml2L6set_icINS_4WWR4EEEvRSt3mapINS_19LabeledAxisAccessorENS_6TensorESt4lessIS3_ESaISt4pairIKS3_S4_EEERKNS_9OptionSetERKNSt7__cxx1112basic_stringIcSt11char_traitsIcESaIcEEESN_RKN3c106DeviceE
FN:45,72,_ZN5neml2L6set_icINS_5SFFR4EEEvRSt3mapINS_19LabeledAxisAccessorENS_6TensorESt4lessIS3_ESaISt4pairIKS3_S4_EEERKNS_9OptionSetERKNSt7__cxx1112basic_stringIcSt11char_traitsIcESaIcEEESN_RKN3c106DeviceE
FN:45,72,_ZN5neml2L6set_icINS_5WFFR4EEEvRSt3mapINS_19LabeledAxisAccessorENS_6TensorESt4lessIS3_ESaISt4pairIKS3_S4_EEERKNS_9OptionSetERKNSt7__cxx1112basic_stringIcSt11char_traitsIcESaIcEEESN_RKN3c106DeviceE
FN:45,72,_ZN5neml2L6set_icINS_6ScalarEEEvRSt3mapINS_19LabeledAxisAccessorENS_6TensorESt4lessIS3_ESaISt4pairIKS3_S4_EEERKNS_9OptionSetERKNSt7__cxx1112basic_stringIcSt11char_traitsIcESaIcEEESN_RKN3c106DeviceE
FN:45,72,_ZN5neml2L6set_icINS_6TensorEEEvRSt3mapINS_19LabeledAxisAccessorES1_St4lessIS3_ESaISt4pairIKS3_S1_EEERKNS_9OptionSetERKNSt7__cxx1112basic_stringIcSt11char_traitsIcESaIcEEESM_RKN3c106DeviceE
FN:76,105,_ZN5neml2L9get_forceINS_10QuaternionEEEvRSt6vectorINS_19LabeledAxisAccessorESaIS3_EERS2_INS_6TensorESaIS7_EERKNS_9OptionSetERKNSt7__cxx1112basic_stringIcSt11char_traitsIcESaIcEEESL_RKN3c106DeviceE
FN:76,105,_ZN5neml2L9get_forceINS_11MillerIndexEEEvRSt6vectorINS_19LabeledAxisAccessorESaIS3_EERS2_INS_6TensorESaIS7_EERKNS_9OptionSetERKNSt7__cxx1112basic_stringIcSt11char_traitsIcESaIcEEESL_RKN3c106DeviceE
FN:76,105,_ZN5neml2L9get_forceINS_2R2EEEvRSt6vectorINS_19LabeledAxisAccessorESaIS3_EERS2_INS_6TensorESaIS7_EERKNS_9OptionSetERKNSt7__cxx1112basic_stringIcSt11char_traitsIcESaIcEEESL_RKN3c106DeviceE
FN:76,105,_ZN5neml2L9get_forceINS_2R3EEEvRSt6vectorINS_19LabeledAxisAccessorESaIS3_EERS2_INS_6TensorESaIS7_EERKNS_9OptionSetERKNSt7__cxx1112basic_stringIcSt11char_traitsIcESaIcEEESL_RKN3c106DeviceE
FN:76,105,_ZN5neml2L9get_forceINS_2R4EEEvRSt6vectorINS_19LabeledAxisAccessorESaIS3_EERS2_INS_6TensorESaIS7_EERKNS_9OptionSetERKNSt7__cxx1112basic_stringIcSt11char_traitsIcESaIcEEESL_RKN3c106DeviceE
FN:76,105,_ZN5neml2L9get_forceINS_3RotEEEvRSt6vectorINS_19LabeledAxisAccessorESaIS3_EERS2_INS_6TensorESaIS7_EERKNS_9OptionSetERKNSt7__cxx1112basic_stringIcSt11char_traitsIcESaIcEEESL_RKN3c106DeviceE
FN:76,105,_ZN5neml2L9get_forceINS_3SR2EEEvRSt6vectorINS_19LabeledAxisAccessorESaIS3_EERS2_INS_6TensorESaIS7_EERKNS_9OptionSetERKNSt7__cxx1112basic_stringIcSt11char_traitsIcESaIcEEESL_RKN3c106DeviceE
FN:76,105,_ZN5neml2L9get_forceINS_3VecEEEvRSt6vectorINS_19LabeledAxisAccessorESaIS3_EERS2_INS_6TensorESaIS7_EERKNS_9OptionSetERKNSt7__cxx1112basic_stringIcSt11char_traitsIcESaIcEEESL_RKN3c106DeviceE
FN:76,105,_ZN5neml2L9get_forceINS_3WR2EEEvRSt6vectorINS_19LabeledAxisAccessorESaIS3_EERS2_INS_6TensorESaIS7_EERKNS_9OptionSetERKNSt7__cxx1112basic_stringIcSt11char_traitsIcESaIcEEESL_RKN3c106DeviceE
FN:76,105,_ZN5neml2L9get_forceINS_4SFR3EEEvRSt6vectorINS_19LabeledAxisAccessorESaIS3_EERS2_INS_6TensorESaIS7_EERKNS_9OptionSetERKNSt7__cxx1112basic_stringIcSt11char_traitsIcESaIcEEESL_RKN3c106DeviceE
FN:76,105,_ZN5neml2L9get_forceINS_4SSR4EEEvRSt6vectorINS_19LabeledAxisAccessorESaIS3_EERS2_INS_6TensorESaIS7_EERKNS_9OptionSetERKNSt7__cxx1112basic_stringIcSt11char_traitsIcESaIcEEESL_RKN3c106DeviceE
FN:76,105,_ZN5neml2L9get_forceINS_4SWR4EEEvRSt6vectorINS_19LabeledAxisAccessorESaIS3_EERS2_INS_6TensorESaIS7_EERKNS_9OptionSetERKNSt7__cxx1112basic_stringIcSt11char_traitsIcESaIcEEESL_RKN3c106DeviceE
FN:76,105,_ZN5neml2L9get_forceINS_4WSR4EEEvRSt6vectorINS_19LabeledAxisAccessorESaIS3_EERS2_INS_6TensorESaIS7_EERKNS_9OptionSetERKNSt7__cxx1112basic_stringIcSt11char_traitsIcESaIcEEESL_RKN3c106DeviceE
FN:76,105,_ZN5neml2L9get_forceINS_4WWR4EEEvRSt6vectorINS_19LabeledAxisAccessorESaIS3_EERS2_INS_6TensorESaIS7_EERKNS_9OptionSetERKNSt7__cxx1112basic_stringIcSt11char_traitsIcESaIcEEESL_RKN3c106DeviceE
FN:76,105,_ZN5neml2L9get_forceINS_5SFFR4EEEvRSt6vectorINS_19LabeledAxisAccessorESaIS3_EERS2_INS_6TensorESaIS7_EERKNS_9OptionSetERKNSt7__cxx1112basic_stringIcSt11char_traitsIcESaIcEEESL_RKN3c106DeviceE
FN:76,105,_ZN5neml2L9get_forceINS_5WFFR4EEEvRSt6vectorINS_19LabeledAxisAccessorESaIS3_EERS2_INS_6TensorESaIS7_EERKNS_9OptionSetERKNSt7__cxx1112basic_stringIcSt11char_traitsIcESaIcEEESL_RKN3c106DeviceE
FN:76,105,_ZN5neml2L9get_forceINS_6ScalarEEEvRSt6vectorINS_19LabeledAxisAccessorESaIS3_EERS2_INS_6TensorESaIS7_EERKNS_9OptionSetERKNSt7__cxx1112basic_stringIcSt11char_traitsIcESaIcEEESL_RKN3c106DeviceE
FN:76,105,_ZN5neml2L9get_forceINS_6TensorEEEvRSt6vectorINS_19LabeledAxisAccessorESaIS3_EERS2_IS1_SaIS1_EERKNS_9OptionSetERKNSt7__cxx1112basic_stringIcSt11char_traitsIcESaIcEEESK_RKN3c106DeviceE
FNDA:8,_ZN5neml215TransientDriver16expected_optionsEv
FNDA:7,_ZN5neml215TransientDriverC2ERKNS_9OptionSetE
FNDA:7,_ZN5neml215TransientDriver5setupEv
FNDA:7,_ZNK5neml215TransientDriver8diagnoseEv
FNDA:7,_ZN5neml215TransientDriver3runEv
FNDA:7,_ZN5neml215TransientDriver5solveEv
FNDA:63,_ZN5neml215TransientDriver12advance_stepEv
FNDA:70,_ZN5neml215TransientDriver13update_forcesEv
FNDA:7,_ZN5neml215TransientDriver8apply_icEv
FNDA:63,_ZN5neml215TransientDriver15apply_predictorEv
FNDA:63,_ZN5neml215TransientDriver10solve_stepEv
FNDA:63,_ZN5neml215TransientDriver11postprocessEv
FNDA:70,_ZN5neml215TransientDriver11store_inputEv
FNDA:12,_ZNK5neml215TransientDriver12save_as_pathB5cxx11Ev
FNDA:5,_ZNK5neml215TransientDriver6resultEv
FNDA:5,_ZNK5neml215TransientDriver6outputEv
FNDA:5,_ZNK5neml215TransientDriver9output_ptERKNSt10filesystem7__cxx114pathE
FNDA:7,_ZN5neml2L6set_icINS_10QuaternionEEEvRSt3mapINS_19LabeledAxisAccessorENS_6TensorESt4lessIS3_ESaISt4pairIKS3_S4_EEERKNS_9OptionSetERKNSt7__cxx1112basic_stringIcSt11char_traitsIcESaIcEEESN_RKN3c106DeviceE
FNDA:7,_ZN5neml2L6set_icINS_11MillerIndexEEEvRSt3mapINS_19LabeledAxisAccessorENS_6TensorESt4lessIS3_ESaISt4pairIKS3_S4_EEERKNS_9OptionSetERKNSt7__cxx1112basic_stringIcSt11char_traitsIcESaIcEEESN_RKN3c106DeviceE
FNDA:7,_ZN5neml2L6set_icINS_2R2EEEvRSt3mapINS_19LabeledAxisAccessorENS_6TensorESt4lessIS3_ESaISt4pairIKS3_S4_EEERKNS_9OptionSetERKNSt7__cxx1112basic_stringIcSt11char_traitsIcESaIcEEESN_RKN3c106DeviceE
FNDA:7,_ZN5neml2L6set_icINS_2R3EEEvRSt3mapINS_19LabeledAxisAccessorENS_6TensorESt4lessIS3_ESaISt4pairIKS3_S4_EEERKNS_9OptionSetERKNSt7__cxx1112basic_stringIcSt11char_traitsIcESaIcEEESN_RKN3c106DeviceE
FNDA:7,_ZN5neml2L6set_icINS_2R4EEEvRSt3mapINS_19LabeledAxisAccessorENS_6TensorESt4lessIS3_ESaISt4pairIKS3_S4_EEERKNS_9OptionSetERKNSt7__cxx1112basic_stringIcSt11char_traitsIcESaIcEEESN_RKN3c106DeviceE
FNDA:7,_ZN5neml2L6set_icINS_3RotEEEvRSt3mapINS_19LabeledAxisAccessorENS_6TensorESt4lessIS3_ESaISt4pairIKS3_S4_EEERKNS_9OptionSetERKNSt7__cxx1112basic_stringIcSt11char_traitsIcESaIcEEESN_RKN3c106DeviceE
FNDA:7,_ZN5neml2L6set_icINS_3SR2EEEvRSt3mapINS_19LabeledAxisAccessorENS_6TensorESt4lessIS3_ESaISt4pairIKS3_S4_EEERKNS_9OptionSetERKNSt7__cxx1112basic_stringIcSt11char_traitsIcESaIcEEESN_RKN3c106DeviceE
FNDA:7,_ZN5neml2L6set_icINS_3VecEEEvRSt3mapINS_19LabeledAxisAccessorENS_6TensorESt4lessIS3_ESaISt4pairIKS3_S4_EEERKNS_9OptionSetERKNSt7__cxx1112basic_stringIcSt11char_traitsIcESaIcEEESN_RKN3c106DeviceE
FNDA:7,_ZN5neml2L6set_icINS_3WR2EEEvRSt3mapINS_19LabeledAxisAccessorENS_6TensorESt4lessIS3_ESaISt4pairIKS3_S4_EEERKNS_9OptionSetERKNSt7__cxx1112basic_stringIcSt11char_traitsIcESaIcEEESN_RKN3c106DeviceE
FNDA:7,_ZN5neml2L6set_icINS_4SFR3EEEvRSt3mapINS_19LabeledAxisAccessorENS_6TensorESt4lessIS3_ESaISt4pairIKS3_S4_EEERKNS_9OptionSetERKNSt7__cxx1112basic_stringIcSt11char_traitsIcESaIcEEESN_RKN3c106DeviceE
FNDA:7,_ZN5neml2L6set_icINS_4SSR4EEEvRSt3mapINS_19LabeledAxisAccessorENS_6TensorESt4lessIS3_ESaISt4pairIKS3_S4_EEERKNS_9OptionSetERKNSt7__cxx1112basic_stringIcSt11char_traitsIcESaIcEEESN_RKN3c106DeviceE
FNDA:7,_ZN5neml2L6set_icINS_4SWR4EEEvRSt3mapINS_19LabeledAxisAccessorENS_6TensorESt4lessIS3_ESaISt4pairIKS3_S4_EEERKNS_9OptionSetERKNSt7__cxx1112basic_stringIcSt11char_traitsIcESaIcEEESN_RKN3c106DeviceE
FNDA:7,_ZN5neml2L6set_icINS_4WSR4EEEvRSt3mapINS_19LabeledAxisAccessorENS_6TensorESt4lessIS3_ESaISt4pairIKS3_S4_EEERKNS_9OptionSetERKNSt7__cxx1112basic_stringIcSt11char_traitsIcESaIcEEESN_RKN3c106DeviceE
FNDA:7,_ZN5neml2L6set_icINS_4WWR4EEEvRSt3mapINS_19LabeledAxisAccessorENS_6TensorESt4lessIS3_ESaISt4pairIKS3_S4_EEERKNS_9OptionSetERKNSt7__cxx1112basic_stringIcSt11char_traitsIcESaIcEEESN_RKN3c106DeviceE
FNDA:7,_ZN5neml2L6set_icINS_5SFFR4EEEvRSt3mapINS_19LabeledAxisAccessorENS_6TensorESt4lessIS3_ESaISt4pairIKS3_S4_EEERKNS_9OptionSetERKNSt7__cxx1112basic_stringIcSt11char_traitsIcESaIcEEESN_RKN3c106DeviceE
FNDA:7,_ZN5neml2L6set_icINS_5WFFR4EEEvRSt3mapINS_19LabeledAxisAccessorENS_6TensorESt4lessIS3_ESaISt4pairIKS3_S4_EEERKNS_9OptionSetERKNSt7__cxx1112basic_stringIcSt11char_traitsIcESaIcEEESN_RKN3c106DeviceE
FNDA:7,_ZN5neml2L6set_icINS_6ScalarEEEvRSt3mapINS_19LabeledAxisAccessorENS_6TensorESt4lessIS3_ESaISt4pairIKS3_S4_EEERKNS_9OptionSetERKNSt7__cxx1112basic_stringIcSt11char_traitsIcESaIcEEESN_RKN3c106DeviceE
FNDA:7,_ZN5neml2L6set_icINS_6TensorEEEvRSt3mapINS_19LabeledAxisAccessorES1_St4lessIS3_ESaISt4pairIKS3_S1_EEERKNS_9OptionSetERKNSt7__cxx1112basic_stringIcSt11char_traitsIcESaIcEEESM_RKN3c106DeviceE
FNDA:7,_ZN5neml2L9get_forceINS_10QuaternionEEEvRSt6vectorINS_19LabeledAxisAccessorESaIS3_EERS2_INS_6TensorESaIS7_EERKNS_9OptionSetERKNSt7__cxx1112basic_stringIcSt11char_traitsIcESaIcEEESL_RKN3c106DeviceE
FNDA:7,_ZN5neml2L9get_forceINS_11MillerIndexEEEvRSt6vectorINS_19LabeledAxisAccessorESaIS3_EERS2_INS_6TensorESaIS7_EERKNS_9OptionSetERKNSt7__cxx1112basic_stringIcSt11char_traitsIcESaIcEEESL_RKN3c106DeviceE
FNDA:7,_ZN5neml2L9get_forceINS_2R2EEEvRSt6vectorINS_19LabeledAxisAccessorESaIS3_EERS2_INS_6TensorESaIS7_EERKNS_9OptionSetERKNSt7__cxx1112basic_stringIcSt11char_traitsIcESaIcEEESL_RKN3c106DeviceE
FNDA:7,_ZN5neml2L9get_forceINS_2R3EEEvRSt6vectorINS_19LabeledAxisAccessorESaIS3_EERS2_INS_6TensorESaIS7_EERKNS_9OptionSetERKNSt7__cxx1112basic_stringIcSt11char_traitsIcESaIcEEESL_RKN3c106DeviceE
FNDA:7,_ZN5neml2L9get_forceINS_2R4EEEvRSt6vectorINS_19LabeledAxisAccessorESaIS3_EERS2_INS_6TensorESaIS7_EERKNS_9OptionSetERKNSt7__cxx1112basic_stringIcSt11char_traitsIcESaIcEEESL_RKN3c106DeviceE
FNDA:7,_ZN5neml2L9get_forceINS_3RotEEEvRSt6vectorINS_19LabeledAxisAccessorESaIS3_EERS2_INS_6TensorESaIS7_EERKNS_9OptionSetERKNSt7__cxx1112basic_stringIcSt11char_traitsIcESaIcEEESL_RKN3c106DeviceE
FNDA:7,_ZN5neml2L9get_forceINS_3SR2EEEvRSt6vectorINS_19LabeledAxisAccessorESaIS3_EERS2_INS_6TensorESaIS7_EERKNS_9OptionSetERKNSt7__cxx1112basic_stringIcSt11char_traitsIcESaIcEEESL_RKN3c106DeviceE
FNDA:7,_ZN5neml2L9get_forceINS_3VecEEEvRSt6vectorINS_19LabeledAxisAccessorESaIS3_EERS2_INS_6TensorESaIS7_EERKNS_9OptionSetERKNSt7__cxx1112basic_stringIcSt11char_traitsIcESaIcEEESL_RKN3c106DeviceE
FNDA:7,_ZN5neml2L9get_forceINS_3WR2EEEvRSt6vectorINS_19LabeledAxisAccessorESaIS3_EERS2_INS_6TensorESaIS7_EERKNS_9OptionSetERKNSt7__cxx1112basic_stringIcSt11char_traitsIcESaIcEEESL_RKN3c106DeviceE
FNDA:7,_ZN5neml2L9get_forceINS_4SFR3EEEvRSt6vectorINS_19LabeledAxisAccessorESaIS3_EERS2_INS_6TensorESaIS7_EERKNS_9OptionSetERKNSt7__cxx1112basic_stringIcSt11char_traitsIcESaIcEEESL_RKN3c106DeviceE
FNDA:7,_ZN5neml2L9get_forceINS_4SSR4EEEvRSt6vectorINS_19LabeledAxisAccessorESaIS3_EERS2_INS_6TensorESaIS7_EERKNS_9OptionSetERKNSt7__cxx1112basic_stringIcSt11char_traitsIcESaIcEEESL_RKN3c106DeviceE
FNDA:7,_ZN5neml2L9get_forceINS_4SWR4EEEvRSt6vectorINS_19LabeledAxisAccessorESaIS3_EERS2_INS_6TensorESaIS7_EERKNS_9OptionSetERKNSt7__cxx1112basic_stringIcSt11char_traitsIcESaIcEEESL_RKN3c106DeviceE
FNDA:7,_ZN5neml2L9get_forceINS_4WSR4EEEvRSt6vectorINS_19LabeledAxisAccessorESaIS3_EERS2_INS_6TensorESaIS7_EERKNS_9OptionSetERKNSt7__cxx1112basic_stringIcSt11char_traitsIcESaIcEEESL_RKN3c106DeviceE
FNDA:7,_ZN5neml2L9get_forceINS_4WWR4EEEvRSt6vectorINS_19LabeledAxisAccessorESaIS3_EERS2_INS_6TensorESaIS7_EERKNS_9OptionSetERKNSt7__cxx1112basic_stringIcSt11char_traitsIcESaIcEEESL_RKN3c106DeviceE
FNDA:7,_ZN5neml2L9get_forceINS_5SFFR4EEEvRSt6vectorINS_19LabeledAxisAccessorESaIS3_EERS2_INS_6TensorESaIS7_EERKNS_9OptionSetERKNSt7__cxx1112basic_stringIcSt11char_traitsIcESaIcEEESL_RKN3c106DeviceE
FNDA:7,_ZN5neml2L9get_forceINS_5WFFR4EEEvRSt6vectorINS_19LabeledAxisAccessorESaIS3_EERS2_INS_6TensorESaIS7_EERKNS_9OptionSetERKNSt7__cxx1112basic_stringIcSt11char_traitsIcESaIcEEESL_RKN3c106DeviceE
FNDA:7,_ZN5neml2L9get_forceINS_6ScalarEEEvRSt6vectorINS_19LabeledAxisAccessorESaIS3_EERS2_INS_6TensorESaIS7_EERKNS_9OptionSetERKNSt7__cxx1112basic_stringIcSt11char_traitsIcESaIcEEESL_RKN3c106DeviceE
FNDA:7,_ZN5neml2L9get_forceINS_6TensorEEEvRSt6vectorINS_19LabeledAxisAccessorESaIS3_EERS2_IS1_SaIS1_EERKNS_9OptionSetERKNSt7__cxx1112basic_stringIcSt11char_traitsIcESaIcEEESK_RKN3c106DeviceE
FNF:53
FNH:53
DA:45,126
DA:51,126
DA:52,126
DA:53,126
DA:59,126
DA:61,252
DA:63,126
DA:64,126
DA:65,127
DA:67,1
DA:70,1
DA:72,126
DA:76,126
DA:83,126
DA:84,126
DA:85,126
DA:91,126
DA:93,252
DA:95,126
DA:96,126
DA:97,126
DA:99,0
DA:102,0
DA:103,0
DA:105,126
DA:108,8
DA:110,8
DA:111,8
DA:113,24
DA:114,16
DA:115,16
DA:116,24
DA:118,8
DA:120,32
DA:121,16
DA:122,16
DA:123,16
DA:124,32
DA:131,1152
DA:138,1152
DA:140,16
DA:141,16
DA:142,8
DA:144,16
DA:145,8
DA:147,7
DA:149,7
DA:150,14
DA:151,7
DA:152,7
DA:153,14
DA:154,14
DA:155,35
DA:157,7
DA:166,504
DA:167,7
DA:170,7
DA:172,7
DA:174,49
DA:175,46
DA:177,4
DA:178,4
DA:180,7
DA:183,7
DA:185,7
DA:187,7
DA:188,7
DA:190,7
DA:192,7
DA:194,0
DA:196,0
DA:198,0
DA:199,0
DA:201,0
DA:204,0
DA:209,7
DA:210,36
DA:211,36
DA:213,7
DA:214,7
DA:217,7
DA:218,58
DA:219,51
DA:220,13
DA:224,7
DA:227,7
DA:229,7
DA:231,7
DA:232,5
DA:234,7
DA:238,7
DA:240,77
DA:242,70
DA:247,70
DA:248,63
DA:249,70
DA:250,70
DA:252,7
DA:253,7
DA:257,63
DA:258,63
DA:259,63
DA:260,63
DA:263,70
DA:269,7
DA:273,63
DA:276,198
DA:277,135
DA:278,117
DA:281,488
DA:282,425
DA:283,108
DA:284,63
DA:287,70
DA:289,70
DA:290,140
DA:292,70
DA:293,0
DA:294,140
DA:297,7
DA:301,504
DA:304,22
DA:305,15
DA:306,14
DA:307,7
DA:310,63
DA:312,63
DA:313,27
DA:315,351
DA:316,315
DA:317,81
DA:319,162
DA:320,72
DA:321,18
DA:324,9
DA:325,1
DA:329,8
DA:330,8
DA:331,8
DA:332,8
DA:333,8
DA:335,8
DA:336,8
DA:337,8
DA:338,8
DA:341,0
DA:346,63
DA:349,63
DA:351,0
DA:352,0
DA:353,0
DA:354,0
DA:357,63
DA:361,63
DA:363,63
DA:364,63
DA:366,0
DA:367,0
DA:369,0
DA:373,0
DA:376,0
DA:377,0
DA:378,0
DA:379,0
DA:382,70
DA:384,70
DA:385,70
DA:388,12
DA:390,12
DA:394,5
DA:397,5
DA:398,55
DA:401,50
DA:402,414
DA:403,364
DA:404,50
DA:405,50
DA:408,5
DA:409,55
DA:412,50
DA:413,180
DA:414,130
DA:415,50
DA:416,50
DA:419,5
DA:420,25
DA:421,10
DA:422,10
DA:425,5
DA:427,5
DA:432,5
DA:433,5
DA:435,5
DA:436,5
DA:442,5
DA:446,5
DA:449,5
DA:451,5
DA:452,5
LF:199
LH:176
end_of_record
TN:
SF:/home/runner/work/neml2/neml2/src/neml2/drivers/link_anchor.cxx
FN:30,34,_neml2_force_link_drivers
FNDA:319,_neml2_force_link_drivers
FNF:1
FNH:1
DA:30,319
DA:33,319
DA:34,319
LF:3
LH:3
end_of_record
TN:
SF:/home/runner/work/neml2/neml2/src/neml2/drivers/solid_mechanics/LDISolidMechanicsDriver.cxx
FN:105,110,_ZN5neml223LDISolidMechanicsDriver22init_vorticity_controlERKNS_9OptionSetE
FN:113,139,_ZNK5neml223LDISolidMechanicsDriver8diagnoseEv
FN:142,146,_ZN5neml223LDISolidMechanicsDriver13update_forcesEv
FN:149,160,_ZN5neml223LDISolidMechanicsDriver15apply_predictorEv
FN:35,70,_ZN5neml223LDISolidMechanicsDriver16expected_optionsEv
FN:72,79,_ZN5neml223LDISolidMechanicsDriverC2ERKNS_9OptionSetE
FN:82,86,_ZN5neml223LDISolidMechanicsDriver5setupEv
FN:89,94,_ZN5neml223LDISolidMechanicsDriver19init_strain_controlERKNS_9OptionSetE
FN:97,102,_ZN5neml223LDISolidMechanicsDriver19init_stress_controlERKNS_9OptionSetE
FNDA:1,_ZN5neml223LDISolidMechanicsDriver22init_vorticity_controlERKNS_9OptionSetE
FNDA:1,_ZNK5neml223LDISolidMechanicsDriver8diagnoseEv
FNDA:10,_ZN5neml223LDISolidMechanicsDriver13update_forcesEv
FNDA:9,_ZN5neml223LDISolidMechanicsDriver15apply_predictorEv
FNDA:2,_ZN5neml223LDISolidMechanicsDriver16expected_optionsEv
FNDA:1,_ZN5neml223LDISolidMechanicsDriverC2ERKNS_9OptionSetE
FNDA:1,_ZN5neml223LDISolidMechanicsDriver5setupEv
FNDA:1,_ZN5neml223LDISolidMechanicsDriver19init_strain_controlERKNS_9OptionSetE
FNDA:0,_ZN5neml223LDISolidMechanicsDriver19init_stress_controlERKNS_9OptionSetE
FNF:9
FNH:8
DA:35,2
DA:37,2
DA:38,2
DA:39,2
DA:41,6
DA:42,4
DA:43,4
DA:44,4
DA:45,2
DA:47,6
DA:48,4
DA:49,4
DA:50,4
DA:51,2
DA:53,6
DA:54,4
DA:55,4
DA:56,4
DA:58,4
DA:59,6
DA:61,2
DA:62,4
DA:63,4
DA:64,2
DA:65,6
DA:66,4
DA:67,2
DA:69,2
DA:70,0
DA:72,1
DA:74,1
DA:75,2
DA:76,2
DA:77,3
DA:79,1
DA:82,1
DA:84,1
DA:85,1
DA:86,1
DA:89,1
DA:91,1
DA:92,2
DA:93,1
DA:94,1
DA:97,0
DA:99,0
DA:100,0
DA:101,0
DA:102,0
DA:105,1
DA:107,1
DA:108,2
DA:109,1
DA:110,1
DA:113,1
DA:115,1
DA:117,1
DA:119,1
DA:122,1
DA:123,1
DA:125,1
DA:131,1
DA:133,1
DA:134,1
DA:136,1
DA:139,1
DA:142,10
DA:144,10
DA:145,20
DA:146,20
DA:149,9
DA:151,9
DA:153,9
DA:155,1
DA:156,1
DA:157,1
DA:158,1
DA:159,1
DA:160,9
LF:79
LH:73
end_of_record
TN:
SF:/home/runner/work/neml2/neml2/src/neml2/drivers/solid_mechanics/SDTSolidMechanicsDriver.cxx
FN:32,49,_ZN5neml223SDTSolidMechanicsDriver16expected_optionsEv
FN:51,54,_ZN5neml223SDTSolidMechanicsDriverC2ERKNS_9OptionSetE
FN:57,62,_ZN5neml223SDTSolidMechanicsDriver19init_strain_controlERKNS_9OptionSetE
FN:65,70,_ZN5neml223SDTSolidMechanicsDriver19init_stress_controlERKNS_9OptionSetE
FNDA:2,_ZN5neml223SDTSolidMechanicsDriver16expected_optionsEv
FNDA:6,_ZN5neml223SDTSolidMechanicsDriverC2ERKNS_9OptionSetE
FNDA:4,_ZN5neml223SDTSolidMechanicsDriver19init_strain_controlERKNS_9OptionSetE
FNDA:1,_ZN5neml223SDTSolidMechanicsDriver19init_stress_controlERKNS_9OptionSetE
FNF:4
FNH:4
DA:32,2
DA:34,2
DA:35,2
DA:36,2
DA:38,6
DA:39,4
DA:40,4
DA:41,2
DA:43,6
DA:44,4
DA:45,4
DA:46,2
DA:48,2
DA:49,0
DA:51,6
DA:52,6
DA:54,6
DA:57,4
DA:59,4
DA:60,8
DA:61,4
DA:62,4
DA:65,1
DA:67,1
DA:68,2
DA:69,1
DA:70,1
LF:27
LH:26
end_of_record
TN:
SF:/home/runner/work/neml2/neml2/src/neml2/drivers/solid_mechanics/SolidMechanicsDriver.cxx
FN:106,111,_ZN5neml220SolidMechanicsDriver24init_temperature_controlERKNS_9OptionSetE
FN:114,159,_ZNK5neml220SolidMechanicsDriver8diagnoseEv
FN:162,173,_ZN5neml220SolidMechanicsDriver13update_forcesEv
FN:31,64,_ZN5neml220SolidMechanicsDriver16expected_optionsEv
FN:66,71,_ZN5neml220SolidMechanicsDriverC2ERKNS_9OptionSetE
FN:74,91,_ZN5neml220SolidMechanicsDriver5setupEv
FN:94,103,_ZN5neml220SolidMechanicsDriver18init_mixed_controlERKNS_9OptionSetE
FNDA:1,_ZN5neml220SolidMechanicsDriver24init_temperature_controlERKNS_9OptionSetE
FNDA:7,_ZNK5neml220SolidMechanicsDriver8diagnoseEv
FNDA:70,_ZN5neml220SolidMechanicsDriver13update_forcesEv
FNDA:4,_ZN5neml220SolidMechanicsDriver16expected_optionsEv
FNDA:7,_ZN5neml220SolidMechanicsDriverC2ERKNS_9OptionSetE
FNDA:7,_ZN5neml220SolidMechanicsDriver5setupEv
FNDA:1,_ZN5neml220SolidMechanicsDriver18init_mixed_controlERKNS_9OptionSetE
FNF:7
FNH:7
DA:31,4
DA:33,4
DA:34,4
DA:36,16
DA:37,8
DA:38,8
DA:39,12
DA:41,12
DA:42,8
DA:43,8
DA:44,8
DA:45,4
DA:47,12
DA:48,8
DA:49,8
DA:50,8
DA:53,4
DA:55,12
DA:56,12
DA:57,4
DA:58,8
DA:59,8
DA:61,4
DA:63,8
DA:64,4
DA:66,7
DA:68,7
DA:69,28
DA:71,7
DA:74,7
DA:76,7
DA:78,14
DA:79,5
DA:80,4
DA:81,1
DA:82,2
DA:83,1
DA:89,7
DA:90,1
DA:91,7
DA:94,1
DA:96,1
DA:97,2
DA:98,1
DA:100,1
DA:101,2
DA:102,1
DA:103,1
DA:106,1
DA:108,1
DA:109,2
DA:110,1
DA:111,1
DA:114,7
DA:116,7
DA:118,7
DA:121,7
DA:123,7
DA:131,7
DA:133,1
DA:136,1
DA:138,1
DA:139,1
DA:147,14
DA:149,1
DA:152,1
DA:153,1
DA:154,1
DA:159,7
DA:162,70
DA:164,70
DA:166,140
DA:168,70
DA:169,20
DA:171,140
DA:172,20
DA:173,160
LF:77
LH:77
end_of_record
TN:
SF:/home/runner/work/neml2/neml2/src/neml2/misc/defaults.cxx
FN:30,33,_ZN5neml217set_default_dtypeEN3c1010ScalarTypeE
FN:36,39,_ZN5neml217get_default_dtypeEv
FN:42,45,_ZN5neml222default_tensor_optionsEv
FN:48,51,_ZN5neml225set_default_integer_dtypeEN3c1010ScalarTypeE
FN:54,57,_ZN5neml225get_default_integer_dtypeEv
FN:60,63,_ZN5neml230default_integer_tensor_optionsEv
FN:68,72,_ZN5neml27details21default_integer_dtypeEv
FNDA:2,_ZN5neml217set_default_dtypeEN3c1010ScalarTypeE
FNDA:470,_ZN5neml217get_default_dtypeEv
FNDA:3911,_ZN5neml222default_tensor_optionsEv
FNDA:0,_ZN5neml225set_default_integer_dtypeEN3c1010ScalarTypeE
FNDA:5038,_ZN5neml225get_default_integer_dtypeEv
FNDA:11,_ZN5neml230default_integer_tensor_optionsEv
FNDA:5038,_ZN5neml27details21default_integer_dtypeEv
FNF:7
FNH:6
DA:30,2
DA:32,2
DA:33,2
DA:36,470
DA:38,470
DA:42,3911
DA:44,3911
DA:48,0
DA:50,0
DA:51,0
DA:54,5038
DA:56,5038
DA:60,11
DA:62,11
DA:68,5038
DA:71,5038
LF:16
LH:13
end_of_record
TN:
SF:/home/runner/work/neml2/neml2/src/neml2/misc/errors.cxx
FN:30,33,_ZNK5neml213NEMLException4whatEv
FN:36,39,_ZNK5neml214SetupException4whatEv
FNDA:41,_ZNK5neml213NEMLException4whatEv
FNDA:102,_ZNK5neml214SetupException4whatEv
FNF:2
FNH:2
DA:30,41
DA:32,41
DA:36,102
DA:38,102
LF:4
LH:4
end_of_record
TN:
SF:/home/runner/work/neml2/neml2/src/neml2/misc/string_utils.cxx
FN:32,36,_ZN5neml25utils8demangleB5cxx11EPKc
FN:39,49,_ZN5neml25utils4joinERKSt6vectorINSt7__cxx1112basic_stringIcSt11char_traitsIcESaIcEEESaIS7_EERKS7_
FN:52,70,_ZN5neml25utils5splitERKNSt7__cxx1112basic_stringIcSt11char_traitsIcESaIcEEES8_
FN:73,80,_ZN5neml25utils4trimERKNSt7__cxx1112basic_stringIcSt11char_traitsIcESaIcEEES8_
FN:83,86,_ZN5neml25utils10start_withESt17basic_string_viewIcSt11char_traitsIcEES4_
FN:89,93,_ZN5neml25utils8end_withESt17basic_string_viewIcSt11char_traitsIcEES4_
FNDA:406456,_ZN5neml25utils8demangleB5cxx11EPKc
FNDA:0,_ZN5neml25utils4joinERKSt6vectorINSt7__cxx1112basic_stringIcSt11char_traitsIcESaIcEEESaIS7_EERKS7_
FNDA:3756,_ZN5neml25utils5splitERKNSt7__cxx1112basic_stringIcSt11char_traitsIcESaIcEEES8_
FNDA:11257,_ZN5neml25utils4trimERKNSt7__cxx1112basic_stringIcSt11char_traitsIcESaIcEEES8_
FNDA:36388,_ZN5neml25utils10start_withESt17basic_string_viewIcSt11char_traitsIcEES4_
FNDA:615,_ZN5neml25utils8end_withESt17basic_string_viewIcSt11char_traitsIcEES4_
FNF:6
FNH:5
DA:32,406456
DA:35,406456
DA:39,0
DA:41,0
DA:42,0
DA:44,0
DA:45,0
DA:46,0
DA:48,0
DA:49,0
DA:52,3756
DA:54,3756
DA:56,3756
DA:57,3756
DA:59,9574
DA:61,9555
DA:63,9555
DA:64,9555
DA:65,3737
DA:66,5818
DA:69,3756
DA:70,0
DA:73,11257
DA:75,11257
DA:76,11257
DA:77,36
DA:78,11239
DA:79,11239
DA:83,36388
DA:85,36388
DA:89,615
DA:91,1230
DA:92,1230
LF:33
LH:24
end_of_record
TN:
SF:/home/runner/work/neml2/neml2/src/neml2/misc/types.cxx
FN:34,48,_ZN5neml217machine_precisionEN3c1010ScalarTypeE
FN:51,67,_ZN5neml2lsERSoNS_5FTypeE
FNDA:19123,_ZN5neml217machine_precisionEN3c1010ScalarTypeE
FNDA:0,_ZN5neml2lsERSoNS_5FTypeE
FNF:2
FNH:1
DA:34,19123
DA:36,19123
DA:38,10827
DA:39,10827
DA:40,4184
DA:41,4184
DA:42,4112
DA:44,4112
DA:45,0
DA:46,0
DA:51,0
DA:53,0
DA:54,0
DA:55,0
DA:56,0
DA:57,0
DA:58,0
DA:59,0
DA:60,0
DA:61,0
DA:62,0
DA:64,0
DA:66,0
LF:23
LH:8
end_of_record
TN:
SF:/home/runner/work/neml2/neml2/src/neml2/models/ArrheniusParameter.cxx
FN:34,60,_ZN5neml218ArrheniusParameter16expected_optionsEv
FN:62,70,_ZN5neml218ArrheniusParameterC2ERKNS_9OptionSetE
FN:73,91,_ZN5neml218ArrheniusParameter9set_valueEbbb
FNDA:2,_ZN5neml218ArrheniusParameter16expected_optionsEv
FNDA:2,_ZN5neml218ArrheniusParameterC2ERKNS_9OptionSetE
FNDA:5,_ZN5neml218ArrheniusParameter9set_valueEbbb
FNF:3
FNH:3
DA:34,2
DA:36,2
DA:37,2
DA:40,2
DA:42,4
DA:44,4
DA:45,4
DA:47,4
DA:48,4
DA:50,4
DA:51,2
DA:53,6
DA:54,2
DA:56,6
DA:57,2
DA:59,2
DA:60,0
DA:62,2
DA:64,6
DA:65,10
DA:66,2
DA:67,2
DA:68,4
DA:70,2
DA:73,5
DA:75,5
DA:77,5
DA:78,5
DA:80,5
DA:81,5
DA:83,2
DA:85,2
DA:86,1
DA:88,2
DA:89,1
DA:90,2
DA:91,5
LF:37
LH:36
end_of_record
TN:
SF:/home/runner/work/neml2/neml2/src/neml2/models/Assembler.cxx
FN:100,122,_ZNK5neml215VectorAssembler17split_by_variableERKNS_6TensorEb
FN:125,141,_ZNK5neml215VectorAssembler16split_by_subaxisERKNS_6TensorE
FN:144,239,_ZNK5neml215MatrixAssembler20assemble_by_variableERKSt3mapINS_19LabeledAxisAccessorES1_IS2_NS_6TensorESt4lessIS2_ESaISt4pairIKS2_S3_EEES5_SaIS6_IS7_SA_EEEb
FN:242,271,_ZNK5neml215MatrixAssembler17split_by_variableERKNS_6TensorEb
FN:274,296,_ZNK5neml215MatrixAssembler16split_by_subaxisERKNS_6TensorE
FN:35,97,_ZNK5neml215VectorAssembler20assemble_by_variableERKSt3mapINS_19LabeledAxisAccessorENS_6TensorESt4lessIS2_ESaISt4pairIKS2_S3_EEEb
FNDA:1023,_ZNK5neml215VectorAssembler17split_by_variableERKNS_6TensorEb
FNDA:1,_ZNK5neml215VectorAssembler16split_by_subaxisERKNS_6TensorE
FNDA:678,_ZNK5neml215MatrixAssembler20assemble_by_variableERKSt3mapINS_19LabeledAxisAccessorES1_IS2_NS_6TensorESt4lessIS2_ESaISt4pairIKS2_S3_EEES5_SaIS6_IS7_SA_EEEb
FNDA:9,_ZNK5neml215MatrixAssembler17split_by_variableERKNS_6TensorEb
FNDA:3,_ZNK5neml215MatrixAssembler16split_by_subaxisERKNS_6TensorE
FNDA:1190,_ZNK5neml215VectorAssembler20assemble_by_variableERKSt3mapINS_19LabeledAxisAccessorENS_6TensorESt4lessIS2_ESaISt4pairIKS2_S3_EEEb
FNF:6
FNH:6
DA:35,1190
DA:37,1190
DA:40,1190
DA:41,1190
DA:46,1190
DA:47,4588
DA:49,3398
DA:50,3398
DA:52,3395
DA:53,3395
DA:55,3395
DA:57,3395
DA:59,3395
DA:61,3395
DA:63,3395
DA:65,3395
DA:67,3395
DA:69,6790
DA:71,3395
DA:73,0
DA:74,3395
DA:75,3395
DA:76,3395
DA:77,3395
DA:78,3395
DA:80,1190
DA:81,1190
DA:83,3395
DA:86,1190
DA:89,1190
DA:90,4588
DA:91,3398
DA:92,3395
DA:94,3
DA:96,2380
DA:97,1190
DA:100,1023
DA:102,1023
DA:104,1023
DA:107,1023
DA:109,1023
DA:110,1023
DA:112,3967
DA:114,2944
DA:115,5888
DA:117,0
DA:118,2944
DA:119,2944
DA:121,2046
DA:122,1023
DA:125,1
DA:127,1
DA:129,1
DA:132,1
DA:134,1
DA:135,1
DA:137,3
DA:138,2
DA:140,2
DA:141,1
DA:144,678
DA:146,678
DA:147,678
DA:150,678
DA:151,678
DA:154,678
DA:155,2633
DA:157,1955
DA:158,1955
DA:159,0
DA:164,1955
DA:165,8023
DA:167,6068
DA:168,6068
DA:170,6056
DA:171,6056
DA:173,6056
DA:175,6056
DA:177,6056
DA:179,6056
DA:181,6056
DA:183,12112
DA:184,6056
DA:186,6056
DA:188,6056
DA:190,12112
DA:192,12112
DA:195,6056
DA:198,0
DA:199,6056
DA:200,6056
DA:202,6056
DA:204,6056
DA:205,6056
DA:206,6056
DA:208,678
DA:209,678
DA:211,6056
DA:214,1955
DA:218,1955
DA:219,8023
DA:220,6068
DA:221,6056
DA:223,24
DA:224,24
DA:226,1955
DA:227,1955
DA:230,678
DA:231,2633
DA:232,1955
DA:233,1955
DA:235,0
DA:236,0
DA:238,1356
DA:239,678
DA:242,9
DA:244,9
DA:246,9
DA:249,9
DA:251,9
DA:252,9
DA:254,9
DA:255,30
DA:257,21
DA:258,60
DA:260,39
DA:261,78
DA:262,78
DA:265,0
DA:266,39
DA:267,39
DA:268,21
DA:270,18
DA:271,9
DA:274,3
DA:276,3
DA:278,3
DA:281,3
DA:283,3
DA:284,3
DA:286,3
DA:287,6
DA:289,3
DA:290,15
DA:291,24
DA:292,36
DA:293,3
DA:295,6
DA:296,3
LF:149
LH:142
end_of_record
TN:
SF:/home/runner/work/neml2/neml2/src/neml2/models/BackwardEulerTimeIntegration.cxx
FN:33,54,_ZN5neml228BackwardEulerTimeIntegrationINS_2R2EE16expected_optionsEv
FN:33,54,_ZN5neml228BackwardEulerTimeIntegrationINS_3SR2EE16expected_optionsEv
FN:33,54,_ZN5neml228BackwardEulerTimeIntegrationINS_3VecEE16expected_optionsEv
FN:33,54,_ZN5neml228BackwardEulerTimeIntegrationINS_6ScalarEE16expected_optionsEv
FN:57,68,_ZN5neml228BackwardEulerTimeIntegrationINS_2R2EEC2ERKNS_9OptionSetE
FN:57,68,_ZN5neml228BackwardEulerTimeIntegrationINS_3SR2EEC2ERKNS_9OptionSetE
FN:57,68,_ZN5neml228BackwardEulerTimeIntegrationINS_3VecEEC2ERKNS_9OptionSetE
FN:57,68,_ZN5neml228BackwardEulerTimeIntegrationINS_6ScalarEEC2ERKNS_9OptionSetE
FN:72,78,_ZNK5neml228BackwardEulerTimeIntegrationINS_2R2EE8diagnoseEv
FN:72,78,_ZNK5neml228BackwardEulerTimeIntegrationINS_3SR2EE8diagnoseEv
FN:72,78,_ZNK5neml228BackwardEulerTimeIntegrationINS_3VecEE8diagnoseEv
FN:72,78,_ZNK5neml228BackwardEulerTimeIntegrationINS_6ScalarEE8diagnoseEv
FN:82,101,_ZN5neml228BackwardEulerTimeIntegrationINS_2R2EE9set_valueEbbb
FN:82,101,_ZN5neml228BackwardEulerTimeIntegrationINS_3SR2EE9set_valueEbbb
FN:82,101,_ZN5neml228BackwardEulerTimeIntegrationINS_3VecEE9set_valueEbbb
FN:82,101,_ZN5neml228BackwardEulerTimeIntegrationINS_6ScalarEE9set_valueEbbb
FNDA:2,_ZN5neml228BackwardEulerTimeIntegrationINS_2R2EE16expected_optionsEv
FNDA:2,_ZN5neml228BackwardEulerTimeIntegrationINS_3SR2EE16expected_optionsEv
FNDA:2,_ZN5neml228BackwardEulerTimeIntegrationINS_3VecEE16expected_optionsEv
FNDA:2,_ZN5neml228BackwardEulerTimeIntegrationINS_6ScalarEE16expected_optionsEv
FNDA:0,_ZN5neml228BackwardEulerTimeIntegrationINS_2R2EEC2ERKNS_9OptionSetE
FNDA:10,_ZN5neml228BackwardEulerTimeIntegrationINS_3SR2EEC2ERKNS_9OptionSetE
FNDA:0,_ZN5neml228BackwardEulerTimeIntegrationINS_3VecEEC2ERKNS_9OptionSetE
FNDA:18,_ZN5neml228BackwardEulerTimeIntegrationINS_6ScalarEEC2ERKNS_9OptionSetE
FNDA:0,_ZNK5neml228BackwardEulerTimeIntegrationINS_2R2EE8diagnoseEv
FNDA:6,_ZNK5neml228BackwardEulerTimeIntegrationINS_3SR2EE8diagnoseEv
FNDA:0,_ZNK5neml228BackwardEulerTimeIntegrationINS_3VecEE8diagnoseEv
FNDA:3,_ZNK5neml228BackwardEulerTimeIntegrationINS_6ScalarEE8diagnoseEv
FNDA:0,_ZN5neml228BackwardEulerTimeIntegrationINS_2R2EE9set_valueEbbb
FNDA:42,_ZN5neml228BackwardEulerTimeIntegrationINS_3SR2EE9set_valueEbbb
FNDA:0,_ZN5neml228BackwardEulerTimeIntegrationINS_3VecEE9set_valueEbbb
FNDA:41,_ZN5neml228BackwardEulerTimeIntegrationINS_6ScalarEE9set_valueEbbb
FNF:16
FNH:10
DA:33,8
DA:35,8
DA:36,8
DA:42,8
DA:44,16
DA:45,16
DA:47,16
DA:48,8
DA:50,24
DA:51,8
DA:53,8
DA:54,0
DA:57,28
DA:59,28
DA:60,28
DA:61,56
DA:62,110
DA:63,28
DA:64,28
DA:65,28
DA:66,56
DA:68,28
DA:72,9
DA:74,9
DA:75,9
DA:76,9
DA:77,9
DA:78,9
DA:82,83
DA:84,83
DA:85,83
DA:87,83
DA:89,45
DA:91,45
DA:92,45
DA:94,45
DA:95,32
DA:97,13
DA:98,13
DA:99,13
DA:100,45
LF:41
LH:40
end_of_record
TN:
SF:/home/runner/work/neml2/neml2/src/neml2/models/BilinearInterpolation.cxx
FN:36,63,_ZN5neml221BilinearInterpolationINS_3SR2EE16expected_optionsEv
FN:36,63,_ZN5neml221BilinearInterpolationINS_3VecEE16expected_optionsEv
FN:36,63,_ZN5neml221BilinearInterpolationINS_6ScalarEE16expected_optionsEv
FN:66,74,_ZN5neml221BilinearInterpolationINS_3SR2EEC2ERKNS_9OptionSetE
FN:66,74,_ZN5neml221BilinearInterpolationINS_3VecEEC2ERKNS_9OptionSetE
FN:66,74,_ZN5neml221BilinearInterpolationINS_6ScalarEEC2ERKNS_9OptionSetE
FN:78,161,_ZN5neml221BilinearInterpolationINS_3SR2EE9set_valueEbbb
FN:78,161,_ZN5neml221BilinearInterpolationINS_3VecEE9set_valueEbbb
FN:78,161,_ZN5neml221BilinearInterpolationINS_6ScalarEE9set_valueEbbb
FNDA:2,_ZN5neml221BilinearInterpolationINS_3SR2EE16expected_optionsEv
FNDA:2,_ZN5neml221BilinearInterpolationINS_3VecEE16expected_optionsEv
FNDA:2,_ZN5neml221BilinearInterpolationINS_6ScalarEE16expected_optionsEv
FNDA:0,_ZN5neml221BilinearInterpolationINS_3SR2EEC2ERKNS_9OptionSetE
FNDA:0,_ZN5neml221BilinearInterpolationINS_3VecEEC2ERKNS_9OptionSetE
FNDA:4,_ZN5neml221BilinearInterpolationINS_6ScalarEEC2ERKNS_9OptionSetE
FNDA:0,_ZN5neml221BilinearInterpolationINS_3SR2EE9set_valueEbbb
FNDA:0,_ZN5neml221BilinearInterpolationINS_3VecEE9set_valueEbbb
FNDA:12,_ZN5neml221BilinearInterpolationINS_6ScalarEE9set_valueEbbb
FNF:9
FNH:5
DA:36,6
DA:38,6
DA:39,6
DA:41,12
DA:43,12
DA:44,12
DA:47,12
DA:48,12
DA:51,12
DA:52,12
DA:55,12
DA:56,12
DA:59,12
DA:60,6
DA:62,6
DA:63,0
DA:66,4
DA:68,12
DA:69,16
DA:70,4
DA:71,4
DA:72,8
DA:74,4
DA:78,12
DA:82,12
DA:84,12
DA:86,12
DA:88,12
DA:90,12
DA:93,12
DA:95,12
DA:97,12
DA:99,12
DA:101,12
DA:105,12
DA:106,12
DA:107,12
DA:110,12
DA:111,12
DA:115,12
DA:116,12
DA:117,12
DA:126,72
DA:127,72
DA:128,72
DA:129,72
DA:130,12
DA:131,12
DA:132,12
DA:133,12
DA:140,12
DA:141,12
DA:142,12
DA:144,12
DA:145,12
DA:147,12
DA:149,4
DA:150,4
DA:151,4
DA:152,4
DA:155,12
DA:156,4
DA:158,4
DA:159,4
DA:161,156
LF:65
LH:64
end_of_record
TN:
SF:/home/runner/work/neml2/neml2/src/neml2/models/BufferStore.cxx
FN:117,138,_ZN5neml211BufferStore19assign_buffer_stackERSt6vectorIN3c106IValueESaIS3_EE
FN:141,149,_ZNK5neml211BufferStore20collect_buffer_stackEv
FN:35,38,_ZN5neml211BufferStoreC2EPNS_11NEML2ObjectE
FN:41,46,_ZN5neml211BufferStore13named_buffersB5cxx11Ev
FN:49,54,_ZN5neml211BufferStore10get_bufferERKNSt7__cxx1112basic_stringIcSt11char_traitsIcESaIcEEE
FN:57,61,_ZN5neml211BufferStore15send_buffers_toERKN3c1013TensorOptionsE
FN:65,86,_ZN5neml211BufferStore14declare_bufferINS_10QuaternionEvEERKT_RKNSt7__cxx1112basic_stringIcSt11char_traitsIcESaIcEEES5_
FN:65,86,_ZN5neml211BufferStore14declare_bufferINS_11MillerIndexEvEERKT_RKNSt7__cxx1112basic_stringIcSt11char_traitsIcESaIcEEES5_
FN:65,86,_ZN5neml211BufferStore14declare_bufferINS_2R2EvEERKT_RKNSt7__cxx1112basic_stringIcSt11char_traitsIcESaIcEEES5_
FN:65,86,_ZN5neml211BufferStore14declare_bufferINS_2R3EvEERKT_RKNSt7__cxx1112basic_stringIcSt11char_traitsIcESaIcEEES5_
FN:65,86,_ZN5neml211BufferStore14declare_bufferINS_2R4EvEERKT_RKNSt7__cxx1112basic_stringIcSt11char_traitsIcESaIcEEES5_
FN:65,86,_ZN5neml211BufferStore14declare_bufferINS_3RotEvEERKT_RKNSt7__cxx1112basic_stringIcSt11char_traitsIcESaIcEEES5_
FN:65,86,_ZN5neml211BufferStore14declare_bufferINS_3SR2EvEERKT_RKNSt7__cxx1112basic_stringIcSt11char_traitsIcESaIcEEES5_
FN:65,86,_ZN5neml211BufferStore14declare_bufferINS_3VecEvEERKT_RKNSt7__cxx1112basic_stringIcSt11char_traitsIcESaIcEEES5_
FN:65,86,_ZN5neml211BufferStore14declare_bufferINS_3WR2EvEERKT_RKNSt7__cxx1112basic_stringIcSt11char_traitsIcESaIcEEES5_
FN:65,86,_ZN5neml211BufferStore14declare_bufferINS_4SFR3EvEERKT_RKNSt7__cxx1112basic_stringIcSt11char_traitsIcESaIcEEES5_
FN:65,86,_ZN5neml211BufferStore14declare_bufferINS_4SSR4EvEERKT_RKNSt7__cxx1112basic_stringIcSt11char_traitsIcESaIcEEES5_
FN:65,86,_ZN5neml211BufferStore14declare_bufferINS_4SWR4EvEERKT_RKNSt7__cxx1112basic_stringIcSt11char_traitsIcESaIcEEES5_
FN:65,86,_ZN5neml211BufferStore14declare_bufferINS_4WSR4EvEERKT_RKNSt7__cxx1112basic_stringIcSt11char_traitsIcESaIcEEES5_
FN:65,86,_ZN5neml211BufferStore14declare_bufferINS_4WWR4EvEERKT_RKNSt7__cxx1112basic_stringIcSt11char_traitsIcESaIcEEES5_
FN:65,86,_ZN5neml211BufferStore14declare_bufferINS_5SFFR4EvEERKT_RKNSt7__cxx1112basic_stringIcSt11char_traitsIcESaIcEEES5_
FN:65,86,_ZN5neml211BufferStore14declare_bufferINS_5WFFR4EvEERKT_RKNSt7__cxx1112basic_stringIcSt11char_traitsIcESaIcEEES5_
FN:65,86,_ZN5neml211BufferStore14declare_bufferINS_6ScalarEvEERKT_RKNSt7__cxx1112basic_stringIcSt11char_traitsIcESaIcEEES5_
FN:65,86,_ZN5neml211BufferStore14declare_bufferINS_6TensorEvEERKT_RKNSt7__cxx1112basic_stringIcSt11char_traitsIcESaIcEEES5_
FN:90,95,_ZN5neml211BufferStore14declare_bufferINS_10QuaternionEvEERKT_RKNSt7__cxx1112basic_stringIcSt11char_traitsIcESaIcEEERKNS_10TensorNameIS3_EE
FN:90,95,_ZN5neml211BufferStore14declare_bufferINS_11MillerIndexEvEERKT_RKNSt7__cxx1112basic_stringIcSt11char_traitsIcESaIcEEERKNS_10TensorNameIS3_EE
FN:90,95,_ZN5neml211BufferStore14declare_bufferINS_2R2EvEERKT_RKNSt7__cxx1112basic_stringIcSt11char_traitsIcESaIcEEERKNS_10TensorNameIS3_EE
FN:90,95,_ZN5neml211BufferStore14declare_bufferINS_2R3EvEERKT_RKNSt7__cxx1112basic_stringIcSt11char_traitsIcESaIcEEERKNS_10TensorNameIS3_EE
FN:90,95,_ZN5neml211BufferStore14declare_bufferINS_2R4EvEERKT_RKNSt7__cxx1112basic_stringIcSt11char_traitsIcESaIcEEERKNS_10TensorNameIS3_EE
FN:90,95,_ZN5neml211BufferStore14declare_bufferINS_3RotEvEERKT_RKNSt7__cxx1112basic_stringIcSt11char_traitsIcESaIcEEERKNS_10TensorNameIS3_EE
FN:90,95,_ZN5neml211BufferStore14declare_bufferINS_3SR2EvEERKT_RKNSt7__cxx1112basic_stringIcSt11char_traitsIcESaIcEEERKNS_10TensorNameIS3_EE
FN:90,95,_ZN5neml211BufferStore14declare_bufferINS_3VecEvEERKT_RKNSt7__cxx1112basic_stringIcSt11char_traitsIcESaIcEEERKNS_10TensorNameIS3_EE
FN:90,95,_ZN5neml211BufferStore14declare_bufferINS_3WR2EvEERKT_RKNSt7__cxx1112basic_stringIcSt11char_traitsIcESaIcEEERKNS_10TensorNameIS3_EE
FN:90,95,_ZN5neml211BufferStore14declare_bufferINS_4SFR3EvEERKT_RKNSt7__cxx1112basic_stringIcSt11char_traitsIcESaIcEEERKNS_10TensorNameIS3_EE
FN:90,95,_ZN5neml211BufferStore14declare_bufferINS_4SSR4EvEERKT_RKNSt7__cxx1112basic_stringIcSt11char_traitsIcESaIcEEERKNS_10TensorNameIS3_EE
FN:90,95,_ZN5neml211BufferStore14declare_bufferINS_4SWR4EvEERKT_RKNSt7__cxx1112basic_stringIcSt11char_traitsIcESaIcEEERKNS_10TensorNameIS3_EE
FN:90,95,_ZN5neml211BufferStore14declare_bufferINS_4WSR4EvEERKT_RKNSt7__cxx1112basic_stringIcSt11char_traitsIcESaIcEEERKNS_10TensorNameIS3_EE
FN:90,95,_ZN5neml211BufferStore14declare_bufferINS_4WWR4EvEERKT_RKNSt7__cxx1112basic_stringIcSt11char_traitsIcESaIcEEERKNS_10TensorNameIS3_EE
FN:90,95,_ZN5neml211BufferStore14declare_bufferINS_5SFFR4EvEERKT_RKNSt7__cxx1112basic_stringIcSt11char_traitsIcESaIcEEERKNS_10TensorNameIS3_EE
FN:90,95,_ZN5neml211BufferStore14declare_bufferINS_5WFFR4EvEERKT_RKNSt7__cxx1112basic_stringIcSt11char_traitsIcESaIcEEERKNS_10TensorNameIS3_EE
FN:90,95,_ZN5neml211BufferStore14declare_bufferINS_6ScalarEvEERKT_RKNSt7__cxx1112basic_stringIcSt11char_traitsIcESaIcEEERKNS_10TensorNameIS3_EE
FN:90,95,_ZN5neml211BufferStore14declare_bufferINS_6TensorEvEERKT_RKNSt7__cxx1112basic_stringIcSt11char_traitsIcESaIcEEERKNS_10TensorNameIS3_EE
FN:99,108,_ZN5neml211BufferStore14declare_bufferINS_10QuaternionEvEERKT_RKNSt7__cxx1112basic_stringIcSt11char_traitsIcESaIcEEESD_
FN:99,108,_ZN5neml211BufferStore14declare_bufferINS_11MillerIndexEvEERKT_RKNSt7__cxx1112basic_stringIcSt11char_traitsIcESaIcEEESD_
FN:99,108,_ZN5neml211BufferStore14declare_bufferINS_2R2EvEERKT_RKNSt7__cxx1112basic_stringIcSt11char_traitsIcESaIcEEESD_
FN:99,108,_ZN5neml211BufferStore14declare_bufferINS_2R3EvEERKT_RKNSt7__cxx1112basic_stringIcSt11char_traitsIcESaIcEEESD_
FN:99,108,_ZN5neml211BufferStore14declare_bufferINS_2R4EvEERKT_RKNSt7__cxx1112basic_stringIcSt11char_traitsIcESaIcEEESD_
FN:99,108,_ZN5neml211BufferStore14declare_bufferINS_3RotEvEERKT_RKNSt7__cxx1112basic_stringIcSt11char_traitsIcESaIcEEESD_
FN:99,108,_ZN5neml211BufferStore14declare_bufferINS_3SR2EvEERKT_RKNSt7__cxx1112basic_stringIcSt11char_traitsIcESaIcEEESD_
FN:99,108,_ZN5neml211BufferStore14declare_bufferINS_3VecEvEERKT_RKNSt7__cxx1112basic_stringIcSt11char_traitsIcESaIcEEESD_
FN:99,108,_ZN5neml211BufferStore14declare_bufferINS_3WR2EvEERKT_RKNSt7__cxx1112basic_stringIcSt11char_traitsIcESaIcEEESD_
FN:99,108,_ZN5neml211BufferStore14declare_bufferINS_4SFR3EvEERKT_RKNSt7__cxx1112basic_stringIcSt11char_traitsIcESaIcEEESD_
FN:99,108,_ZN5neml211BufferStore14declare_bufferINS_4SSR4EvEERKT_RKNSt7__cxx1112basic_stringIcSt11char_traitsIcESaIcEEESD_
FN:99,108,_ZN5neml211BufferStore14declare_bufferINS_4SWR4EvEERKT_RKNSt7__cxx1112basic_stringIcSt11char_traitsIcESaIcEEESD_
FN:99,108,_ZN5neml211BufferStore14declare_bufferINS_4WSR4EvEERKT_RKNSt7__cxx1112basic_stringIcSt11char_traitsIcESaIcEEESD_
FN:99,108,_ZN5neml211BufferStore14declare_bufferINS_4WWR4EvEERKT_RKNSt7__cxx1112basic_stringIcSt11char_traitsIcESaIcEEESD_
FN:99,108,_ZN5neml211BufferStore14declare_bufferINS_5SFFR4EvEERKT_RKNSt7__cxx1112basic_stringIcSt11char_traitsIcESaIcEEESD_
FN:99,108,_ZN5neml211BufferStore14declare_bufferINS_5WFFR4EvEERKT_RKNSt7__cxx1112basic_stringIcSt11char_traitsIcESaIcEEESD_
FN:99,108,_ZN5neml211BufferStore14declare_bufferINS_6ScalarEvEERKT_RKNSt7__cxx1112basic_stringIcSt11char_traitsIcESaIcEEESD_
FN:99,108,_ZN5neml211BufferStore14declare_bufferINS_6TensorEvEERKT_RKNSt7__cxx1112basic_stringIcSt11char_traitsIcESaIcEEESD_
FNDA:0,_ZN5neml211BufferStore19assign_buffer_stackERSt6vectorIN3c106IValueESaIS3_EE
FNDA:0,_ZNK5neml211BufferStore20collect_buffer_stackEv
FNDA:512,_ZN5neml211BufferStoreC2EPNS_11NEML2ObjectE
FNDA:337717,_ZN5neml211BufferStore13named_buffersB5cxx11Ev
FNDA:3,_ZN5neml211BufferStore10get_bufferERKNSt7__cxx1112basic_stringIcSt11char_traitsIcESaIcEEE
FNDA:91,_ZN5neml211BufferStore15send_buffers_toERKN3c1013TensorOptionsE
FNDA:0,_ZN5neml211BufferStore14declare_bufferINS_10QuaternionEvEERKT_RKNSt7__cxx1112basic_stringIcSt11char_traitsIcESaIcEEES5_
FNDA:64,_ZN5neml211BufferStore14declare_bufferINS_11MillerIndexEvEERKT_RKNSt7__cxx1112basic_stringIcSt11char_traitsIcESaIcEEES5_
FNDA:32,_ZN5neml211BufferStore14declare_bufferINS_2R2EvEERKT_RKNSt7__cxx1112basic_stringIcSt11char_traitsIcESaIcEEES5_
FNDA:0,_ZN5neml211BufferStore14declare_bufferINS_2R3EvEERKT_RKNSt7__cxx1112basic_stringIcSt11char_traitsIcESaIcEEES5_
FNDA:0,_ZN5neml211BufferStore14declare_bufferINS_2R4EvEERKT_RKNSt7__cxx1112basic_stringIcSt11char_traitsIcESaIcEEES5_
FNDA:0,_ZN5neml211BufferStore14declare_bufferINS_3RotEvEERKT_RKNSt7__cxx1112basic_stringIcSt11char_traitsIcESaIcEEES5_
FNDA:37,_ZN5neml211BufferStore14declare_bufferINS_3SR2EvEERKT_RKNSt7__cxx1112basic_stringIcSt11char_traitsIcESaIcEEES5_
FNDA:128,_ZN5neml211BufferStore14declare_bufferINS_3VecEvEERKT_RKNSt7__cxx1112basic_stringIcSt11char_traitsIcESaIcEEES5_
FNDA:32,_ZN5neml211BufferStore14declare_bufferINS_3WR2EvEERKT_RKNSt7__cxx1112basic_stringIcSt11char_traitsIcESaIcEEES5_
FNDA:0,_ZN5neml211BufferStore14declare_bufferINS_4SFR3EvEERKT_RKNSt7__cxx1112basic_stringIcSt11char_traitsIcESaIcEEES5_
FNDA:0,_ZN5neml211BufferStore14declare_bufferINS_4SSR4EvEERKT_RKNSt7__cxx1112basic_stringIcSt11char_traitsIcESaIcEEES5_
FNDA:0,_ZN5neml211BufferStore14declare_bufferINS_4SWR4EvEERKT_RKNSt7__cxx1112basic_stringIcSt11char_traitsIcESaIcEEES5_
FNDA:0,_ZN5neml211BufferStore14declare_bufferINS_4WSR4EvEERKT_RKNSt7__cxx1112basic_stringIcSt11char_traitsIcESaIcEEES5_
FNDA:0,_ZN5neml211BufferStore14declare_bufferINS_4WWR4EvEERKT_RKNSt7__cxx1112basic_stringIcSt11char_traitsIcESaIcEEES5_
FNDA:0,_ZN5neml211BufferStore14declare_bufferINS_5SFFR4EvEERKT_RKNSt7__cxx1112basic_stringIcSt11char_traitsIcESaIcEEES5_
FNDA:0,_ZN5neml211BufferStore14declare_bufferINS_5WFFR4EvEERKT_RKNSt7__cxx1112basic_stringIcSt11char_traitsIcESaIcEEES5_
FNDA:114,_ZN5neml211BufferStore14declare_bufferINS_6ScalarEvEERKT_RKNSt7__cxx1112basic_stringIcSt11char_traitsIcESaIcEEES5_
FNDA:0,_ZN5neml211BufferStore14declare_bufferINS_6TensorEvEERKT_RKNSt7__cxx1112basic_stringIcSt11char_traitsIcESaIcEEES5_
FNDA:0,_ZN5neml211BufferStore14declare_bufferINS_10QuaternionEvEERKT_RKNSt7__cxx1112basic_stringIcSt11char_traitsIcESaIcEEERKNS_10TensorNameIS3_EE
FNDA:54,_ZN5neml211BufferStore14declare_bufferINS_11MillerIndexEvEERKT_RKNSt7__cxx1112basic_stringIcSt11char_traitsIcESaIcEEERKNS_10TensorNameIS3_EE
FNDA:0,_ZN5neml211BufferStore14declare_bufferINS_2R2EvEERKT_RKNSt7__cxx1112basic_stringIcSt11char_traitsIcESaIcEEERKNS_10TensorNameIS3_EE
FNDA:0,_ZN5neml211BufferStore14declare_bufferINS_2R3EvEERKT_RKNSt7__cxx1112basic_stringIcSt11char_traitsIcESaIcEEERKNS_10TensorNameIS3_EE
FNDA:0,_ZN5neml211BufferStore14declare_bufferINS_2R4EvEERKT_RKNSt7__cxx1112basic_stringIcSt11char_traitsIcESaIcEEERKNS_10TensorNameIS3_EE
FNDA:0,_ZN5neml211BufferStore14declare_bufferINS_3RotEvEERKT_RKNSt7__cxx1112basic_stringIcSt11char_traitsIcESaIcEEERKNS_10TensorNameIS3_EE
FNDA:3,_ZN5neml211BufferStore14declare_bufferINS_3SR2EvEERKT_RKNSt7__cxx1112basic_stringIcSt11char_traitsIcESaIcEEERKNS_10TensorNameIS3_EE
FNDA:0,_ZN5neml211BufferStore14declare_bufferINS_3VecEvEERKT_RKNSt7__cxx1112basic_stringIcSt11char_traitsIcESaIcEEERKNS_10TensorNameIS3_EE
FNDA:0,_ZN5neml211BufferStore14declare_bufferINS_3WR2EvEERKT_RKNSt7__cxx1112basic_stringIcSt11char_traitsIcESaIcEEERKNS_10TensorNameIS3_EE
FNDA:0,_ZN5neml211BufferStore14declare_bufferINS_4SFR3EvEERKT_RKNSt7__cxx1112basic_stringIcSt11char_traitsIcESaIcEEERKNS_10TensorNameIS3_EE
FNDA:0,_ZN5neml211BufferStore14declare_bufferINS_4SSR4EvEERKT_RKNSt7__cxx1112basic_stringIcSt11char_traitsIcESaIcEEERKNS_10TensorNameIS3_EE
FNDA:0,_ZN5neml211BufferStore14declare_bufferINS_4SWR4EvEERKT_RKNSt7__cxx1112basic_stringIcSt11char_traitsIcESaIcEEERKNS_10TensorNameIS3_EE
FNDA:0,_ZN5neml211BufferStore14declare_bufferINS_4WSR4EvEERKT_RKNSt7__cxx1112basic_stringIcSt11char_traitsIcESaIcEEERKNS_10TensorNameIS3_EE
FNDA:0,_ZN5neml211BufferStore14declare_bufferINS_4WWR4EvEERKT_RKNSt7__cxx1112basic_stringIcSt11char_traitsIcESaIcEEERKNS_10TensorNameIS3_EE
FNDA:0,_ZN5neml211BufferStore14declare_bufferINS_5SFFR4EvEERKT_RKNSt7__cxx1112basic_stringIcSt11char_traitsIcESaIcEEERKNS_10TensorNameIS3_EE
FNDA:0,_ZN5neml211BufferStore14declare_bufferINS_5WFFR4EvEERKT_RKNSt7__cxx1112basic_stringIcSt11char_traitsIcESaIcEEERKNS_10TensorNameIS3_EE
FNDA:50,_ZN5neml211BufferStore14declare_bufferINS_6ScalarEvEERKT_RKNSt7__cxx1112basic_stringIcSt11char_traitsIcESaIcEEERKNS_10TensorNameIS3_EE
FNDA:0,_ZN5neml211BufferStore14declare_bufferINS_6TensorEvEERKT_RKNSt7__cxx1112basic_stringIcSt11char_traitsIcESaIcEEERKNS_10TensorNameIS3_EE
FNDA:0,_ZN5neml211BufferStore14declare_bufferINS_10QuaternionEvEERKT_RKNSt7__cxx1112basic_stringIcSt11char_traitsIcESaIcEEESD_
FNDA:54,_ZN5neml211BufferStore14declare_bufferINS_11MillerIndexEvEERKT_RKNSt7__cxx1112basic_stringIcSt11char_traitsIcESaIcEEESD_
FNDA:0,_ZN5neml211BufferStore14declare_bufferINS_2R2EvEERKT_RKNSt7__cxx1112basic_stringIcSt11char_traitsIcESaIcEEESD_
FNDA:0,_ZN5neml211BufferStore14declare_bufferINS_2R3EvEERKT_RKNSt7__cxx1112basic_stringIcSt11char_traitsIcESaIcEEESD_
FNDA:0,_ZN5neml211BufferStore14declare_bufferINS_2R4EvEERKT_RKNSt7__cxx1112basic_stringIcSt11char_traitsIcESaIcEEESD_
FNDA:0,_ZN5neml211BufferStore14declare_bufferINS_3RotEvEERKT_RKNSt7__cxx1112basic_stringIcSt11char_traitsIcESaIcEEESD_
FNDA:3,_ZN5neml211BufferStore14declare_bufferINS_3SR2EvEERKT_RKNSt7__cxx1112basic_stringIcSt11char_traitsIcESaIcEEESD_
FNDA:0,_ZN5neml211BufferStore14declare_bufferINS_3VecEvEERKT_RKNSt7__cxx1112basic_stringIcSt11char_traitsIcESaIcEEESD_
FNDA:0,_ZN5neml211BufferStore14declare_bufferINS_3WR2EvEERKT_RKNSt7__cxx1112basic_stringIcSt11char_traitsIcESaIcEEESD_
FNDA:0,_ZN5neml211BufferStore14declare_bufferINS_4SFR3EvEERKT_RKNSt7__cxx1112basic_stringIcSt11char_traitsIcESaIcEEESD_
FNDA:0,_ZN5neml211BufferStore14declare_bufferINS_4SSR4EvEERKT_RKNSt7__cxx1112basic_stringIcSt11char_traitsIcESaIcEEESD_
FNDA:0,_ZN5neml211BufferStore14declare_bufferINS_4SWR4EvEERKT_RKNSt7__cxx1112basic_stringIcSt11char_traitsIcESaIcEEESD_
FNDA:0,_ZN5neml211BufferStore14declare_bufferINS_4WSR4EvEERKT_RKNSt7__cxx1112basic_stringIcSt11char_traitsIcESaIcEEESD_
FNDA:0,_ZN5neml211BufferStore14declare_bufferINS_4WWR4EvEERKT_RKNSt7__cxx1112basic_stringIcSt11char_traitsIcESaIcEEESD_
FNDA:0,_ZN5neml211BufferStore14declare_bufferINS_5SFFR4EvEERKT_RKNSt7__cxx1112basic_stringIcSt11char_traitsIcESaIcEEESD_
FNDA:0,_ZN5neml211BufferStore14declare_bufferINS_5WFFR4EvEERKT_RKNSt7__cxx1112basic_stringIcSt11char_traitsIcESaIcEEESD_
FNDA:11,_ZN5neml211BufferStore14declare_bufferINS_6ScalarEvEERKT_RKNSt7__cxx1112basic_stringIcSt11char_traitsIcESaIcEEESD_
FNDA:0,_ZN5neml211BufferStore14declare_bufferINS_6TensorEvEERKT_RKNSt7__cxx1112basic_stringIcSt11char_traitsIcESaIcEEESD_
FNF:60
FNH:16
DA:35,512
DA:36,512
DA:38,512
DA:41,337717
DA:43,337717
DA:45,337717
DA:49,3
DA:51,3
DA:52,3
DA:53,3
DA:57,91
DA:59,112
DA:60,21
DA:61,91
DA:65,407
DA:67,407
DA:68,252
DA:69,168
DA:71,323
DA:74,323
DA:75,3
DA:78,320
DA:79,320
DA:80,320
DA:81,320
DA:83,323
DA:84,323
DA:85,323
DA:90,107
DA:92,107
DA:93,107
DA:94,107
DA:99,68
DA:101,68
DA:102,68
DA:104,0
DA:117,0
DA:119,0
DA:121,0
DA:123,0
DA:125,0
DA:129,0
DA:130,0
DA:132,0
DA:133,0
DA:134,0
DA:137,0
DA:138,0
DA:141,0
DA:143,0
DA:144,0
DA:145,0
DA:146,0
DA:147,0
DA:148,0
DA:149,0
LF:56
LH:35
end_of_record
TN:
SF:/home/runner/work/neml2/neml2/src/neml2/models/ComposedModel.cxx
FN:179,182,_ZNK5neml213ComposedModel26named_nonlinear_parametersB5cxx11Eb
FN:185,197,_ZN5neml213ComposedModel20link_input_variablesEPNS_5ModelE
FN:200,205,_ZN5neml213ComposedModel21link_output_variablesEPNS_5ModelE
FN:208,229,_ZN5neml213ComposedModel9set_valueEbbb
FN:33,61,_ZN5neml213ComposedModel16expected_optionsEv
FN:63,176,_ZN5neml213ComposedModelC2ERKNS_9OptionSetE
FNDA:32,_ZNK5neml213ComposedModel26named_nonlinear_parametersB5cxx11Eb
FNDA:262,_ZN5neml213ComposedModel20link_input_variablesEPNS_5ModelE
FNDA:262,_ZN5neml213ComposedModel21link_output_variablesEPNS_5ModelE
FNDA:230,_ZN5neml213ComposedModel9set_valueEbbb
FNDA:2,_ZN5neml213ComposedModel16expected_optionsEv
FNDA:78,_ZN5neml213ComposedModelC2ERKNS_9OptionSetE
FNF:6
FNH:6
DA:33,2
DA:35,2
DA:36,2
DA:39,2
DA:41,2
DA:43,4
DA:44,4
DA:46,4
DA:47,6
DA:49,2
DA:51,4
DA:52,6
DA:54,2
DA:56,4
DA:57,4
DA:58,2
DA:60,2
DA:61,0
DA:63,78
DA:65,156
DA:66,234
DA:71,341
DA:72,263
DA:82,78
DA:83,78
DA:84,263
DA:85,264
DA:86,79
DA:87,158
DA:88,262
DA:91,340
DA:92,262
DA:93,80
DA:94,2
DA:97,78
DA:98,78
DA:99,78
DA:100,0
DA:103,78
DA:104,78
DA:105,78
DA:106,78
DA:109,78
DA:110,340
DA:111,262
DA:112,78
DA:115,479
DA:116,401
DA:117,324
DA:120,182
DA:121,104
DA:124,263
DA:125,264
DA:126,79
DA:127,185
DA:130,78
DA:131,340
DA:132,262
DA:134,0
DA:135,0
DA:136,0
DA:137,0
DA:141,78
DA:143,78
DA:144,340
DA:145,262
DA:147,0
DA:148,0
DA:149,0
DA:154,78
DA:156,78
DA:157,193
DA:158,167
DA:160,52
DA:161,52
DA:166,78
DA:169,78
DA:170,324
DA:171,252
DA:173,4
DA:174,4
DA:176,78
DA:179,32
DA:181,32
DA:185,262
DA:187,2319
DA:188,2057
DA:189,401
DA:191,1702
DA:192,1440
DA:194,198
DA:195,198
DA:197,262
DA:200,262
DA:202,677
DA:203,415
DA:204,104
DA:205,262
DA:208,230
DA:210,1109
DA:212,879
DA:213,472
DA:214,407
DA:215,345
DA:216,62
DA:217,62
DA:219,0
DA:222,230
DA:223,205
DA:224,114
DA:226,230
DA:227,44
DA:228,22
DA:229,230
LF:114
LH:104
end_of_record
TN:
SF:/home/runner/work/neml2/neml2/src/neml2/models/ConstantParameter.cxx
FN:33,42,_ZN5neml217ConstantParameterINS_10QuaternionEE16expected_optionsEv
FN:33,42,_ZN5neml217ConstantParameterINS_11MillerIndexEE16expected_optionsEv
FN:33,42,_ZN5neml217ConstantParameterINS_2R2EE16expected_optionsEv
FN:33,42,_ZN5neml217ConstantParameterINS_2R3EE16expected_optionsEv
FN:33,42,_ZN5neml217ConstantParameterINS_2R4EE16expected_optionsEv
FN:33,42,_ZN5neml217ConstantParameterINS_3RotEE16expected_optionsEv
FN:33,42,_ZN5neml217ConstantParameterINS_3SR2EE16expected_optionsEv
FN:33,42,_ZN5neml217ConstantParameterINS_3VecEE16expected_optionsEv
FN:33,42,_ZN5neml217ConstantParameterINS_3WR2EE16expected_optionsEv
FN:33,42,_ZN5neml217ConstantParameterINS_4SFR3EE16expected_optionsEv
FN:33,42,_ZN5neml217ConstantParameterINS_4SSR4EE16expected_optionsEv
FN:33,42,_ZN5neml217ConstantParameterINS_4SWR4EE16expected_optionsEv
FN:33,42,_ZN5neml217ConstantParameterINS_4WSR4EE16expected_optionsEv
FN:33,42,_ZN5neml217ConstantParameterINS_4WWR4EE16expected_optionsEv
FN:33,42,_ZN5neml217ConstantParameterINS_5SFFR4EE16expected_optionsEv
FN:33,42,_ZN5neml217ConstantParameterINS_5WFFR4EE16expected_optionsEv
FN:33,42,_ZN5neml217ConstantParameterINS_6ScalarEE16expected_optionsEv
FN:45,50,_ZN5neml217ConstantParameterINS_10QuaternionEEC2ERKNS_9OptionSetE
FN:45,50,_ZN5neml217ConstantParameterINS_11MillerIndexEEC2ERKNS_9OptionSetE
FN:45,50,_ZN5neml217ConstantParameterINS_2R2EEC2ERKNS_9OptionSetE
FN:45,50,_ZN5neml217ConstantParameterINS_2R3EEC2ERKNS_9OptionSetE
FN:45,50,_ZN5neml217ConstantParameterINS_2R4EEC2ERKNS_9OptionSetE
FN:45,50,_ZN5neml217ConstantParameterINS_3RotEEC2ERKNS_9OptionSetE
FN:45,50,_ZN5neml217ConstantParameterINS_3SR2EEC2ERKNS_9OptionSetE
FN:45,50,_ZN5neml217ConstantParameterINS_3VecEEC2ERKNS_9OptionSetE
FN:45,50,_ZN5neml217ConstantParameterINS_3WR2EEC2ERKNS_9OptionSetE
FN:45,50,_ZN5neml217ConstantParameterINS_4SFR3EEC2ERKNS_9OptionSetE
FN:45,50,_ZN5neml217ConstantParameterINS_4SSR4EEC2ERKNS_9OptionSetE
FN:45,50,_ZN5neml217ConstantParameterINS_4SWR4EEC2ERKNS_9OptionSetE
FN:45,50,_ZN5neml217ConstantParameterINS_4WSR4EEC2ERKNS_9OptionSetE
FN:45,50,_ZN5neml217ConstantParameterINS_4WWR4EEC2ERKNS_9OptionSetE
FN:45,50,_ZN5neml217ConstantParameterINS_5SFFR4EEC2ERKNS_9OptionSetE
FN:45,50,_ZN5neml217ConstantParameterINS_5WFFR4EEC2ERKNS_9OptionSetE
FN:45,50,_ZN5neml217ConstantParameterINS_6ScalarEEC2ERKNS_9OptionSetE
FN:54,65,_ZN5neml217ConstantParameterINS_10QuaternionEE9set_valueEbbb
FN:54,65,_ZN5neml217ConstantParameterINS_11MillerIndexEE9set_valueEbbb
FN:54,65,_ZN5neml217ConstantParameterINS_2R2EE9set_valueEbbb
FN:54,65,_ZN5neml217ConstantParameterINS_2R3EE9set_valueEbbb
FN:54,65,_ZN5neml217ConstantParameterINS_2R4EE9set_valueEbbb
FN:54,65,_ZN5neml217ConstantParameterINS_3RotEE9set_valueEbbb
FN:54,65,_ZN5neml217ConstantParameterINS_3SR2EE9set_valueEbbb
FN:54,65,_ZN5neml217ConstantParameterINS_3VecEE9set_valueEbbb
FN:54,65,_ZN5neml217ConstantParameterINS_3WR2EE9set_valueEbbb
FN:54,65,_ZN5neml217ConstantParameterINS_4SFR3EE9set_valueEbbb
FN:54,65,_ZN5neml217ConstantParameterINS_4SSR4EE9set_valueEbbb
FN:54,65,_ZN5neml217ConstantParameterINS_4SWR4EE9set_valueEbbb
FN:54,65,_ZN5neml217ConstantParameterINS_4WSR4EE9set_valueEbbb
FN:54,65,_ZN5neml217ConstantParameterINS_4WWR4EE9set_valueEbbb
FN:54,65,_ZN5neml217ConstantParameterINS_5SFFR4EE9set_valueEbbb
FN:54,65,_ZN5neml217ConstantParameterINS_5WFFR4EE9set_valueEbbb
FN:54,65,_ZN5neml217ConstantParameterINS_6ScalarEE9set_valueEbbb
FNDA:2,_ZN5neml217ConstantParameterINS_10QuaternionEE16expected_optionsEv
FNDA:2,_ZN5neml217ConstantParameterINS_11MillerIndexEE16expected_optionsEv
FNDA:2,_ZN5neml217ConstantParameterINS_2R2EE16expected_optionsEv
FNDA:2,_ZN5neml217ConstantParameterINS_2R3EE16expected_optionsEv
FNDA:2,_ZN5neml217ConstantParameterINS_2R4EE16expected_optionsEv
FNDA:2,_ZN5neml217ConstantParameterINS_3RotEE16expected_optionsEv
FNDA:2,_ZN5neml217ConstantParameterINS_3SR2EE16expected_optionsEv
FNDA:2,_ZN5neml217ConstantParameterINS_3VecEE16expected_optionsEv
FNDA:2,_ZN5neml217ConstantParameterINS_3WR2EE16expected_optionsEv
FNDA:2,_ZN5neml217ConstantParameterINS_4SFR3EE16expected_optionsEv
FNDA:2,_ZN5neml217ConstantParameterINS_4SSR4EE16expected_optionsEv
FNDA:2,_ZN5neml217ConstantParameterINS_4SWR4EE16expected_optionsEv
FNDA:2,_ZN5neml217ConstantParameterINS_4WSR4EE16expected_optionsEv
FNDA:2,_ZN5neml217ConstantParameterINS_4WWR4EE16expected_optionsEv
FNDA:2,_ZN5neml217ConstantParameterINS_5SFFR4EE16expected_optionsEv
FNDA:2,_ZN5neml217ConstantParameterINS_5WFFR4EE16expected_optionsEv
FNDA:2,_ZN5neml217ConstantParameterINS_6ScalarEE16expected_optionsEv
FNDA:0,_ZN5neml217ConstantParameterINS_10QuaternionEEC2ERKNS_9OptionSetE
FNDA:0,_ZN5neml217ConstantParameterINS_11MillerIndexEEC2ERKNS_9OptionSetE
FNDA:0,_ZN5neml217ConstantParameterINS_2R2EEC2ERKNS_9OptionSetE
FNDA:0,_ZN5neml217ConstantParameterINS_2R3EEC2ERKNS_9OptionSetE
FNDA:0,_ZN5neml217ConstantParameterINS_2R4EEC2ERKNS_9OptionSetE
FNDA:0,_ZN5neml217ConstantParameterINS_3RotEEC2ERKNS_9OptionSetE
FNDA:1,_ZN5neml217ConstantParameterINS_3SR2EEC2ERKNS_9OptionSetE
FNDA:0,_ZN5neml217ConstantParameterINS_3VecEEC2ERKNS_9OptionSetE
FNDA:0,_ZN5neml217ConstantParameterINS_3WR2EEC2ERKNS_9OptionSetE
FNDA:0,_ZN5neml217ConstantParameterINS_4SFR3EEC2ERKNS_9OptionSetE
FNDA:0,_ZN5neml217ConstantParameterINS_4SSR4EEC2ERKNS_9OptionSetE
FNDA:0,_ZN5neml217ConstantParameterINS_4SWR4EEC2ERKNS_9OptionSetE
FNDA:0,_ZN5neml217ConstantParameterINS_4WSR4EEC2ERKNS_9OptionSetE
FNDA:0,_ZN5neml217ConstantParameterINS_4WWR4EEC2ERKNS_9OptionSetE
FNDA:0,_ZN5neml217ConstantParameterINS_5SFFR4EEC2ERKNS_9OptionSetE
FNDA:0,_ZN5neml217ConstantParameterINS_5WFFR4EEC2ERKNS_9OptionSetE
FNDA:4,_ZN5neml217ConstantParameterINS_6ScalarEEC2ERKNS_9OptionSetE
FNDA:0,_ZN5neml217ConstantParameterINS_10QuaternionEE9set_valueEbbb
FNDA:0,_ZN5neml217ConstantParameterINS_11MillerIndexEE9set_valueEbbb
FNDA:0,_ZN5neml217ConstantParameterINS_2R2EE9set_valueEbbb
FNDA:0,_ZN5neml217ConstantParameterINS_2R3EE9set_valueEbbb
FNDA:0,_ZN5neml217ConstantParameterINS_2R4EE9set_valueEbbb
FNDA:0,_ZN5neml217ConstantParameterINS_3RotEE9set_valueEbbb
FNDA:2,_ZN5neml217ConstantParameterINS_3SR2EE9set_valueEbbb
FNDA:0,_ZN5neml217ConstantParameterINS_3VecEE9set_valueEbbb
FNDA:0,_ZN5neml217ConstantParameterINS_3WR2EE9set_valueEbbb
FNDA:0,_ZN5neml217ConstantParameterINS_4SFR3EE9set_valueEbbb
FNDA:0,_ZN5neml217ConstantParameterINS_4SSR4EE9set_valueEbbb
FNDA:0,_ZN5neml217ConstantParameterINS_4SWR4EE9set_valueEbbb
FNDA:0,_ZN5neml217ConstantParameterINS_4WSR4EE9set_valueEbbb
FNDA:0,_ZN5neml217ConstantParameterINS_4WWR4EE9set_valueEbbb
FNDA:0,_ZN5neml217ConstantParameterINS_5SFFR4EE9set_valueEbbb
FNDA:0,_ZN5neml217ConstantParameterINS_5WFFR4EE9set_valueEbbb
FNDA:2,_ZN5neml217ConstantParameterINS_6ScalarEE9set_valueEbbb
FNF:51
FNH:21
DA:33,34
DA:35,34
DA:36,34
DA:39,68
DA:40,34
DA:41,34
DA:42,0
DA:45,5
DA:47,15
DA:48,10
DA:50,5
DA:54,4
DA:56,4
DA:57,4
DA:59,4
DA:60,6
DA:61,0
DA:65,4
LF:18
LH:16
end_of_record
TN:
SF:/home/runner/work/neml2/neml2/src/neml2/models/CopyVariable.cxx
FN:33,45,_ZN5neml212CopyVariableINS_10QuaternionEE16expected_optionsEv
FN:33,45,_ZN5neml212CopyVariableINS_11MillerIndexEE16expected_optionsEv
FN:33,45,_ZN5neml212CopyVariableINS_2R2EE16expected_optionsEv
FN:33,45,_ZN5neml212CopyVariableINS_2R3EE16expected_optionsEv
FN:33,45,_ZN5neml212CopyVariableINS_2R4EE16expected_optionsEv
FN:33,45,_ZN5neml212CopyVariableINS_3RotEE16expected_optionsEv
FN:33,45,_ZN5neml212CopyVariableINS_3SR2EE16expected_optionsEv
FN:33,45,_ZN5neml212CopyVariableINS_3VecEE16expected_optionsEv
FN:33,45,_ZN5neml212CopyVariableINS_3WR2EE16expected_optionsEv
FN:33,45,_ZN5neml212CopyVariableINS_4SFR3EE16expected_optionsEv
FN:33,45,_ZN5neml212CopyVariableINS_4SSR4EE16expected_optionsEv
FN:33,45,_ZN5neml212CopyVariableINS_4SWR4EE16expected_optionsEv
FN:33,45,_ZN5neml212CopyVariableINS_4WSR4EE16expected_optionsEv
FN:33,45,_ZN5neml212CopyVariableINS_4WWR4EE16expected_optionsEv
FN:33,45,_ZN5neml212CopyVariableINS_5SFFR4EE16expected_optionsEv
FN:33,45,_ZN5neml212CopyVariableINS_5WFFR4EE16expected_optionsEv
FN:33,45,_ZN5neml212CopyVariableINS_6ScalarEE16expected_optionsEv
FN:48,53,_ZN5neml212CopyVariableINS_10QuaternionEEC2ERKNS_9OptionSetE
FN:48,53,_ZN5neml212CopyVariableINS_11MillerIndexEEC2ERKNS_9OptionSetE
FN:48,53,_ZN5neml212CopyVariableINS_2R2EEC2ERKNS_9OptionSetE
FN:48,53,_ZN5neml212CopyVariableINS_2R3EEC2ERKNS_9OptionSetE
FN:48,53,_ZN5neml212CopyVariableINS_2R4EEC2ERKNS_9OptionSetE
FN:48,53,_ZN5neml212CopyVariableINS_3RotEEC2ERKNS_9OptionSetE
FN:48,53,_ZN5neml212CopyVariableINS_3SR2EEC2ERKNS_9OptionSetE
FN:48,53,_ZN5neml212CopyVariableINS_3VecEEC2ERKNS_9OptionSetE
FN:48,53,_ZN5neml212CopyVariableINS_3WR2EEC2ERKNS_9OptionSetE
FN:48,53,_ZN5neml212CopyVariableINS_4SFR3EEC2ERKNS_9OptionSetE
FN:48,53,_ZN5neml212CopyVariableINS_4SSR4EEC2ERKNS_9OptionSetE
FN:48,53,_ZN5neml212CopyVariableINS_4SWR4EEC2ERKNS_9OptionSetE
FN:48,53,_ZN5neml212CopyVariableINS_4WSR4EEC2ERKNS_9OptionSetE
FN:48,53,_ZN5neml212CopyVariableINS_4WWR4EEC2ERKNS_9OptionSetE
FN:48,53,_ZN5neml212CopyVariableINS_5SFFR4EEC2ERKNS_9OptionSetE
FN:48,53,_ZN5neml212CopyVariableINS_5WFFR4EEC2ERKNS_9OptionSetE
FN:48,53,_ZN5neml212CopyVariableINS_6ScalarEEC2ERKNS_9OptionSetE
FN:57,70,_ZN5neml212CopyVariableINS_10QuaternionEE9set_valueEbbb
FN:57,70,_ZN5neml212CopyVariableINS_11MillerIndexEE9set_valueEbbb
FN:57,70,_ZN5neml212CopyVariableINS_2R2EE9set_valueEbbb
FN:57,70,_ZN5neml212CopyVariableINS_2R3EE9set_valueEbbb
FN:57,70,_ZN5neml212CopyVariableINS_2R4EE9set_valueEbbb
FN:57,70,_ZN5neml212CopyVariableINS_3RotEE9set_valueEbbb
FN:57,70,_ZN5neml212CopyVariableINS_3SR2EE9set_valueEbbb
FN:57,70,_ZN5neml212CopyVariableINS_3VecEE9set_valueEbbb
FN:57,70,_ZN5neml212CopyVariableINS_3WR2EE9set_valueEbbb
FN:57,70,_ZN5neml212CopyVariableINS_4SFR3EE9set_valueEbbb
FN:57,70,_ZN5neml212CopyVariableINS_4SSR4EE9set_valueEbbb
FN:57,70,_ZN5neml212CopyVariableINS_4SWR4EE9set_valueEbbb
FN:57,70,_ZN5neml212CopyVariableINS_4WSR4EE9set_valueEbbb
FN:57,70,_ZN5neml212CopyVariableINS_4WWR4EE9set_valueEbbb
FN:57,70,_ZN5neml212CopyVariableINS_5SFFR4EE9set_valueEbbb
FN:57,70,_ZN5neml212CopyVariableINS_5WFFR4EE9set_valueEbbb
FN:57,70,_ZN5neml212CopyVariableINS_6ScalarEE9set_valueEbbb
FNDA:2,_ZN5neml212CopyVariableINS_10QuaternionEE16expected_optionsEv
FNDA:2,_ZN5neml212CopyVariableINS_11MillerIndexEE16expected_optionsEv
FNDA:2,_ZN5neml212CopyVariableINS_2R2EE16expected_optionsEv
FNDA:2,_ZN5neml212CopyVariableINS_2R3EE16expected_optionsEv
FNDA:2,_ZN5neml212CopyVariableINS_2R4EE16expected_optionsEv
FNDA:2,_ZN5neml212CopyVariableINS_3RotEE16expected_optionsEv
FNDA:2,_ZN5neml212CopyVariableINS_3SR2EE16expected_optionsEv
FNDA:2,_ZN5neml212CopyVariableINS_3VecEE16expected_optionsEv
FNDA:2,_ZN5neml212CopyVariableINS_3WR2EE16expected_optionsEv
FNDA:2,_ZN5neml212CopyVariableINS_4SFR3EE16expected_optionsEv
FNDA:2,_ZN5neml212CopyVariableINS_4SSR4EE16expected_optionsEv
FNDA:2,_ZN5neml212CopyVariableINS_4SWR4EE16expected_optionsEv
FNDA:2,_ZN5neml212CopyVariableINS_4WSR4EE16expected_optionsEv
FNDA:2,_ZN5neml212CopyVariableINS_4WWR4EE16expected_optionsEv
FNDA:2,_ZN5neml212CopyVariableINS_5SFFR4EE16expected_optionsEv
FNDA:2,_ZN5neml212CopyVariableINS_5WFFR4EE16expected_optionsEv
FNDA:2,_ZN5neml212CopyVariableINS_6ScalarEE16expected_optionsEv
FNDA:0,_ZN5neml212CopyVariableINS_10QuaternionEEC2ERKNS_9OptionSetE
FNDA:0,_ZN5neml212CopyVariableINS_11MillerIndexEEC2ERKNS_9OptionSetE
FNDA:0,_ZN5neml212CopyVariableINS_2R2EEC2ERKNS_9OptionSetE
FNDA:0,_ZN5neml212CopyVariableINS_2R3EEC2ERKNS_9OptionSetE
FNDA:0,_ZN5neml212CopyVariableINS_2R4EEC2ERKNS_9OptionSetE
FNDA:0,_ZN5neml212CopyVariableINS_3RotEEC2ERKNS_9OptionSetE
FNDA:1,_ZN5neml212CopyVariableINS_3SR2EEC2ERKNS_9OptionSetE
FNDA:0,_ZN5neml212CopyVariableINS_3VecEEC2ERKNS_9OptionSetE
FNDA:0,_ZN5neml212CopyVariableINS_3WR2EEC2ERKNS_9OptionSetE
FNDA:0,_ZN5neml212CopyVariableINS_4SFR3EEC2ERKNS_9OptionSetE
FNDA:0,_ZN5neml212CopyVariableINS_4SSR4EEC2ERKNS_9OptionSetE
FNDA:0,_ZN5neml212CopyVariableINS_4SWR4EEC2ERKNS_9OptionSetE
FNDA:0,_ZN5neml212CopyVariableINS_4WSR4EEC2ERKNS_9OptionSetE
FNDA:0,_ZN5neml212CopyVariableINS_4WWR4EEC2ERKNS_9OptionSetE
FNDA:0,_ZN5neml212CopyVariableINS_5SFFR4EEC2ERKNS_9OptionSetE
FNDA:0,_ZN5neml212CopyVariableINS_5WFFR4EEC2ERKNS_9OptionSetE
FNDA:4,_ZN5neml212CopyVariableINS_6ScalarEEC2ERKNS_9OptionSetE
FNDA:0,_ZN5neml212CopyVariableINS_10QuaternionEE9set_valueEbbb
FNDA:0,_ZN5neml212CopyVariableINS_11MillerIndexEE9set_valueEbbb
FNDA:0,_ZN5neml212CopyVariableINS_2R2EE9set_valueEbbb
FNDA:0,_ZN5neml212CopyVariableINS_2R3EE9set_valueEbbb
FNDA:0,_ZN5neml212CopyVariableINS_2R4EE9set_valueEbbb
FNDA:0,_ZN5neml212CopyVariableINS_3RotEE9set_valueEbbb
FNDA:6,_ZN5neml212CopyVariableINS_3SR2EE9set_valueEbbb
FNDA:0,_ZN5neml212CopyVariableINS_3VecEE9set_valueEbbb
FNDA:0,_ZN5neml212CopyVariableINS_3WR2EE9set_valueEbbb
FNDA:0,_ZN5neml212CopyVariableINS_4SFR3EE9set_valueEbbb
FNDA:0,_ZN5neml212CopyVariableINS_4SSR4EE9set_valueEbbb
FNDA:0,_ZN5neml212CopyVariableINS_4SWR4EE9set_valueEbbb
FNDA:0,_ZN5neml212CopyVariableINS_4WSR4EE9set_valueEbbb
FNDA:0,_ZN5neml212CopyVariableINS_4WWR4EE9set_valueEbbb
FNDA:0,_ZN5neml212CopyVariableINS_5SFFR4EE9set_valueEbbb
FNDA:0,_ZN5neml212CopyVariableINS_5WFFR4EE9set_valueEbbb
FNDA:3,_ZN5neml212CopyVariableINS_6ScalarEE9set_valueEbbb
FNF:51
FNH:21
DA:33,34
DA:35,34
DA:36,34
DA:38,68
DA:39,68
DA:41,68
DA:42,34
DA:44,34
DA:45,0
DA:48,5
DA:50,5
DA:51,10
DA:53,5
DA:57,9
DA:59,9
DA:60,9
DA:62,9
DA:63,9
DA:64,5
DA:70,9
LF:20
LH:19
end_of_record
TN:
SF:/home/runner/work/neml2/neml2/src/neml2/models/Data.cxx
FN:31,36,_ZN5neml24Data16expected_optionsEv
FN:38,42,_ZN5neml24DataC2ERKNS_9OptionSetE
FNDA:579,_ZN5neml24Data16expected_optionsEv
FNDA:512,_ZN5neml24DataC2ERKNS_9OptionSetE
FNF:2
FNH:2
DA:31,579
DA:33,579
DA:34,579
DA:35,579
DA:36,0
DA:38,512
DA:40,512
DA:42,512
LF:8
LH:7
end_of_record
TN:
SF:/home/runner/work/neml2/neml2/src/neml2/models/Derivative.cxx
FN:101,101,_ZZNK5neml210DerivativeILm1EE17total_intmd_sizesEvENKUlDpOT_E_clIJN3c108ArrayRefIlEES9_EEEDaS4_
FN:101,101,_ZZNK5neml210DerivativeILm2EE17total_intmd_sizesEvENKUlDpOT_E_clIJN3c108ArrayRefIlEES9_S9_EEEDaS4_
FN:106,109,_ZNK5neml210DerivativeILm1EE16total_base_sizesEv
FN:106,109,_ZNK5neml210DerivativeILm2EE16total_base_sizesEv
FN:108,108,_ZZNK5neml210DerivativeILm1EE16total_base_sizesEvENKUlDpOT_E_clIJN3c108ArrayRefIlEES9_EEEDaS4_
FN:108,108,_ZZNK5neml210DerivativeILm2EE16total_base_sizesEvENKUlDpOT_E_clIJN3c108ArrayRefIlEES9_S9_EEEDaS4_
FN:112,118,_ZN5neml2L13assign_or_addERNS_6TensorERKS0_
FN:122,150,_ZN5neml210DerivativeILm1EEaSERKNS_6TensorE
FN:122,150,_ZN5neml210DerivativeILm2EEaSERKNS_6TensorE
FN:154,313,_ZNK5neml210DerivativeILm1EE20broadcast_intmd_dimsERKNS_6TensorE
FN:154,313,_ZNK5neml210DerivativeILm2EE20broadcast_intmd_dimsERKNS_6TensorE
FN:178,178,_ZZNK5neml210DerivativeILm1EE20broadcast_intmd_dimsERKNS_6TensorEENKUlPKT_E_clINS_12VariableBaseEEEDaS7_
FN:178,178,_ZZNK5neml210DerivativeILm2EE20broadcast_intmd_dimsERKNS_6TensorEENKUlPKT_E_clINS_12VariableBaseEEEDaS7_
FN:185,185,_ZZNK5neml210DerivativeILm1EE20broadcast_intmd_dimsERKNS_6TensorEENKUlmRKT_E_clIN3c1011SmallVectorIlLj8EEEEEDamS7_
FN:185,185,_ZZNK5neml210DerivativeILm2EE20broadcast_intmd_dimsERKNS_6TensorEENKUlmRKT_E_clIN3c1011SmallVectorIlLj8EEEEEDamS7_
FN:317,320,_ZN5neml210DerivativeILm1EEaSERKNS_12VariableBaseE
FN:317,320,_ZN5neml210DerivativeILm2EEaSERKNS_12VariableBaseE
FN:324,331,_ZNK5neml210DerivativeILm1EEeqERKS1_
FN:324,331,_ZNK5neml210DerivativeILm2EEeqERKS1_
FN:335,344,_ZNK5neml210DerivativeILm1EE3getEv
FN:335,344,_ZNK5neml210DerivativeILm2EE3getEv
FN:348,352,_ZN5neml210DerivativeILm1EE3setERKNS_6TensorE
FN:348,352,_ZN5neml210DerivativeILm2EE3setERKNS_6TensorE
FN:40,47,_ZN5neml2L14normalize_dimsEN3c108ArrayRefIlEEll
FN:50,56,_ZN5neml2L11remove_dimsEN3c108ArrayRefIlEERKNS0_11SmallVectorIlLj8EEE
FN:59,72,_ZN5neml210DerivativeILm1EEC2ERKSt5arrayIPKNS_12VariableBaseELm2EEN3c108ArrayRefIlEE
FN:59,72,_ZN5neml210DerivativeILm2EEC2ERKSt5arrayIPKNS_12VariableBaseELm3EEN3c108ArrayRefIlEE
FN:76,81,_ZNK5neml210DerivativeILm1EE4argsEv
FN:76,81,_ZNK5neml210DerivativeILm2EE4argsEv
FN:85,88,_ZNK5neml210DerivativeILm1EE15get_intmd_sizesEv
FN:85,88,_ZNK5neml210DerivativeILm2EE15get_intmd_sizesEv
FN:87,87,_ZZNK5neml210DerivativeILm1EE15get_intmd_sizesEvENKUlDpOT_E_clIJRKPKNS_12VariableBaseESB_EEEDaS4_
FN:87,87,_ZZNK5neml210DerivativeILm2EE15get_intmd_sizesEvENKUlDpOT_E_clIJRKPKNS_12VariableBaseESB_SB_EEEDaS4_
FN:92,95,_ZNK5neml210DerivativeILm1EE14get_base_sizesEv
FN:92,95,_ZNK5neml210DerivativeILm2EE14get_base_sizesEv
FN:94,94,_ZZNK5neml210DerivativeILm1EE14get_base_sizesEvENKUlDpOT_E_clIJRKPKNS_12VariableBaseESB_EEEDaS4_
FN:94,94,_ZZNK5neml210DerivativeILm2EE14get_base_sizesEvENKUlDpOT_E_clIJRKPKNS_12VariableBaseESB_SB_EEEDaS4_
FN:99,102,_ZNK5neml210DerivativeILm1EE17total_intmd_sizesEv
FN:99,102,_ZNK5neml210DerivativeILm2EE17total_intmd_sizesEv
FNDA:1012,_ZZNK5neml210DerivativeILm1EE17total_intmd_sizesEvENKUlDpOT_E_clIJN3c108ArrayRefIlEES9_EEEDaS4_
FNDA:239,_ZZNK5neml210DerivativeILm2EE17total_intmd_sizesEvENKUlDpOT_E_clIJN3c108ArrayRefIlEES9_S9_EEEDaS4_
FNDA:998,_ZNK5neml210DerivativeILm1EE16total_base_sizesEv
FNDA:239,_ZNK5neml210DerivativeILm2EE16total_base_sizesEv
FNDA:998,_ZZNK5neml210DerivativeILm1EE16total_base_sizesEvENKUlDpOT_E_clIJN3c108ArrayRefIlEES9_EEEDaS4_
FNDA:239,_ZZNK5neml210DerivativeILm2EE16total_base_sizesEvENKUlDpOT_E_clIJN3c108ArrayRefIlEES9_S9_EEEDaS4_
FNDA:1237,_ZN5neml2L13assign_or_addERNS_6TensorERKS0_
FNDA:998,_ZN5neml210DerivativeILm1EEaSERKNS_6TensorE
FNDA:239,_ZN5neml210DerivativeILm2EEaSERKNS_6TensorE
FNDA:14,_ZNK5neml210DerivativeILm1EE20broadcast_intmd_dimsERKNS_6TensorE
FNDA:0,_ZNK5neml210DerivativeILm2EE20broadcast_intmd_dimsERKNS_6TensorE
FNDA:28,_ZZNK5neml210DerivativeILm1EE20broadcast_intmd_dimsERKNS_6TensorEENKUlPKT_E_clINS_12VariableBaseEEEDaS7_
FNDA:0,_ZZNK5neml210DerivativeILm2EE20broadcast_intmd_dimsERKNS_6TensorEENKUlPKT_E_clINS_12VariableBaseEEEDaS7_
FNDA:28,_ZZNK5neml210DerivativeILm1EE20broadcast_intmd_dimsERKNS_6TensorEENKUlmRKT_E_clIN3c1011SmallVectorIlLj8EEEEEDamS7_
FNDA:0,_ZZNK5neml210DerivativeILm2EE20broadcast_intmd_dimsERKNS_6TensorEENKUlmRKT_E_clIN3c1011SmallVectorIlLj8EEEEEDamS7_
FNDA:39,_ZN5neml210DerivativeILm1EEaSERKNS_12VariableBaseE
FNDA:0,_ZN5neml210DerivativeILm2EEaSERKNS_12VariableBaseE
FNDA:17511,_ZNK5neml210DerivativeILm1EEeqERKS1_
FNDA:6264,_ZNK5neml210DerivativeILm2EEeqERKS1_
FNDA:8938,_ZNK5neml210DerivativeILm1EE3getEv
FNDA:351,_ZNK5neml210DerivativeILm2EE3getEv
FNDA:9904,_ZN5neml210DerivativeILm1EE3setERKNS_6TensorE
FNDA:347,_ZN5neml210DerivativeILm2EE3setERKNS_6TensorE
FNDA:42,_ZN5neml2L14normalize_dimsEN3c108ArrayRefIlEEll
FNDA:28,_ZN5neml2L11remove_dimsEN3c108ArrayRefIlEERKNS0_11SmallVectorIlLj8EEE
FNDA:12345,_ZN5neml210DerivativeILm1EEC2ERKSt5arrayIPKNS_12VariableBaseELm2EEN3c108ArrayRefIlEE
FNDA:817,_ZN5neml210DerivativeILm2EEC2ERKSt5arrayIPKNS_12VariableBaseELm3EEN3c108ArrayRefIlEE
FNDA:11745,_ZNK5neml210DerivativeILm1EE4argsEv
FNDA:1510,_ZNK5neml210DerivativeILm2EE4argsEv
FNDA:11871,_ZNK5neml210DerivativeILm1EE15get_intmd_sizesEv
FNDA:825,_ZNK5neml210DerivativeILm2EE15get_intmd_sizesEv
FNDA:11871,_ZZNK5neml210DerivativeILm1EE15get_intmd_sizesEvENKUlDpOT_E_clIJRKPKNS_12VariableBaseESB_EEEDaS4_
FNDA:825,_ZZNK5neml210DerivativeILm2EE15get_intmd_sizesEvENKUlDpOT_E_clIJRKPKNS_12VariableBaseESB_SB_EEEDaS4_
FNDA:11857,_ZNK5neml210DerivativeILm1EE14get_base_sizesEv
FNDA:825,_ZNK5neml210DerivativeILm2EE14get_base_sizesEv
FNDA:11857,_ZZNK5neml210DerivativeILm1EE14get_base_sizesEvENKUlDpOT_E_clIJRKPKNS_12VariableBaseESB_EEEDaS4_
FNDA:825,_ZZNK5neml210DerivativeILm2EE14get_base_sizesEvENKUlDpOT_E_clIJRKPKNS_12VariableBaseESB_SB_EEEDaS4_
FNDA:1012,_ZNK5neml210DerivativeILm1EE17total_intmd_sizesEv
FNDA:239,_ZNK5neml210DerivativeILm2EE17total_intmd_sizesEv
FNF:39
FNH:35
DA:40,42
DA:42,42
DA:43,48
DA:44,6
DA:45,42
DA:46,42
DA:47,0
DA:50,28
DA:52,28
DA:53,31
DA:54,3
DA:55,28
DA:56,0
DA:59,13162
DA:61,13162
DA:62,13162
DA:65,41120
DA:66,12345
DA:67,3268
DA:68,1634
DA:69,13162
DA:72,13162
DA:76,13255
DA:78,13255
DA:79,13255
DA:80,13255
DA:85,12696
DA:87,25392
DA:92,12682
DA:94,25364
DA:99,1251
DA:101,2502
DA:106,1237
DA:108,2474
DA:112,1237
DA:114,1237
DA:115,2
DA:117,1235
DA:118,1237
DA:122,1237
DA:125,1237
DA:126,1237
DA:128,1237
DA:132,1237
DA:135,1237
DA:138,1237
DA:139,1223
DA:143,14
DA:147,1237
DA:149,1237
DA:150,1237
DA:154,14
DA:170,14
DA:174,42
DA:175,14
DA:178,28
DA:179,28
DA:182,14
DA:185,28
DA:186,28
DA:188,14
DA:193,14
DA:194,42
DA:195,31
DA:197,6
DA:201,3
DA:205,6
DA:207,3
DA:209,3
DA:215,14
DA:216,17
DA:217,3
DA:223,14
DA:224,14
DA:228,14
DA:229,14
DA:233,14
DA:240,42
DA:241,28
DA:245,28
DA:246,14
DA:250,14
DA:251,0
DA:260,14
DA:261,14
DA:262,14
DA:266,14
DA:270,14
DA:271,14
DA:272,14
DA:275,0
DA:276,0
DA:277,0
DA:281,0
DA:285,0
DA:286,0
DA:287,0
DA:288,0
DA:289,14
DA:295,14
DA:296,14
DA:297,42
DA:299,31
DA:301,3
DA:302,3
DA:303,3
DA:305,28
DA:308,14
DA:310,14
DA:312,28
DA:313,14
DA:317,39
DA:319,39
DA:324,23775
DA:326,50536
DA:327,48756
DA:328,21995
DA:330,1780
DA:335,9289
DA:337,9289
DA:338,8095
DA:340,1194
DA:341,1194
DA:343,1194
DA:348,10251
DA:350,10251
DA:351,10251
DA:352,10251
LF:128
LH:117
end_of_record
TN:
SF:/home/runner/work/neml2/neml2/src/neml2/models/Determinant.cxx
FN:40,52,_ZN5neml211DeterminantINS_2R2EE16expected_optionsEv
FN:40,52,_ZN5neml211DeterminantINS_3SR2EE16expected_optionsEv
FN:55,60,_ZN5neml211DeterminantINS_2R2EEC2ERKNS_9OptionSetE
FN:55,60,_ZN5neml211DeterminantINS_3SR2EEC2ERKNS_9OptionSetE
FN:64,72,_ZN5neml211DeterminantINS_2R2EE9set_valueEbbb
FN:64,72,_ZN5neml211DeterminantINS_3SR2EE9set_valueEbbb
FNDA:2,_ZN5neml211DeterminantINS_2R2EE16expected_optionsEv
FNDA:2,_ZN5neml211DeterminantINS_3SR2EE16expected_optionsEv
FNDA:1,_ZN5neml211DeterminantINS_2R2EEC2ERKNS_9OptionSetE
FNDA:0,_ZN5neml211DeterminantINS_3SR2EEC2ERKNS_9OptionSetE
FNDA:2,_ZN5neml211DeterminantINS_2R2EE9set_valueEbbb
FNDA:0,_ZN5neml211DeterminantINS_3SR2EE9set_valueEbbb
FNF:6
FNH:4
DA:40,4
DA:42,4
DA:43,4
DA:45,12
DA:46,4
DA:48,12
DA:49,4
DA:51,4
DA:52,0
DA:55,1
DA:57,1
DA:58,2
DA:60,1
DA:64,2
DA:66,2
DA:67,2
DA:69,2
DA:70,1
DA:71,1
DA:72,2
LF:20
LH:19
end_of_record
TN:
SF:/home/runner/work/neml2/neml2/src/neml2/models/DynamicMean.cxx
FN:34,39,_ZN5neml211DynamicMeanINS_10QuaternionEE16expected_optionsEv
FN:34,39,_ZN5neml211DynamicMeanINS_11MillerIndexEE16expected_optionsEv
FN:34,39,_ZN5neml211DynamicMeanINS_2R2EE16expected_optionsEv
FN:34,39,_ZN5neml211DynamicMeanINS_2R3EE16expected_optionsEv
FN:34,39,_ZN5neml211DynamicMeanINS_2R4EE16expected_optionsEv
FN:34,39,_ZN5neml211DynamicMeanINS_3RotEE16expected_optionsEv
FN:34,39,_ZN5neml211DynamicMeanINS_3SR2EE16expected_optionsEv
FN:34,39,_ZN5neml211DynamicMeanINS_3VecEE16expected_optionsEv
FN:34,39,_ZN5neml211DynamicMeanINS_3WR2EE16expected_optionsEv
FN:34,39,_ZN5neml211DynamicMeanINS_4SFR3EE16expected_optionsEv
FN:34,39,_ZN5neml211DynamicMeanINS_4SSR4EE16expected_optionsEv
FN:34,39,_ZN5neml211DynamicMeanINS_4SWR4EE16expected_optionsEv
FN:34,39,_ZN5neml211DynamicMeanINS_4WSR4EE16expected_optionsEv
FN:34,39,_ZN5neml211DynamicMeanINS_4WWR4EE16expected_optionsEv
FN:34,39,_ZN5neml211DynamicMeanINS_5SFFR4EE16expected_optionsEv
FN:34,39,_ZN5neml211DynamicMeanINS_5WFFR4EE16expected_optionsEv
FN:34,39,_ZN5neml211DynamicMeanINS_6ScalarEE16expected_optionsEv
FN:42,46,_ZN5neml211DynamicMeanINS_10QuaternionEEC2ERKNS_9OptionSetE
FN:42,46,_ZN5neml211DynamicMeanINS_11MillerIndexEEC2ERKNS_9OptionSetE
FN:42,46,_ZN5neml211DynamicMeanINS_2R2EEC2ERKNS_9OptionSetE
FN:42,46,_ZN5neml211DynamicMeanINS_2R3EEC2ERKNS_9OptionSetE
FN:42,46,_ZN5neml211DynamicMeanINS_2R4EEC2ERKNS_9OptionSetE
FN:42,46,_ZN5neml211DynamicMeanINS_3RotEEC2ERKNS_9OptionSetE
FN:42,46,_ZN5neml211DynamicMeanINS_3SR2EEC2ERKNS_9OptionSetE
FN:42,46,_ZN5neml211DynamicMeanINS_3VecEEC2ERKNS_9OptionSetE
FN:42,46,_ZN5neml211DynamicMeanINS_3WR2EEC2ERKNS_9OptionSetE
FN:42,46,_ZN5neml211DynamicMeanINS_4SFR3EEC2ERKNS_9OptionSetE
FN:42,46,_ZN5neml211DynamicMeanINS_4SSR4EEC2ERKNS_9OptionSetE
FN:42,46,_ZN5neml211DynamicMeanINS_4SWR4EEC2ERKNS_9OptionSetE
FN:42,46,_ZN5neml211DynamicMeanINS_4WSR4EEC2ERKNS_9OptionSetE
FN:42,46,_ZN5neml211DynamicMeanINS_4WWR4EEC2ERKNS_9OptionSetE
FN:42,46,_ZN5neml211DynamicMeanINS_5SFFR4EEC2ERKNS_9OptionSetE
FN:42,46,_ZN5neml211DynamicMeanINS_5WFFR4EEC2ERKNS_9OptionSetE
FN:42,46,_ZN5neml211DynamicMeanINS_6ScalarEEC2ERKNS_9OptionSetE
FN:50,54,_ZN5neml211DynamicMeanINS_10QuaternionEE9set_valueEbbb
FN:50,54,_ZN5neml211DynamicMeanINS_11MillerIndexEE9set_valueEbbb
FN:50,54,_ZN5neml211DynamicMeanINS_2R2EE9set_valueEbbb
FN:50,54,_ZN5neml211DynamicMeanINS_2R3EE9set_valueEbbb
FN:50,54,_ZN5neml211DynamicMeanINS_2R4EE9set_valueEbbb
FN:50,54,_ZN5neml211DynamicMeanINS_3RotEE9set_valueEbbb
FN:50,54,_ZN5neml211DynamicMeanINS_3SR2EE9set_valueEbbb
FN:50,54,_ZN5neml211DynamicMeanINS_3VecEE9set_valueEbbb
FN:50,54,_ZN5neml211DynamicMeanINS_3WR2EE9set_valueEbbb
FN:50,54,_ZN5neml211DynamicMeanINS_4SFR3EE9set_valueEbbb
FN:50,54,_ZN5neml211DynamicMeanINS_4SSR4EE9set_valueEbbb
FN:50,54,_ZN5neml211DynamicMeanINS_4SWR4EE9set_valueEbbb
FN:50,54,_ZN5neml211DynamicMeanINS_4WSR4EE9set_valueEbbb
FN:50,54,_ZN5neml211DynamicMeanINS_4WWR4EE9set_valueEbbb
FN:50,54,_ZN5neml211DynamicMeanINS_5SFFR4EE9set_valueEbbb
FN:50,54,_ZN5neml211DynamicMeanINS_5WFFR4EE9set_valueEbbb
FN:50,54,_ZN5neml211DynamicMeanINS_6ScalarEE9set_valueEbbb
FNDA:2,_ZN5neml211DynamicMeanINS_10QuaternionEE16expected_optionsEv
FNDA:2,_ZN5neml211DynamicMeanINS_11MillerIndexEE16expected_optionsEv
FNDA:2,_ZN5neml211DynamicMeanINS_2R2EE16expected_optionsEv
FNDA:2,_ZN5neml211DynamicMeanINS_2R3EE16expected_optionsEv
FNDA:2,_ZN5neml211DynamicMeanINS_2R4EE16expected_optionsEv
FNDA:2,_ZN5neml211DynamicMeanINS_3RotEE16expected_optionsEv
FNDA:2,_ZN5neml211DynamicMeanINS_3SR2EE16expected_optionsEv
FNDA:2,_ZN5neml211DynamicMeanINS_3VecEE16expected_optionsEv
FNDA:2,_ZN5neml211DynamicMeanINS_3WR2EE16expected_optionsEv
FNDA:2,_ZN5neml211DynamicMeanINS_4SFR3EE16expected_optionsEv
FNDA:2,_ZN5neml211DynamicMeanINS_4SSR4EE16expected_optionsEv
FNDA:2,_ZN5neml211DynamicMeanINS_4SWR4EE16expected_optionsEv
FNDA:2,_ZN5neml211DynamicMeanINS_4WSR4EE16expected_optionsEv
FNDA:2,_ZN5neml211DynamicMeanINS_4WWR4EE16expected_optionsEv
FNDA:2,_ZN5neml211DynamicMeanINS_5SFFR4EE16expected_optionsEv
FNDA:2,_ZN5neml211DynamicMeanINS_5WFFR4EE16expected_optionsEv
FNDA:2,_ZN5neml211DynamicMeanINS_6ScalarEE16expected_optionsEv
FNDA:0,_ZN5neml211DynamicMeanINS_10QuaternionEEC2ERKNS_9OptionSetE
FNDA:0,_ZN5neml211DynamicMeanINS_11MillerIndexEEC2ERKNS_9OptionSetE
FNDA:0,_ZN5neml211DynamicMeanINS_2R2EEC2ERKNS_9OptionSetE
FNDA:0,_ZN5neml211DynamicMeanINS_2R3EEC2ERKNS_9OptionSetE
FNDA:0,_ZN5neml211DynamicMeanINS_2R4EEC2ERKNS_9OptionSetE
FNDA:0,_ZN5neml211DynamicMeanINS_3RotEEC2ERKNS_9OptionSetE
FNDA:1,_ZN5neml211DynamicMeanINS_3SR2EEC2ERKNS_9OptionSetE
FNDA:0,_ZN5neml211DynamicMeanINS_3VecEEC2ERKNS_9OptionSetE
FNDA:0,_ZN5neml211DynamicMeanINS_3WR2EEC2ERKNS_9OptionSetE
FNDA:0,_ZN5neml211DynamicMeanINS_4SFR3EEC2ERKNS_9OptionSetE
FNDA:0,_ZN5neml211DynamicMeanINS_4SSR4EEC2ERKNS_9OptionSetE
FNDA:0,_ZN5neml211DynamicMeanINS_4SWR4EEC2ERKNS_9OptionSetE
FNDA:0,_ZN5neml211DynamicMeanINS_4WSR4EEC2ERKNS_9OptionSetE
FNDA:0,_ZN5neml211DynamicMeanINS_4WWR4EEC2ERKNS_9OptionSetE
FNDA:0,_ZN5neml211DynamicMeanINS_5SFFR4EEC2ERKNS_9OptionSetE
FNDA:0,_ZN5neml211DynamicMeanINS_5WFFR4EEC2ERKNS_9OptionSetE
FNDA:0,_ZN5neml211DynamicMeanINS_6ScalarEEC2ERKNS_9OptionSetE
FNDA:0,_ZN5neml211DynamicMeanINS_10QuaternionEE9set_valueEbbb
FNDA:0,_ZN5neml211DynamicMeanINS_11MillerIndexEE9set_valueEbbb
FNDA:0,_ZN5neml211DynamicMeanINS_2R2EE9set_valueEbbb
FNDA:0,_ZN5neml211DynamicMeanINS_2R3EE9set_valueEbbb
FNDA:0,_ZN5neml211DynamicMeanINS_2R4EE9set_valueEbbb
FNDA:0,_ZN5neml211DynamicMeanINS_3RotEE9set_valueEbbb
FNDA:1,_ZN5neml211DynamicMeanINS_3SR2EE9set_valueEbbb
FNDA:0,_ZN5neml211DynamicMeanINS_3VecEE9set_valueEbbb
FNDA:0,_ZN5neml211DynamicMeanINS_3WR2EE9set_valueEbbb
FNDA:0,_ZN5neml211DynamicMeanINS_4SFR3EE9set_valueEbbb
FNDA:0,_ZN5neml211DynamicMeanINS_4SSR4EE9set_valueEbbb
FNDA:0,_ZN5neml211DynamicMeanINS_4SWR4EE9set_valueEbbb
FNDA:0,_ZN5neml211DynamicMeanINS_4WSR4EE9set_valueEbbb
FNDA:0,_ZN5neml211DynamicMeanINS_4WWR4EE9set_valueEbbb
FNDA:0,_ZN5neml211DynamicMeanINS_5SFFR4EE9set_valueEbbb
FNDA:0,_ZN5neml211DynamicMeanINS_5WFFR4EE9set_valueEbbb
FNDA:0,_ZN5neml211DynamicMeanINS_6ScalarEE9set_valueEbbb
FNF:51
FNH:19
DA:34,34
DA:36,34
DA:37,34
DA:38,34
DA:39,0
DA:42,1
DA:44,1
DA:46,1
DA:50,1
DA:52,1
DA:53,1
DA:54,1
LF:12
LH:11
end_of_record
TN:
SF:/home/runner/work/neml2/neml2/src/neml2/models/DynamicSum.cxx
FN:34,39,_ZN5neml210DynamicSumINS_10QuaternionEE16expected_optionsEv
FN:34,39,_ZN5neml210DynamicSumINS_11MillerIndexEE16expected_optionsEv
FN:34,39,_ZN5neml210DynamicSumINS_2R2EE16expected_optionsEv
FN:34,39,_ZN5neml210DynamicSumINS_2R3EE16expected_optionsEv
FN:34,39,_ZN5neml210DynamicSumINS_2R4EE16expected_optionsEv
FN:34,39,_ZN5neml210DynamicSumINS_3RotEE16expected_optionsEv
FN:34,39,_ZN5neml210DynamicSumINS_3SR2EE16expected_optionsEv
FN:34,39,_ZN5neml210DynamicSumINS_3VecEE16expected_optionsEv
FN:34,39,_ZN5neml210DynamicSumINS_3WR2EE16expected_optionsEv
FN:34,39,_ZN5neml210DynamicSumINS_4SFR3EE16expected_optionsEv
FN:34,39,_ZN5neml210DynamicSumINS_4SSR4EE16expected_optionsEv
FN:34,39,_ZN5neml210DynamicSumINS_4SWR4EE16expected_optionsEv
FN:34,39,_ZN5neml210DynamicSumINS_4WSR4EE16expected_optionsEv
FN:34,39,_ZN5neml210DynamicSumINS_4WWR4EE16expected_optionsEv
FN:34,39,_ZN5neml210DynamicSumINS_5SFFR4EE16expected_optionsEv
FN:34,39,_ZN5neml210DynamicSumINS_5WFFR4EE16expected_optionsEv
FN:34,39,_ZN5neml210DynamicSumINS_6ScalarEE16expected_optionsEv
FN:42,46,_ZN5neml210DynamicSumINS_10QuaternionEEC2ERKNS_9OptionSetE
FN:42,46,_ZN5neml210DynamicSumINS_11MillerIndexEEC2ERKNS_9OptionSetE
FN:42,46,_ZN5neml210DynamicSumINS_2R2EEC2ERKNS_9OptionSetE
FN:42,46,_ZN5neml210DynamicSumINS_2R3EEC2ERKNS_9OptionSetE
FN:42,46,_ZN5neml210DynamicSumINS_2R4EEC2ERKNS_9OptionSetE
FN:42,46,_ZN5neml210DynamicSumINS_3RotEEC2ERKNS_9OptionSetE
FN:42,46,_ZN5neml210DynamicSumINS_3SR2EEC2ERKNS_9OptionSetE
FN:42,46,_ZN5neml210DynamicSumINS_3VecEEC2ERKNS_9OptionSetE
FN:42,46,_ZN5neml210DynamicSumINS_3WR2EEC2ERKNS_9OptionSetE
FN:42,46,_ZN5neml210DynamicSumINS_4SFR3EEC2ERKNS_9OptionSetE
FN:42,46,_ZN5neml210DynamicSumINS_4SSR4EEC2ERKNS_9OptionSetE
FN:42,46,_ZN5neml210DynamicSumINS_4SWR4EEC2ERKNS_9OptionSetE
FN:42,46,_ZN5neml210DynamicSumINS_4WSR4EEC2ERKNS_9OptionSetE
FN:42,46,_ZN5neml210DynamicSumINS_4WWR4EEC2ERKNS_9OptionSetE
FN:42,46,_ZN5neml210DynamicSumINS_5SFFR4EEC2ERKNS_9OptionSetE
FN:42,46,_ZN5neml210DynamicSumINS_5WFFR4EEC2ERKNS_9OptionSetE
FN:42,46,_ZN5neml210DynamicSumINS_6ScalarEEC2ERKNS_9OptionSetE
FN:50,54,_ZN5neml210DynamicSumINS_10QuaternionEE9set_valueEbbb
FN:50,54,_ZN5neml210DynamicSumINS_11MillerIndexEE9set_valueEbbb
FN:50,54,_ZN5neml210DynamicSumINS_2R2EE9set_valueEbbb
FN:50,54,_ZN5neml210DynamicSumINS_2R3EE9set_valueEbbb
FN:50,54,_ZN5neml210DynamicSumINS_2R4EE9set_valueEbbb
FN:50,54,_ZN5neml210DynamicSumINS_3RotEE9set_valueEbbb
FN:50,54,_ZN5neml210DynamicSumINS_3SR2EE9set_valueEbbb
FN:50,54,_ZN5neml210DynamicSumINS_3VecEE9set_valueEbbb
FN:50,54,_ZN5neml210DynamicSumINS_3WR2EE9set_valueEbbb
FN:50,54,_ZN5neml210DynamicSumINS_4SFR3EE9set_valueEbbb
FN:50,54,_ZN5neml210DynamicSumINS_4SSR4EE9set_valueEbbb
FN:50,54,_ZN5neml210DynamicSumINS_4SWR4EE9set_valueEbbb
FN:50,54,_ZN5neml210DynamicSumINS_4WSR4EE9set_valueEbbb
FN:50,54,_ZN5neml210DynamicSumINS_4WWR4EE9set_valueEbbb
FN:50,54,_ZN5neml210DynamicSumINS_5SFFR4EE9set_valueEbbb
FN:50,54,_ZN5neml210DynamicSumINS_5WFFR4EE9set_valueEbbb
FN:50,54,_ZN5neml210DynamicSumINS_6ScalarEE9set_valueEbbb
FNDA:2,_ZN5neml210DynamicSumINS_10QuaternionEE16expected_optionsEv
FNDA:2,_ZN5neml210DynamicSumINS_11MillerIndexEE16expected_optionsEv
FNDA:2,_ZN5neml210DynamicSumINS_2R2EE16expected_optionsEv
FNDA:2,_ZN5neml210DynamicSumINS_2R3EE16expected_optionsEv
FNDA:2,_ZN5neml210DynamicSumINS_2R4EE16expected_optionsEv
FNDA:2,_ZN5neml210DynamicSumINS_3RotEE16expected_optionsEv
FNDA:2,_ZN5neml210DynamicSumINS_3SR2EE16expected_optionsEv
FNDA:2,_ZN5neml210DynamicSumINS_3VecEE16expected_optionsEv
FNDA:2,_ZN5neml210DynamicSumINS_3WR2EE16expected_optionsEv
FNDA:2,_ZN5neml210DynamicSumINS_4SFR3EE16expected_optionsEv
FNDA:2,_ZN5neml210DynamicSumINS_4SSR4EE16expected_optionsEv
FNDA:2,_ZN5neml210DynamicSumINS_4SWR4EE16expected_optionsEv
FNDA:2,_ZN5neml210DynamicSumINS_4WSR4EE16expected_optionsEv
FNDA:2,_ZN5neml210DynamicSumINS_4WWR4EE16expected_optionsEv
FNDA:2,_ZN5neml210DynamicSumINS_5SFFR4EE16expected_optionsEv
FNDA:2,_ZN5neml210DynamicSumINS_5WFFR4EE16expected_optionsEv
FNDA:2,_ZN5neml210DynamicSumINS_6ScalarEE16expected_optionsEv
FNDA:0,_ZN5neml210DynamicSumINS_10QuaternionEEC2ERKNS_9OptionSetE
FNDA:0,_ZN5neml210DynamicSumINS_11MillerIndexEEC2ERKNS_9OptionSetE
FNDA:0,_ZN5neml210DynamicSumINS_2R2EEC2ERKNS_9OptionSetE
FNDA:0,_ZN5neml210DynamicSumINS_2R3EEC2ERKNS_9OptionSetE
FNDA:0,_ZN5neml210DynamicSumINS_2R4EEC2ERKNS_9OptionSetE
FNDA:0,_ZN5neml210DynamicSumINS_3RotEEC2ERKNS_9OptionSetE
FNDA:1,_ZN5neml210DynamicSumINS_3SR2EEC2ERKNS_9OptionSetE
FNDA:0,_ZN5neml210DynamicSumINS_3VecEEC2ERKNS_9OptionSetE
FNDA:0,_ZN5neml210DynamicSumINS_3WR2EEC2ERKNS_9OptionSetE
FNDA:0,_ZN5neml210DynamicSumINS_4SFR3EEC2ERKNS_9OptionSetE
FNDA:0,_ZN5neml210DynamicSumINS_4SSR4EEC2ERKNS_9OptionSetE
FNDA:0,_ZN5neml210DynamicSumINS_4SWR4EEC2ERKNS_9OptionSetE
FNDA:0,_ZN5neml210DynamicSumINS_4WSR4EEC2ERKNS_9OptionSetE
FNDA:0,_ZN5neml210DynamicSumINS_4WWR4EEC2ERKNS_9OptionSetE
FNDA:0,_ZN5neml210DynamicSumINS_5SFFR4EEC2ERKNS_9OptionSetE
FNDA:0,_ZN5neml210DynamicSumINS_5WFFR4EEC2ERKNS_9OptionSetE
FNDA:0,_ZN5neml210DynamicSumINS_6ScalarEEC2ERKNS_9OptionSetE
FNDA:0,_ZN5neml210DynamicSumINS_10QuaternionEE9set_valueEbbb
FNDA:0,_ZN5neml210DynamicSumINS_11MillerIndexEE9set_valueEbbb
FNDA:0,_ZN5neml210DynamicSumINS_2R2EE9set_valueEbbb
FNDA:0,_ZN5neml210DynamicSumINS_2R3EE9set_valueEbbb
FNDA:0,_ZN5neml210DynamicSumINS_2R4EE9set_valueEbbb
FNDA:0,_ZN5neml210DynamicSumINS_3RotEE9set_valueEbbb
FNDA:1,_ZN5neml210DynamicSumINS_3SR2EE9set_valueEbbb
FNDA:0,_ZN5neml210DynamicSumINS_3VecEE9set_valueEbbb
FNDA:0,_ZN5neml210DynamicSumINS_3WR2EE9set_valueEbbb
FNDA:0,_ZN5neml210DynamicSumINS_4SFR3EE9set_valueEbbb
FNDA:0,_ZN5neml210DynamicSumINS_4SSR4EE9set_valueEbbb
FNDA:0,_ZN5neml210DynamicSumINS_4SWR4EE9set_valueEbbb
FNDA:0,_ZN5neml210DynamicSumINS_4WSR4EE9set_valueEbbb
FNDA:0,_ZN5neml210DynamicSumINS_4WWR4EE9set_valueEbbb
FNDA:0,_ZN5neml210DynamicSumINS_5SFFR4EE9set_valueEbbb
FNDA:0,_ZN5neml210DynamicSumINS_5WFFR4EE9set_valueEbbb
FNDA:0,_ZN5neml210DynamicSumINS_6ScalarEE9set_valueEbbb
FNF:51
FNH:19
DA:34,34
DA:36,34
DA:37,34
DA:38,34
DA:39,0
DA:42,1
DA:44,1
DA:46,1
DA:50,1
DA:52,1
DA:53,1
DA:54,1
LF:12
LH:11
end_of_record
TN:
SF:/home/runner/work/neml2/neml2/src/neml2/models/FischerBurmeister.cxx
FN:33,66,_ZN5neml217FischerBurmeister16expected_optionsEv
FN:68,76,_ZN5neml217FischerBurmeisterC2ERKNS_9OptionSetE
FN:79,104,_ZN5neml217FischerBurmeister9set_valueEbbb
FNDA:2,_ZN5neml217FischerBurmeister16expected_optionsEv
FNDA:3,_ZN5neml217FischerBurmeisterC2ERKNS_9OptionSetE
FNDA:6,_ZN5neml217FischerBurmeister9set_valueEbbb
FNF:3
FNH:3
DA:33,2
DA:35,2
DA:36,2
DA:42,2
DA:44,6
DA:45,2
DA:47,6
DA:48,4
DA:50,8
DA:51,4
DA:52,4
DA:53,4
DA:54,8
DA:56,8
DA:57,4
DA:58,4
DA:59,4
DA:60,6
DA:62,6
DA:63,2
DA:65,4
DA:66,2
DA:68,3
DA:70,3
DA:71,3
DA:72,6
DA:73,3
DA:74,6
DA:76,3
DA:79,6
DA:81,6
DA:82,6
DA:85,6
DA:86,12
DA:87,4
DA:89,6
DA:90,12
DA:91,2
DA:93,6
DA:95,6
DA:98,6
DA:100,3
DA:101,3
DA:102,3
DA:104,6
LF:45
LH:45
end_of_record
TN:
SF:/home/runner/work/neml2/neml2/src/neml2/models/ForwardEulerTimeIntegration.cxx
FN:36,55,_ZN5neml227ForwardEulerTimeIntegrationINS_3SR2EE16expected_optionsEv
FN:36,55,_ZN5neml227ForwardEulerTimeIntegrationINS_3VecEE16expected_optionsEv
FN:36,55,_ZN5neml227ForwardEulerTimeIntegrationINS_6ScalarEE16expected_optionsEv
FN:58,68,_ZN5neml227ForwardEulerTimeIntegrationINS_3SR2EEC2ERKNS_9OptionSetE
FN:58,68,_ZN5neml227ForwardEulerTimeIntegrationINS_3VecEEC2ERKNS_9OptionSetE
FN:58,68,_ZN5neml227ForwardEulerTimeIntegrationINS_6ScalarEEC2ERKNS_9OptionSetE
FN:72,78,_ZNK5neml227ForwardEulerTimeIntegrationINS_3SR2EE8diagnoseEv
FN:72,78,_ZNK5neml227ForwardEulerTimeIntegrationINS_3VecEE8diagnoseEv
FN:72,78,_ZNK5neml227ForwardEulerTimeIntegrationINS_6ScalarEE8diagnoseEv
FN:82,100,_ZN5neml227ForwardEulerTimeIntegrationINS_3SR2EE9set_valueEbbb
FN:82,100,_ZN5neml227ForwardEulerTimeIntegrationINS_3VecEE9set_valueEbbb
FN:82,100,_ZN5neml227ForwardEulerTimeIntegrationINS_6ScalarEE9set_valueEbbb
FNDA:2,_ZN5neml227ForwardEulerTimeIntegrationINS_3SR2EE16expected_optionsEv
FNDA:2,_ZN5neml227ForwardEulerTimeIntegrationINS_3VecEE16expected_optionsEv
FNDA:2,_ZN5neml227ForwardEulerTimeIntegrationINS_6ScalarEE16expected_optionsEv
FNDA:3,_ZN5neml227ForwardEulerTimeIntegrationINS_3SR2EEC2ERKNS_9OptionSetE
FNDA:0,_ZN5neml227ForwardEulerTimeIntegrationINS_3VecEEC2ERKNS_9OptionSetE
FNDA:1,_ZN5neml227ForwardEulerTimeIntegrationINS_6ScalarEEC2ERKNS_9OptionSetE
FNDA:3,_ZNK5neml227ForwardEulerTimeIntegrationINS_3SR2EE8diagnoseEv
FNDA:0,_ZNK5neml227ForwardEulerTimeIntegrationINS_3VecEE8diagnoseEv
FNDA:0,_ZNK5neml227ForwardEulerTimeIntegrationINS_6ScalarEE8diagnoseEv
FNDA:6,_ZN5neml227ForwardEulerTimeIntegrationINS_3SR2EE9set_valueEbbb
FNDA:0,_ZN5neml227ForwardEulerTimeIntegrationINS_3VecEE9set_valueEbbb
FNDA:2,_ZN5neml227ForwardEulerTimeIntegrationINS_6ScalarEE9set_valueEbbb
FNF:12
FNH:8
DA:36,6
DA:38,6
DA:39,6
DA:45,12
DA:46,12
DA:48,12
DA:49,6
DA:51,18
DA:52,6
DA:54,6
DA:55,0
DA:58,4
DA:60,4
DA:61,4
DA:62,8
DA:63,16
DA:64,4
DA:65,4
DA:66,8
DA:68,4
DA:72,3
DA:74,3
DA:75,3
DA:76,3
DA:77,3
DA:78,3
DA:82,8
DA:84,8
DA:85,8
DA:87,8
DA:89,1
DA:91,1
DA:93,1
DA:94,0
DA:96,1
DA:97,1
DA:98,1
DA:99,1
LF:38
LH:36
end_of_record
TN:
SF:/home/runner/work/neml2/neml2/src/neml2/models/HermiteSmoothStep.cxx
FN:35,56,_ZN5neml217HermiteSmoothStep16expected_optionsEv
FN:58,66,_ZN5neml217HermiteSmoothStepC2ERKNS_9OptionSetE
FN:69,91,_ZN5neml217HermiteSmoothStep9set_valueEbbb
FNDA:2,_ZN5neml217HermiteSmoothStep16expected_optionsEv
FNDA:2,_ZN5neml217HermiteSmoothStepC2ERKNS_9OptionSetE
FNDA:4,_ZN5neml217HermiteSmoothStep9set_valueEbbb
FNF:3
FNH:3
DA:35,2
DA:37,2
DA:38,2
DA:40,4
DA:41,4
DA:43,4
DA:44,4
DA:46,4
DA:47,4
DA:49,4
DA:50,4
DA:52,4
DA:53,2
DA:55,2
DA:56,0
DA:58,2
DA:60,2
DA:61,2
DA:62,8
DA:63,10
DA:64,4
DA:66,2
DA:69,4
DA:71,4
DA:73,4
DA:74,4
DA:76,4
DA:78,4
DA:79,2
DA:81,2
DA:84,4
DA:86,2
DA:87,1
DA:89,1
DA:91,4
LF:35
LH:34
end_of_record
TN:
SF:/home/runner/work/neml2/neml2/src/neml2/models/ImplicitUpdate.cxx
FN:100,105,_ZN5neml214ImplicitUpdate21link_output_variablesEv
FN:108,170,_ZN5neml214ImplicitUpdate9set_valueEbbb
FN:37,55,_ZN5neml214ImplicitUpdate16expected_optionsEv
FN:57,69,_ZN5neml214ImplicitUpdateC2ERKNS_9OptionSetE
FN:72,97,_ZNK5neml214ImplicitUpdate8diagnoseEv
FNDA:10,_ZN5neml214ImplicitUpdate21link_output_variablesEv
FNDA:191,_ZN5neml214ImplicitUpdate9set_valueEbbb
FNDA:2,_ZN5neml214ImplicitUpdate16expected_optionsEv
FNDA:10,_ZN5neml214ImplicitUpdateC2ERKNS_9OptionSetE
FNDA:5,_ZNK5neml214ImplicitUpdate8diagnoseEv
FNF:5
FNH:5
DA:37,2
DA:39,2
DA:40,2
DA:41,2
DA:43,4
DA:44,6
DA:45,2
DA:47,4
DA:48,4
DA:51,4
DA:52,2
DA:54,2
DA:55,0
DA:57,10
DA:59,10
DA:60,30
DA:67,33
DA:68,23
DA:69,10
DA:72,5
DA:74,5
DA:97,5
DA:100,10
DA:102,10
DA:103,33
DA:104,23
DA:105,10
DA:108,191
DA:111,191
DA:113,191
DA:118,191
DA:121,191
DA:123,191
DA:124,191
DA:125,191
DA:126,191
DA:127,191
DA:129,191
DA:141,191
DA:142,26
DA:146,191
DA:149,3
DA:150,3
DA:152,3
DA:153,3
DA:154,3
DA:157,3
DA:160,15
DA:162,12
DA:163,3
DA:165,9
DA:166,9
DA:167,18
DA:169,3
DA:170,191
LF:55
LH:54
end_of_record
TN:
SF:/home/runner/work/neml2/neml2/src/neml2/models/IncrementToRate.cxx
FN:38,56,_ZN5neml215IncrementToRateINS_2R2EE16expected_optionsEv
FN:38,56,_ZN5neml215IncrementToRateINS_3SR2EE16expected_optionsEv
FN:38,56,_ZN5neml215IncrementToRateINS_3VecEE16expected_optionsEv
FN:38,56,_ZN5neml215IncrementToRateINS_6ScalarEE16expected_optionsEv
FN:59,68,_ZN5neml215IncrementToRateINS_2R2EEC2ERKNS_9OptionSetE
FN:59,68,_ZN5neml215IncrementToRateINS_3SR2EEC2ERKNS_9OptionSetE
FN:59,68,_ZN5neml215IncrementToRateINS_3VecEEC2ERKNS_9OptionSetE
FN:59,68,_ZN5neml215IncrementToRateINS_6ScalarEEC2ERKNS_9OptionSetE
FN:72,88,_ZN5neml215IncrementToRateINS_2R2EE9set_valueEbbb
FN:72,88,_ZN5neml215IncrementToRateINS_3SR2EE9set_valueEbbb
FN:72,88,_ZN5neml215IncrementToRateINS_3VecEE9set_valueEbbb
FN:72,88,_ZN5neml215IncrementToRateINS_6ScalarEE9set_valueEbbb
FNDA:2,_ZN5neml215IncrementToRateINS_2R2EE16expected_optionsEv
FNDA:2,_ZN5neml215IncrementToRateINS_3SR2EE16expected_optionsEv
FNDA:2,_ZN5neml215IncrementToRateINS_3VecEE16expected_optionsEv
FNDA:2,_ZN5neml215IncrementToRateINS_6ScalarEE16expected_optionsEv
FNDA:1,_ZN5neml215IncrementToRateINS_2R2EEC2ERKNS_9OptionSetE
FNDA:1,_ZN5neml215IncrementToRateINS_3SR2EEC2ERKNS_9OptionSetE
FNDA:1,_ZN5neml215IncrementToRateINS_3VecEEC2ERKNS_9OptionSetE
FNDA:1,_ZN5neml215IncrementToRateINS_6ScalarEEC2ERKNS_9OptionSetE
FNDA:2,_ZN5neml215IncrementToRateINS_2R2EE9set_valueEbbb
FNDA:2,_ZN5neml215IncrementToRateINS_3SR2EE9set_valueEbbb
FNDA:2,_ZN5neml215IncrementToRateINS_3VecEE9set_valueEbbb
FNDA:2,_ZN5neml215IncrementToRateINS_6ScalarEE9set_valueEbbb
FNF:12
FNH:12
DA:38,8
DA:40,8
DA:41,8
DA:46,16
DA:47,16
DA:49,16
DA:50,8
DA:52,24
DA:53,8
DA:55,8
DA:56,0
DA:59,4
DA:61,4
DA:62,4
DA:63,4
DA:64,8
DA:65,8
DA:66,8
DA:68,4
DA:72,8
DA:74,8
DA:76,8
DA:77,8
DA:79,8
DA:81,4
DA:82,4
DA:83,4
DA:84,4
DA:85,4
DA:86,4
DA:88,8
LF:31
LH:30
end_of_record
TN:
SF:/home/runner/work/neml2/neml2/src/neml2/models/InputParameter.cxx
FN:34,50,_ZN5neml214InputParameterINS_10QuaternionEE16expected_optionsEv
FN:34,50,_ZN5neml214InputParameterINS_11MillerIndexEE16expected_optionsEv
FN:34,50,_ZN5neml214InputParameterINS_2R2EE16expected_optionsEv
FN:34,50,_ZN5neml214InputParameterINS_2R3EE16expected_optionsEv
FN:34,50,_ZN5neml214InputParameterINS_2R4EE16expected_optionsEv
FN:34,50,_ZN5neml214InputParameterINS_3RotEE16expected_optionsEv
FN:34,50,_ZN5neml214InputParameterINS_3SR2EE16expected_optionsEv
FN:34,50,_ZN5neml214InputParameterINS_3VecEE16expected_optionsEv
FN:34,50,_ZN5neml214InputParameterINS_3WR2EE16expected_optionsEv
FN:34,50,_ZN5neml214InputParameterINS_4SFR3EE16expected_optionsEv
FN:34,50,_ZN5neml214InputParameterINS_4SSR4EE16expected_optionsEv
FN:34,50,_ZN5neml214InputParameterINS_4SWR4EE16expected_optionsEv
FN:34,50,_ZN5neml214InputParameterINS_4WSR4EE16expected_optionsEv
FN:34,50,_ZN5neml214InputParameterINS_4WWR4EE16expected_optionsEv
FN:34,50,_ZN5neml214InputParameterINS_5SFFR4EE16expected_optionsEv
FN:34,50,_ZN5neml214InputParameterINS_5WFFR4EE16expected_optionsEv
FN:34,50,_ZN5neml214InputParameterINS_6ScalarEE16expected_optionsEv
FN:53,60,_ZN5neml214InputParameterINS_10QuaternionEEC2ERKNS_9OptionSetE
FN:53,60,_ZN5neml214InputParameterINS_11MillerIndexEEC2ERKNS_9OptionSetE
FN:53,60,_ZN5neml214InputParameterINS_2R2EEC2ERKNS_9OptionSetE
FN:53,60,_ZN5neml214InputParameterINS_2R3EEC2ERKNS_9OptionSetE
FN:53,60,_ZN5neml214InputParameterINS_2R4EEC2ERKNS_9OptionSetE
FN:53,60,_ZN5neml214InputParameterINS_3RotEEC2ERKNS_9OptionSetE
FN:53,60,_ZN5neml214InputParameterINS_3SR2EEC2ERKNS_9OptionSetE
FN:53,60,_ZN5neml214InputParameterINS_3VecEEC2ERKNS_9OptionSetE
FN:53,60,_ZN5neml214InputParameterINS_3WR2EEC2ERKNS_9OptionSetE
FN:53,60,_ZN5neml214InputParameterINS_4SFR3EEC2ERKNS_9OptionSetE
FN:53,60,_ZN5neml214InputParameterINS_4SSR4EEC2ERKNS_9OptionSetE
FN:53,60,_ZN5neml214InputParameterINS_4SWR4EEC2ERKNS_9OptionSetE
FN:53,60,_ZN5neml214InputParameterINS_4WSR4EEC2ERKNS_9OptionSetE
FN:53,60,_ZN5neml214InputParameterINS_4WWR4EEC2ERKNS_9OptionSetE
FN:53,60,_ZN5neml214InputParameterINS_5SFFR4EEC2ERKNS_9OptionSetE
FN:53,60,_ZN5neml214InputParameterINS_5WFFR4EEC2ERKNS_9OptionSetE
FN:53,60,_ZN5neml214InputParameterINS_6ScalarEEC2ERKNS_9OptionSetE
FN:64,72,_ZN5neml214InputParameterINS_10QuaternionEE9set_valueEbbb
FN:64,72,_ZN5neml214InputParameterINS_11MillerIndexEE9set_valueEbbb
FN:64,72,_ZN5neml214InputParameterINS_2R2EE9set_valueEbbb
FN:64,72,_ZN5neml214InputParameterINS_2R3EE9set_valueEbbb
FN:64,72,_ZN5neml214InputParameterINS_2R4EE9set_valueEbbb
FN:64,72,_ZN5neml214InputParameterINS_3RotEE9set_valueEbbb
FN:64,72,_ZN5neml214InputParameterINS_3SR2EE9set_valueEbbb
FN:64,72,_ZN5neml214InputParameterINS_3VecEE9set_valueEbbb
FN:64,72,_ZN5neml214InputParameterINS_3WR2EE9set_valueEbbb
FN:64,72,_ZN5neml214InputParameterINS_4SFR3EE9set_valueEbbb
FN:64,72,_ZN5neml214InputParameterINS_4SSR4EE9set_valueEbbb
FN:64,72,_ZN5neml214InputParameterINS_4SWR4EE9set_valueEbbb
FN:64,72,_ZN5neml214InputParameterINS_4WSR4EE9set_valueEbbb
FN:64,72,_ZN5neml214InputParameterINS_4WWR4EE9set_valueEbbb
FN:64,72,_ZN5neml214InputParameterINS_5SFFR4EE9set_valueEbbb
FN:64,72,_ZN5neml214InputParameterINS_5WFFR4EE9set_valueEbbb
FN:64,72,_ZN5neml214InputParameterINS_6ScalarEE9set_valueEbbb
FNDA:2,_ZN5neml214InputParameterINS_10QuaternionEE16expected_optionsEv
FNDA:2,_ZN5neml214InputParameterINS_11MillerIndexEE16expected_optionsEv
FNDA:2,_ZN5neml214InputParameterINS_2R2EE16expected_optionsEv
FNDA:2,_ZN5neml214InputParameterINS_2R3EE16expected_optionsEv
FNDA:2,_ZN5neml214InputParameterINS_2R4EE16expected_optionsEv
FNDA:2,_ZN5neml214InputParameterINS_3RotEE16expected_optionsEv
FNDA:2,_ZN5neml214InputParameterINS_3SR2EE16expected_optionsEv
FNDA:2,_ZN5neml214InputParameterINS_3VecEE16expected_optionsEv
FNDA:2,_ZN5neml214InputParameterINS_3WR2EE16expected_optionsEv
FNDA:2,_ZN5neml214InputParameterINS_4SFR3EE16expected_optionsEv
FNDA:2,_ZN5neml214InputParameterINS_4SSR4EE16expected_optionsEv
FNDA:2,_ZN5neml214InputParameterINS_4SWR4EE16expected_optionsEv
FNDA:2,_ZN5neml214InputParameterINS_4WSR4EE16expected_optionsEv
FNDA:2,_ZN5neml214InputParameterINS_4WWR4EE16expected_optionsEv
FNDA:2,_ZN5neml214InputParameterINS_5SFFR4EE16expected_optionsEv
FNDA:2,_ZN5neml214InputParameterINS_5WFFR4EE16expected_optionsEv
FNDA:69,_ZN5neml214InputParameterINS_6ScalarEE16expected_optionsEv
FNDA:0,_ZN5neml214InputParameterINS_10QuaternionEEC2ERKNS_9OptionSetE
FNDA:0,_ZN5neml214InputParameterINS_11MillerIndexEEC2ERKNS_9OptionSetE
FNDA:0,_ZN5neml214InputParameterINS_2R2EEC2ERKNS_9OptionSetE
FNDA:0,_ZN5neml214InputParameterINS_2R3EEC2ERKNS_9OptionSetE
FNDA:0,_ZN5neml214InputParameterINS_2R4EEC2ERKNS_9OptionSetE
FNDA:0,_ZN5neml214InputParameterINS_3RotEEC2ERKNS_9OptionSetE
FNDA:0,_ZN5neml214InputParameterINS_3SR2EEC2ERKNS_9OptionSetE
FNDA:0,_ZN5neml214InputParameterINS_3VecEEC2ERKNS_9OptionSetE
FNDA:0,_ZN5neml214InputParameterINS_3WR2EEC2ERKNS_9OptionSetE
FNDA:0,_ZN5neml214InputParameterINS_4SFR3EEC2ERKNS_9OptionSetE
FNDA:2,_ZN5neml214InputParameterINS_4SSR4EEC2ERKNS_9OptionSetE
FNDA:0,_ZN5neml214InputParameterINS_4SWR4EEC2ERKNS_9OptionSetE
FNDA:0,_ZN5neml214InputParameterINS_4WSR4EEC2ERKNS_9OptionSetE
FNDA:0,_ZN5neml214InputParameterINS_4WWR4EEC2ERKNS_9OptionSetE
FNDA:0,_ZN5neml214InputParameterINS_5SFFR4EEC2ERKNS_9OptionSetE
FNDA:0,_ZN5neml214InputParameterINS_5WFFR4EEC2ERKNS_9OptionSetE
FNDA:65,_ZN5neml214InputParameterINS_6ScalarEEC2ERKNS_9OptionSetE
FNDA:0,_ZN5neml214InputParameterINS_10QuaternionEE9set_valueEbbb
FNDA:0,_ZN5neml214InputParameterINS_11MillerIndexEE9set_valueEbbb
FNDA:0,_ZN5neml214InputParameterINS_2R2EE9set_valueEbbb
FNDA:0,_ZN5neml214InputParameterINS_2R3EE9set_valueEbbb
FNDA:0,_ZN5neml214InputParameterINS_2R4EE9set_valueEbbb
FNDA:0,_ZN5neml214InputParameterINS_3RotEE9set_valueEbbb
FNDA:0,_ZN5neml214InputParameterINS_3SR2EE9set_valueEbbb
FNDA:0,_ZN5neml214InputParameterINS_3VecEE9set_valueEbbb
FNDA:0,_ZN5neml214InputParameterINS_3WR2EE9set_valueEbbb
FNDA:0,_ZN5neml214InputParameterINS_4SFR3EE9set_valueEbbb
FNDA:4,_ZN5neml214InputParameterINS_4SSR4EE9set_valueEbbb
FNDA:0,_ZN5neml214InputParameterINS_4SWR4EE9set_valueEbbb
FNDA:0,_ZN5neml214InputParameterINS_4WSR4EE9set_valueEbbb
FNDA:0,_ZN5neml214InputParameterINS_4WWR4EE9set_valueEbbb
FNDA:0,_ZN5neml214InputParameterINS_5SFFR4EE9set_valueEbbb
FNDA:0,_ZN5neml214InputParameterINS_5WFFR4EE9set_valueEbbb
FNDA:145,_ZN5neml214InputParameterINS_6ScalarEE9set_valueEbbb
FNF:51
FNH:21
DA:34,101
DA:36,101
DA:37,101
DA:41,202
DA:43,202
DA:44,202
DA:46,202
DA:47,101
DA:49,101
DA:50,0
DA:53,67
DA:55,67
DA:56,67
DA:57,67
DA:58,134
DA:60,67
DA:64,149
DA:66,149
DA:67,149
DA:69,149
DA:70,82
DA:71,82
DA:72,149
LF:23
LH:22
end_of_record
TN:
SF:/home/runner/work/neml2/neml2/src/neml2/models/IntermediateMean.cxx
FN:35,40,_ZN5neml216IntermediateMeanINS_10QuaternionEE16expected_optionsEv
FN:35,40,_ZN5neml216IntermediateMeanINS_11MillerIndexEE16expected_optionsEv
FN:35,40,_ZN5neml216IntermediateMeanINS_2R2EE16expected_optionsEv
FN:35,40,_ZN5neml216IntermediateMeanINS_2R3EE16expected_optionsEv
FN:35,40,_ZN5neml216IntermediateMeanINS_2R4EE16expected_optionsEv
FN:35,40,_ZN5neml216IntermediateMeanINS_3RotEE16expected_optionsEv
FN:35,40,_ZN5neml216IntermediateMeanINS_3SR2EE16expected_optionsEv
FN:35,40,_ZN5neml216IntermediateMeanINS_3VecEE16expected_optionsEv
FN:35,40,_ZN5neml216IntermediateMeanINS_3WR2EE16expected_optionsEv
FN:35,40,_ZN5neml216IntermediateMeanINS_4SFR3EE16expected_optionsEv
FN:35,40,_ZN5neml216IntermediateMeanINS_4SSR4EE16expected_optionsEv
FN:35,40,_ZN5neml216IntermediateMeanINS_4SWR4EE16expected_optionsEv
FN:35,40,_ZN5neml216IntermediateMeanINS_4WSR4EE16expected_optionsEv
FN:35,40,_ZN5neml216IntermediateMeanINS_4WWR4EE16expected_optionsEv
FN:35,40,_ZN5neml216IntermediateMeanINS_5SFFR4EE16expected_optionsEv
FN:35,40,_ZN5neml216IntermediateMeanINS_5WFFR4EE16expected_optionsEv
FN:35,40,_ZN5neml216IntermediateMeanINS_6ScalarEE16expected_optionsEv
FN:43,47,_ZN5neml216IntermediateMeanINS_10QuaternionEEC2ERKNS_9OptionSetE
FN:43,47,_ZN5neml216IntermediateMeanINS_11MillerIndexEEC2ERKNS_9OptionSetE
FN:43,47,_ZN5neml216IntermediateMeanINS_2R2EEC2ERKNS_9OptionSetE
FN:43,47,_ZN5neml216IntermediateMeanINS_2R3EEC2ERKNS_9OptionSetE
FN:43,47,_ZN5neml216IntermediateMeanINS_2R4EEC2ERKNS_9OptionSetE
FN:43,47,_ZN5neml216IntermediateMeanINS_3RotEEC2ERKNS_9OptionSetE
FN:43,47,_ZN5neml216IntermediateMeanINS_3SR2EEC2ERKNS_9OptionSetE
FN:43,47,_ZN5neml216IntermediateMeanINS_3VecEEC2ERKNS_9OptionSetE
FN:43,47,_ZN5neml216IntermediateMeanINS_3WR2EEC2ERKNS_9OptionSetE
FN:43,47,_ZN5neml216IntermediateMeanINS_4SFR3EEC2ERKNS_9OptionSetE
FN:43,47,_ZN5neml216IntermediateMeanINS_4SSR4EEC2ERKNS_9OptionSetE
FN:43,47,_ZN5neml216IntermediateMeanINS_4SWR4EEC2ERKNS_9OptionSetE
FN:43,47,_ZN5neml216IntermediateMeanINS_4WSR4EEC2ERKNS_9OptionSetE
FN:43,47,_ZN5neml216IntermediateMeanINS_4WWR4EEC2ERKNS_9OptionSetE
FN:43,47,_ZN5neml216IntermediateMeanINS_5SFFR4EEC2ERKNS_9OptionSetE
FN:43,47,_ZN5neml216IntermediateMeanINS_5WFFR4EEC2ERKNS_9OptionSetE
FN:43,47,_ZN5neml216IntermediateMeanINS_6ScalarEEC2ERKNS_9OptionSetE
FN:51,62,_ZN5neml216IntermediateMeanINS_10QuaternionEE9set_valueEbbb
FN:51,62,_ZN5neml216IntermediateMeanINS_11MillerIndexEE9set_valueEbbb
FN:51,62,_ZN5neml216IntermediateMeanINS_2R2EE9set_valueEbbb
FN:51,62,_ZN5neml216IntermediateMeanINS_2R3EE9set_valueEbbb
FN:51,62,_ZN5neml216IntermediateMeanINS_2R4EE9set_valueEbbb
FN:51,62,_ZN5neml216IntermediateMeanINS_3RotEE9set_valueEbbb
FN:51,62,_ZN5neml216IntermediateMeanINS_3SR2EE9set_valueEbbb
FN:51,62,_ZN5neml216IntermediateMeanINS_3VecEE9set_valueEbbb
FN:51,62,_ZN5neml216IntermediateMeanINS_3WR2EE9set_valueEbbb
FN:51,62,_ZN5neml216IntermediateMeanINS_4SFR3EE9set_valueEbbb
FN:51,62,_ZN5neml216IntermediateMeanINS_4SSR4EE9set_valueEbbb
FN:51,62,_ZN5neml216IntermediateMeanINS_4SWR4EE9set_valueEbbb
FN:51,62,_ZN5neml216IntermediateMeanINS_4WSR4EE9set_valueEbbb
FN:51,62,_ZN5neml216IntermediateMeanINS_4WWR4EE9set_valueEbbb
FN:51,62,_ZN5neml216IntermediateMeanINS_5SFFR4EE9set_valueEbbb
FN:51,62,_ZN5neml216IntermediateMeanINS_5WFFR4EE9set_valueEbbb
FN:51,62,_ZN5neml216IntermediateMeanINS_6ScalarEE9set_valueEbbb
FNDA:2,_ZN5neml216IntermediateMeanINS_10QuaternionEE16expected_optionsEv
FNDA:2,_ZN5neml216IntermediateMeanINS_11MillerIndexEE16expected_optionsEv
FNDA:2,_ZN5neml216IntermediateMeanINS_2R2EE16expected_optionsEv
FNDA:2,_ZN5neml216IntermediateMeanINS_2R3EE16expected_optionsEv
FNDA:2,_ZN5neml216IntermediateMeanINS_2R4EE16expected_optionsEv
FNDA:2,_ZN5neml216IntermediateMeanINS_3RotEE16expected_optionsEv
FNDA:2,_ZN5neml216IntermediateMeanINS_3SR2EE16expected_optionsEv
FNDA:2,_ZN5neml216IntermediateMeanINS_3VecEE16expected_optionsEv
FNDA:2,_ZN5neml216IntermediateMeanINS_3WR2EE16expected_optionsEv
FNDA:2,_ZN5neml216IntermediateMeanINS_4SFR3EE16expected_optionsEv
FNDA:2,_ZN5neml216IntermediateMeanINS_4SSR4EE16expected_optionsEv
FNDA:2,_ZN5neml216IntermediateMeanINS_4SWR4EE16expected_optionsEv
FNDA:2,_ZN5neml216IntermediateMeanINS_4WSR4EE16expected_optionsEv
FNDA:2,_ZN5neml216IntermediateMeanINS_4WWR4EE16expected_optionsEv
FNDA:2,_ZN5neml216IntermediateMeanINS_5SFFR4EE16expected_optionsEv
FNDA:2,_ZN5neml216IntermediateMeanINS_5WFFR4EE16expected_optionsEv
FNDA:2,_ZN5neml216IntermediateMeanINS_6ScalarEE16expected_optionsEv
FNDA:0,_ZN5neml216IntermediateMeanINS_10QuaternionEEC2ERKNS_9OptionSetE
FNDA:0,_ZN5neml216IntermediateMeanINS_11MillerIndexEEC2ERKNS_9OptionSetE
FNDA:0,_ZN5neml216IntermediateMeanINS_2R2EEC2ERKNS_9OptionSetE
FNDA:0,_ZN5neml216IntermediateMeanINS_2R3EEC2ERKNS_9OptionSetE
FNDA:0,_ZN5neml216IntermediateMeanINS_2R4EEC2ERKNS_9OptionSetE
FNDA:0,_ZN5neml216IntermediateMeanINS_3RotEEC2ERKNS_9OptionSetE
FNDA:1,_ZN5neml216IntermediateMeanINS_3SR2EEC2ERKNS_9OptionSetE
FNDA:0,_ZN5neml216IntermediateMeanINS_3VecEEC2ERKNS_9OptionSetE
FNDA:0,_ZN5neml216IntermediateMeanINS_3WR2EEC2ERKNS_9OptionSetE
FNDA:0,_ZN5neml216IntermediateMeanINS_4SFR3EEC2ERKNS_9OptionSetE
FNDA:0,_ZN5neml216IntermediateMeanINS_4SSR4EEC2ERKNS_9OptionSetE
FNDA:0,_ZN5neml216IntermediateMeanINS_4SWR4EEC2ERKNS_9OptionSetE
FNDA:0,_ZN5neml216IntermediateMeanINS_4WSR4EEC2ERKNS_9OptionSetE
FNDA:0,_ZN5neml216IntermediateMeanINS_4WWR4EEC2ERKNS_9OptionSetE
FNDA:0,_ZN5neml216IntermediateMeanINS_5SFFR4EEC2ERKNS_9OptionSetE
FNDA:0,_ZN5neml216IntermediateMeanINS_5WFFR4EEC2ERKNS_9OptionSetE
FNDA:0,_ZN5neml216IntermediateMeanINS_6ScalarEEC2ERKNS_9OptionSetE
FNDA:0,_ZN5neml216IntermediateMeanINS_10QuaternionEE9set_valueEbbb
FNDA:0,_ZN5neml216IntermediateMeanINS_11MillerIndexEE9set_valueEbbb
FNDA:0,_ZN5neml216IntermediateMeanINS_2R2EE9set_valueEbbb
FNDA:0,_ZN5neml216IntermediateMeanINS_2R3EE9set_valueEbbb
FNDA:0,_ZN5neml216IntermediateMeanINS_2R4EE9set_valueEbbb
FNDA:0,_ZN5neml216IntermediateMeanINS_3RotEE9set_valueEbbb
FNDA:2,_ZN5neml216IntermediateMeanINS_3SR2EE9set_valueEbbb
FNDA:0,_ZN5neml216IntermediateMeanINS_3VecEE9set_valueEbbb
FNDA:0,_ZN5neml216IntermediateMeanINS_3WR2EE9set_valueEbbb
FNDA:0,_ZN5neml216IntermediateMeanINS_4SFR3EE9set_valueEbbb
FNDA:0,_ZN5neml216IntermediateMeanINS_4SSR4EE9set_valueEbbb
FNDA:0,_ZN5neml216IntermediateMeanINS_4SWR4EE9set_valueEbbb
FNDA:0,_ZN5neml216IntermediateMeanINS_4WSR4EE9set_valueEbbb
FNDA:0,_ZN5neml216IntermediateMeanINS_4WWR4EE9set_valueEbbb
FNDA:0,_ZN5neml216IntermediateMeanINS_5SFFR4EE9set_valueEbbb
FNDA:0,_ZN5neml216IntermediateMeanINS_5WFFR4EE9set_valueEbbb
FNDA:0,_ZN5neml216IntermediateMeanINS_6ScalarEE9set_valueEbbb
FNF:51
FNH:19
DA:35,34
DA:37,34
DA:38,34
DA:39,34
DA:40,0
DA:43,1
DA:45,1
DA:47,1
DA:51,2
DA:53,2
DA:54,2
DA:56,2
DA:57,1
DA:59,1
DA:60,1
DA:62,2
LF:16
LH:15
end_of_record
TN:
SF:/home/runner/work/neml2/neml2/src/neml2/models/IntermediateSum.cxx
FN:35,40,_ZN5neml215IntermediateSumINS_10QuaternionEE16expected_optionsEv
FN:35,40,_ZN5neml215IntermediateSumINS_11MillerIndexEE16expected_optionsEv
FN:35,40,_ZN5neml215IntermediateSumINS_2R2EE16expected_optionsEv
FN:35,40,_ZN5neml215IntermediateSumINS_2R3EE16expected_optionsEv
FN:35,40,_ZN5neml215IntermediateSumINS_2R4EE16expected_optionsEv
FN:35,40,_ZN5neml215IntermediateSumINS_3RotEE16expected_optionsEv
FN:35,40,_ZN5neml215IntermediateSumINS_3SR2EE16expected_optionsEv
FN:35,40,_ZN5neml215IntermediateSumINS_3VecEE16expected_optionsEv
FN:35,40,_ZN5neml215IntermediateSumINS_3WR2EE16expected_optionsEv
FN:35,40,_ZN5neml215IntermediateSumINS_4SFR3EE16expected_optionsEv
FN:35,40,_ZN5neml215IntermediateSumINS_4SSR4EE16expected_optionsEv
FN:35,40,_ZN5neml215IntermediateSumINS_4SWR4EE16expected_optionsEv
FN:35,40,_ZN5neml215IntermediateSumINS_4WSR4EE16expected_optionsEv
FN:35,40,_ZN5neml215IntermediateSumINS_4WWR4EE16expected_optionsEv
FN:35,40,_ZN5neml215IntermediateSumINS_5SFFR4EE16expected_optionsEv
FN:35,40,_ZN5neml215IntermediateSumINS_5WFFR4EE16expected_optionsEv
FN:35,40,_ZN5neml215IntermediateSumINS_6ScalarEE16expected_optionsEv
FN:43,47,_ZN5neml215IntermediateSumINS_10QuaternionEEC2ERKNS_9OptionSetE
FN:43,47,_ZN5neml215IntermediateSumINS_11MillerIndexEEC2ERKNS_9OptionSetE
FN:43,47,_ZN5neml215IntermediateSumINS_2R2EEC2ERKNS_9OptionSetE
FN:43,47,_ZN5neml215IntermediateSumINS_2R3EEC2ERKNS_9OptionSetE
FN:43,47,_ZN5neml215IntermediateSumINS_2R4EEC2ERKNS_9OptionSetE
FN:43,47,_ZN5neml215IntermediateSumINS_3RotEEC2ERKNS_9OptionSetE
FN:43,47,_ZN5neml215IntermediateSumINS_3SR2EEC2ERKNS_9OptionSetE
FN:43,47,_ZN5neml215IntermediateSumINS_3VecEEC2ERKNS_9OptionSetE
FN:43,47,_ZN5neml215IntermediateSumINS_3WR2EEC2ERKNS_9OptionSetE
FN:43,47,_ZN5neml215IntermediateSumINS_4SFR3EEC2ERKNS_9OptionSetE
FN:43,47,_ZN5neml215IntermediateSumINS_4SSR4EEC2ERKNS_9OptionSetE
FN:43,47,_ZN5neml215IntermediateSumINS_4SWR4EEC2ERKNS_9OptionSetE
FN:43,47,_ZN5neml215IntermediateSumINS_4WSR4EEC2ERKNS_9OptionSetE
FN:43,47,_ZN5neml215IntermediateSumINS_4WWR4EEC2ERKNS_9OptionSetE
FN:43,47,_ZN5neml215IntermediateSumINS_5SFFR4EEC2ERKNS_9OptionSetE
FN:43,47,_ZN5neml215IntermediateSumINS_5WFFR4EEC2ERKNS_9OptionSetE
FN:43,47,_ZN5neml215IntermediateSumINS_6ScalarEEC2ERKNS_9OptionSetE
FN:51,59,_ZN5neml215IntermediateSumINS_10QuaternionEE9set_valueEbbb
FN:51,59,_ZN5neml215IntermediateSumINS_11MillerIndexEE9set_valueEbbb
FN:51,59,_ZN5neml215IntermediateSumINS_2R2EE9set_valueEbbb
FN:51,59,_ZN5neml215IntermediateSumINS_2R3EE9set_valueEbbb
FN:51,59,_ZN5neml215IntermediateSumINS_2R4EE9set_valueEbbb
FN:51,59,_ZN5neml215IntermediateSumINS_3RotEE9set_valueEbbb
FN:51,59,_ZN5neml215IntermediateSumINS_3SR2EE9set_valueEbbb
FN:51,59,_ZN5neml215IntermediateSumINS_3VecEE9set_valueEbbb
FN:51,59,_ZN5neml215IntermediateSumINS_3WR2EE9set_valueEbbb
FN:51,59,_ZN5neml215IntermediateSumINS_4SFR3EE9set_valueEbbb
FN:51,59,_ZN5neml215IntermediateSumINS_4SSR4EE9set_valueEbbb
FN:51,59,_ZN5neml215IntermediateSumINS_4SWR4EE9set_valueEbbb
FN:51,59,_ZN5neml215IntermediateSumINS_4WSR4EE9set_valueEbbb
FN:51,59,_ZN5neml215IntermediateSumINS_4WWR4EE9set_valueEbbb
FN:51,59,_ZN5neml215IntermediateSumINS_5SFFR4EE9set_valueEbbb
FN:51,59,_ZN5neml215IntermediateSumINS_5WFFR4EE9set_valueEbbb
FN:51,59,_ZN5neml215IntermediateSumINS_6ScalarEE9set_valueEbbb
FNDA:2,_ZN5neml215IntermediateSumINS_10QuaternionEE16expected_optionsEv
FNDA:2,_ZN5neml215IntermediateSumINS_11MillerIndexEE16expected_optionsEv
FNDA:2,_ZN5neml215IntermediateSumINS_2R2EE16expected_optionsEv
FNDA:2,_ZN5neml215IntermediateSumINS_2R3EE16expected_optionsEv
FNDA:2,_ZN5neml215IntermediateSumINS_2R4EE16expected_optionsEv
FNDA:2,_ZN5neml215IntermediateSumINS_3RotEE16expected_optionsEv
FNDA:2,_ZN5neml215IntermediateSumINS_3SR2EE16expected_optionsEv
FNDA:2,_ZN5neml215IntermediateSumINS_3VecEE16expected_optionsEv
FNDA:2,_ZN5neml215IntermediateSumINS_3WR2EE16expected_optionsEv
FNDA:2,_ZN5neml215IntermediateSumINS_4SFR3EE16expected_optionsEv
FNDA:2,_ZN5neml215IntermediateSumINS_4SSR4EE16expected_optionsEv
FNDA:2,_ZN5neml215IntermediateSumINS_4SWR4EE16expected_optionsEv
FNDA:2,_ZN5neml215IntermediateSumINS_4WSR4EE16expected_optionsEv
FNDA:2,_ZN5neml215IntermediateSumINS_4WWR4EE16expected_optionsEv
FNDA:2,_ZN5neml215IntermediateSumINS_5SFFR4EE16expected_optionsEv
FNDA:2,_ZN5neml215IntermediateSumINS_5WFFR4EE16expected_optionsEv
FNDA:2,_ZN5neml215IntermediateSumINS_6ScalarEE16expected_optionsEv
FNDA:0,_ZN5neml215IntermediateSumINS_10QuaternionEEC2ERKNS_9OptionSetE
FNDA:0,_ZN5neml215IntermediateSumINS_11MillerIndexEEC2ERKNS_9OptionSetE
FNDA:0,_ZN5neml215IntermediateSumINS_2R2EEC2ERKNS_9OptionSetE
FNDA:0,_ZN5neml215IntermediateSumINS_2R3EEC2ERKNS_9OptionSetE
FNDA:0,_ZN5neml215IntermediateSumINS_2R4EEC2ERKNS_9OptionSetE
FNDA:0,_ZN5neml215IntermediateSumINS_3RotEEC2ERKNS_9OptionSetE
FNDA:1,_ZN5neml215IntermediateSumINS_3SR2EEC2ERKNS_9OptionSetE
FNDA:0,_ZN5neml215IntermediateSumINS_3VecEEC2ERKNS_9OptionSetE
FNDA:0,_ZN5neml215IntermediateSumINS_3WR2EEC2ERKNS_9OptionSetE
FNDA:0,_ZN5neml215IntermediateSumINS_4SFR3EEC2ERKNS_9OptionSetE
FNDA:0,_ZN5neml215IntermediateSumINS_4SSR4EEC2ERKNS_9OptionSetE
FNDA:0,_ZN5neml215IntermediateSumINS_4SWR4EEC2ERKNS_9OptionSetE
FNDA:0,_ZN5neml215IntermediateSumINS_4WSR4EEC2ERKNS_9OptionSetE
FNDA:0,_ZN5neml215IntermediateSumINS_4WWR4EEC2ERKNS_9OptionSetE
FNDA:0,_ZN5neml215IntermediateSumINS_5SFFR4EEC2ERKNS_9OptionSetE
FNDA:0,_ZN5neml215IntermediateSumINS_5WFFR4EEC2ERKNS_9OptionSetE
FNDA:0,_ZN5neml215IntermediateSumINS_6ScalarEEC2ERKNS_9OptionSetE
FNDA:0,_ZN5neml215IntermediateSumINS_10QuaternionEE9set_valueEbbb
FNDA:0,_ZN5neml215IntermediateSumINS_11MillerIndexEE9set_valueEbbb
FNDA:0,_ZN5neml215IntermediateSumINS_2R2EE9set_valueEbbb
FNDA:0,_ZN5neml215IntermediateSumINS_2R3EE9set_valueEbbb
FNDA:0,_ZN5neml215IntermediateSumINS_2R4EE9set_valueEbbb
FNDA:0,_ZN5neml215IntermediateSumINS_3RotEE9set_valueEbbb
FNDA:2,_ZN5neml215IntermediateSumINS_3SR2EE9set_valueEbbb
FNDA:0,_ZN5neml215IntermediateSumINS_3VecEE9set_valueEbbb
FNDA:0,_ZN5neml215IntermediateSumINS_3WR2EE9set_valueEbbb
FNDA:0,_ZN5neml215IntermediateSumINS_4SFR3EE9set_valueEbbb
FNDA:0,_ZN5neml215IntermediateSumINS_4SSR4EE9set_valueEbbb
FNDA:0,_ZN5neml215IntermediateSumINS_4SWR4EE9set_valueEbbb
FNDA:0,_ZN5neml215IntermediateSumINS_4WSR4EE9set_valueEbbb
FNDA:0,_ZN5neml215IntermediateSumINS_4WWR4EE9set_valueEbbb
FNDA:0,_ZN5neml215IntermediateSumINS_5SFFR4EE9set_valueEbbb
FNDA:0,_ZN5neml215IntermediateSumINS_5WFFR4EE9set_valueEbbb
FNDA:0,_ZN5neml215IntermediateSumINS_6ScalarEE9set_valueEbbb
FNF:51
FNH:19
DA:35,34
DA:37,34
DA:38,34
DA:39,34
DA:40,0
DA:43,1
DA:45,1
DA:47,1
DA:51,2
DA:53,2
DA:54,2
DA:56,2
DA:57,1
DA:58,1
DA:59,2
LF:15
LH:14
end_of_record
TN:
SF:/home/runner/work/neml2/neml2/src/neml2/models/Interpolation.cxx
FN:32,45,_ZN5neml222parametric_coordinatesERKNS_6ScalarES2_
FN:49,67,_ZN5neml213InterpolationINS_10QuaternionEE16expected_optionsEv
FN:49,67,_ZN5neml213InterpolationINS_11MillerIndexEE16expected_optionsEv
FN:49,67,_ZN5neml213InterpolationINS_2R2EE16expected_optionsEv
FN:49,67,_ZN5neml213InterpolationINS_2R3EE16expected_optionsEv
FN:49,67,_ZN5neml213InterpolationINS_2R4EE16expected_optionsEv
FN:49,67,_ZN5neml213InterpolationINS_3RotEE16expected_optionsEv
FN:49,67,_ZN5neml213InterpolationINS_3SR2EE16expected_optionsEv
FN:49,67,_ZN5neml213InterpolationINS_3VecEE16expected_optionsEv
FN:49,67,_ZN5neml213InterpolationINS_3WR2EE16expected_optionsEv
FN:49,67,_ZN5neml213InterpolationINS_4SFR3EE16expected_optionsEv
FN:49,67,_ZN5neml213InterpolationINS_4SSR4EE16expected_optionsEv
FN:49,67,_ZN5neml213InterpolationINS_4SWR4EE16expected_optionsEv
FN:49,67,_ZN5neml213InterpolationINS_4WSR4EE16expected_optionsEv
FN:49,67,_ZN5neml213InterpolationINS_4WWR4EE16expected_optionsEv
FN:49,67,_ZN5neml213InterpolationINS_5SFFR4EE16expected_optionsEv
FN:49,67,_ZN5neml213InterpolationINS_5WFFR4EE16expected_optionsEv
FN:49,67,_ZN5neml213InterpolationINS_6ScalarEE16expected_optionsEv
FN:70,77,_ZN5neml213InterpolationINS_10QuaternionEEC2ERKNS_9OptionSetE
FN:70,77,_ZN5neml213InterpolationINS_11MillerIndexEEC2ERKNS_9OptionSetE
FN:70,77,_ZN5neml213InterpolationINS_2R2EEC2ERKNS_9OptionSetE
FN:70,77,_ZN5neml213InterpolationINS_2R3EEC2ERKNS_9OptionSetE
FN:70,77,_ZN5neml213InterpolationINS_2R4EEC2ERKNS_9OptionSetE
FN:70,77,_ZN5neml213InterpolationINS_3RotEEC2ERKNS_9OptionSetE
FN:70,77,_ZN5neml213InterpolationINS_3SR2EEC2ERKNS_9OptionSetE
FN:70,77,_ZN5neml213InterpolationINS_3VecEEC2ERKNS_9OptionSetE
FN:70,77,_ZN5neml213InterpolationINS_3WR2EEC2ERKNS_9OptionSetE
FN:70,77,_ZN5neml213InterpolationINS_4SFR3EEC2ERKNS_9OptionSetE
FN:70,77,_ZN5neml213InterpolationINS_4SSR4EEC2ERKNS_9OptionSetE
FN:70,77,_ZN5neml213InterpolationINS_4SWR4EEC2ERKNS_9OptionSetE
FN:70,77,_ZN5neml213InterpolationINS_4WSR4EEC2ERKNS_9OptionSetE
FN:70,77,_ZN5neml213InterpolationINS_4WWR4EEC2ERKNS_9OptionSetE
FN:70,77,_ZN5neml213InterpolationINS_5SFFR4EEC2ERKNS_9OptionSetE
FN:70,77,_ZN5neml213InterpolationINS_5WFFR4EEC2ERKNS_9OptionSetE
FN:70,77,_ZN5neml213InterpolationINS_6ScalarEEC2ERKNS_9OptionSetE
FNDA:55,_ZN5neml222parametric_coordinatesERKNS_6ScalarES2_
FNDA:0,_ZN5neml213InterpolationINS_10QuaternionEE16expected_optionsEv
FNDA:0,_ZN5neml213InterpolationINS_11MillerIndexEE16expected_optionsEv
FNDA:0,_ZN5neml213InterpolationINS_2R2EE16expected_optionsEv
FNDA:0,_ZN5neml213InterpolationINS_2R3EE16expected_optionsEv
FNDA:0,_ZN5neml213InterpolationINS_2R4EE16expected_optionsEv
FNDA:0,_ZN5neml213InterpolationINS_3RotEE16expected_optionsEv
FNDA:4,_ZN5neml213InterpolationINS_3SR2EE16expected_optionsEv
FNDA:4,_ZN5neml213InterpolationINS_3VecEE16expected_optionsEv
FNDA:0,_ZN5neml213InterpolationINS_3WR2EE16expected_optionsEv
FNDA:0,_ZN5neml213InterpolationINS_4SFR3EE16expected_optionsEv
FNDA:0,_ZN5neml213InterpolationINS_4SSR4EE16expected_optionsEv
FNDA:0,_ZN5neml213InterpolationINS_4SWR4EE16expected_optionsEv
FNDA:0,_ZN5neml213InterpolationINS_4WSR4EE16expected_optionsEv
FNDA:0,_ZN5neml213InterpolationINS_4WWR4EE16expected_optionsEv
FNDA:0,_ZN5neml213InterpolationINS_5SFFR4EE16expected_optionsEv
FNDA:0,_ZN5neml213InterpolationINS_5WFFR4EE16expected_optionsEv
FNDA:4,_ZN5neml213InterpolationINS_6ScalarEE16expected_optionsEv
FNDA:0,_ZN5neml213InterpolationINS_10QuaternionEEC2ERKNS_9OptionSetE
FNDA:0,_ZN5neml213InterpolationINS_11MillerIndexEEC2ERKNS_9OptionSetE
FNDA:0,_ZN5neml213InterpolationINS_2R2EEC2ERKNS_9OptionSetE
FNDA:0,_ZN5neml213InterpolationINS_2R3EEC2ERKNS_9OptionSetE
FNDA:0,_ZN5neml213InterpolationINS_2R4EEC2ERKNS_9OptionSetE
FNDA:0,_ZN5neml213InterpolationINS_3RotEEC2ERKNS_9OptionSetE
FNDA:4,_ZN5neml213InterpolationINS_3SR2EEC2ERKNS_9OptionSetE
FNDA:0,_ZN5neml213InterpolationINS_3VecEEC2ERKNS_9OptionSetE
FNDA:0,_ZN5neml213InterpolationINS_3WR2EEC2ERKNS_9OptionSetE
FNDA:0,_ZN5neml213InterpolationINS_4SFR3EEC2ERKNS_9OptionSetE
FNDA:0,_ZN5neml213InterpolationINS_4SSR4EEC2ERKNS_9OptionSetE
FNDA:0,_ZN5neml213InterpolationINS_4SWR4EEC2ERKNS_9OptionSetE
FNDA:0,_ZN5neml213InterpolationINS_4WSR4EEC2ERKNS_9OptionSetE
FNDA:0,_ZN5neml213InterpolationINS_4WWR4EEC2ERKNS_9OptionSetE
FNDA:0,_ZN5neml213InterpolationINS_5SFFR4EEC2ERKNS_9OptionSetE
FNDA:0,_ZN5neml213InterpolationINS_5WFFR4EEC2ERKNS_9OptionSetE
FNDA:13,_ZN5neml213InterpolationINS_6ScalarEEC2ERKNS_9OptionSetE
FNF:35
FNH:6
DA:32,55
DA:35,55
DA:36,55
DA:37,55
DA:38,55
DA:39,55
DA:40,220
DA:41,220
DA:42,55
DA:43,55
DA:44,110
DA:45,275
DA:49,12
DA:53,12
DA:55,12
DA:56,12
DA:60,12
DA:61,36
DA:63,12
DA:64,36
DA:66,24
DA:67,12
DA:70,17
DA:72,68
DA:73,17
DA:74,17
DA:75,34
DA:77,17
LF:28
LH:28
end_of_record
TN:
SF:/home/runner/work/neml2/neml2/src/neml2/models/LinearCombination.cxx
FN:137,166,_ZN5neml217LinearCombinationINS_2R2EE9set_valueEbbb
FN:137,166,_ZN5neml217LinearCombinationINS_3SR2EE9set_valueEbbb
FN:137,166,_ZN5neml217LinearCombinationINS_3VecEE9set_valueEbbb
FN:137,166,_ZN5neml217LinearCombinationINS_6ScalarEE9set_valueEbbb
FN:38,83,_ZN5neml217LinearCombinationINS_2R2EE16expected_optionsEv
FN:38,83,_ZN5neml217LinearCombinationINS_3SR2EE16expected_optionsEv
FN:38,83,_ZN5neml217LinearCombinationINS_3VecEE16expected_optionsEv
FN:38,83,_ZN5neml217LinearCombinationINS_6ScalarEE16expected_optionsEv
FN:86,133,_ZN5neml217LinearCombinationINS_2R2EEC2ERKNS_9OptionSetE
FN:86,133,_ZN5neml217LinearCombinationINS_3SR2EEC2ERKNS_9OptionSetE
FN:86,133,_ZN5neml217LinearCombinationINS_3VecEEC2ERKNS_9OptionSetE
FN:86,133,_ZN5neml217LinearCombinationINS_6ScalarEEC2ERKNS_9OptionSetE
FNDA:0,_ZN5neml217LinearCombinationINS_2R2EE9set_valueEbbb
FNDA:50,_ZN5neml217LinearCombinationINS_3SR2EE9set_valueEbbb
FNDA:0,_ZN5neml217LinearCombinationINS_3VecEE9set_valueEbbb
FNDA:18,_ZN5neml217LinearCombinationINS_6ScalarEE9set_valueEbbb
FNDA:2,_ZN5neml217LinearCombinationINS_2R2EE16expected_optionsEv
FNDA:2,_ZN5neml217LinearCombinationINS_3SR2EE16expected_optionsEv
FNDA:2,_ZN5neml217LinearCombinationINS_3VecEE16expected_optionsEv
FNDA:3,_ZN5neml217LinearCombinationINS_6ScalarEE16expected_optionsEv
FNDA:0,_ZN5neml217LinearCombinationINS_2R2EEC2ERKNS_9OptionSetE
FNDA:12,_ZN5neml217LinearCombinationINS_3SR2EEC2ERKNS_9OptionSetE
FNDA:0,_ZN5neml217LinearCombinationINS_3VecEEC2ERKNS_9OptionSetE
FNDA:13,_ZN5neml217LinearCombinationINS_6ScalarEEC2ERKNS_9OptionSetE
FNF:12
FNH:8
DA:38,9
DA:42,9
DA:44,9
DA:45,9
DA:51,18
DA:53,9
DA:54,27
DA:56,18
DA:57,9
DA:59,27
DA:61,18
DA:66,36
DA:67,18
DA:70,18
DA:71,9
DA:76,27
DA:77,9
DA:82,18
DA:83,45
DA:86,25
DA:88,25
DA:90,101
DA:91,51
DA:93,25
DA:94,25
DA:96,25
DA:98,25
DA:102,25
DA:103,19
DA:105,25
DA:106,25
DA:108,25
DA:110,25
DA:114,25
DA:115,76
DA:117,51
DA:118,51
DA:119,24
DA:120,12
DA:122,39
DA:125,50
DA:127,4
DA:128,4
DA:129,10
DA:131,10
DA:133,25
DA:137,68
DA:139,68
DA:141,68
DA:142,136
DA:143,68
DA:144,68
DA:145,68
DA:147,68
DA:149,39
DA:150,117
DA:152,78
DA:153,72
DA:155,78
DA:156,7
DA:158,117
DA:159,2
DA:160,39
DA:166,68
LF:64
LH:64
end_of_record
TN:
SF:/home/runner/work/neml2/neml2/src/neml2/models/LinearInterpolation.cxx
FN:37,54,_ZN5neml219LinearInterpolationINS_3SR2EE16expected_optionsEv
FN:37,54,_ZN5neml219LinearInterpolationINS_3VecEE16expected_optionsEv
FN:37,54,_ZN5neml219LinearInterpolationINS_6ScalarEE16expected_optionsEv
FN:57,63,_ZN5neml219LinearInterpolationINS_3SR2EEC2ERKNS_9OptionSetE
FN:57,63,_ZN5neml219LinearInterpolationINS_3VecEEC2ERKNS_9OptionSetE
FN:57,63,_ZN5neml219LinearInterpolationINS_6ScalarEEC2ERKNS_9OptionSetE
FN:67,109,_ZN5neml219LinearInterpolationINS_3SR2EE9set_valueEbbb
FN:67,109,_ZN5neml219LinearInterpolationINS_3VecEE9set_valueEbbb
FN:67,109,_ZN5neml219LinearInterpolationINS_6ScalarEE9set_valueEbbb
FNDA:2,_ZN5neml219LinearInterpolationINS_3SR2EE16expected_optionsEv
FNDA:2,_ZN5neml219LinearInterpolationINS_3VecEE16expected_optionsEv
FNDA:2,_ZN5neml219LinearInterpolationINS_6ScalarEE16expected_optionsEv
FNDA:4,_ZN5neml219LinearInterpolationINS_3SR2EEC2ERKNS_9OptionSetE
FNDA:0,_ZN5neml219LinearInterpolationINS_3VecEEC2ERKNS_9OptionSetE
FNDA:9,_ZN5neml219LinearInterpolationINS_6ScalarEEC2ERKNS_9OptionSetE
FNDA:12,_ZN5neml219LinearInterpolationINS_3SR2EE9set_valueEbbb
FNDA:0,_ZN5neml219LinearInterpolationINS_3VecEE9set_valueEbbb
FNDA:19,_ZN5neml219LinearInterpolationINS_6ScalarEE9set_valueEbbb
FNF:9
FNH:7
DA:37,6
DA:39,6
DA:40,6
DA:42,12
DA:44,12
DA:45,12
DA:47,12
DA:48,12
DA:50,12
DA:51,6
DA:53,6
DA:54,0
DA:57,13
DA:59,39
DA:60,13
DA:61,26
DA:63,13
DA:67,31
DA:71,31
DA:73,31
DA:75,31
DA:77,31
DA:81,31
DA:82,31
DA:85,31
DA:89,31
DA:92,31
DA:93,31
DA:94,31
DA:95,31
DA:96,31
DA:98,31
DA:99,31
DA:101,31
DA:102,12
DA:103,12
DA:109,31
LF:37
LH:36
end_of_record
TN:
SF:/home/runner/work/neml2/neml2/src/neml2/models/MixedControlSetup.cxx
FN:109,122,_ZNK5neml217MixedControlSetup14make_operatorsERKNS_3SR2E
FN:35,65,_ZN5neml217MixedControlSetup16expected_optionsEv
FN:67,76,_ZN5neml217MixedControlSetupC2ERKNS_9OptionSetE
FN:79,106,_ZN5neml217MixedControlSetup9set_valueEbbb
FNDA:9,_ZNK5neml217MixedControlSetup14make_operatorsERKNS_3SR2E
FNDA:2,_ZN5neml217MixedControlSetup16expected_optionsEv
FNDA:3,_ZN5neml217MixedControlSetupC2ERKNS_9OptionSetE
FNDA:9,_ZN5neml217MixedControlSetup9set_valueEbbb
FNF:4
FNH:4
DA:35,2
DA:37,2
DA:38,2
DA:40,2
DA:42,6
DA:43,4
DA:45,8
DA:46,2
DA:48,6
DA:49,4
DA:50,2
DA:52,6
DA:53,6
DA:54,2
DA:56,4
DA:57,6
DA:58,2
DA:60,4
DA:61,4
DA:62,2
DA:64,2
DA:65,0
DA:67,3
DA:69,9
DA:70,3
DA:71,3
DA:72,3
DA:73,3
DA:74,6
DA:76,3
DA:79,9
DA:81,9
DA:83,9
DA:85,9
DA:86,9
DA:89,9
DA:91,4
DA:93,1
DA:94,1
DA:97,4
DA:99,4
DA:100,4
DA:106,9
DA:109,9
DA:111,9
DA:112,9
DA:115,9
DA:116,9
DA:118,9
DA:119,9
DA:121,18
DA:122,9
LF:52
LH:51
end_of_record
TN:
SF:/home/runner/work/neml2/neml2/src/neml2/models/Model.cxx
FN:102,115,_ZN5neml25ModelC2ERKNS_9OptionSetE
FN:118,129,_ZN5neml25Model2toERKN3c1013TensorOptionsE
FN:132,141,_ZN5neml25Model5setupEv
FN:144,163,_ZNK5neml25Model8diagnoseEv
FN:166,187,_ZNK5neml25Model15diagnose_nl_sysEv
FN:190,193,_ZNK5neml25Model23diagnostic_assert_stateERKNS_12VariableBaseE
FN:196,200,_ZNK5neml25Model27diagnostic_assert_old_stateERKNS_12VariableBaseE
FN:203,206,_ZNK5neml25Model23diagnostic_assert_forceERKNS_12VariableBaseE
FN:209,213,_ZNK5neml25Model27diagnostic_assert_old_forceERKNS_12VariableBaseE
FN:216,220,_ZNK5neml25Model26diagnostic_assert_residualERKNS_12VariableBaseE
FN:223,242,_ZNK5neml25Model31diagnostic_check_input_variableERKNS_12VariableBaseE
FN:245,259,_ZNK5neml25Model32diagnostic_check_output_variableERKNS_12VariableBaseE
FN:262,269,_ZN5neml25Model20link_input_variablesEv
FN:272,276,_ZN5neml25Model20link_input_variablesEPS0_
FN:279,286,_ZN5neml25Model21link_output_variablesEv
FN:289,291,_ZN5neml25Model21link_output_variablesEPS0_
FN:294,305,_ZN5neml25Model10request_ADERNS_12VariableBaseERKS1_
FN:308,319,_ZN5neml25Model10request_ADERNS_12VariableBaseERKS1_S4_
FN:322,327,_ZN5neml25Model11clear_inputEv
FN:330,335,_ZN5neml25Model12clear_outputEv
FN:338,343,_ZN5neml25Model20zero_undefined_inputEv
FN:346,364,_ZNK5neml25Model21calculate_eval_schemaEv
FN:367,370,_ZNK5neml25Model22forward_operator_indexEbbb
FN:373,407,_ZN5neml25Model7forwardEbbb
FN:410,473,_ZN5neml25Model17forward_maybe_jitEbbb
FN:444,449,_ZZN5neml25Model17forward_maybe_jitEbbbENKUlSt6vectorIN3c106IValueESaIS3_EEE_clES5_
FN:45,49,_ZNK5neml25Model16EvaluationSchemaeqERKS1_
FN:453,453,_ZZN5neml25Model17forward_maybe_jitEbbbENKUlRKN2at6TensorEE_clES4_
FN:476,505,_ZNK5neml25Model20variable_name_lookupB5cxx11ERKN2at6TensorE
FN:508,518,_ZNK5neml25Model15check_precisionEv
FN:52,55,_ZNK5neml25Model16EvaluationSchemaneERKS1_
FN:521,529,_ZN5neml25Model5valueERKSt3mapINS_19LabeledAxisAccessorENS_6TensorESt4lessIS2_ESaISt4pairIKS2_S3_EEE
FN:532,541,_ZN5neml25Model16value_and_dvalueERKSt3mapINS_19LabeledAxisAccessorENS_6TensorESt4lessIS2_ESaISt4pairIKS2_S3_EEE
FN:544,552,_ZN5neml25Model6dvalueERKSt3mapINS_19LabeledAxisAccessorENS_6TensorESt4lessIS2_ESaISt4pairIKS2_S3_EEE
FN:555,565,_ZN5neml25Model28value_and_dvalue_and_d2valueERKSt3mapINS_19LabeledAxisAccessorENS_6TensorESt4lessIS2_ESaISt4pairIKS2_S3_EEE
FN:568,577,_ZN5neml25Model18dvalue_and_d2valueERKSt3mapINS_19LabeledAxisAccessorENS_6TensorESt4lessIS2_ESaISt4pairIKS2_S3_EEE
FN:58,65,_ZNK5neml25Model16EvaluationSchemaltERKS1_
FN:580,588,_ZN5neml25Model7d2valueERKSt3mapINS_19LabeledAxisAccessorENS_6TensorESt4lessIS2_ESaISt4pairIKS2_S3_EEE
FN:591,599,_ZNK5neml25Model16registered_modelERKNSt7__cxx1112basic_stringIcSt11char_traitsIcESaIcEEE
FN:602,609,_ZN5neml25Model28register_nonlinear_parameterERKNSt7__cxx1112basic_stringIcSt11char_traitsIcESaIcEEERKNS_18NonlinearParameterE
FN:612,622,_ZNK5neml25Model12has_nl_paramEb
FN:625,628,_ZNK5neml25Model8nl_paramERKNSt7__cxx1112basic_stringIcSt11char_traitsIcESaIcEEE
FN:631,648,_ZNK5neml25Model26named_nonlinear_parametersB5cxx11Eb
FN:651,657,_ZNK5neml25Model14consumed_itemsEv
FN:660,666,_ZNK5neml25Model14provided_itemsEv
FN:669,684,_ZN5neml25Model18assign_input_stackERSt6vectorIN3c106IValueESaIS3_EE
FN:68,100,_ZN5neml25Model16expected_optionsEv
FN:687,697,_ZNK5neml25Model19collect_input_stackEv
FN:700,704,_ZN5neml25Model9set_guessERKNS_15NonlinearSystem3SolILb0EEE
FN:707,723,_ZN5neml25Model8assembleEPNS_15NonlinearSystem3ResILb0EEEPNS1_3JacILb0EEE
FN:726,730,_ZN5neml25Model9enable_ADEv
FN:733,807,_ZN5neml25Model22extract_AD_derivativesEbb
FNDA:485,_ZN5neml25ModelC2ERKNS_9OptionSetE
FNDA:91,_ZN5neml25Model2toERKN3c1013TensorOptionsE
FNDA:485,_ZN5neml25Model5setupEv
FNDA:99,_ZNK5neml25Model8diagnoseEv
FNDA:72,_ZNK5neml25Model15diagnose_nl_sysEv
FNDA:26,_ZNK5neml25Model23diagnostic_assert_stateERKNS_12VariableBaseE
FNDA:0,_ZNK5neml25Model27diagnostic_assert_old_stateERKNS_12VariableBaseE
FNDA:19,_ZNK5neml25Model23diagnostic_assert_forceERKNS_12VariableBaseE
FNDA:0,_ZNK5neml25Model27diagnostic_assert_old_forceERKNS_12VariableBaseE
FNDA:0,_ZNK5neml25Model26diagnostic_assert_residualERKNS_12VariableBaseE
FNDA:302,_ZNK5neml25Model31diagnostic_check_input_variableERKNS_12VariableBaseE
FNDA:120,_ZNK5neml25Model32diagnostic_check_output_variableERKNS_12VariableBaseE
FNDA:486,_ZN5neml25Model20link_input_variablesEv
FNDA:14,_ZN5neml25Model20link_input_variablesEPS0_
FNDA:486,_ZN5neml25Model21link_output_variablesEv
FNDA:14,_ZN5neml25Model21link_output_variablesEPS0_
FNDA:14,_ZN5neml25Model10request_ADERNS_12VariableBaseERKS1_
FNDA:48,_ZN5neml25Model10request_ADERNS_12VariableBaseERKS1_S4_
FNDA:4069,_ZN5neml25Model11clear_inputEv
FNDA:1622,_ZN5neml25Model12clear_outputEv
FNDA:4069,_ZN5neml25Model20zero_undefined_inputEv
FNDA:5942,_ZNK5neml25Model21calculate_eval_schemaEv
FNDA:5942,_ZNK5neml25Model22forward_operator_indexEbbb
FNDA:1478,_ZN5neml25Model7forwardEbbb
FNDA:6947,_ZN5neml25Model17forward_maybe_jitEbbb
FNDA:473,_ZZN5neml25Model17forward_maybe_jitEbbbENKUlSt6vectorIN3c106IValueESaIS3_EEE_clES5_
FNDA:0,_ZNK5neml25Model16EvaluationSchemaeqERKS1_
FNDA:58630,_ZZN5neml25Model17forward_maybe_jitEbbbENKUlRKN2at6TensorEE_clES4_
FNDA:344539,_ZNK5neml25Model20variable_name_lookupB5cxx11ERKN2at6TensorE
FNDA:501,_ZNK5neml25Model15check_precisionEv
FNDA:0,_ZNK5neml25Model16EvaluationSchemaneERKS1_
FNDA:254,_ZN5neml25Model5valueERKSt3mapINS_19LabeledAxisAccessorENS_6TensorESt4lessIS2_ESaISt4pairIKS2_S3_EEE
FNDA:0,_ZN5neml25Model16value_and_dvalueERKSt3mapINS_19LabeledAxisAccessorENS_6TensorESt4lessIS2_ESaISt4pairIKS2_S3_EEE
FNDA:185,_ZN5neml25Model6dvalueERKSt3mapINS_19LabeledAxisAccessorENS_6TensorESt4lessIS2_ESaISt4pairIKS2_S3_EEE
FNDA:0,_ZN5neml25Model28value_and_dvalue_and_d2valueERKSt3mapINS_19LabeledAxisAccessorENS_6TensorESt4lessIS2_ESaISt4pairIKS2_S3_EEE
FNDA:0,_ZN5neml25Model18dvalue_and_d2valueERKSt3mapINS_19LabeledAxisAccessorENS_6TensorESt4lessIS2_ESaISt4pairIKS2_S3_EEE
FNDA:11509,_ZNK5neml25Model16EvaluationSchemaltERKS1_
FNDA:62,_ZN5neml25Model7d2valueERKSt3mapINS_19LabeledAxisAccessorENS_6TensorESt4lessIS2_ESaISt4pairIKS2_S3_EEE
FNDA:262,_ZNK5neml25Model16registered_modelERKNSt7__cxx1112basic_stringIcSt11char_traitsIcESaIcEEE
FNDA:79,_ZN5neml25Model28register_nonlinear_parameterERKNSt7__cxx1112basic_stringIcSt11char_traitsIcESaIcEEERKNS_18NonlinearParameterE
FNDA:0,_ZNK5neml25Model12has_nl_paramEb
FNDA:498,_ZNK5neml25Model8nl_paramERKNSt7__cxx1112basic_stringIcSt11char_traitsIcESaIcEEE
FNDA:601,_ZNK5neml25Model26named_nonlinear_parametersB5cxx11Eb
FNDA:262,_ZNK5neml25Model14consumed_itemsEv
FNDA:262,_ZNK5neml25Model14provided_itemsEv
FNDA:473,_ZN5neml25Model18assign_input_stackERSt6vectorIN3c106IValueESaIS3_EE
FNDA:575,_ZN5neml25Model16expected_optionsEv
FNDA:5942,_ZNK5neml25Model19collect_input_stackEv
FNDA:996,_ZN5neml25Model9set_guessERKNS_15NonlinearSystem3SolILb0EEE
FNDA:1671,_ZN5neml25Model8assembleEPNS_15NonlinearSystem3ResILb0EEEPNS1_3JacILb0EEE
FNDA:692,_ZN5neml25Model9enable_ADEv
FNDA:692,_ZN5neml25Model22extract_AD_derivativesEbb
FNF:52
FNH:43
DA:45,0
DA:47,0
DA:48,0
DA:52,0
DA:54,0
DA:58,11509
DA:60,11509
DA:61,0
DA:62,11509
DA:63,571
DA:64,10938
DA:68,575
DA:70,575
DA:71,575
DA:72,575
DA:74,575
DA:77,1150
DA:78,1150
DA:79,1150
DA:80,1150
DA:81,1150
DA:82,1150
DA:87,1150
DA:88,1725
DA:90,1150
DA:91,1150
DA:93,1150
DA:94,1150
DA:97,575
DA:99,575
DA:100,0
DA:102,485
DA:108,970
DA:109,970
DA:110,970
DA:111,485
DA:112,1443
DA:113,1940
DA:115,485
DA:118,91
DA:120,91
DA:121,91
DA:122,91
DA:124,174
DA:125,83
DA:127,92
DA:128,92
DA:129,91
DA:132,485
DA:134,485
DA:136,210
DA:137,210
DA:140,485
DA:141,485
DA:144,99
DA:146,187
DA:147,88
DA:150,401
DA:151,302
DA:152,219
DA:153,120
DA:155,99
DA:156,5
DA:158,99
DA:159,9
DA:160,3
DA:163,99
DA:166,72
DA:168,139
DA:169,67
DA:172,72
DA:173,253
DA:174,181
DA:175,109
DA:178,72
DA:179,145
DA:180,76
DA:181,76
DA:187,72
DA:190,26
DA:192,26
DA:193,26
DA:196,0
DA:198,0
DA:199,0
DA:200,0
DA:203,19
DA:205,19
DA:206,19
DA:209,0
DA:211,0
DA:212,0
DA:213,0
DA:216,0
DA:218,0
DA:219,0
DA:220,0
DA:223,302
DA:225,770
DA:226,468
DA:228,302
DA:242,302
DA:245,120
DA:247,120
DA:249,120
DA:259,120
DA:262,486
DA:264,762
DA:266,276
DA:267,276
DA:269,486
DA:272,14
DA:274,98
DA:275,84
DA:276,14
DA:279,486
DA:281,762
DA:283,276
DA:284,276
DA:286,486
DA:289,14
DA:291,14
DA:294,14
DA:296,14
DA:298,14
DA:301,14
DA:302,14
DA:304,14
DA:305,14
DA:308,48
DA:310,48
DA:312,48
DA:315,48
DA:316,48
DA:318,48
DA:319,48
DA:322,4069
DA:324,4069
DA:325,6682
DA:326,2613
DA:327,4069
DA:330,1622
DA:332,1622
DA:333,2743
DA:334,1121
DA:335,1622
DA:338,4069
DA:340,4069
DA:341,6682
DA:342,2613
DA:343,4069
DA:346,5942
DA:348,5942
DA:349,5942
DA:350,32856
DA:352,26914
DA:353,26914
DA:355,19337
DA:357,13395
DA:358,13395
DA:361,5942
DA:363,11884
DA:364,5942
DA:367,5942
DA:369,5942
DA:373,1478
DA:375,1478
DA:377,1478
DA:379,1478
DA:381,1478
DA:383,1478
DA:385,1478
DA:388,1478
DA:390,1478
DA:392,1478
DA:393,692
DA:395,1478
DA:397,1478
DA:398,692
DA:400,1478
DA:401,435
DA:403,1478
DA:404,114
DA:406,2956
DA:407,1478
DA:410,6947
DA:412,6947
DA:414,1005
DA:415,1005
DA:419,5942
DA:421,5942
DA:422,5942
DA:423,5942
DA:425,5942
DA:427,5469
DA:428,5469
DA:429,5469
DA:430,5469
DA:431,5469
DA:432,1790
DA:433,5469
DA:434,5469
DA:439,473
DA:441,473
DA:444,473
DA:446,473
DA:447,473
DA:448,473
DA:449,473
DA:450,2365
DA:451,946
DA:453,59576
DA:455,473
DA:457,0
DA:459,0
DA:460,0
DA:461,0
DA:462,473
DA:464,946
DA:465,473
DA:466,0
DA:467,946
DA:468,473
DA:471,473
DA:472,473
DA:473,5942
DA:476,344539
DA:479,1251296
DA:480,911258
DA:481,881631
DA:482,4501
DA:483,728186
DA:484,389386
DA:485,316163
DA:486,1238
DA:489,3149316
DA:490,2811599
DA:491,1083
DA:492,2112787
DA:493,1775364
DA:494,294
DA:497,622474
DA:499,285909
DA:500,285909
DA:501,858
DA:502,285909
DA:504,673130
DA:508,501
DA:510,501
DA:511,501
DA:512,1002
DA:518,501
DA:521,254
DA:523,254
DA:525,254
DA:526,254
DA:527,254
DA:528,254
DA:529,0
DA:532,0
DA:534,0
DA:536,0
DA:537,0
DA:538,0
DA:539,0
DA:540,0
DA:541,0
DA:544,185
DA:546,185
DA:548,185
DA:549,185
DA:550,185
DA:551,185
DA:552,0
DA:555,0
DA:557,0
DA:559,0
DA:560,0
DA:561,0
DA:562,0
DA:563,0
DA:564,0
DA:565,0
DA:568,0
DA:570,0
DA:572,0
DA:573,0
DA:574,0
DA:575,0
DA:576,0
DA:577,0
DA:580,62
DA:582,62
DA:584,62
DA:585,62
DA:586,62
DA:587,62
DA:588,0
DA:591,262
DA:593,864
DA:594,864
DA:595,262
DA:597,0
DA:598,0
DA:602,79
DA:604,79
DA:608,79
DA:609,79
DA:612,0
DA:614,0
DA:615,0
DA:617,0
DA:618,0
DA:619,0
DA:621,0
DA:625,498
DA:627,498
DA:631,601
DA:633,601
DA:634,79
DA:636,522
DA:638,680
DA:639,158
DA:640,0
DA:641,158
DA:643,536
DA:644,14
DA:645,14
DA:647,522
DA:648,522
DA:651,262
DA:653,262
DA:654,861
DA:655,599
DA:656,262
DA:657,0
DA:660,262
DA:662,262
DA:663,546
DA:664,284
DA:665,262
DA:666,0
DA:669,473
DA:672,473
DA:673,473
DA:674,473
DA:676,473
DA:682,473
DA:683,473
DA:684,473
DA:687,5942
DA:689,5942
DA:690,5942
DA:695,5942
DA:696,11884
DA:697,5942
DA:700,996
DA:702,996
DA:703,996
DA:704,996
DA:707,1671
DA:709,1671
DA:711,1671
DA:713,996
DA:714,996
DA:716,1671
DA:719,675
DA:720,1350
DA:721,2025
DA:723,1671
DA:726,692
DA:728,698
DA:729,6
DA:730,692
DA:733,692
DA:735,692
DA:737,696
DA:739,4
DA:740,0
DA:741,0
DA:744,4
DA:745,18
DA:746,14
DA:747,14
DA:750,4
DA:751,18
DA:752,14
DA:753,14
DA:754,0
DA:755,0
DA:757,4
DA:761,4
DA:763,4
DA:764,18
DA:765,14
DA:767,14
DA:768,14
DA:769,14
DA:771,4
DA:773,692
DA:775,134
DA:776,0
DA:778,0
DA:779,0
DA:781,0
DA:783,0
DA:784,0
DA:786,0
DA:787,0
DA:788,0
DA:789,0
DA:795,0
DA:797,0
DA:798,0
DA:799,0
DA:801,0
DA:802,0
DA:803,0
DA:805,0
DA:807,692
LF:420
LH:334
end_of_record
TN:
SF:/home/runner/work/neml2/neml2/src/neml2/models/ParameterStore.cxx
FN:108,271,_ZN5neml219resolve_tensor_nameINS_10QuaternionEEERKT_RKNS_10TensorNameIS2_EEPNS_5ModelERKNSt7__cxx1112basic_stringIcSt11char_traitsIcESaIcEEE
FN:108,271,_ZN5neml219resolve_tensor_nameINS_11MillerIndexEEERKT_RKNS_10TensorNameIS2_EEPNS_5ModelERKNSt7__cxx1112basic_stringIcSt11char_traitsIcESaIcEEE
FN:108,271,_ZN5neml219resolve_tensor_nameINS_2R2EEERKT_RKNS_10TensorNameIS2_EEPNS_5ModelERKNSt7__cxx1112basic_stringIcSt11char_traitsIcESaIcEEE
FN:108,271,_ZN5neml219resolve_tensor_nameINS_2R3EEERKT_RKNS_10TensorNameIS2_EEPNS_5ModelERKNSt7__cxx1112basic_stringIcSt11char_traitsIcESaIcEEE
FN:108,271,_ZN5neml219resolve_tensor_nameINS_2R4EEERKT_RKNS_10TensorNameIS2_EEPNS_5ModelERKNSt7__cxx1112basic_stringIcSt11char_traitsIcESaIcEEE
FN:108,271,_ZN5neml219resolve_tensor_nameINS_3RotEEERKT_RKNS_10TensorNameIS2_EEPNS_5ModelERKNSt7__cxx1112basic_stringIcSt11char_traitsIcESaIcEEE
FN:108,271,_ZN5neml219resolve_tensor_nameINS_3SR2EEERKT_RKNS_10TensorNameIS2_EEPNS_5ModelERKNSt7__cxx1112basic_stringIcSt11char_traitsIcESaIcEEE
FN:108,271,_ZN5neml219resolve_tensor_nameINS_3VecEEERKT_RKNS_10TensorNameIS2_EEPNS_5ModelERKNSt7__cxx1112basic_stringIcSt11char_traitsIcESaIcEEE
FN:108,271,_ZN5neml219resolve_tensor_nameINS_3WR2EEERKT_RKNS_10TensorNameIS2_EEPNS_5ModelERKNSt7__cxx1112basic_stringIcSt11char_traitsIcESaIcEEE
FN:108,271,_ZN5neml219resolve_tensor_nameINS_4SFR3EEERKT_RKNS_10TensorNameIS2_EEPNS_5ModelERKNSt7__cxx1112basic_stringIcSt11char_traitsIcESaIcEEE
FN:108,271,_ZN5neml219resolve_tensor_nameINS_4SSR4EEERKT_RKNS_10TensorNameIS2_EEPNS_5ModelERKNSt7__cxx1112basic_stringIcSt11char_traitsIcESaIcEEE
FN:108,271,_ZN5neml219resolve_tensor_nameINS_4SWR4EEERKT_RKNS_10TensorNameIS2_EEPNS_5ModelERKNSt7__cxx1112basic_stringIcSt11char_traitsIcESaIcEEE
FN:108,271,_ZN5neml219resolve_tensor_nameINS_4WSR4EEERKT_RKNS_10TensorNameIS2_EEPNS_5ModelERKNSt7__cxx1112basic_stringIcSt11char_traitsIcESaIcEEE
FN:108,271,_ZN5neml219resolve_tensor_nameINS_4WWR4EEERKT_RKNS_10TensorNameIS2_EEPNS_5ModelERKNSt7__cxx1112basic_stringIcSt11char_traitsIcESaIcEEE
FN:108,271,_ZN5neml219resolve_tensor_nameINS_5SFFR4EEERKT_RKNS_10TensorNameIS2_EEPNS_5ModelERKNSt7__cxx1112basic_stringIcSt11char_traitsIcESaIcEEE
FN:108,271,_ZN5neml219resolve_tensor_nameINS_5WFFR4EEERKT_RKNS_10TensorNameIS2_EEPNS_5ModelERKNSt7__cxx1112basic_stringIcSt11char_traitsIcESaIcEEE
FN:108,271,_ZN5neml219resolve_tensor_nameINS_6ScalarEEERKT_RKNS_10TensorNameIS2_EEPNS_5ModelERKNSt7__cxx1112basic_stringIcSt11char_traitsIcESaIcEEE
FN:275,307,_ZN5neml214ParameterStore17declare_parameterINS_10QuaternionEvEERKT_RKNSt7__cxx1112basic_stringIcSt11char_traitsIcESaIcEEERKNS_10TensorNameIS3_EEb
FN:275,307,_ZN5neml214ParameterStore17declare_parameterINS_11MillerIndexEvEERKT_RKNSt7__cxx1112basic_stringIcSt11char_traitsIcESaIcEEERKNS_10TensorNameIS3_EEb
FN:275,307,_ZN5neml214ParameterStore17declare_parameterINS_2R2EvEERKT_RKNSt7__cxx1112basic_stringIcSt11char_traitsIcESaIcEEERKNS_10TensorNameIS3_EEb
FN:275,307,_ZN5neml214ParameterStore17declare_parameterINS_2R3EvEERKT_RKNSt7__cxx1112basic_stringIcSt11char_traitsIcESaIcEEERKNS_10TensorNameIS3_EEb
FN:275,307,_ZN5neml214ParameterStore17declare_parameterINS_2R4EvEERKT_RKNSt7__cxx1112basic_stringIcSt11char_traitsIcESaIcEEERKNS_10TensorNameIS3_EEb
FN:275,307,_ZN5neml214ParameterStore17declare_parameterINS_3RotEvEERKT_RKNSt7__cxx1112basic_stringIcSt11char_traitsIcESaIcEEERKNS_10TensorNameIS3_EEb
FN:275,307,_ZN5neml214ParameterStore17declare_parameterINS_3SR2EvEERKT_RKNSt7__cxx1112basic_stringIcSt11char_traitsIcESaIcEEERKNS_10TensorNameIS3_EEb
FN:275,307,_ZN5neml214ParameterStore17declare_parameterINS_3VecEvEERKT_RKNSt7__cxx1112basic_stringIcSt11char_traitsIcESaIcEEERKNS_10TensorNameIS3_EEb
FN:275,307,_ZN5neml214ParameterStore17declare_parameterINS_3WR2EvEERKT_RKNSt7__cxx1112basic_stringIcSt11char_traitsIcESaIcEEERKNS_10TensorNameIS3_EEb
FN:275,307,_ZN5neml214ParameterStore17declare_parameterINS_4SFR3EvEERKT_RKNSt7__cxx1112basic_stringIcSt11char_traitsIcESaIcEEERKNS_10TensorNameIS3_EEb
FN:275,307,_ZN5neml214ParameterStore17declare_parameterINS_4SSR4EvEERKT_RKNSt7__cxx1112basic_stringIcSt11char_traitsIcESaIcEEERKNS_10TensorNameIS3_EEb
FN:275,307,_ZN5neml214ParameterStore17declare_parameterINS_4SWR4EvEERKT_RKNSt7__cxx1112basic_stringIcSt11char_traitsIcESaIcEEERKNS_10TensorNameIS3_EEb
FN:275,307,_ZN5neml214ParameterStore17declare_parameterINS_4WSR4EvEERKT_RKNSt7__cxx1112basic_stringIcSt11char_traitsIcESaIcEEERKNS_10TensorNameIS3_EEb
FN:275,307,_ZN5neml214ParameterStore17declare_parameterINS_4WWR4EvEERKT_RKNSt7__cxx1112basic_stringIcSt11char_traitsIcESaIcEEERKNS_10TensorNameIS3_EEb
FN:275,307,_ZN5neml214ParameterStore17declare_parameterINS_5SFFR4EvEERKT_RKNSt7__cxx1112basic_stringIcSt11char_traitsIcESaIcEEERKNS_10TensorNameIS3_EEb
FN:275,307,_ZN5neml214ParameterStore17declare_parameterINS_5WFFR4EvEERKT_RKNSt7__cxx1112basic_stringIcSt11char_traitsIcESaIcEEERKNS_10TensorNameIS3_EEb
FN:275,307,_ZN5neml214ParameterStore17declare_parameterINS_6ScalarEvEERKT_RKNSt7__cxx1112basic_stringIcSt11char_traitsIcESaIcEEERKNS_10TensorNameIS3_EEb
FN:311,323,_ZN5neml214ParameterStore17declare_parameterINS_10QuaternionEvEERKT_RKNSt7__cxx1112basic_stringIcSt11char_traitsIcESaIcEEESD_b
FN:311,323,_ZN5neml214ParameterStore17declare_parameterINS_11MillerIndexEvEERKT_RKNSt7__cxx1112basic_stringIcSt11char_traitsIcESaIcEEESD_b
FN:311,323,_ZN5neml214ParameterStore17declare_parameterINS_2R2EvEERKT_RKNSt7__cxx1112basic_stringIcSt11char_traitsIcESaIcEEESD_b
FN:311,323,_ZN5neml214ParameterStore17declare_parameterINS_2R3EvEERKT_RKNSt7__cxx1112basic_stringIcSt11char_traitsIcESaIcEEESD_b
FN:311,323,_ZN5neml214ParameterStore17declare_parameterINS_2R4EvEERKT_RKNSt7__cxx1112basic_stringIcSt11char_traitsIcESaIcEEESD_b
FN:311,323,_ZN5neml214ParameterStore17declare_parameterINS_3RotEvEERKT_RKNSt7__cxx1112basic_stringIcSt11char_traitsIcESaIcEEESD_b
FN:311,323,_ZN5neml214ParameterStore17declare_parameterINS_3SR2EvEERKT_RKNSt7__cxx1112basic_stringIcSt11char_traitsIcESaIcEEESD_b
FN:311,323,_ZN5neml214ParameterStore17declare_parameterINS_3VecEvEERKT_RKNSt7__cxx1112basic_stringIcSt11char_traitsIcESaIcEEESD_b
FN:311,323,_ZN5neml214ParameterStore17declare_parameterINS_3WR2EvEERKT_RKNSt7__cxx1112basic_stringIcSt11char_traitsIcESaIcEEESD_b
FN:311,323,_ZN5neml214ParameterStore17declare_parameterINS_4SFR3EvEERKT_RKNSt7__cxx1112basic_stringIcSt11char_traitsIcESaIcEEESD_b
FN:311,323,_ZN5neml214ParameterStore17declare_parameterINS_4SSR4EvEERKT_RKNSt7__cxx1112basic_stringIcSt11char_traitsIcESaIcEEESD_b
FN:311,323,_ZN5neml214ParameterStore17declare_parameterINS_4SWR4EvEERKT_RKNSt7__cxx1112basic_stringIcSt11char_traitsIcESaIcEEESD_b
FN:311,323,_ZN5neml214ParameterStore17declare_parameterINS_4WSR4EvEERKT_RKNSt7__cxx1112basic_stringIcSt11char_traitsIcESaIcEEESD_b
FN:311,323,_ZN5neml214ParameterStore17declare_parameterINS_4WWR4EvEERKT_RKNSt7__cxx1112basic_stringIcSt11char_traitsIcESaIcEEESD_b
FN:311,323,_ZN5neml214ParameterStore17declare_parameterINS_5SFFR4EvEERKT_RKNSt7__cxx1112basic_stringIcSt11char_traitsIcESaIcEEESD_b
FN:311,323,_ZN5neml214ParameterStore17declare_parameterINS_5WFFR4EvEERKT_RKNSt7__cxx1112basic_stringIcSt11char_traitsIcESaIcEEESD_b
FN:311,323,_ZN5neml214ParameterStore17declare_parameterINS_6ScalarEvEERKT_RKNSt7__cxx1112basic_stringIcSt11char_traitsIcESaIcEEESD_b
FN:337,358,_ZN5neml214ParameterStore22assign_parameter_stackERSt6vectorIN3c106IValueESaIS3_EE
FN:361,369,_ZNK5neml214ParameterStore23collect_parameter_stackEv
FN:37,40,_ZN5neml214ParameterStoreC2EPNS_5ModelE
FN:43,47,_ZN5neml214ParameterStore18send_parameters_toERKN3c1013TensorOptionsE
FN:50,55,_ZN5neml214ParameterStore13set_parameterERKNSt7__cxx1112basic_stringIcSt11char_traitsIcESaIcEEERKNS_6TensorE
FN:58,63,_ZN5neml214ParameterStore13get_parameterERKNSt7__cxx1112basic_stringIcSt11char_traitsIcESaIcEEE
FN:66,70,_ZN5neml214ParameterStore14set_parametersERKSt3mapINSt7__cxx1112basic_stringIcSt11char_traitsIcESaIcEEENS_6TensorESt4lessIS7_ESaISt4pairIKS7_S8_EEE
FN:73,78,_ZN5neml214ParameterStore16named_parametersB5cxx11Ev
FN:82,104,_ZN5neml214ParameterStore17declare_parameterINS_10QuaternionEvEERKT_RKNSt7__cxx1112basic_stringIcSt11char_traitsIcESaIcEEES5_
FN:82,104,_ZN5neml214ParameterStore17declare_parameterINS_11MillerIndexEvEERKT_RKNSt7__cxx1112basic_stringIcSt11char_traitsIcESaIcEEES5_
FN:82,104,_ZN5neml214ParameterStore17declare_parameterINS_2R2EvEERKT_RKNSt7__cxx1112basic_stringIcSt11char_traitsIcESaIcEEES5_
FN:82,104,_ZN5neml214ParameterStore17declare_parameterINS_2R3EvEERKT_RKNSt7__cxx1112basic_stringIcSt11char_traitsIcESaIcEEES5_
FN:82,104,_ZN5neml214ParameterStore17declare_parameterINS_2R4EvEERKT_RKNSt7__cxx1112basic_stringIcSt11char_traitsIcESaIcEEES5_
FN:82,104,_ZN5neml214ParameterStore17declare_parameterINS_3RotEvEERKT_RKNSt7__cxx1112basic_stringIcSt11char_traitsIcESaIcEEES5_
FN:82,104,_ZN5neml214ParameterStore17declare_parameterINS_3SR2EvEERKT_RKNSt7__cxx1112basic_stringIcSt11char_traitsIcESaIcEEES5_
FN:82,104,_ZN5neml214ParameterStore17declare_parameterINS_3VecEvEERKT_RKNSt7__cxx1112basic_stringIcSt11char_traitsIcESaIcEEES5_
FN:82,104,_ZN5neml214ParameterStore17declare_parameterINS_3WR2EvEERKT_RKNSt7__cxx1112basic_stringIcSt11char_traitsIcESaIcEEES5_
FN:82,104,_ZN5neml214ParameterStore17declare_parameterINS_4SFR3EvEERKT_RKNSt7__cxx1112basic_stringIcSt11char_traitsIcESaIcEEES5_
FN:82,104,_ZN5neml214ParameterStore17declare_parameterINS_4SSR4EvEERKT_RKNSt7__cxx1112basic_stringIcSt11char_traitsIcESaIcEEES5_
FN:82,104,_ZN5neml214ParameterStore17declare_parameterINS_4SWR4EvEERKT_RKNSt7__cxx1112basic_stringIcSt11char_traitsIcESaIcEEES5_
FN:82,104,_ZN5neml214ParameterStore17declare_parameterINS_4WSR4EvEERKT_RKNSt7__cxx1112basic_stringIcSt11char_traitsIcESaIcEEES5_
FN:82,104,_ZN5neml214ParameterStore17declare_parameterINS_4WWR4EvEERKT_RKNSt7__cxx1112basic_stringIcSt11char_traitsIcESaIcEEES5_
FN:82,104,_ZN5neml214ParameterStore17declare_parameterINS_5SFFR4EvEERKT_RKNSt7__cxx1112basic_stringIcSt11char_traitsIcESaIcEEES5_
FN:82,104,_ZN5neml214ParameterStore17declare_parameterINS_5WFFR4EvEERKT_RKNSt7__cxx1112basic_stringIcSt11char_traitsIcESaIcEEES5_
FN:82,104,_ZN5neml214ParameterStore17declare_parameterINS_6ScalarEvEERKT_RKNSt7__cxx1112basic_stringIcSt11char_traitsIcESaIcEEES5_
FN:82,104,_ZN5neml214ParameterStore17declare_parameterINS_6TensorEvEERKT_RKNSt7__cxx1112basic_stringIcSt11char_traitsIcESaIcEEES5_
FNDA:0,_ZN5neml219resolve_tensor_nameINS_10QuaternionEEERKT_RKNS_10TensorNameIS2_EEPNS_5ModelERKNSt7__cxx1112basic_stringIcSt11char_traitsIcESaIcEEE
FNDA:0,_ZN5neml219resolve_tensor_nameINS_11MillerIndexEEERKT_RKNS_10TensorNameIS2_EEPNS_5ModelERKNSt7__cxx1112basic_stringIcSt11char_traitsIcESaIcEEE
FNDA:0,_ZN5neml219resolve_tensor_nameINS_2R2EEERKT_RKNS_10TensorNameIS2_EEPNS_5ModelERKNSt7__cxx1112basic_stringIcSt11char_traitsIcESaIcEEE
FNDA:0,_ZN5neml219resolve_tensor_nameINS_2R3EEERKT_RKNS_10TensorNameIS2_EEPNS_5ModelERKNSt7__cxx1112basic_stringIcSt11char_traitsIcESaIcEEE
FNDA:0,_ZN5neml219resolve_tensor_nameINS_2R4EEERKT_RKNS_10TensorNameIS2_EEPNS_5ModelERKNSt7__cxx1112basic_stringIcSt11char_traitsIcESaIcEEE
FNDA:0,_ZN5neml219resolve_tensor_nameINS_3RotEEERKT_RKNS_10TensorNameIS2_EEPNS_5ModelERKNSt7__cxx1112basic_stringIcSt11char_traitsIcESaIcEEE
FNDA:0,_ZN5neml219resolve_tensor_nameINS_3SR2EEERKT_RKNS_10TensorNameIS2_EEPNS_5ModelERKNSt7__cxx1112basic_stringIcSt11char_traitsIcESaIcEEE
FNDA:0,_ZN5neml219resolve_tensor_nameINS_3VecEEERKT_RKNS_10TensorNameIS2_EEPNS_5ModelERKNSt7__cxx1112basic_stringIcSt11char_traitsIcESaIcEEE
FNDA:0,_ZN5neml219resolve_tensor_nameINS_3WR2EEERKT_RKNS_10TensorNameIS2_EEPNS_5ModelERKNSt7__cxx1112basic_stringIcSt11char_traitsIcESaIcEEE
FNDA:0,_ZN5neml219resolve_tensor_nameINS_4SFR3EEERKT_RKNS_10TensorNameIS2_EEPNS_5ModelERKNSt7__cxx1112basic_stringIcSt11char_traitsIcESaIcEEE
FNDA:2,_ZN5neml219resolve_tensor_nameINS_4SSR4EEERKT_RKNS_10TensorNameIS2_EEPNS_5ModelERKNSt7__cxx1112basic_stringIcSt11char_traitsIcESaIcEEE
FNDA:0,_ZN5neml219resolve_tensor_nameINS_4SWR4EEERKT_RKNS_10TensorNameIS2_EEPNS_5ModelERKNSt7__cxx1112basic_stringIcSt11char_traitsIcESaIcEEE
FNDA:0,_ZN5neml219resolve_tensor_nameINS_4WSR4EEERKT_RKNS_10TensorNameIS2_EEPNS_5ModelERKNSt7__cxx1112basic_stringIcSt11char_traitsIcESaIcEEE
FNDA:0,_ZN5neml219resolve_tensor_nameINS_4WWR4EEERKT_RKNS_10TensorNameIS2_EEPNS_5ModelERKNSt7__cxx1112basic_stringIcSt11char_traitsIcESaIcEEE
FNDA:0,_ZN5neml219resolve_tensor_nameINS_5SFFR4EEERKT_RKNS_10TensorNameIS2_EEPNS_5ModelERKNSt7__cxx1112basic_stringIcSt11char_traitsIcESaIcEEE
FNDA:0,_ZN5neml219resolve_tensor_nameINS_5WFFR4EEERKT_RKNS_10TensorNameIS2_EEPNS_5ModelERKNSt7__cxx1112basic_stringIcSt11char_traitsIcESaIcEEE
FNDA:77,_ZN5neml219resolve_tensor_nameINS_6ScalarEEERKT_RKNS_10TensorNameIS2_EEPNS_5ModelERKNSt7__cxx1112basic_stringIcSt11char_traitsIcESaIcEEE
FNDA:0,_ZN5neml214ParameterStore17declare_parameterINS_10QuaternionEvEERKT_RKNSt7__cxx1112basic_stringIcSt11char_traitsIcESaIcEEERKNS_10TensorNameIS3_EEb
FNDA:0,_ZN5neml214ParameterStore17declare_parameterINS_11MillerIndexEvEERKT_RKNSt7__cxx1112basic_stringIcSt11char_traitsIcESaIcEEERKNS_10TensorNameIS3_EEb
FNDA:0,_ZN5neml214ParameterStore17declare_parameterINS_2R2EvEERKT_RKNSt7__cxx1112basic_stringIcSt11char_traitsIcESaIcEEERKNS_10TensorNameIS3_EEb
FNDA:0,_ZN5neml214ParameterStore17declare_parameterINS_2R3EvEERKT_RKNSt7__cxx1112basic_stringIcSt11char_traitsIcESaIcEEERKNS_10TensorNameIS3_EEb
FNDA:0,_ZN5neml214ParameterStore17declare_parameterINS_2R4EvEERKT_RKNSt7__cxx1112basic_stringIcSt11char_traitsIcESaIcEEERKNS_10TensorNameIS3_EEb
FNDA:0,_ZN5neml214ParameterStore17declare_parameterINS_3RotEvEERKT_RKNSt7__cxx1112basic_stringIcSt11char_traitsIcESaIcEEERKNS_10TensorNameIS3_EEb
FNDA:5,_ZN5neml214ParameterStore17declare_parameterINS_3SR2EvEERKT_RKNSt7__cxx1112basic_stringIcSt11char_traitsIcESaIcEEERKNS_10TensorNameIS3_EEb
FNDA:0,_ZN5neml214ParameterStore17declare_parameterINS_3VecEvEERKT_RKNSt7__cxx1112basic_stringIcSt11char_traitsIcESaIcEEERKNS_10TensorNameIS3_EEb
FNDA:0,_ZN5neml214ParameterStore17declare_parameterINS_3WR2EvEERKT_RKNSt7__cxx1112basic_stringIcSt11char_traitsIcESaIcEEERKNS_10TensorNameIS3_EEb
FNDA:0,_ZN5neml214ParameterStore17declare_parameterINS_4SFR3EvEERKT_RKNSt7__cxx1112basic_stringIcSt11char_traitsIcESaIcEEERKNS_10TensorNameIS3_EEb
FNDA:5,_ZN5neml214ParameterStore17declare_parameterINS_4SSR4EvEERKT_RKNSt7__cxx1112basic_stringIcSt11char_traitsIcESaIcEEERKNS_10TensorNameIS3_EEb
FNDA:0,_ZN5neml214ParameterStore17declare_parameterINS_4SWR4EvEERKT_RKNSt7__cxx1112basic_stringIcSt11char_traitsIcESaIcEEERKNS_10TensorNameIS3_EEb
FNDA:0,_ZN5neml214ParameterStore17declare_parameterINS_4WSR4EvEERKT_RKNSt7__cxx1112basic_stringIcSt11char_traitsIcESaIcEEERKNS_10TensorNameIS3_EEb
FNDA:0,_ZN5neml214ParameterStore17declare_parameterINS_4WWR4EvEERKT_RKNSt7__cxx1112basic_stringIcSt11char_traitsIcESaIcEEERKNS_10TensorNameIS3_EEb
FNDA:0,_ZN5neml214ParameterStore17declare_parameterINS_5SFFR4EvEERKT_RKNSt7__cxx1112basic_stringIcSt11char_traitsIcESaIcEEERKNS_10TensorNameIS3_EEb
FNDA:0,_ZN5neml214ParameterStore17declare_parameterINS_5WFFR4EvEERKT_RKNSt7__cxx1112basic_stringIcSt11char_traitsIcESaIcEEERKNS_10TensorNameIS3_EEb
FNDA:303,_ZN5neml214ParameterStore17declare_parameterINS_6ScalarEvEERKT_RKNSt7__cxx1112basic_stringIcSt11char_traitsIcESaIcEEERKNS_10TensorNameIS3_EEb
FNDA:0,_ZN5neml214ParameterStore17declare_parameterINS_10QuaternionEvEERKT_RKNSt7__cxx1112basic_stringIcSt11char_traitsIcESaIcEEESD_b
FNDA:0,_ZN5neml214ParameterStore17declare_parameterINS_11MillerIndexEvEERKT_RKNSt7__cxx1112basic_stringIcSt11char_traitsIcESaIcEEESD_b
FNDA:0,_ZN5neml214ParameterStore17declare_parameterINS_2R2EvEERKT_RKNSt7__cxx1112basic_stringIcSt11char_traitsIcESaIcEEESD_b
FNDA:0,_ZN5neml214ParameterStore17declare_parameterINS_2R3EvEERKT_RKNSt7__cxx1112basic_stringIcSt11char_traitsIcESaIcEEESD_b
FNDA:0,_ZN5neml214ParameterStore17declare_parameterINS_2R4EvEERKT_RKNSt7__cxx1112basic_stringIcSt11char_traitsIcESaIcEEESD_b
FNDA:0,_ZN5neml214ParameterStore17declare_parameterINS_3RotEvEERKT_RKNSt7__cxx1112basic_stringIcSt11char_traitsIcESaIcEEESD_b
FNDA:5,_ZN5neml214ParameterStore17declare_parameterINS_3SR2EvEERKT_RKNSt7__cxx1112basic_stringIcSt11char_traitsIcESaIcEEESD_b
FNDA:0,_ZN5neml214ParameterStore17declare_parameterINS_3VecEvEERKT_RKNSt7__cxx1112basic_stringIcSt11char_traitsIcESaIcEEESD_b
FNDA:0,_ZN5neml214ParameterStore17declare_parameterINS_3WR2EvEERKT_RKNSt7__cxx1112basic_stringIcSt11char_traitsIcESaIcEEESD_b
FNDA:0,_ZN5neml214ParameterStore17declare_parameterINS_4SFR3EvEERKT_RKNSt7__cxx1112basic_stringIcSt11char_traitsIcESaIcEEESD_b
FNDA:5,_ZN5neml214ParameterStore17declare_parameterINS_4SSR4EvEERKT_RKNSt7__cxx1112basic_stringIcSt11char_traitsIcESaIcEEESD_b
FNDA:0,_ZN5neml214ParameterStore17declare_parameterINS_4SWR4EvEERKT_RKNSt7__cxx1112basic_stringIcSt11char_traitsIcESaIcEEESD_b
FNDA:0,_ZN5neml214ParameterStore17declare_parameterINS_4WSR4EvEERKT_RKNSt7__cxx1112basic_stringIcSt11char_traitsIcESaIcEEESD_b
FNDA:0,_ZN5neml214ParameterStore17declare_parameterINS_4WWR4EvEERKT_RKNSt7__cxx1112basic_stringIcSt11char_traitsIcESaIcEEESD_b
FNDA:0,_ZN5neml214ParameterStore17declare_parameterINS_5SFFR4EvEERKT_RKNSt7__cxx1112basic_stringIcSt11char_traitsIcESaIcEEESD_b
FNDA:0,_ZN5neml214ParameterStore17declare_parameterINS_5WFFR4EvEERKT_RKNSt7__cxx1112basic_stringIcSt11char_traitsIcESaIcEEESD_b
FNDA:213,_ZN5neml214ParameterStore17declare_parameterINS_6ScalarEvEERKT_RKNSt7__cxx1112basic_stringIcSt11char_traitsIcESaIcEEESD_b
FNDA:473,_ZN5neml214ParameterStore22assign_parameter_stackERSt6vectorIN3c106IValueESaIS3_EE
FNDA:5942,_ZNK5neml214ParameterStore23collect_parameter_stackEv
FNDA:485,_ZN5neml214ParameterStoreC2EPNS_5ModelE
FNDA:91,_ZN5neml214ParameterStore18send_parameters_toERKN3c1013TensorOptionsE
FNDA:804,_ZN5neml214ParameterStore13set_parameterERKNSt7__cxx1112basic_stringIcSt11char_traitsIcESaIcEEERKNS_6TensorE
FNDA:7,_ZN5neml214ParameterStore13get_parameterERKNSt7__cxx1112basic_stringIcSt11char_traitsIcESaIcEEE
FNDA:0,_ZN5neml214ParameterStore14set_parametersERKSt3mapINSt7__cxx1112basic_stringIcSt11char_traitsIcESaIcEEENS_6TensorESt4lessIS7_ESaISt4pairIKS7_S8_EEE
FNDA:353745,_ZN5neml214ParameterStore16named_parametersB5cxx11Ev
FNDA:0,_ZN5neml214ParameterStore17declare_parameterINS_10QuaternionEvEERKT_RKNSt7__cxx1112basic_stringIcSt11char_traitsIcESaIcEEES5_
FNDA:0,_ZN5neml214ParameterStore17declare_parameterINS_11MillerIndexEvEERKT_RKNSt7__cxx1112basic_stringIcSt11char_traitsIcESaIcEEES5_
FNDA:0,_ZN5neml214ParameterStore17declare_parameterINS_2R2EvEERKT_RKNSt7__cxx1112basic_stringIcSt11char_traitsIcESaIcEEES5_
FNDA:0,_ZN5neml214ParameterStore17declare_parameterINS_2R3EvEERKT_RKNSt7__cxx1112basic_stringIcSt11char_traitsIcESaIcEEES5_
FNDA:0,_ZN5neml214ParameterStore17declare_parameterINS_2R4EvEERKT_RKNSt7__cxx1112basic_stringIcSt11char_traitsIcESaIcEEES5_
FNDA:0,_ZN5neml214ParameterStore17declare_parameterINS_3RotEvEERKT_RKNSt7__cxx1112basic_stringIcSt11char_traitsIcESaIcEEES5_
FNDA:5,_ZN5neml214ParameterStore17declare_parameterINS_3SR2EvEERKT_RKNSt7__cxx1112basic_stringIcSt11char_traitsIcESaIcEEES5_
FNDA:0,_ZN5neml214ParameterStore17declare_parameterINS_3VecEvEERKT_RKNSt7__cxx1112basic_stringIcSt11char_traitsIcESaIcEEES5_
FNDA:0,_ZN5neml214ParameterStore17declare_parameterINS_3WR2EvEERKT_RKNSt7__cxx1112basic_stringIcSt11char_traitsIcESaIcEEES5_
FNDA:0,_ZN5neml214ParameterStore17declare_parameterINS_4SFR3EvEERKT_RKNSt7__cxx1112basic_stringIcSt11char_traitsIcESaIcEEES5_
FNDA:3,_ZN5neml214ParameterStore17declare_parameterINS_4SSR4EvEERKT_RKNSt7__cxx1112basic_stringIcSt11char_traitsIcESaIcEEES5_
FNDA:0,_ZN5neml214ParameterStore17declare_parameterINS_4SWR4EvEERKT_RKNSt7__cxx1112basic_stringIcSt11char_traitsIcESaIcEEES5_
FNDA:0,_ZN5neml214ParameterStore17declare_parameterINS_4WSR4EvEERKT_RKNSt7__cxx1112basic_stringIcSt11char_traitsIcESaIcEEES5_
FNDA:0,_ZN5neml214ParameterStore17declare_parameterINS_4WWR4EvEERKT_RKNSt7__cxx1112basic_stringIcSt11char_traitsIcESaIcEEES5_
FNDA:0,_ZN5neml214ParameterStore17declare_parameterINS_5SFFR4EvEERKT_RKNSt7__cxx1112basic_stringIcSt11char_traitsIcESaIcEEES5_
FNDA:0,_ZN5neml214ParameterStore17declare_parameterINS_5WFFR4EvEERKT_RKNSt7__cxx1112basic_stringIcSt11char_traitsIcESaIcEEES5_
FNDA:344,_ZN5neml214ParameterStore17declare_parameterINS_6ScalarEvEERKT_RKNSt7__cxx1112basic_stringIcSt11char_traitsIcESaIcEEES5_
FNDA:0,_ZN5neml214ParameterStore17declare_parameterINS_6TensorEvEERKT_RKNSt7__cxx1112basic_stringIcSt11char_traitsIcESaIcEEES5_
FNF:77
FNH:18
DA:37,485
DA:38,485
DA:40,485
DA:43,91
DA:45,130
DA:46,39
DA:47,91
DA:50,804
DA:52,804
DA:53,804
DA:54,804
DA:55,804
DA:58,7
DA:60,7
DA:61,7
DA:62,7
DA:66,0
DA:68,0
DA:69,0
DA:70,0
DA:73,353745
DA:75,353745
DA:77,353745
DA:82,352
DA:84,352
DA:85,273
DA:86,182
DA:88,261
DA:91,261
DA:92,5
DA:96,256
DA:97,256
DA:98,256
DA:99,256
DA:101,261
DA:102,261
DA:103,261
DA:108,79
DA:110,79
DA:111,0
DA:118,79
DA:119,158
DA:125,79
DA:126,79
DA:130,79
DA:131,79
DA:132,0
DA:137,79
DA:140,79
DA:141,237
DA:146,24
DA:149,12
DA:150,12
DA:151,0
DA:152,0
DA:154,12
DA:155,0
DA:156,0
DA:162,0
DA:164,0
DA:166,0
DA:167,0
DA:169,0
DA:172,12
DA:177,67
DA:178,67
DA:179,0
DA:180,0
DA:187,67
DA:188,67
DA:189,67
DA:190,134
DA:191,134
DA:192,134
DA:193,268
DA:194,67
DA:195,67
DA:196,67
DA:197,201
DA:199,4
DA:200,2
DA:201,0
DA:206,195
DA:209,134
DA:213,67
DA:214,67
DA:220,0
DA:223,0
DA:224,0
DA:230,0
DA:233,0
DA:234,0
DA:235,0
DA:237,0
DA:238,0
DA:242,0
DA:244,0
DA:246,0
DA:251,79
DA:254,79
DA:255,79
DA:256,79
DA:257,0
DA:267,79
DA:270,158
DA:271,158
DA:275,313
DA:279,313
DA:280,313
DA:284,313
DA:286,158
DA:288,79
DA:291,79
DA:293,0
DA:295,0
DA:298,0
DA:301,0
DA:302,0
DA:311,223
DA:315,223
DA:316,446
DA:317,669
DA:319,0
DA:337,473
DA:339,473
DA:341,473
DA:343,473
DA:345,473
DA:349,473
DA:350,1170
DA:352,697
DA:353,697
DA:354,697
DA:357,473
DA:358,473
DA:361,5942
DA:363,5942
DA:364,5942
DA:365,5942
DA:366,19337
DA:367,13395
DA:368,5942
DA:369,0
LF:143
LH:105
end_of_record
TN:
SF:/home/runner/work/neml2/neml2/src/neml2/models/ParameterToState.cxx
FN:34,48,_ZN5neml216ParameterToStateINS_10QuaternionEE16expected_optionsEv
FN:34,48,_ZN5neml216ParameterToStateINS_11MillerIndexEE16expected_optionsEv
FN:34,48,_ZN5neml216ParameterToStateINS_2R2EE16expected_optionsEv
FN:34,48,_ZN5neml216ParameterToStateINS_2R3EE16expected_optionsEv
FN:34,48,_ZN5neml216ParameterToStateINS_2R4EE16expected_optionsEv
FN:34,48,_ZN5neml216ParameterToStateINS_3RotEE16expected_optionsEv
FN:34,48,_ZN5neml216ParameterToStateINS_3SR2EE16expected_optionsEv
FN:34,48,_ZN5neml216ParameterToStateINS_3VecEE16expected_optionsEv
FN:34,48,_ZN5neml216ParameterToStateINS_3WR2EE16expected_optionsEv
FN:34,48,_ZN5neml216ParameterToStateINS_4SFR3EE16expected_optionsEv
FN:34,48,_ZN5neml216ParameterToStateINS_4SSR4EE16expected_optionsEv
FN:34,48,_ZN5neml216ParameterToStateINS_4SWR4EE16expected_optionsEv
FN:34,48,_ZN5neml216ParameterToStateINS_4WSR4EE16expected_optionsEv
FN:34,48,_ZN5neml216ParameterToStateINS_4WWR4EE16expected_optionsEv
FN:34,48,_ZN5neml216ParameterToStateINS_5SFFR4EE16expected_optionsEv
FN:34,48,_ZN5neml216ParameterToStateINS_5WFFR4EE16expected_optionsEv
FN:34,48,_ZN5neml216ParameterToStateINS_6ScalarEE16expected_optionsEv
FN:51,58,_ZN5neml216ParameterToStateINS_10QuaternionEEC2ERKNS_9OptionSetE
FN:51,58,_ZN5neml216ParameterToStateINS_11MillerIndexEEC2ERKNS_9OptionSetE
FN:51,58,_ZN5neml216ParameterToStateINS_2R2EEC2ERKNS_9OptionSetE
FN:51,58,_ZN5neml216ParameterToStateINS_2R3EEC2ERKNS_9OptionSetE
FN:51,58,_ZN5neml216ParameterToStateINS_2R4EEC2ERKNS_9OptionSetE
FN:51,58,_ZN5neml216ParameterToStateINS_3RotEEC2ERKNS_9OptionSetE
FN:51,58,_ZN5neml216ParameterToStateINS_3SR2EEC2ERKNS_9OptionSetE
FN:51,58,_ZN5neml216ParameterToStateINS_3VecEEC2ERKNS_9OptionSetE
FN:51,58,_ZN5neml216ParameterToStateINS_3WR2EEC2ERKNS_9OptionSetE
FN:51,58,_ZN5neml216ParameterToStateINS_4SFR3EEC2ERKNS_9OptionSetE
FN:51,58,_ZN5neml216ParameterToStateINS_4SSR4EEC2ERKNS_9OptionSetE
FN:51,58,_ZN5neml216ParameterToStateINS_4SWR4EEC2ERKNS_9OptionSetE
FN:51,58,_ZN5neml216ParameterToStateINS_4WSR4EEC2ERKNS_9OptionSetE
FN:51,58,_ZN5neml216ParameterToStateINS_4WWR4EEC2ERKNS_9OptionSetE
FN:51,58,_ZN5neml216ParameterToStateINS_5SFFR4EEC2ERKNS_9OptionSetE
FN:51,58,_ZN5neml216ParameterToStateINS_5WFFR4EEC2ERKNS_9OptionSetE
FN:51,58,_ZN5neml216ParameterToStateINS_6ScalarEEC2ERKNS_9OptionSetE
FN:62,66,_ZN5neml216ParameterToStateINS_10QuaternionEE9set_valueEbbb
FN:62,66,_ZN5neml216ParameterToStateINS_11MillerIndexEE9set_valueEbbb
FN:62,66,_ZN5neml216ParameterToStateINS_2R2EE9set_valueEbbb
FN:62,66,_ZN5neml216ParameterToStateINS_2R3EE9set_valueEbbb
FN:62,66,_ZN5neml216ParameterToStateINS_2R4EE9set_valueEbbb
FN:62,66,_ZN5neml216ParameterToStateINS_3RotEE9set_valueEbbb
FN:62,66,_ZN5neml216ParameterToStateINS_3SR2EE9set_valueEbbb
FN:62,66,_ZN5neml216ParameterToStateINS_3VecEE9set_valueEbbb
FN:62,66,_ZN5neml216ParameterToStateINS_3WR2EE9set_valueEbbb
FN:62,66,_ZN5neml216ParameterToStateINS_4SFR3EE9set_valueEbbb
FN:62,66,_ZN5neml216ParameterToStateINS_4SSR4EE9set_valueEbbb
FN:62,66,_ZN5neml216ParameterToStateINS_4SWR4EE9set_valueEbbb
FN:62,66,_ZN5neml216ParameterToStateINS_4WSR4EE9set_valueEbbb
FN:62,66,_ZN5neml216ParameterToStateINS_4WWR4EE9set_valueEbbb
FN:62,66,_ZN5neml216ParameterToStateINS_5SFFR4EE9set_valueEbbb
FN:62,66,_ZN5neml216ParameterToStateINS_5WFFR4EE9set_valueEbbb
FN:62,66,_ZN5neml216ParameterToStateINS_6ScalarEE9set_valueEbbb
FNDA:2,_ZN5neml216ParameterToStateINS_10QuaternionEE16expected_optionsEv
FNDA:2,_ZN5neml216ParameterToStateINS_11MillerIndexEE16expected_optionsEv
FNDA:2,_ZN5neml216ParameterToStateINS_2R2EE16expected_optionsEv
FNDA:2,_ZN5neml216ParameterToStateINS_2R3EE16expected_optionsEv
FNDA:2,_ZN5neml216ParameterToStateINS_2R4EE16expected_optionsEv
FNDA:2,_ZN5neml216ParameterToStateINS_3RotEE16expected_optionsEv
FNDA:2,_ZN5neml216ParameterToStateINS_3SR2EE16expected_optionsEv
FNDA:2,_ZN5neml216ParameterToStateINS_3VecEE16expected_optionsEv
FNDA:2,_ZN5neml216ParameterToStateINS_3WR2EE16expected_optionsEv
FNDA:2,_ZN5neml216ParameterToStateINS_4SFR3EE16expected_optionsEv
FNDA:2,_ZN5neml216ParameterToStateINS_4SSR4EE16expected_optionsEv
FNDA:2,_ZN5neml216ParameterToStateINS_4SWR4EE16expected_optionsEv
FNDA:2,_ZN5neml216ParameterToStateINS_4WSR4EE16expected_optionsEv
FNDA:2,_ZN5neml216ParameterToStateINS_4WWR4EE16expected_optionsEv
FNDA:2,_ZN5neml216ParameterToStateINS_5SFFR4EE16expected_optionsEv
FNDA:2,_ZN5neml216ParameterToStateINS_5WFFR4EE16expected_optionsEv
FNDA:2,_ZN5neml216ParameterToStateINS_6ScalarEE16expected_optionsEv
FNDA:0,_ZN5neml216ParameterToStateINS_10QuaternionEEC2ERKNS_9OptionSetE
FNDA:0,_ZN5neml216ParameterToStateINS_11MillerIndexEEC2ERKNS_9OptionSetE
FNDA:0,_ZN5neml216ParameterToStateINS_2R2EEC2ERKNS_9OptionSetE
FNDA:0,_ZN5neml216ParameterToStateINS_2R3EEC2ERKNS_9OptionSetE
FNDA:0,_ZN5neml216ParameterToStateINS_2R4EEC2ERKNS_9OptionSetE
FNDA:0,_ZN5neml216ParameterToStateINS_3RotEEC2ERKNS_9OptionSetE
FNDA:0,_ZN5neml216ParameterToStateINS_3SR2EEC2ERKNS_9OptionSetE
FNDA:0,_ZN5neml216ParameterToStateINS_3VecEEC2ERKNS_9OptionSetE
FNDA:0,_ZN5neml216ParameterToStateINS_3WR2EEC2ERKNS_9OptionSetE
FNDA:0,_ZN5neml216ParameterToStateINS_4SFR3EEC2ERKNS_9OptionSetE
FNDA:0,_ZN5neml216ParameterToStateINS_4SSR4EEC2ERKNS_9OptionSetE
FNDA:0,_ZN5neml216ParameterToStateINS_4SWR4EEC2ERKNS_9OptionSetE
FNDA:0,_ZN5neml216ParameterToStateINS_4WSR4EEC2ERKNS_9OptionSetE
FNDA:0,_ZN5neml216ParameterToStateINS_4WWR4EEC2ERKNS_9OptionSetE
FNDA:0,_ZN5neml216ParameterToStateINS_5SFFR4EEC2ERKNS_9OptionSetE
FNDA:0,_ZN5neml216ParameterToStateINS_5WFFR4EEC2ERKNS_9OptionSetE
FNDA:1,_ZN5neml216ParameterToStateINS_6ScalarEEC2ERKNS_9OptionSetE
FNDA:0,_ZN5neml216ParameterToStateINS_10QuaternionEE9set_valueEbbb
FNDA:0,_ZN5neml216ParameterToStateINS_11MillerIndexEE9set_valueEbbb
FNDA:0,_ZN5neml216ParameterToStateINS_2R2EE9set_valueEbbb
FNDA:0,_ZN5neml216ParameterToStateINS_2R3EE9set_valueEbbb
FNDA:0,_ZN5neml216ParameterToStateINS_2R4EE9set_valueEbbb
FNDA:0,_ZN5neml216ParameterToStateINS_3RotEE9set_valueEbbb
FNDA:0,_ZN5neml216ParameterToStateINS_3SR2EE9set_valueEbbb
FNDA:0,_ZN5neml216ParameterToStateINS_3VecEE9set_valueEbbb
FNDA:0,_ZN5neml216ParameterToStateINS_3WR2EE9set_valueEbbb
FNDA:0,_ZN5neml216ParameterToStateINS_4SFR3EE9set_valueEbbb
FNDA:0,_ZN5neml216ParameterToStateINS_4SSR4EE9set_valueEbbb
FNDA:0,_ZN5neml216ParameterToStateINS_4SWR4EE9set_valueEbbb
FNDA:0,_ZN5neml216ParameterToStateINS_4WSR4EE9set_valueEbbb
FNDA:0,_ZN5neml216ParameterToStateINS_4WWR4EE9set_valueEbbb
FNDA:0,_ZN5neml216ParameterToStateINS_5SFFR4EE9set_valueEbbb
FNDA:0,_ZN5neml216ParameterToStateINS_5WFFR4EE9set_valueEbbb
FNDA:2,_ZN5neml216ParameterToStateINS_6ScalarEE9set_valueEbbb
FNF:51
FNH:19
DA:34,34
DA:36,34
DA:37,34
DA:39,68
DA:41,68
DA:42,68
DA:44,68
DA:45,34
DA:47,34
DA:48,0
DA:51,1
DA:53,4
DA:54,1
DA:55,1
DA:56,2
DA:58,1
DA:62,2
DA:64,2
DA:65,2
DA:66,2
LF:20
LH:19
end_of_record
TN:
SF:/home/runner/work/neml2/neml2/src/neml2/models/R2Multiplication.cxx
FN:33,61,_ZN5neml216R2Multiplication16expected_optionsEv
FN:63,73,_ZN5neml216R2MultiplicationC2ERKNS_9OptionSetE
FN:76,133,_ZN5neml216R2Multiplication9set_valueEbbb
FNDA:2,_ZN5neml216R2Multiplication16expected_optionsEv
FNDA:4,_ZN5neml216R2MultiplicationC2ERKNS_9OptionSetE
FNDA:8,_ZN5neml216R2Multiplication9set_valueEbbb
FNF:3
FNH:3
DA:33,2
DA:35,2
DA:36,2
DA:37,2
DA:39,4
DA:40,4
DA:42,4
DA:43,4
DA:45,4
DA:46,4
DA:48,4
DA:49,4
DA:51,4
DA:52,4
DA:54,4
DA:55,4
DA:57,4
DA:58,2
DA:60,2
DA:61,0
DA:63,4
DA:65,4
DA:66,4
DA:67,4
DA:68,8
DA:69,8
DA:70,8
DA:71,8
DA:73,4
DA:76,8
DA:78,8
DA:79,8
DA:80,0
DA:82,8
DA:83,8
DA:84,0
DA:86,8
DA:88,8
DA:89,8
DA:91,8
DA:93,4
DA:95,4
DA:97,2
DA:98,0
DA:99,0
DA:101,4
DA:102,6
DA:106,2
DA:107,0
DA:108,0
DA:110,4
DA:111,6
DA:114,4
DA:116,2
DA:117,0
DA:118,0
DA:120,4
DA:121,6
DA:125,2
DA:126,0
DA:127,0
DA:129,4
DA:130,6
DA:132,4
DA:133,8
LF:65
LH:54
end_of_record
TN:
SF:/home/runner/work/neml2/neml2/src/neml2/models/R2toSR2.cxx
FN:36,50,_ZN5neml27R2toSR216expected_optionsEv
FN:52,57,_ZN5neml27R2toSR2C2ERKNS_9OptionSetE
FN:60,69,_ZN5neml27R2toSR29set_valueEbbb
FNDA:2,_ZN5neml27R2toSR216expected_optionsEv
FNDA:1,_ZN5neml27R2toSR2C2ERKNS_9OptionSetE
FNDA:3,_ZN5neml27R2toSR29set_valueEbbb
FNF:3
FNH:3
DA:36,2
DA:38,2
DA:39,2
DA:41,4
DA:43,4
DA:44,4
DA:46,4
DA:47,2
DA:49,2
DA:50,0
DA:52,1
DA:54,1
DA:55,2
DA:57,1
DA:60,3
DA:62,3
DA:64,3
DA:65,3
DA:67,3
DA:68,1
DA:69,3
LF:21
LH:20
end_of_record
TN:
SF:/home/runner/work/neml2/neml2/src/neml2/models/R2toWR2.cxx
FN:35,49,_ZN5neml27R2toWR216expected_optionsEv
FN:51,56,_ZN5neml27R2toWR2C2ERKNS_9OptionSetE
FN:59,68,_ZN5neml27R2toWR29set_valueEbbb
FNDA:2,_ZN5neml27R2toWR216expected_optionsEv
FNDA:1,_ZN5neml27R2toWR2C2ERKNS_9OptionSetE
FNDA:3,_ZN5neml27R2toWR29set_valueEbbb
FNF:3
FNH:3
DA:35,2
DA:37,2
DA:38,2
DA:40,4
DA:42,4
DA:43,4
DA:45,4
DA:46,2
DA:48,2
DA:49,0
DA:51,1
DA:53,1
DA:54,2
DA:56,1
DA:59,3
DA:61,3
DA:63,3
DA:64,3
DA:66,3
DA:67,1
DA:68,3
LF:21
LH:20
end_of_record
TN:
SF:/home/runner/work/neml2/neml2/src/neml2/models/Reduction.cxx
FN:33,47,_ZN5neml29ReductionINS_10QuaternionEE16expected_optionsEv
FN:33,47,_ZN5neml29ReductionINS_11MillerIndexEE16expected_optionsEv
FN:33,47,_ZN5neml29ReductionINS_2R2EE16expected_optionsEv
FN:33,47,_ZN5neml29ReductionINS_2R3EE16expected_optionsEv
FN:33,47,_ZN5neml29ReductionINS_2R4EE16expected_optionsEv
FN:33,47,_ZN5neml29ReductionINS_3RotEE16expected_optionsEv
FN:33,47,_ZN5neml29ReductionINS_3SR2EE16expected_optionsEv
FN:33,47,_ZN5neml29ReductionINS_3VecEE16expected_optionsEv
FN:33,47,_ZN5neml29ReductionINS_3WR2EE16expected_optionsEv
FN:33,47,_ZN5neml29ReductionINS_4SFR3EE16expected_optionsEv
FN:33,47,_ZN5neml29ReductionINS_4SSR4EE16expected_optionsEv
FN:33,47,_ZN5neml29ReductionINS_4SWR4EE16expected_optionsEv
FN:33,47,_ZN5neml29ReductionINS_4WSR4EE16expected_optionsEv
FN:33,47,_ZN5neml29ReductionINS_4WWR4EE16expected_optionsEv
FN:33,47,_ZN5neml29ReductionINS_5SFFR4EE16expected_optionsEv
FN:33,47,_ZN5neml29ReductionINS_5WFFR4EE16expected_optionsEv
FN:33,47,_ZN5neml29ReductionINS_6ScalarEE16expected_optionsEv
FN:50,55,_ZN5neml29ReductionINS_10QuaternionEEC2ERKNS_9OptionSetE
FN:50,55,_ZN5neml29ReductionINS_11MillerIndexEEC2ERKNS_9OptionSetE
FN:50,55,_ZN5neml29ReductionINS_2R2EEC2ERKNS_9OptionSetE
FN:50,55,_ZN5neml29ReductionINS_2R3EEC2ERKNS_9OptionSetE
FN:50,55,_ZN5neml29ReductionINS_2R4EEC2ERKNS_9OptionSetE
FN:50,55,_ZN5neml29ReductionINS_3RotEEC2ERKNS_9OptionSetE
FN:50,55,_ZN5neml29ReductionINS_3SR2EEC2ERKNS_9OptionSetE
FN:50,55,_ZN5neml29ReductionINS_3VecEEC2ERKNS_9OptionSetE
FN:50,55,_ZN5neml29ReductionINS_3WR2EEC2ERKNS_9OptionSetE
FN:50,55,_ZN5neml29ReductionINS_4SFR3EEC2ERKNS_9OptionSetE
FN:50,55,_ZN5neml29ReductionINS_4SSR4EEC2ERKNS_9OptionSetE
FN:50,55,_ZN5neml29ReductionINS_4SWR4EEC2ERKNS_9OptionSetE
FN:50,55,_ZN5neml29ReductionINS_4WSR4EEC2ERKNS_9OptionSetE
FN:50,55,_ZN5neml29ReductionINS_4WWR4EEC2ERKNS_9OptionSetE
FN:50,55,_ZN5neml29ReductionINS_5SFFR4EEC2ERKNS_9OptionSetE
FN:50,55,_ZN5neml29ReductionINS_5WFFR4EEC2ERKNS_9OptionSetE
FN:50,55,_ZN5neml29ReductionINS_6ScalarEEC2ERKNS_9OptionSetE
FNDA:8,_ZN5neml29ReductionINS_10QuaternionEE16expected_optionsEv
FNDA:8,_ZN5neml29ReductionINS_11MillerIndexEE16expected_optionsEv
FNDA:8,_ZN5neml29ReductionINS_2R2EE16expected_optionsEv
FNDA:8,_ZN5neml29ReductionINS_2R3EE16expected_optionsEv
FNDA:8,_ZN5neml29ReductionINS_2R4EE16expected_optionsEv
FNDA:8,_ZN5neml29ReductionINS_3RotEE16expected_optionsEv
FNDA:8,_ZN5neml29ReductionINS_3SR2EE16expected_optionsEv
FNDA:8,_ZN5neml29ReductionINS_3VecEE16expected_optionsEv
FNDA:8,_ZN5neml29ReductionINS_3WR2EE16expected_optionsEv
FNDA:8,_ZN5neml29ReductionINS_4SFR3EE16expected_optionsEv
FNDA:8,_ZN5neml29ReductionINS_4SSR4EE16expected_optionsEv
FNDA:8,_ZN5neml29ReductionINS_4SWR4EE16expected_optionsEv
FNDA:8,_ZN5neml29ReductionINS_4WSR4EE16expected_optionsEv
FNDA:8,_ZN5neml29ReductionINS_4WWR4EE16expected_optionsEv
FNDA:8,_ZN5neml29ReductionINS_5SFFR4EE16expected_optionsEv
FNDA:8,_ZN5neml29ReductionINS_5WFFR4EE16expected_optionsEv
FNDA:8,_ZN5neml29ReductionINS_6ScalarEE16expected_optionsEv
FNDA:0,_ZN5neml29ReductionINS_10QuaternionEEC2ERKNS_9OptionSetE
FNDA:0,_ZN5neml29ReductionINS_11MillerIndexEEC2ERKNS_9OptionSetE
FNDA:0,_ZN5neml29ReductionINS_2R2EEC2ERKNS_9OptionSetE
FNDA:0,_ZN5neml29ReductionINS_2R3EEC2ERKNS_9OptionSetE
FNDA:0,_ZN5neml29ReductionINS_2R4EEC2ERKNS_9OptionSetE
FNDA:0,_ZN5neml29ReductionINS_3RotEEC2ERKNS_9OptionSetE
FNDA:4,_ZN5neml29ReductionINS_3SR2EEC2ERKNS_9OptionSetE
FNDA:0,_ZN5neml29ReductionINS_3VecEEC2ERKNS_9OptionSetE
FNDA:0,_ZN5neml29ReductionINS_3WR2EEC2ERKNS_9OptionSetE
FNDA:0,_ZN5neml29ReductionINS_4SFR3EEC2ERKNS_9OptionSetE
FNDA:0,_ZN5neml29ReductionINS_4SSR4EEC2ERKNS_9OptionSetE
FNDA:0,_ZN5neml29ReductionINS_4SWR4EEC2ERKNS_9OptionSetE
FNDA:0,_ZN5neml29ReductionINS_4WSR4EEC2ERKNS_9OptionSetE
FNDA:0,_ZN5neml29ReductionINS_4WWR4EEC2ERKNS_9OptionSetE
FNDA:0,_ZN5neml29ReductionINS_5SFFR4EEC2ERKNS_9OptionSetE
FNDA:0,_ZN5neml29ReductionINS_5WFFR4EEC2ERKNS_9OptionSetE
FNDA:0,_ZN5neml29ReductionINS_6ScalarEEC2ERKNS_9OptionSetE
FNF:34
FNH:18
DA:33,136
DA:35,136
DA:37,272
DA:38,272
DA:40,272
DA:41,272
DA:43,272
DA:44,136
DA:46,136
DA:47,0
DA:50,4
DA:52,4
DA:53,8
DA:55,4
LF:14
LH:13
end_of_record
TN:
SF:/home/runner/work/neml2/neml2/src/neml2/models/RotationMatrix.cxx
FN:35,48,_ZN5neml214RotationMatrix16expected_optionsEv
FN:50,55,_ZN5neml214RotationMatrixC2ERKNS_9OptionSetE
FN:58,66,_ZN5neml214RotationMatrix9set_valueEbbb
FNDA:2,_ZN5neml214RotationMatrix16expected_optionsEv
FNDA:5,_ZN5neml214RotationMatrixC2ERKNS_9OptionSetE
FNDA:12,_ZN5neml214RotationMatrix9set_valueEbbb
FNF:3
FNH:3
DA:35,2
DA:37,2
DA:38,2
DA:39,2
DA:41,4
DA:42,4
DA:44,4
DA:45,2
DA:47,2
DA:48,0
DA:50,5
DA:52,5
DA:53,10
DA:55,5
DA:58,12
DA:60,12
DA:61,12
DA:63,12
DA:64,6
DA:65,6
DA:66,12
LF:21
LH:20
end_of_record
TN:
SF:/home/runner/work/neml2/neml2/src/neml2/models/SR2Invariant.cxx
FN:41,65,_ZN5neml212SR2Invariant16expected_optionsEv
FN:67,73,_ZN5neml212SR2InvariantC2ERKNS_9OptionSetE
FN:76,174,_ZN5neml212SR2Invariant9set_valueEbbb
FNDA:2,_ZN5neml212SR2Invariant16expected_optionsEv
FNDA:21,_ZN5neml212SR2InvariantC2ERKNS_9OptionSetE
FNDA:76,_ZN5neml212SR2Invariant9set_valueEbbb
FNF:3
FNH:3
DA:41,2
DA:43,2
DA:44,2
DA:46,4
DA:48,4
DA:49,4
DA:51,4
DA:52,4
DA:60,12
DA:61,4
DA:62,6
DA:64,4
DA:65,2
DA:67,21
DA:69,21
DA:70,21
DA:71,42
DA:73,21
DA:76,76
DA:78,76
DA:80,76
DA:82,8
DA:83,8
DA:85,8
DA:86,0
DA:88,8
DA:89,4
DA:96,68
DA:98,3
DA:100,3
DA:101,3
DA:103,3
DA:104,0
DA:106,3
DA:108,2
DA:110,2
DA:111,1
DA:113,2
DA:115,1
DA:116,1
DA:117,1
DA:118,1
DA:119,2
DA:120,3
DA:121,65
DA:123,62
DA:124,62
DA:125,62
DA:127,62
DA:128,62
DA:130,62
DA:131,0
DA:133,62
DA:135,45
DA:137,45
DA:138,44
DA:140,45
DA:142,18
DA:143,18
DA:144,18
DA:145,18
DA:146,45
DA:147,62
DA:148,3
DA:150,3
DA:151,3
DA:153,3
DA:154,3
DA:156,3
DA:157,0
DA:159,3
DA:161,2
DA:163,2
DA:164,1
DA:166,2
DA:167,1
DA:168,2
DA:169,2
DA:170,3
DA:172,0
DA:173,0
LF:81
LH:75
end_of_record
TN:
SF:/home/runner/work/neml2/neml2/src/neml2/models/SR2toR2.cxx
FN:36,50,_ZN5neml27SR2toR216expected_optionsEv
FN:52,57,_ZN5neml27SR2toR2C2ERKNS_9OptionSetE
FN:60,72,_ZN5neml27SR2toR29set_valueEbbb
FNDA:2,_ZN5neml27SR2toR216expected_optionsEv
FNDA:1,_ZN5neml27SR2toR2C2ERKNS_9OptionSetE
FNDA:3,_ZN5neml27SR2toR29set_valueEbbb
FNF:3
FNH:3
DA:36,2
DA:38,2
DA:39,2
DA:41,4
DA:43,4
DA:44,4
DA:46,4
DA:47,2
DA:49,2
DA:50,0
DA:52,1
DA:54,1
DA:55,2
DA:57,1
DA:60,3
DA:62,3
DA:64,3
DA:65,3
DA:67,3
DA:68,1
DA:72,3
LF:21
LH:20
end_of_record
TN:
SF:/home/runner/work/neml2/neml2/src/neml2/models/ScalarMultiplication.cxx
FN:34,60,_ZN5neml220ScalarMultiplication16expected_optionsEv
FN:62,81,_ZN5neml220ScalarMultiplicationC2ERKNS_9OptionSetE
FN:84,149,_ZN5neml220ScalarMultiplication9set_valueEbbb
FNDA:2,_ZN5neml220ScalarMultiplication16expected_optionsEv
FNDA:6,_ZN5neml220ScalarMultiplicationC2ERKNS_9OptionSetE
FNDA:18,_ZN5neml220ScalarMultiplication9set_valueEbbb
FNF:3
FNH:3
DA:34,2
DA:37,2
DA:38,2
DA:40,2
DA:42,4
DA:43,4
DA:45,4
DA:46,4
DA:48,8
DA:49,2
DA:51,6
DA:52,6
DA:55,2
DA:57,2
DA:59,2
DA:60,0
DA:62,6
DA:64,6
DA:65,36
DA:67,36
DA:68,30
DA:70,6
DA:71,6
DA:73,6
DA:75,6
DA:79,6
DA:80,2
DA:81,6
DA:84,18
DA:86,18
DA:88,18
DA:89,72
DA:91,54
DA:92,27
DA:94,27
DA:96,18
DA:97,18
DA:99,18
DA:101,30
DA:102,24
DA:104,24
DA:105,120
DA:106,96
DA:108,72
DA:109,36
DA:111,36
DA:113,24
DA:114,24
DA:117,18
DA:119,30
DA:120,24
DA:122,24
DA:123,120
DA:125,96
DA:127,96
DA:128,96
DA:130,144
DA:131,216
DA:132,360
DA:133,288
DA:134,144
DA:135,72
DA:136,72
DA:137,24
DA:139,12
DA:140,60
DA:141,48
DA:142,36
DA:143,12
DA:144,12
DA:149,18
LF:71
LH:70
end_of_record
TN:
SF:/home/runner/work/neml2/neml2/src/neml2/models/ScalarToDiagonalSR2.cxx
FN:33,47,_ZN5neml219ScalarToDiagonalSR216expected_optionsEv
FN:49,54,_ZN5neml219ScalarToDiagonalSR2C2ERKNS_9OptionSetE
FN:57,66,_ZN5neml219ScalarToDiagonalSR29set_valueEbbb
FNDA:2,_ZN5neml219ScalarToDiagonalSR216expected_optionsEv
FNDA:1,_ZN5neml219ScalarToDiagonalSR2C2ERKNS_9OptionSetE
FNDA:3,_ZN5neml219ScalarToDiagonalSR29set_valueEbbb
FNF:3
FNH:3
DA:33,2
DA:35,2
DA:36,2
DA:38,4
DA:40,4
DA:41,4
DA:43,4
DA:44,2
DA:46,2
DA:47,0
DA:49,1
DA:51,1
DA:52,2
DA:54,1
DA:57,3
DA:59,3
DA:61,3
DA:62,3
DA:64,3
DA:65,1
DA:66,3
LF:21
LH:20
end_of_record
TN:
SF:/home/runner/work/neml2/neml2/src/neml2/models/SymmetricHermiteInterpolation.cxx
FN:34,59,_ZN5neml229SymmetricHermiteInterpolation16expected_optionsEv
FN:61,68,_ZN5neml229SymmetricHermiteInterpolationC2ERKNS_9OptionSetE
FN:71,100,_ZN5neml229SymmetricHermiteInterpolation9set_valueEbbb
FNDA:2,_ZN5neml229SymmetricHermiteInterpolation16expected_optionsEv
FNDA:1,_ZN5neml229SymmetricHermiteInterpolationC2ERKNS_9OptionSetE
FNDA:3,_ZN5neml229SymmetricHermiteInterpolation9set_valueEbbb
FNF:3
FNH:3
DA:34,2
DA:36,2
DA:37,2
DA:42,2
DA:44,4
DA:45,4
DA:47,4
DA:49,4
DA:50,4
DA:52,4
DA:53,4
DA:55,4
DA:56,2
DA:58,2
DA:59,0
DA:61,1
DA:63,1
DA:64,1
DA:65,4
DA:66,5
DA:68,1
DA:71,3
DA:73,3
DA:74,3
DA:75,3
DA:77,3
DA:79,3
DA:80,3
DA:81,3
DA:82,3
DA:84,3
DA:86,1
DA:87,1
DA:89,1
DA:90,1
DA:92,3
DA:94,1
DA:95,1
DA:97,1
DA:98,1
DA:99,1
DA:100,3
LF:42
LH:41
end_of_record
TN:
SF:/home/runner/work/neml2/neml2/src/neml2/models/Variable.cxx
FN:125,142,_ZN5neml28VariableINS_10QuaternionEE4zeroERKN3c1013TensorOptionsE
FN:125,142,_ZN5neml28VariableINS_11MillerIndexEE4zeroERKN3c1013TensorOptionsE
FN:125,142,_ZN5neml28VariableINS_2R2EE4zeroERKN3c1013TensorOptionsE
FN:125,142,_ZN5neml28VariableINS_2R3EE4zeroERKN3c1013TensorOptionsE
FN:125,142,_ZN5neml28VariableINS_2R4EE4zeroERKN3c1013TensorOptionsE
FN:125,142,_ZN5neml28VariableINS_3RotEE4zeroERKN3c1013TensorOptionsE
FN:125,142,_ZN5neml28VariableINS_3SR2EE4zeroERKN3c1013TensorOptionsE
FN:125,142,_ZN5neml28VariableINS_3VecEE4zeroERKN3c1013TensorOptionsE
FN:125,142,_ZN5neml28VariableINS_3WR2EE4zeroERKN3c1013TensorOptionsE
FN:125,142,_ZN5neml28VariableINS_4SFR3EE4zeroERKN3c1013TensorOptionsE
FN:125,142,_ZN5neml28VariableINS_4SSR4EE4zeroERKN3c1013TensorOptionsE
FN:125,142,_ZN5neml28VariableINS_4SWR4EE4zeroERKN3c1013TensorOptionsE
FN:125,142,_ZN5neml28VariableINS_4WSR4EE4zeroERKN3c1013TensorOptionsE
FN:125,142,_ZN5neml28VariableINS_4WWR4EE4zeroERKN3c1013TensorOptionsE
FN:125,142,_ZN5neml28VariableINS_5SFFR4EE4zeroERKN3c1013TensorOptionsE
FN:125,142,_ZN5neml28VariableINS_5WFFR4EE4zeroERKN3c1013TensorOptionsE
FN:125,142,_ZN5neml28VariableINS_6ScalarEE4zeroERKN3c1013TensorOptionsE
FN:146,163,_ZN5neml28VariableINS_10QuaternionEE3setERKNS_6TensorESt8optionalINS_15TracerPrivilegeEE
FN:146,163,_ZN5neml28VariableINS_11MillerIndexEE3setERKNS_6TensorESt8optionalINS_15TracerPrivilegeEE
FN:146,163,_ZN5neml28VariableINS_2R2EE3setERKNS_6TensorESt8optionalINS_15TracerPrivilegeEE
FN:146,163,_ZN5neml28VariableINS_2R3EE3setERKNS_6TensorESt8optionalINS_15TracerPrivilegeEE
FN:146,163,_ZN5neml28VariableINS_2R4EE3setERKNS_6TensorESt8optionalINS_15TracerPrivilegeEE
FN:146,163,_ZN5neml28VariableINS_3RotEE3setERKNS_6TensorESt8optionalINS_15TracerPrivilegeEE
FN:146,163,_ZN5neml28VariableINS_3SR2EE3setERKNS_6TensorESt8optionalINS_15TracerPrivilegeEE
FN:146,163,_ZN5neml28VariableINS_3VecEE3setERKNS_6TensorESt8optionalINS_15TracerPrivilegeEE
FN:146,163,_ZN5neml28VariableINS_3WR2EE3setERKNS_6TensorESt8optionalINS_15TracerPrivilegeEE
FN:146,163,_ZN5neml28VariableINS_4SFR3EE3setERKNS_6TensorESt8optionalINS_15TracerPrivilegeEE
FN:146,163,_ZN5neml28VariableINS_4SSR4EE3setERKNS_6TensorESt8optionalINS_15TracerPrivilegeEE
FN:146,163,_ZN5neml28VariableINS_4SWR4EE3setERKNS_6TensorESt8optionalINS_15TracerPrivilegeEE
FN:146,163,_ZN5neml28VariableINS_4WSR4EE3setERKNS_6TensorESt8optionalINS_15TracerPrivilegeEE
FN:146,163,_ZN5neml28VariableINS_4WWR4EE3setERKNS_6TensorESt8optionalINS_15TracerPrivilegeEE
FN:146,163,_ZN5neml28VariableINS_5SFFR4EE3setERKNS_6TensorESt8optionalINS_15TracerPrivilegeEE
FN:146,163,_ZN5neml28VariableINS_5WFFR4EE3setERKNS_6TensorESt8optionalINS_15TracerPrivilegeEE
FN:146,163,_ZN5neml28VariableINS_6ScalarEE3setERKNS_6TensorESt8optionalINS_15TracerPrivilegeEE
FN:167,174,_ZNK5neml28VariableINS_10QuaternionEE3getEv
FN:167,174,_ZNK5neml28VariableINS_11MillerIndexEE3getEv
FN:167,174,_ZNK5neml28VariableINS_2R2EE3getEv
FN:167,174,_ZNK5neml28VariableINS_2R3EE3getEv
FN:167,174,_ZNK5neml28VariableINS_2R4EE3getEv
FN:167,174,_ZNK5neml28VariableINS_3RotEE3getEv
FN:167,174,_ZNK5neml28VariableINS_3SR2EE3getEv
FN:167,174,_ZNK5neml28VariableINS_3VecEE3getEv
FN:167,174,_ZNK5neml28VariableINS_3WR2EE3getEv
FN:167,174,_ZNK5neml28VariableINS_4SFR3EE3getEv
FN:167,174,_ZNK5neml28VariableINS_4SSR4EE3getEv
FN:167,174,_ZNK5neml28VariableINS_4SWR4EE3getEv
FN:167,174,_ZNK5neml28VariableINS_4WSR4EE3getEv
FN:167,174,_ZNK5neml28VariableINS_4WWR4EE3getEv
FN:167,174,_ZNK5neml28VariableINS_5SFFR4EE3getEv
FN:167,174,_ZNK5neml28VariableINS_5WFFR4EE3getEv
FN:167,174,_ZNK5neml28VariableINS_6ScalarEE3getEv
FN:178,184,_ZNK5neml28VariableINS_10QuaternionEE6tensorEv
FN:178,184,_ZNK5neml28VariableINS_11MillerIndexEE6tensorEv
FN:178,184,_ZNK5neml28VariableINS_2R2EE6tensorEv
FN:178,184,_ZNK5neml28VariableINS_2R3EE6tensorEv
FN:178,184,_ZNK5neml28VariableINS_2R4EE6tensorEv
FN:178,184,_ZNK5neml28VariableINS_3RotEE6tensorEv
FN:178,184,_ZNK5neml28VariableINS_3SR2EE6tensorEv
FN:178,184,_ZNK5neml28VariableINS_3VecEE6tensorEv
FN:178,184,_ZNK5neml28VariableINS_3WR2EE6tensorEv
FN:178,184,_ZNK5neml28VariableINS_4SFR3EE6tensorEv
FN:178,184,_ZNK5neml28VariableINS_4SSR4EE6tensorEv
FN:178,184,_ZNK5neml28VariableINS_4SWR4EE6tensorEv
FN:178,184,_ZNK5neml28VariableINS_4WSR4EE6tensorEv
FN:178,184,_ZNK5neml28VariableINS_4WWR4EE6tensorEv
FN:178,184,_ZNK5neml28VariableINS_5SFFR4EE6tensorEv
FN:178,184,_ZNK5neml28VariableINS_5WFFR4EE6tensorEv
FN:178,184,_ZNK5neml28VariableINS_6ScalarEE6tensorEv
FN:188,195,_ZN5neml28VariableINS_10QuaternionEE14requires_grad_Eb
FN:188,195,_ZN5neml28VariableINS_11MillerIndexEE14requires_grad_Eb
FN:188,195,_ZN5neml28VariableINS_2R2EE14requires_grad_Eb
FN:188,195,_ZN5neml28VariableINS_2R3EE14requires_grad_Eb
FN:188,195,_ZN5neml28VariableINS_2R4EE14requires_grad_Eb
FN:188,195,_ZN5neml28VariableINS_3RotEE14requires_grad_Eb
FN:188,195,_ZN5neml28VariableINS_3SR2EE14requires_grad_Eb
FN:188,195,_ZN5neml28VariableINS_3VecEE14requires_grad_Eb
FN:188,195,_ZN5neml28VariableINS_3WR2EE14requires_grad_Eb
FN:188,195,_ZN5neml28VariableINS_4SFR3EE14requires_grad_Eb
FN:188,195,_ZN5neml28VariableINS_4SSR4EE14requires_grad_Eb
FN:188,195,_ZN5neml28VariableINS_4SWR4EE14requires_grad_Eb
FN:188,195,_ZN5neml28VariableINS_4WSR4EE14requires_grad_Eb
FN:188,195,_ZN5neml28VariableINS_4WWR4EE14requires_grad_Eb
FN:188,195,_ZN5neml28VariableINS_5SFFR4EE14requires_grad_Eb
FN:188,195,_ZN5neml28VariableINS_5WFFR4EE14requires_grad_Eb
FN:188,195,_ZN5neml28VariableINS_6ScalarEE14requires_grad_Eb
FN:199,227,_ZN5neml28VariableINS_10QuaternionEEaSERKNS_6TensorE
FN:199,227,_ZN5neml28VariableINS_11MillerIndexEEaSERKNS_6TensorE
FN:199,227,_ZN5neml28VariableINS_2R2EEaSERKNS_6TensorE
FN:199,227,_ZN5neml28VariableINS_2R3EEaSERKNS_6TensorE
FN:199,227,_ZN5neml28VariableINS_2R4EEaSERKNS_6TensorE
FN:199,227,_ZN5neml28VariableINS_3RotEEaSERKNS_6TensorE
FN:199,227,_ZN5neml28VariableINS_3SR2EEaSERKNS_6TensorE
FN:199,227,_ZN5neml28VariableINS_3VecEEaSERKNS_6TensorE
FN:199,227,_ZN5neml28VariableINS_3WR2EEaSERKNS_6TensorE
FN:199,227,_ZN5neml28VariableINS_4SFR3EEaSERKNS_6TensorE
FN:199,227,_ZN5neml28VariableINS_4SSR4EEaSERKNS_6TensorE
FN:199,227,_ZN5neml28VariableINS_4SWR4EEaSERKNS_6TensorE
FN:199,227,_ZN5neml28VariableINS_4WSR4EEaSERKNS_6TensorE
FN:199,227,_ZN5neml28VariableINS_4WWR4EEaSERKNS_6TensorE
FN:199,227,_ZN5neml28VariableINS_5SFFR4EEaSERKNS_6TensorE
FN:199,227,_ZN5neml28VariableINS_5WFFR4EEaSERKNS_6TensorE
FN:199,227,_ZN5neml28VariableINS_6ScalarEEaSERKNS_6TensorE
FN:231,251,_ZN5neml28VariableINS_10QuaternionEE5clearEv
FN:231,251,_ZN5neml28VariableINS_11MillerIndexEE5clearEv
FN:231,251,_ZN5neml28VariableINS_2R2EE5clearEv
FN:231,251,_ZN5neml28VariableINS_2R3EE5clearEv
FN:231,251,_ZN5neml28VariableINS_2R4EE5clearEv
FN:231,251,_ZN5neml28VariableINS_3RotEE5clearEv
FN:231,251,_ZN5neml28VariableINS_3SR2EE5clearEv
FN:231,251,_ZN5neml28VariableINS_3VecEE5clearEv
FN:231,251,_ZN5neml28VariableINS_3WR2EE5clearEv
FN:231,251,_ZN5neml28VariableINS_4SFR3EE5clearEv
FN:231,251,_ZN5neml28VariableINS_4SSR4EE5clearEv
FN:231,251,_ZN5neml28VariableINS_4SWR4EE5clearEv
FN:231,251,_ZN5neml28VariableINS_4WSR4EE5clearEv
FN:231,251,_ZN5neml28VariableINS_4WWR4EE5clearEv
FN:231,251,_ZN5neml28VariableINS_5SFFR4EE5clearEv
FN:231,251,_ZN5neml28VariableINS_5WFFR4EE5clearEv
FN:231,251,_ZN5neml28VariableINS_6ScalarEE5clearEv
FN:38,41,_ZNK5neml28VariableINS_10QuaternionEE4typeEv
FN:38,41,_ZNK5neml28VariableINS_11MillerIndexEE4typeEv
FN:38,41,_ZNK5neml28VariableINS_2R2EE4typeEv
FN:38,41,_ZNK5neml28VariableINS_2R3EE4typeEv
FN:38,41,_ZNK5neml28VariableINS_2R4EE4typeEv
FN:38,41,_ZNK5neml28VariableINS_3RotEE4typeEv
FN:38,41,_ZNK5neml28VariableINS_3SR2EE4typeEv
FN:38,41,_ZNK5neml28VariableINS_3VecEE4typeEv
FN:38,41,_ZNK5neml28VariableINS_3WR2EE4typeEv
FN:38,41,_ZNK5neml28VariableINS_4SFR3EE4typeEv
FN:38,41,_ZNK5neml28VariableINS_4SSR4EE4typeEv
FN:38,41,_ZNK5neml28VariableINS_4SWR4EE4typeEv
FN:38,41,_ZNK5neml28VariableINS_4WSR4EE4typeEv
FN:38,41,_ZNK5neml28VariableINS_4WWR4EE4typeEv
FN:38,41,_ZNK5neml28VariableINS_5SFFR4EE4typeEv
FN:38,41,_ZNK5neml28VariableINS_5WFFR4EE4typeEv
FN:38,41,_ZNK5neml28VariableINS_6ScalarEE4typeEv
FN:45,48,_ZNK5neml28VariableINS_10QuaternionEE7definedEv
FN:45,48,_ZNK5neml28VariableINS_11MillerIndexEE7definedEv
FN:45,48,_ZNK5neml28VariableINS_2R2EE7definedEv
FN:45,48,_ZNK5neml28VariableINS_2R3EE7definedEv
FN:45,48,_ZNK5neml28VariableINS_2R4EE7definedEv
FN:45,48,_ZNK5neml28VariableINS_3RotEE7definedEv
FN:45,48,_ZNK5neml28VariableINS_3SR2EE7definedEv
FN:45,48,_ZNK5neml28VariableINS_3VecEE7definedEv
FN:45,48,_ZNK5neml28VariableINS_3WR2EE7definedEv
FN:45,48,_ZNK5neml28VariableINS_4SFR3EE7definedEv
FN:45,48,_ZNK5neml28VariableINS_4SSR4EE7definedEv
FN:45,48,_ZNK5neml28VariableINS_4SWR4EE7definedEv
FN:45,48,_ZNK5neml28VariableINS_4WSR4EE7definedEv
FN:45,48,_ZNK5neml28VariableINS_4WWR4EE7definedEv
FN:45,48,_ZNK5neml28VariableINS_5SFFR4EE7definedEv
FN:45,48,_ZNK5neml28VariableINS_5WFFR4EE7definedEv
FN:45,48,_ZNK5neml28VariableINS_6ScalarEE7definedEv
FN:52,55,_ZNK5neml28VariableINS_10QuaternionEE7optionsEv
FN:52,55,_ZNK5neml28VariableINS_11MillerIndexEE7optionsEv
FN:52,55,_ZNK5neml28VariableINS_2R2EE7optionsEv
FN:52,55,_ZNK5neml28VariableINS_2R3EE7optionsEv
FN:52,55,_ZNK5neml28VariableINS_2R4EE7optionsEv
FN:52,55,_ZNK5neml28VariableINS_3RotEE7optionsEv
FN:52,55,_ZNK5neml28VariableINS_3SR2EE7optionsEv
FN:52,55,_ZNK5neml28VariableINS_3VecEE7optionsEv
FN:52,55,_ZNK5neml28VariableINS_3WR2EE7optionsEv
FN:52,55,_ZNK5neml28VariableINS_4SFR3EE7optionsEv
FN:52,55,_ZNK5neml28VariableINS_4SSR4EE7optionsEv
FN:52,55,_ZNK5neml28VariableINS_4SWR4EE7optionsEv
FN:52,55,_ZNK5neml28VariableINS_4WSR4EE7optionsEv
FN:52,55,_ZNK5neml28VariableINS_4WWR4EE7optionsEv
FN:52,55,_ZNK5neml28VariableINS_5SFFR4EE7optionsEv
FN:52,55,_ZNK5neml28VariableINS_5WFFR4EE7optionsEv
FN:52,55,_ZNK5neml28VariableINS_6ScalarEE7optionsEv
FN:59,62,_ZNK5neml28VariableINS_10QuaternionEE11scalar_typeEv
FN:59,62,_ZNK5neml28VariableINS_11MillerIndexEE11scalar_typeEv
FN:59,62,_ZNK5neml28VariableINS_2R2EE11scalar_typeEv
FN:59,62,_ZNK5neml28VariableINS_2R3EE11scalar_typeEv
FN:59,62,_ZNK5neml28VariableINS_2R4EE11scalar_typeEv
FN:59,62,_ZNK5neml28VariableINS_3RotEE11scalar_typeEv
FN:59,62,_ZNK5neml28VariableINS_3SR2EE11scalar_typeEv
FN:59,62,_ZNK5neml28VariableINS_3VecEE11scalar_typeEv
FN:59,62,_ZNK5neml28VariableINS_3WR2EE11scalar_typeEv
FN:59,62,_ZNK5neml28VariableINS_4SFR3EE11scalar_typeEv
FN:59,62,_ZNK5neml28VariableINS_4SSR4EE11scalar_typeEv
FN:59,62,_ZNK5neml28VariableINS_4SWR4EE11scalar_typeEv
FN:59,62,_ZNK5neml28VariableINS_4WSR4EE11scalar_typeEv
FN:59,62,_ZNK5neml28VariableINS_4WWR4EE11scalar_typeEv
FN:59,62,_ZNK5neml28VariableINS_5SFFR4EE11scalar_typeEv
FN:59,62,_ZNK5neml28VariableINS_5WFFR4EE11scalar_typeEv
FN:59,62,_ZNK5neml28VariableINS_6ScalarEE11scalar_typeEv
FN:66,69,_ZNK5neml28VariableINS_10QuaternionEE6deviceEv
FN:66,69,_ZNK5neml28VariableINS_11MillerIndexEE6deviceEv
FN:66,69,_ZNK5neml28VariableINS_2R2EE6deviceEv
FN:66,69,_ZNK5neml28VariableINS_2R3EE6deviceEv
FN:66,69,_ZNK5neml28VariableINS_2R4EE6deviceEv
FN:66,69,_ZNK5neml28VariableINS_3RotEE6deviceEv
FN:66,69,_ZNK5neml28VariableINS_3SR2EE6deviceEv
FN:66,69,_ZNK5neml28VariableINS_3VecEE6deviceEv
FN:66,69,_ZNK5neml28VariableINS_3WR2EE6deviceEv
FN:66,69,_ZNK5neml28VariableINS_4SFR3EE6deviceEv
FN:66,69,_ZNK5neml28VariableINS_4SSR4EE6deviceEv
FN:66,69,_ZNK5neml28VariableINS_4SWR4EE6deviceEv
FN:66,69,_ZNK5neml28VariableINS_4WSR4EE6deviceEv
FN:66,69,_ZNK5neml28VariableINS_4WWR4EE6deviceEv
FN:66,69,_ZNK5neml28VariableINS_5SFFR4EE6deviceEv
FN:66,69,_ZNK5neml28VariableINS_5WFFR4EE6deviceEv
FN:66,69,_ZNK5neml28VariableINS_6ScalarEE6deviceEv
FN:73,76,_ZNK5neml28VariableINS_10QuaternionEE13dynamic_sizesEv
FN:73,76,_ZNK5neml28VariableINS_11MillerIndexEE13dynamic_sizesEv
FN:73,76,_ZNK5neml28VariableINS_2R2EE13dynamic_sizesEv
FN:73,76,_ZNK5neml28VariableINS_2R3EE13dynamic_sizesEv
FN:73,76,_ZNK5neml28VariableINS_2R4EE13dynamic_sizesEv
FN:73,76,_ZNK5neml28VariableINS_3RotEE13dynamic_sizesEv
FN:73,76,_ZNK5neml28VariableINS_3SR2EE13dynamic_sizesEv
FN:73,76,_ZNK5neml28VariableINS_3VecEE13dynamic_sizesEv
FN:73,76,_ZNK5neml28VariableINS_3WR2EE13dynamic_sizesEv
FN:73,76,_ZNK5neml28VariableINS_4SFR3EE13dynamic_sizesEv
FN:73,76,_ZNK5neml28VariableINS_4SSR4EE13dynamic_sizesEv
FN:73,76,_ZNK5neml28VariableINS_4SWR4EE13dynamic_sizesEv
FN:73,76,_ZNK5neml28VariableINS_4WSR4EE13dynamic_sizesEv
FN:73,76,_ZNK5neml28VariableINS_4WWR4EE13dynamic_sizesEv
FN:73,76,_ZNK5neml28VariableINS_5SFFR4EE13dynamic_sizesEv
FN:73,76,_ZNK5neml28VariableINS_5WFFR4EE13dynamic_sizesEv
FN:73,76,_ZNK5neml28VariableINS_6ScalarEE13dynamic_sizesEv
FN:80,84,_ZNK5neml28VariableINS_10QuaternionEE5cloneERKNS_19LabeledAxisAccessorEPNS_5ModelE
FN:80,84,_ZNK5neml28VariableINS_11MillerIndexEE5cloneERKNS_19LabeledAxisAccessorEPNS_5ModelE
FN:80,84,_ZNK5neml28VariableINS_2R2EE5cloneERKNS_19LabeledAxisAccessorEPNS_5ModelE
FN:80,84,_ZNK5neml28VariableINS_2R3EE5cloneERKNS_19LabeledAxisAccessorEPNS_5ModelE
FN:80,84,_ZNK5neml28VariableINS_2R4EE5cloneERKNS_19LabeledAxisAccessorEPNS_5ModelE
FN:80,84,_ZNK5neml28VariableINS_3RotEE5cloneERKNS_19LabeledAxisAccessorEPNS_5ModelE
FN:80,84,_ZNK5neml28VariableINS_3SR2EE5cloneERKNS_19LabeledAxisAccessorEPNS_5ModelE
FN:80,84,_ZNK5neml28VariableINS_3VecEE5cloneERKNS_19LabeledAxisAccessorEPNS_5ModelE
FN:80,84,_ZNK5neml28VariableINS_3WR2EE5cloneERKNS_19LabeledAxisAccessorEPNS_5ModelE
FN:80,84,_ZNK5neml28VariableINS_4SFR3EE5cloneERKNS_19LabeledAxisAccessorEPNS_5ModelE
FN:80,84,_ZNK5neml28VariableINS_4SSR4EE5cloneERKNS_19LabeledAxisAccessorEPNS_5ModelE
FN:80,84,_ZNK5neml28VariableINS_4SWR4EE5cloneERKNS_19LabeledAxisAccessorEPNS_5ModelE
FN:80,84,_ZNK5neml28VariableINS_4WSR4EE5cloneERKNS_19LabeledAxisAccessorEPNS_5ModelE
FN:80,84,_ZNK5neml28VariableINS_4WWR4EE5cloneERKNS_19LabeledAxisAccessorEPNS_5ModelE
FN:80,84,_ZNK5neml28VariableINS_5SFFR4EE5cloneERKNS_19LabeledAxisAccessorEPNS_5ModelE
FN:80,84,_ZNK5neml28VariableINS_5WFFR4EE5cloneERKNS_19LabeledAxisAccessorEPNS_5ModelE
FN:80,84,_ZNK5neml28VariableINS_6ScalarEE5cloneERKNS_19LabeledAxisAccessorEPNS_5ModelE
FN:88,121,_ZN5neml28VariableINS_10QuaternionEE3refERKNS_12VariableBaseEb
FN:88,121,_ZN5neml28VariableINS_11MillerIndexEE3refERKNS_12VariableBaseEb
FN:88,121,_ZN5neml28VariableINS_2R2EE3refERKNS_12VariableBaseEb
FN:88,121,_ZN5neml28VariableINS_2R3EE3refERKNS_12VariableBaseEb
FN:88,121,_ZN5neml28VariableINS_2R4EE3refERKNS_12VariableBaseEb
FN:88,121,_ZN5neml28VariableINS_3RotEE3refERKNS_12VariableBaseEb
FN:88,121,_ZN5neml28VariableINS_3SR2EE3refERKNS_12VariableBaseEb
FN:88,121,_ZN5neml28VariableINS_3VecEE3refERKNS_12VariableBaseEb
FN:88,121,_ZN5neml28VariableINS_3WR2EE3refERKNS_12VariableBaseEb
FN:88,121,_ZN5neml28VariableINS_4SFR3EE3refERKNS_12VariableBaseEb
FN:88,121,_ZN5neml28VariableINS_4SSR4EE3refERKNS_12VariableBaseEb
FN:88,121,_ZN5neml28VariableINS_4SWR4EE3refERKNS_12VariableBaseEb
FN:88,121,_ZN5neml28VariableINS_4WSR4EE3refERKNS_12VariableBaseEb
FN:88,121,_ZN5neml28VariableINS_4WWR4EE3refERKNS_12VariableBaseEb
FN:88,121,_ZN5neml28VariableINS_5SFFR4EE3refERKNS_12VariableBaseEb
FN:88,121,_ZN5neml28VariableINS_5WFFR4EE3refERKNS_12VariableBaseEb
FN:88,121,_ZN5neml28VariableINS_6ScalarEE3refERKNS_12VariableBaseEb
FNDA:0,_ZN5neml28VariableINS_10QuaternionEE4zeroERKN3c1013TensorOptionsE
FNDA:0,_ZN5neml28VariableINS_11MillerIndexEE4zeroERKN3c1013TensorOptionsE
FNDA:0,_ZN5neml28VariableINS_2R2EE4zeroERKN3c1013TensorOptionsE
FNDA:0,_ZN5neml28VariableINS_2R3EE4zeroERKN3c1013TensorOptionsE
FNDA:0,_ZN5neml28VariableINS_2R4EE4zeroERKN3c1013TensorOptionsE
FNDA:0,_ZN5neml28VariableINS_3RotEE4zeroERKN3c1013TensorOptionsE
FNDA:45,_ZN5neml28VariableINS_3SR2EE4zeroERKN3c1013TensorOptionsE
FNDA:0,_ZN5neml28VariableINS_3VecEE4zeroERKN3c1013TensorOptionsE
FNDA:0,_ZN5neml28VariableINS_3WR2EE4zeroERKN3c1013TensorOptionsE
FNDA:0,_ZN5neml28VariableINS_4SFR3EE4zeroERKN3c1013TensorOptionsE
FNDA:0,_ZN5neml28VariableINS_4SSR4EE4zeroERKN3c1013TensorOptionsE
FNDA:0,_ZN5neml28VariableINS_4SWR4EE4zeroERKN3c1013TensorOptionsE
FNDA:0,_ZN5neml28VariableINS_4WSR4EE4zeroERKN3c1013TensorOptionsE
FNDA:0,_ZN5neml28VariableINS_4WWR4EE4zeroERKN3c1013TensorOptionsE
FNDA:0,_ZN5neml28VariableINS_5SFFR4EE4zeroERKN3c1013TensorOptionsE
FNDA:0,_ZN5neml28VariableINS_5WFFR4EE4zeroERKN3c1013TensorOptionsE
FNDA:86,_ZN5neml28VariableINS_6ScalarEE4zeroERKN3c1013TensorOptionsE
FNDA:0,_ZN5neml28VariableINS_10QuaternionEE3setERKNS_6TensorESt8optionalINS_15TracerPrivilegeEE
FNDA:0,_ZN5neml28VariableINS_11MillerIndexEE3setERKNS_6TensorESt8optionalINS_15TracerPrivilegeEE
FNDA:379,_ZN5neml28VariableINS_2R2EE3setERKNS_6TensorESt8optionalINS_15TracerPrivilegeEE
FNDA:0,_ZN5neml28VariableINS_2R3EE3setERKNS_6TensorESt8optionalINS_15TracerPrivilegeEE
FNDA:0,_ZN5neml28VariableINS_2R4EE3setERKNS_6TensorESt8optionalINS_15TracerPrivilegeEE
FNDA:1040,_ZN5neml28VariableINS_3RotEE3setERKNS_6TensorESt8optionalINS_15TracerPrivilegeEE
FNDA:7815,_ZN5neml28VariableINS_3SR2EE3setERKNS_6TensorESt8optionalINS_15TracerPrivilegeEE
FNDA:16,_ZN5neml28VariableINS_3VecEE3setERKNS_6TensorESt8optionalINS_15TracerPrivilegeEE
FNDA:112,_ZN5neml28VariableINS_3WR2EE3setERKNS_6TensorESt8optionalINS_15TracerPrivilegeEE
FNDA:0,_ZN5neml28VariableINS_4SFR3EE3setERKNS_6TensorESt8optionalINS_15TracerPrivilegeEE
FNDA:134,_ZN5neml28VariableINS_4SSR4EE3setERKNS_6TensorESt8optionalINS_15TracerPrivilegeEE
FNDA:0,_ZN5neml28VariableINS_4SWR4EE3setERKNS_6TensorESt8optionalINS_15TracerPrivilegeEE
FNDA:0,_ZN5neml28VariableINS_4WSR4EE3setERKNS_6TensorESt8optionalINS_15TracerPrivilegeEE
FNDA:0,_ZN5neml28VariableINS_4WWR4EE3setERKNS_6TensorESt8optionalINS_15TracerPrivilegeEE
FNDA:0,_ZN5neml28VariableINS_5SFFR4EE3setERKNS_6TensorESt8optionalINS_15TracerPrivilegeEE
FNDA:0,_ZN5neml28VariableINS_5WFFR4EE3setERKNS_6TensorESt8optionalINS_15TracerPrivilegeEE
FNDA:10567,_ZN5neml28VariableINS_6ScalarEE3setERKNS_6TensorESt8optionalINS_15TracerPrivilegeEE
FNDA:0,_ZNK5neml28VariableINS_10QuaternionEE3getEv
FNDA:0,_ZNK5neml28VariableINS_11MillerIndexEE3getEv
FNDA:556,_ZNK5neml28VariableINS_2R2EE3getEv
FNDA:0,_ZNK5neml28VariableINS_2R3EE3getEv
FNDA:0,_ZNK5neml28VariableINS_2R4EE3getEv
FNDA:2129,_ZNK5neml28VariableINS_3RotEE3getEv
FNDA:17728,_ZNK5neml28VariableINS_3SR2EE3getEv
FNDA:23,_ZNK5neml28VariableINS_3VecEE3getEv
FNDA:801,_ZNK5neml28VariableINS_3WR2EE3getEv
FNDA:0,_ZNK5neml28VariableINS_4SFR3EE3getEv
FNDA:156,_ZNK5neml28VariableINS_4SSR4EE3getEv
FNDA:0,_ZNK5neml28VariableINS_4SWR4EE3getEv
FNDA:0,_ZNK5neml28VariableINS_4WSR4EE3getEv
FNDA:0,_ZNK5neml28VariableINS_4WWR4EE3getEv
FNDA:0,_ZNK5neml28VariableINS_5SFFR4EE3getEv
FNDA:0,_ZNK5neml28VariableINS_5WFFR4EE3getEv
FNDA:34292,_ZNK5neml28VariableINS_6ScalarEE3getEv
FNDA:0,_ZNK5neml28VariableINS_10QuaternionEE6tensorEv
FNDA:0,_ZNK5neml28VariableINS_11MillerIndexEE6tensorEv
FNDA:33240,_ZNK5neml28VariableINS_2R2EE6tensorEv
FNDA:0,_ZNK5neml28VariableINS_2R3EE6tensorEv
FNDA:0,_ZNK5neml28VariableINS_2R4EE6tensorEv
FNDA:70620,_ZNK5neml28VariableINS_3RotEE6tensorEv
FNDA:936858,_ZNK5neml28VariableINS_3SR2EE6tensorEv
FNDA:69,_ZNK5neml28VariableINS_3VecEE6tensorEv
FNDA:50677,_ZNK5neml28VariableINS_3WR2EE6tensorEv
FNDA:0,_ZNK5neml28VariableINS_4SFR3EE6tensorEv
FNDA:11306,_ZNK5neml28VariableINS_4SSR4EE6tensorEv
FNDA:0,_ZNK5neml28VariableINS_4SWR4EE6tensorEv
FNDA:0,_ZNK5neml28VariableINS_4WSR4EE6tensorEv
FNDA:0,_ZNK5neml28VariableINS_4WWR4EE6tensorEv
FNDA:0,_ZNK5neml28VariableINS_5SFFR4EE6tensorEv
FNDA:0,_ZNK5neml28VariableINS_5WFFR4EE6tensorEv
FNDA:933724,_ZNK5neml28VariableINS_6ScalarEE6tensorEv
FNDA:0,_ZN5neml28VariableINS_10QuaternionEE14requires_grad_Eb
FNDA:0,_ZN5neml28VariableINS_11MillerIndexEE14requires_grad_Eb
FNDA:0,_ZN5neml28VariableINS_2R2EE14requires_grad_Eb
FNDA:0,_ZN5neml28VariableINS_2R3EE14requires_grad_Eb
FNDA:0,_ZN5neml28VariableINS_2R4EE14requires_grad_Eb
FNDA:0,_ZN5neml28VariableINS_3RotEE14requires_grad_Eb
FNDA:1,_ZN5neml28VariableINS_3SR2EE14requires_grad_Eb
FNDA:0,_ZN5neml28VariableINS_3VecEE14requires_grad_Eb
FNDA:0,_ZN5neml28VariableINS_3WR2EE14requires_grad_Eb
FNDA:0,_ZN5neml28VariableINS_4SFR3EE14requires_grad_Eb
FNDA:0,_ZN5neml28VariableINS_4SSR4EE14requires_grad_Eb
FNDA:0,_ZN5neml28VariableINS_4SWR4EE14requires_grad_Eb
FNDA:0,_ZN5neml28VariableINS_4WSR4EE14requires_grad_Eb
FNDA:0,_ZN5neml28VariableINS_4WWR4EE14requires_grad_Eb
FNDA:0,_ZN5neml28VariableINS_5SFFR4EE14requires_grad_Eb
FNDA:0,_ZN5neml28VariableINS_5WFFR4EE14requires_grad_Eb
FNDA:5,_ZN5neml28VariableINS_6ScalarEE14requires_grad_Eb
FNDA:0,_ZN5neml28VariableINS_10QuaternionEEaSERKNS_6TensorE
FNDA:0,_ZN5neml28VariableINS_11MillerIndexEEaSERKNS_6TensorE
FNDA:114,_ZN5neml28VariableINS_2R2EEaSERKNS_6TensorE
FNDA:0,_ZN5neml28VariableINS_2R3EEaSERKNS_6TensorE
FNDA:0,_ZN5neml28VariableINS_2R4EEaSERKNS_6TensorE
FNDA:102,_ZN5neml28VariableINS_3RotEEaSERKNS_6TensorE
FNDA:1206,_ZN5neml28VariableINS_3SR2EEaSERKNS_6TensorE
FNDA:8,_ZN5neml28VariableINS_3VecEEaSERKNS_6TensorE
FNDA:60,_ZN5neml28VariableINS_3WR2EEaSERKNS_6TensorE
FNDA:0,_ZN5neml28VariableINS_4SFR3EEaSERKNS_6TensorE
FNDA:24,_ZN5neml28VariableINS_4SSR4EEaSERKNS_6TensorE
FNDA:0,_ZN5neml28VariableINS_4SWR4EEaSERKNS_6TensorE
FNDA:0,_ZN5neml28VariableINS_4WSR4EEaSERKNS_6TensorE
FNDA:0,_ZN5neml28VariableINS_4WWR4EEaSERKNS_6TensorE
FNDA:0,_ZN5neml28VariableINS_5SFFR4EEaSERKNS_6TensorE
FNDA:0,_ZN5neml28VariableINS_5WFFR4EEaSERKNS_6TensorE
FNDA:4358,_ZN5neml28VariableINS_6ScalarEEaSERKNS_6TensorE
FNDA:0,_ZN5neml28VariableINS_10QuaternionEE5clearEv
FNDA:0,_ZN5neml28VariableINS_11MillerIndexEE5clearEv
FNDA:148,_ZN5neml28VariableINS_2R2EE5clearEv
FNDA:0,_ZN5neml28VariableINS_2R3EE5clearEv
FNDA:0,_ZN5neml28VariableINS_2R4EE5clearEv
FNDA:117,_ZN5neml28VariableINS_3RotEE5clearEv
FNDA:1801,_ZN5neml28VariableINS_3SR2EE5clearEv
FNDA:10,_ZN5neml28VariableINS_3VecEE5clearEv
FNDA:85,_ZN5neml28VariableINS_3WR2EE5clearEv
FNDA:0,_ZN5neml28VariableINS_4SFR3EE5clearEv
FNDA:36,_ZN5neml28VariableINS_4SSR4EE5clearEv
FNDA:0,_ZN5neml28VariableINS_4SWR4EE5clearEv
FNDA:0,_ZN5neml28VariableINS_4WSR4EE5clearEv
FNDA:0,_ZN5neml28VariableINS_4WWR4EE5clearEv
FNDA:0,_ZN5neml28VariableINS_5SFFR4EE5clearEv
FNDA:0,_ZN5neml28VariableINS_5WFFR4EE5clearEv
FNDA:5233,_ZN5neml28VariableINS_6ScalarEE5clearEv
FNDA:0,_ZNK5neml28VariableINS_10QuaternionEE4typeEv
FNDA:0,_ZNK5neml28VariableINS_11MillerIndexEE4typeEv
FNDA:20,_ZNK5neml28VariableINS_2R2EE4typeEv
FNDA:0,_ZNK5neml28VariableINS_2R3EE4typeEv
FNDA:0,_ZNK5neml28VariableINS_2R4EE4typeEv
FNDA:32,_ZNK5neml28VariableINS_3RotEE4typeEv
FNDA:484,_ZNK5neml28VariableINS_3SR2EE4typeEv
FNDA:0,_ZNK5neml28VariableINS_3VecEE4typeEv
FNDA:14,_ZNK5neml28VariableINS_3WR2EE4typeEv
FNDA:0,_ZNK5neml28VariableINS_4SFR3EE4typeEv
FNDA:16,_ZNK5neml28VariableINS_4SSR4EE4typeEv
FNDA:0,_ZNK5neml28VariableINS_4SWR4EE4typeEv
FNDA:0,_ZNK5neml28VariableINS_4WSR4EE4typeEv
FNDA:0,_ZNK5neml28VariableINS_4WWR4EE4typeEv
FNDA:0,_ZNK5neml28VariableINS_5SFFR4EE4typeEv
FNDA:0,_ZNK5neml28VariableINS_5WFFR4EE4typeEv
FNDA:1074,_ZNK5neml28VariableINS_6ScalarEE4typeEv
FNDA:0,_ZNK5neml28VariableINS_10QuaternionEE7definedEv
FNDA:0,_ZNK5neml28VariableINS_11MillerIndexEE7definedEv
FNDA:25822,_ZNK5neml28VariableINS_2R2EE7definedEv
FNDA:0,_ZNK5neml28VariableINS_2R3EE7definedEv
FNDA:0,_ZNK5neml28VariableINS_2R4EE7definedEv
FNDA:43711,_ZNK5neml28VariableINS_3RotEE7definedEv
FNDA:585968,_ZNK5neml28VariableINS_3SR2EE7definedEv
FNDA:78,_ZNK5neml28VariableINS_3VecEE7definedEv
FNDA:33877,_ZNK5neml28VariableINS_3WR2EE7definedEv
FNDA:0,_ZNK5neml28VariableINS_4SFR3EE7definedEv
FNDA:11494,_ZNK5neml28VariableINS_4SSR4EE7definedEv
FNDA:0,_ZNK5neml28VariableINS_4SWR4EE7definedEv
FNDA:0,_ZNK5neml28VariableINS_4WSR4EE7definedEv
FNDA:0,_ZNK5neml28VariableINS_4WWR4EE7definedEv
FNDA:0,_ZNK5neml28VariableINS_5SFFR4EE7definedEv
FNDA:0,_ZNK5neml28VariableINS_5WFFR4EE7definedEv
FNDA:604565,_ZNK5neml28VariableINS_6ScalarEE7definedEv
FNDA:0,_ZNK5neml28VariableINS_10QuaternionEE7optionsEv
FNDA:0,_ZNK5neml28VariableINS_11MillerIndexEE7optionsEv
FNDA:10,_ZNK5neml28VariableINS_2R2EE7optionsEv
FNDA:0,_ZNK5neml28VariableINS_2R3EE7optionsEv
FNDA:0,_ZNK5neml28VariableINS_2R4EE7optionsEv
FNDA:4,_ZNK5neml28VariableINS_3RotEE7optionsEv
FNDA:252,_ZNK5neml28VariableINS_3SR2EE7optionsEv
FNDA:1,_ZNK5neml28VariableINS_3VecEE7optionsEv
FNDA:3,_ZNK5neml28VariableINS_3WR2EE7optionsEv
FNDA:0,_ZNK5neml28VariableINS_4SFR3EE7optionsEv
FNDA:2,_ZNK5neml28VariableINS_4SSR4EE7optionsEv
FNDA:0,_ZNK5neml28VariableINS_4SWR4EE7optionsEv
FNDA:0,_ZNK5neml28VariableINS_4WSR4EE7optionsEv
FNDA:0,_ZNK5neml28VariableINS_4WWR4EE7optionsEv
FNDA:0,_ZNK5neml28VariableINS_5SFFR4EE7optionsEv
FNDA:0,_ZNK5neml28VariableINS_5WFFR4EE7optionsEv
FNDA:232,_ZNK5neml28VariableINS_6ScalarEE7optionsEv
FNDA:0,_ZNK5neml28VariableINS_10QuaternionEE11scalar_typeEv
FNDA:0,_ZNK5neml28VariableINS_11MillerIndexEE11scalar_typeEv
FNDA:0,_ZNK5neml28VariableINS_2R2EE11scalar_typeEv
FNDA:0,_ZNK5neml28VariableINS_2R3EE11scalar_typeEv
FNDA:0,_ZNK5neml28VariableINS_2R4EE11scalar_typeEv
FNDA:0,_ZNK5neml28VariableINS_3RotEE11scalar_typeEv
FNDA:24,_ZNK5neml28VariableINS_3SR2EE11scalar_typeEv
FNDA:0,_ZNK5neml28VariableINS_3VecEE11scalar_typeEv
FNDA:0,_ZNK5neml28VariableINS_3WR2EE11scalar_typeEv
FNDA:0,_ZNK5neml28VariableINS_4SFR3EE11scalar_typeEv
FNDA:0,_ZNK5neml28VariableINS_4SSR4EE11scalar_typeEv
FNDA:0,_ZNK5neml28VariableINS_4SWR4EE11scalar_typeEv
FNDA:0,_ZNK5neml28VariableINS_4WSR4EE11scalar_typeEv
FNDA:0,_ZNK5neml28VariableINS_4WWR4EE11scalar_typeEv
FNDA:0,_ZNK5neml28VariableINS_5SFFR4EE11scalar_typeEv
FNDA:0,_ZNK5neml28VariableINS_5WFFR4EE11scalar_typeEv
FNDA:32,_ZNK5neml28VariableINS_6ScalarEE11scalar_typeEv
FNDA:0,_ZNK5neml28VariableINS_10QuaternionEE6deviceEv
FNDA:0,_ZNK5neml28VariableINS_11MillerIndexEE6deviceEv
FNDA:0,_ZNK5neml28VariableINS_2R2EE6deviceEv
FNDA:0,_ZNK5neml28VariableINS_2R3EE6deviceEv
FNDA:0,_ZNK5neml28VariableINS_2R4EE6deviceEv
FNDA:0,_ZNK5neml28VariableINS_3RotEE6deviceEv
FNDA:0,_ZNK5neml28VariableINS_3SR2EE6deviceEv
FNDA:0,_ZNK5neml28VariableINS_3VecEE6deviceEv
FNDA:0,_ZNK5neml28VariableINS_3WR2EE6deviceEv
FNDA:0,_ZNK5neml28VariableINS_4SFR3EE6deviceEv
FNDA:0,_ZNK5neml28VariableINS_4SSR4EE6deviceEv
FNDA:0,_ZNK5neml28VariableINS_4SWR4EE6deviceEv
FNDA:0,_ZNK5neml28VariableINS_4WSR4EE6deviceEv
FNDA:0,_ZNK5neml28VariableINS_4WWR4EE6deviceEv
FNDA:0,_ZNK5neml28VariableINS_5SFFR4EE6deviceEv
FNDA:0,_ZNK5neml28VariableINS_5WFFR4EE6deviceEv
FNDA:0,_ZNK5neml28VariableINS_6ScalarEE6deviceEv
FNDA:0,_ZNK5neml28VariableINS_10QuaternionEE13dynamic_sizesEv
FNDA:0,_ZNK5neml28VariableINS_11MillerIndexEE13dynamic_sizesEv
FNDA:382,_ZNK5neml28VariableINS_2R2EE13dynamic_sizesEv
FNDA:0,_ZNK5neml28VariableINS_2R3EE13dynamic_sizesEv
FNDA:0,_ZNK5neml28VariableINS_2R4EE13dynamic_sizesEv
FNDA:1001,_ZNK5neml28VariableINS_3RotEE13dynamic_sizesEv
FNDA:7920,_ZNK5neml28VariableINS_3SR2EE13dynamic_sizesEv
FNDA:13,_ZNK5neml28VariableINS_3VecEE13dynamic_sizesEv
FNDA:415,_ZNK5neml28VariableINS_3WR2EE13dynamic_sizesEv
FNDA:0,_ZNK5neml28VariableINS_4SFR3EE13dynamic_sizesEv
FNDA:106,_ZNK5neml28VariableINS_4SSR4EE13dynamic_sizesEv
FNDA:0,_ZNK5neml28VariableINS_4SWR4EE13dynamic_sizesEv
FNDA:0,_ZNK5neml28VariableINS_4WSR4EE13dynamic_sizesEv
FNDA:0,_ZNK5neml28VariableINS_4WWR4EE13dynamic_sizesEv
FNDA:0,_ZNK5neml28VariableINS_5SFFR4EE13dynamic_sizesEv
FNDA:0,_ZNK5neml28VariableINS_5WFFR4EE13dynamic_sizesEv
FNDA:17077,_ZNK5neml28VariableINS_6ScalarEE13dynamic_sizesEv
FNDA:0,_ZNK5neml28VariableINS_10QuaternionEE5cloneERKNS_19LabeledAxisAccessorEPNS_5ModelE
FNDA:0,_ZNK5neml28VariableINS_11MillerIndexEE5cloneERKNS_19LabeledAxisAccessorEPNS_5ModelE
FNDA:3,_ZNK5neml28VariableINS_2R2EE5cloneERKNS_19LabeledAxisAccessorEPNS_5ModelE
FNDA:0,_ZNK5neml28VariableINS_2R3EE5cloneERKNS_19LabeledAxisAccessorEPNS_5ModelE
FNDA:0,_ZNK5neml28VariableINS_2R4EE5cloneERKNS_19LabeledAxisAccessorEPNS_5ModelE
FNDA:15,_ZNK5neml28VariableINS_3RotEE5cloneERKNS_19LabeledAxisAccessorEPNS_5ModelE
FNDA:172,_ZNK5neml28VariableINS_3SR2EE5cloneERKNS_19LabeledAxisAccessorEPNS_5ModelE
FNDA:0,_ZNK5neml28VariableINS_3VecEE5cloneERKNS_19LabeledAxisAccessorEPNS_5ModelE
FNDA:4,_ZNK5neml28VariableINS_3WR2EE5cloneERKNS_19LabeledAxisAccessorEPNS_5ModelE
FNDA:0,_ZNK5neml28VariableINS_4SFR3EE5cloneERKNS_19LabeledAxisAccessorEPNS_5ModelE
FNDA:6,_ZNK5neml28VariableINS_4SSR4EE5cloneERKNS_19LabeledAxisAccessorEPNS_5ModelE
FNDA:0,_ZNK5neml28VariableINS_4SWR4EE5cloneERKNS_19LabeledAxisAccessorEPNS_5ModelE
FNDA:0,_ZNK5neml28VariableINS_4WSR4EE5cloneERKNS_19LabeledAxisAccessorEPNS_5ModelE
FNDA:0,_ZNK5neml28VariableINS_4WWR4EE5cloneERKNS_19LabeledAxisAccessorEPNS_5ModelE
FNDA:0,_ZNK5neml28VariableINS_5SFFR4EE5cloneERKNS_19LabeledAxisAccessorEPNS_5ModelE
FNDA:0,_ZNK5neml28VariableINS_5WFFR4EE5cloneERKNS_19LabeledAxisAccessorEPNS_5ModelE
FNDA:342,_ZNK5neml28VariableINS_6ScalarEE5cloneERKNS_19LabeledAxisAccessorEPNS_5ModelE
FNDA:0,_ZN5neml28VariableINS_10QuaternionEE3refERKNS_12VariableBaseEb
FNDA:0,_ZN5neml28VariableINS_11MillerIndexEE3refERKNS_12VariableBaseEb
FNDA:10,_ZN5neml28VariableINS_2R2EE3refERKNS_12VariableBaseEb
FNDA:0,_ZN5neml28VariableINS_2R3EE3refERKNS_12VariableBaseEb
FNDA:0,_ZN5neml28VariableINS_2R4EE3refERKNS_12VariableBaseEb
FNDA:16,_ZN5neml28VariableINS_3RotEE3refERKNS_12VariableBaseEb
FNDA:240,_ZN5neml28VariableINS_3SR2EE3refERKNS_12VariableBaseEb
FNDA:0,_ZN5neml28VariableINS_3VecEE3refERKNS_12VariableBaseEb
FNDA:7,_ZN5neml28VariableINS_3WR2EE3refERKNS_12VariableBaseEb
FNDA:0,_ZN5neml28VariableINS_4SFR3EE3refERKNS_12VariableBaseEb
FNDA:8,_ZN5neml28VariableINS_4SSR4EE3refERKNS_12VariableBaseEb
FNDA:0,_ZN5neml28VariableINS_4SWR4EE3refERKNS_12VariableBaseEb
FNDA:0,_ZN5neml28VariableINS_4WSR4EE3refERKNS_12VariableBaseEb
FNDA:0,_ZN5neml28VariableINS_4WWR4EE3refERKNS_12VariableBaseEb
FNDA:0,_ZN5neml28VariableINS_5SFFR4EE3refERKNS_12VariableBaseEb
FNDA:0,_ZN5neml28VariableINS_5WFFR4EE3refERKNS_12VariableBaseEb
FNDA:529,_ZN5neml28VariableINS_6ScalarEE3refERKNS_12VariableBaseEb
FNF:255
FNH:80
DA:38,1640
DA:40,1640
DA:45,1305515
DA:47,1305515
DA:52,504
DA:54,504
DA:59,56
DA:61,56
DA:66,0
DA:68,0
DA:73,26914
DA:75,26914
DA:80,542
DA:83,542
DA:88,810
DA:90,810
DA:92,810
DA:94,810
DA:97,810
DA:99,810
DA:101,810
DA:103,810
DA:104,810
DA:106,810
DA:108,810
DA:109,810
DA:111,810
DA:113,810
DA:115,810
DA:117,810
DA:119,810
DA:120,810
DA:121,810
DA:125,131
DA:127,131
DA:128,131
DA:131,0
DA:133,0
DA:135,0
DA:137,0
DA:140,0
DA:142,131
DA:146,20063
DA:148,20063
DA:149,13207
DA:152,6856
DA:154,6856
DA:156,6856
DA:158,6856
DA:161,6856
DA:163,20063
DA:167,55685
DA:169,55685
DA:170,21230
DA:172,34455
DA:173,34455
DA:178,2036494
DA:180,2036494
DA:181,1198749
DA:183,837745
DA:188,6
DA:190,6
DA:191,6
DA:194,0
DA:195,6
DA:199,5872
DA:201,5872
DA:203,5872
DA:204,5872
DA:206,5872
DA:208,5872
DA:210,5872
DA:211,5872
DA:212,5872
DA:216,0
DA:218,0
DA:220,0
DA:222,0
DA:225,0
DA:227,5872
DA:231,7430
DA:233,7430
DA:235,7430
DA:236,7430
DA:240,0
DA:242,0
DA:244,0
DA:246,0
DA:249,0
DA:251,7430
LF:90
LH:72
end_of_record
TN:
SF:/home/runner/work/neml2/neml2/src/neml2/models/VariableBase.cxx
FN:101,104,_ZNK5neml212VariableBase18is_solve_dependentEv
FN:107,110,_ZNK5neml212VariableBase12is_dependentEv
FN:113,116,_ZNK5neml212VariableBase3dimEv
FN:119,122,_ZNK5neml212VariableBase9batch_dimEv
FN:125,128,_ZNK5neml212VariableBase8base_dimEv
FN:131,134,_ZNK5neml212VariableBase11dynamic_dimEv
FN:137,140,_ZNK5neml212VariableBase10static_dimEv
FN:143,146,_ZNK5neml212VariableBase9intmd_dimEv
FN:149,152,_ZNK5neml212VariableBase5sizesEv
FN:155,158,_ZNK5neml212VariableBase11batch_sizesEv
FN:161,164,_ZNK5neml212VariableBase10base_sizesEv
FN:167,170,_ZNK5neml212VariableBase12static_sizesEv
FN:173,176,_ZNK5neml212VariableBase11intmd_sizesEv
FN:179,187,_ZNK5neml212VariableBase4sizeEl
FN:190,196,_ZNK5neml212VariableBase10batch_sizeEl
FN:199,203,_ZNK5neml212VariableBase9base_sizeEl
FN:206,210,_ZNK5neml212VariableBase12dynamic_sizeEl
FN:213,219,_ZNK5neml212VariableBase11static_sizeEl
FN:222,226,_ZNK5neml212VariableBase10intmd_sizeEl
FN:229,234,_ZN5neml212VariableBase15set_intmd_sizesEN3c108ArrayRefIlEE
FN:237,240,_ZNK5neml212VariableBase14dep_intmd_dimsEv
FN:243,246,_ZNK5neml212VariableBase5zerosERKN3c1013TensorOptionsE
FN:249,252,_ZNK5neml212VariableBase13requires_gradEv
FN:255,260,_ZNK5neml212VariableBase14has_derivativeERKNS_19LabeledAxisAccessorE
FN:259,259,_ZZNK5neml212VariableBase14has_derivativeERKNS_19LabeledAxisAccessorEENKUlRKNS_10DerivativeILm1EEEE_clES7_
FN:263,269,_ZNK5neml212VariableBase14has_derivativeERKNS_19LabeledAxisAccessorES3_
FN:267,268,_ZZNK5neml212VariableBase14has_derivativeERKNS_19LabeledAxisAccessorES3_ENKUlRKNS_10DerivativeILm2EEEE_clES7_
FN:273,283,_ZN5neml2L14get_derivativeILm1EEERNS_10DerivativeIXT_EEERSt6vectorIS2_SaIS2_EERKSt5arrayIPKNS_12VariableBaseEXplT_Li1EEEN3c108ArrayRefIlEE
FN:273,283,_ZN5neml2L14get_derivativeILm2EEERNS_10DerivativeIXT_EEERSt6vectorIS2_SaIS2_EERKSt5arrayIPKNS_12VariableBaseEXplT_Li1EEEN3c108ArrayRefIlEE
FN:286,289,_ZN5neml212VariableBase1dERKS0_N3c108ArrayRefIlEE
FN:292,299,_ZNK5neml212VariableBase1dERKS0_
FN:302,305,_ZN5neml212VariableBase2d2ERKS0_S2_N3c108ArrayRefIlEE
FN:308,315,_ZNK5neml212VariableBase2d2ERKS0_S2_
FN:318,321,_ZN5neml212VariableBase10request_ADERKS0_
FN:324,331,_ZN5neml212VariableBase10request_ADERKSt6vectorIPKS0_SaIS3_EE
FN:334,337,_ZN5neml212VariableBase10request_ADERKS0_S2_
FN:340,350,_ZN5neml212VariableBase10request_ADERKSt6vectorIPKS0_SaIS3_EES7_
FN:353,357,_ZN5neml212VariableBase5clearEv
FN:360,364,_ZN5neml212VariableBase17clear_derivativesEv
FN:367,378,_ZN5neml212VariableBase16apply_chain_ruleERKNS_18DependencyResolverINS_5ModelENS_19LabeledAxisAccessorEEE
FN:381,393,_ZN5neml212VariableBase29apply_second_order_chain_ruleERKNS_18DependencyResolverINS_5ModelENS_19LabeledAxisAccessorEEE
FN:39,48,_ZN5neml212VariableBaseC2ENS_19LabeledAxisAccessorEPNS_5ModelEN3c108ArrayRefIlEES6_
FN:396,402,_ZN5neml2L13assign_or_addERNS_6TensorERKS0_
FN:405,424,_ZNK5neml212VariableBase17total_derivativesERKNS_18DependencyResolverINS_5ModelENS_19LabeledAxisAccessorEEEPS2_RKS0_
FN:427,476,_ZNK5neml212VariableBase24total_second_derivativesERKNS_18DependencyResolverINS_5ModelENS_19LabeledAxisAccessorEEEPS2_RKS0_
FN:51,55,_ZNK5neml212VariableBase5ownerEv
FN:58,62,_ZN5neml212VariableBase5ownerEv
FN:65,68,_ZNK5neml212VariableBase8is_stateEv
FN:71,74,_ZNK5neml212VariableBase12is_old_stateEv
FN:77,80,_ZNK5neml212VariableBase8is_forceEv
FN:83,86,_ZNK5neml212VariableBase12is_old_forceEv
FN:89,92,_ZNK5neml212VariableBase11is_residualEv
FN:95,98,_ZNK5neml212VariableBase12is_parameterEv
FNDA:673,_ZNK5neml212VariableBase18is_solve_dependentEv
FNDA:1955,_ZNK5neml212VariableBase12is_dependentEv
FNDA:0,_ZNK5neml212VariableBase3dimEv
FNDA:0,_ZNK5neml212VariableBase9batch_dimEv
FNDA:0,_ZNK5neml212VariableBase8base_dimEv
FNDA:26914,_ZNK5neml212VariableBase11dynamic_dimEv
FNDA:0,_ZNK5neml212VariableBase10static_dimEv
FNDA:64,_ZNK5neml212VariableBase9intmd_dimEv
FNDA:0,_ZNK5neml212VariableBase5sizesEv
FNDA:0,_ZNK5neml212VariableBase11batch_sizesEv
FNDA:88463,_ZNK5neml212VariableBase10base_sizesEv
FNDA:0,_ZNK5neml212VariableBase12static_sizesEv
FNDA:103162,_ZNK5neml212VariableBase11intmd_sizesEv
FNDA:0,_ZNK5neml212VariableBase4sizeEl
FNDA:0,_ZNK5neml212VariableBase10batch_sizeEl
FNDA:0,_ZNK5neml212VariableBase9base_sizeEl
FNDA:0,_ZNK5neml212VariableBase12dynamic_sizeEl
FNDA:0,_ZNK5neml212VariableBase11static_sizeEl
FNDA:8,_ZNK5neml212VariableBase10intmd_sizeEl
FNDA:0,_ZN5neml212VariableBase15set_intmd_sizesEN3c108ArrayRefIlEE
FNDA:570,_ZNK5neml212VariableBase14dep_intmd_dimsEv
FNDA:145,_ZNK5neml212VariableBase5zerosERKN3c1013TensorOptionsE
FNDA:0,_ZNK5neml212VariableBase13requires_gradEv
FNDA:897,_ZNK5neml212VariableBase14has_derivativeERKNS_19LabeledAxisAccessorE
FNDA:1918,_ZZNK5neml212VariableBase14has_derivativeERKNS_19LabeledAxisAccessorEENKUlRKNS_10DerivativeILm1EEEE_clES7_
FNDA:33,_ZNK5neml212VariableBase14has_derivativeERKNS_19LabeledAxisAccessorES3_
FNDA:93,_ZZNK5neml212VariableBase14has_derivativeERKNS_19LabeledAxisAccessorES3_ENKUlRKNS_10DerivativeILm2EEEE_clES7_
FNDA:12345,_ZN5neml2L14get_derivativeILm1EEERNS_10DerivativeIXT_EEERSt6vectorIS2_SaIS2_EERKSt5arrayIPKNS_12VariableBaseEXplT_Li1EEEN3c108ArrayRefIlEE
FNDA:817,_ZN5neml2L14get_derivativeILm2EEERNS_10DerivativeIXT_EEERSt6vectorIS2_SaIS2_EERKSt5arrayIPKNS_12VariableBaseEXplT_Li1EEEN3c108ArrayRefIlEE
FNDA:12345,_ZN5neml212VariableBase1dERKS0_N3c108ArrayRefIlEE
FNDA:30,_ZNK5neml212VariableBase1dERKS0_
FNDA:817,_ZN5neml212VariableBase2d2ERKS0_S2_N3c108ArrayRefIlEE
FNDA:16,_ZNK5neml212VariableBase2d2ERKS0_S2_
FNDA:0,_ZN5neml212VariableBase10request_ADERKS0_
FNDA:4,_ZN5neml212VariableBase10request_ADERKSt6vectorIPKS0_SaIS3_EE
FNDA:0,_ZN5neml212VariableBase10request_ADERKS0_S2_
FNDA:3,_ZN5neml212VariableBase10request_ADERKSt6vectorIPKS0_SaIS3_EES7_
FNDA:7430,_ZN5neml212VariableBase5clearEv
FNDA:10665,_ZN5neml212VariableBase17clear_derivativesEv
FNDA:114,_ZN5neml212VariableBase16apply_chain_ruleERKNS_18DependencyResolverINS_5ModelENS_19LabeledAxisAccessorEEE
FNDA:22,_ZN5neml212VariableBase29apply_second_order_chain_ruleERKNS_18DependencyResolverINS_5ModelENS_19LabeledAxisAccessorEEE
FNDA:1776,_ZN5neml212VariableBaseC2ENS_19LabeledAxisAccessorEPNS_5ModelEN3c108ArrayRefIlEES6_
FNDA:1561,_ZN5neml2L13assign_or_addERNS_6TensorERKS0_
FNDA:648,_ZNK5neml212VariableBase17total_derivativesERKNS_18DependencyResolverINS_5ModelENS_19LabeledAxisAccessorEEEPS2_RKS0_
FNDA:62,_ZNK5neml212VariableBase24total_second_derivativesERKNS_18DependencyResolverINS_5ModelENS_19LabeledAxisAccessorEEEPS2_RKS0_
FNDA:9018,_ZNK5neml212VariableBase5ownerEv
FNDA:6918,_ZN5neml212VariableBase5ownerEv
FNDA:1167,_ZNK5neml212VariableBase8is_stateEv
FNDA:253,_ZNK5neml212VariableBase12is_old_stateEv
FNDA:171,_ZNK5neml212VariableBase8is_forceEv
FNDA:48,_ZNK5neml212VariableBase12is_old_forceEv
FNDA:160,_ZNK5neml212VariableBase11is_residualEv
FNDA:109,_ZNK5neml212VariableBase12is_parameterEv
FNF:53
FNH:37
DA:39,1776
DA:42,1776
DA:43,1776
DA:44,1776
DA:45,1776
DA:46,5328
DA:48,1776
DA:51,9018
DA:53,9018
DA:54,9018
DA:58,6918
DA:60,6918
DA:61,6918
DA:65,1167
DA:67,1167
DA:71,253
DA:73,253
DA:77,171
DA:79,171
DA:83,48
DA:85,48
DA:89,160
DA:91,160
DA:95,109
DA:97,109
DA:101,673
DA:103,673
DA:107,1955
DA:109,1955
DA:113,0
DA:115,0
DA:119,0
DA:121,0
DA:125,0
DA:127,0
DA:131,26914
DA:133,26914
DA:137,0
DA:139,0
DA:143,64
DA:145,64
DA:149,0
DA:151,0
DA:155,0
DA:157,0
DA:161,88463
DA:163,88463
DA:167,0
DA:169,0
DA:173,103162
DA:175,103162
DA:179,0
DA:181,0
DA:182,0
DA:183,0
DA:184,0
DA:185,0
DA:186,0
DA:190,0
DA:192,0
DA:193,0
DA:194,0
DA:195,0
DA:199,0
DA:201,0
DA:202,0
DA:206,0
DA:208,0
DA:209,0
DA:213,0
DA:215,0
DA:216,0
DA:217,0
DA:218,0
DA:222,8
DA:224,8
DA:225,8
DA:229,0
DA:231,0
DA:232,0
DA:233,0
DA:234,0
DA:237,570
DA:239,570
DA:243,145
DA:245,145
DA:249,0
DA:251,0
DA:255,897
DA:257,897
DA:259,2815
DA:263,33
DA:265,33
DA:267,93
DA:268,126
DA:273,13162
DA:277,13162
DA:278,13162
DA:279,13162
DA:280,1780
DA:281,11382
DA:282,11382
DA:283,13162
DA:286,12345
DA:288,12345
DA:292,30
DA:294,48
DA:295,48
DA:296,30
DA:297,0
DA:298,0
DA:302,817
DA:304,817
DA:308,16
DA:310,25
DA:311,25
DA:312,16
DA:313,0
DA:314,0
DA:318,0
DA:320,0
DA:321,0
DA:324,4
DA:326,18
DA:328,14
DA:329,14
DA:331,4
DA:334,0
DA:336,0
DA:337,0
DA:340,3
DA:343,15
DA:344,60
DA:346,48
DA:347,48
DA:348,48
DA:350,3
DA:353,7430
DA:355,7430
DA:356,7430
DA:357,7430
DA:360,10665
DA:362,10665
DA:363,10665
DA:364,10665
DA:367,114
DA:369,153
DA:370,153
DA:372,114
DA:373,114
DA:374,475
DA:375,361
DA:376,114
DA:377,114
DA:381,22
DA:383,22
DA:384,22
DA:386,22
DA:387,22
DA:388,67
DA:389,161
DA:390,116
DA:391,22
DA:392,22
DA:396,1561
DA:398,1561
DA:399,124
DA:401,1437
DA:402,1561
DA:405,648
DA:409,648
DA:411,1681
DA:413,1033
DA:414,1033
DA:415,614
DA:417,838
DA:418,1211
DA:419,1630
DA:420,1211
DA:423,648
DA:424,0
DA:427,62
DA:431,62
DA:433,164
DA:435,102
DA:436,102
DA:437,252
DA:438,150
DA:439,29
DA:440,73
DA:441,38
DA:442,38
DA:443,57
DA:444,19
DA:445,95
DA:446,54
DA:447,36
DA:448,36
DA:449,54
DA:450,18
DA:451,90
DA:453,72
DA:454,78
DA:455,114
DA:456,84
DA:457,96
DA:458,138
DA:459,54
DA:460,348
DA:463,156
DA:465,94
DA:466,94
DA:467,80
DA:468,63
DA:469,103
DA:470,58
DA:471,35
DA:472,180
DA:475,62
DA:476,126
LF:220
LH:165
end_of_record
TN:
SF:/home/runner/work/neml2/neml2/src/neml2/models/VariableRate.cxx
FN:36,53,_ZN5neml212VariableRateINS_3SR2EE16expected_optionsEv
FN:36,53,_ZN5neml212VariableRateINS_3VecEE16expected_optionsEv
FN:36,53,_ZN5neml212VariableRateINS_6ScalarEE16expected_optionsEv
FN:56,66,_ZN5neml212VariableRateINS_3SR2EEC2ERKNS_9OptionSetE
FN:56,66,_ZN5neml212VariableRateINS_3VecEEC2ERKNS_9OptionSetE
FN:56,66,_ZN5neml212VariableRateINS_6ScalarEEC2ERKNS_9OptionSetE
FN:70,74,_ZNK5neml212VariableRateINS_3SR2EE8diagnoseEv
FN:70,74,_ZNK5neml212VariableRateINS_3VecEE8diagnoseEv
FN:70,74,_ZNK5neml212VariableRateINS_6ScalarEE8diagnoseEv
FN:78,102,_ZN5neml212VariableRateINS_3SR2EE9set_valueEbbb
FN:78,102,_ZN5neml212VariableRateINS_3VecEE9set_valueEbbb
FN:78,102,_ZN5neml212VariableRateINS_6ScalarEE9set_valueEbbb
FNDA:2,_ZN5neml212VariableRateINS_3SR2EE16expected_optionsEv
FNDA:2,_ZN5neml212VariableRateINS_3VecEE16expected_optionsEv
FNDA:2,_ZN5neml212VariableRateINS_6ScalarEE16expected_optionsEv
FNDA:6,_ZN5neml212VariableRateINS_3SR2EEC2ERKNS_9OptionSetE
FNDA:0,_ZN5neml212VariableRateINS_3VecEEC2ERKNS_9OptionSetE
FNDA:2,_ZN5neml212VariableRateINS_6ScalarEEC2ERKNS_9OptionSetE
FNDA:6,_ZNK5neml212VariableRateINS_3SR2EE8diagnoseEv
FNDA:0,_ZNK5neml212VariableRateINS_3VecEE8diagnoseEv
FNDA:0,_ZNK5neml212VariableRateINS_6ScalarEE8diagnoseEv
FNDA:24,_ZN5neml212VariableRateINS_3SR2EE9set_valueEbbb
FNDA:0,_ZN5neml212VariableRateINS_3VecEE9set_valueEbbb
FNDA:4,_ZN5neml212VariableRateINS_6ScalarEE9set_valueEbbb
FNF:12
FNH:8
DA:36,6
DA:38,6
DA:39,6
DA:43,12
DA:44,12
DA:46,12
DA:47,6
DA:49,18
DA:50,6
DA:52,6
DA:53,0
DA:56,8
DA:58,8
DA:59,8
DA:60,8
DA:61,8
DA:62,16
DA:63,18
DA:64,16
DA:66,8
DA:70,6
DA:72,6
DA:73,6
DA:74,6
DA:78,28
DA:80,28
DA:81,28
DA:83,28
DA:84,28
DA:86,28
DA:88,11
DA:90,11
DA:91,5
DA:93,11
DA:94,2
DA:96,11
DA:97,9
DA:99,2
DA:100,2
DA:101,11
DA:102,37
LF:41
LH:40
end_of_record
TN:
SF:/home/runner/work/neml2/neml2/src/neml2/models/VariableStore.cxx
FN:102,111,_ZN5neml213VariableStore22declare_input_variableINS_10QuaternionEEERKNS_8VariableIT_EEPKcN3c108ArrayRefIlEEb
FN:102,111,_ZN5neml213VariableStore22declare_input_variableINS_11MillerIndexEEERKNS_8VariableIT_EEPKcN3c108ArrayRefIlEEb
FN:102,111,_ZN5neml213VariableStore22declare_input_variableINS_2R2EEERKNS_8VariableIT_EEPKcN3c108ArrayRefIlEEb
FN:102,111,_ZN5neml213VariableStore22declare_input_variableINS_2R3EEERKNS_8VariableIT_EEPKcN3c108ArrayRefIlEEb
FN:102,111,_ZN5neml213VariableStore22declare_input_variableINS_2R4EEERKNS_8VariableIT_EEPKcN3c108ArrayRefIlEEb
FN:102,111,_ZN5neml213VariableStore22declare_input_variableINS_3RotEEERKNS_8VariableIT_EEPKcN3c108ArrayRefIlEEb
FN:102,111,_ZN5neml213VariableStore22declare_input_variableINS_3SR2EEERKNS_8VariableIT_EEPKcN3c108ArrayRefIlEEb
FN:102,111,_ZN5neml213VariableStore22declare_input_variableINS_3VecEEERKNS_8VariableIT_EEPKcN3c108ArrayRefIlEEb
FN:102,111,_ZN5neml213VariableStore22declare_input_variableINS_3WR2EEERKNS_8VariableIT_EEPKcN3c108ArrayRefIlEEb
FN:102,111,_ZN5neml213VariableStore22declare_input_variableINS_4SFR3EEERKNS_8VariableIT_EEPKcN3c108ArrayRefIlEEb
FN:102,111,_ZN5neml213VariableStore22declare_input_variableINS_4SSR4EEERKNS_8VariableIT_EEPKcN3c108ArrayRefIlEEb
FN:102,111,_ZN5neml213VariableStore22declare_input_variableINS_4SWR4EEERKNS_8VariableIT_EEPKcN3c108ArrayRefIlEEb
FN:102,111,_ZN5neml213VariableStore22declare_input_variableINS_4WSR4EEERKNS_8VariableIT_EEPKcN3c108ArrayRefIlEEb
FN:102,111,_ZN5neml213VariableStore22declare_input_variableINS_4WWR4EEERKNS_8VariableIT_EEPKcN3c108ArrayRefIlEEb
FN:102,111,_ZN5neml213VariableStore22declare_input_variableINS_5SFFR4EEERKNS_8VariableIT_EEPKcN3c108ArrayRefIlEEb
FN:102,111,_ZN5neml213VariableStore22declare_input_variableINS_5WFFR4EEERKNS_8VariableIT_EEPKcN3c108ArrayRefIlEEb
FN:102,111,_ZN5neml213VariableStore22declare_input_variableINS_6ScalarEEERKNS_8VariableIT_EEPKcN3c108ArrayRefIlEEb
FN:115,122,_ZN5neml213VariableStore22declare_input_variableINS_10QuaternionEEERKNS_8VariableIT_EERKNS_19LabeledAxisAccessorEN3c108ArrayRefIlEEb
FN:115,122,_ZN5neml213VariableStore22declare_input_variableINS_11MillerIndexEEERKNS_8VariableIT_EERKNS_19LabeledAxisAccessorEN3c108ArrayRefIlEEb
FN:115,122,_ZN5neml213VariableStore22declare_input_variableINS_2R2EEERKNS_8VariableIT_EERKNS_19LabeledAxisAccessorEN3c108ArrayRefIlEEb
FN:115,122,_ZN5neml213VariableStore22declare_input_variableINS_2R3EEERKNS_8VariableIT_EERKNS_19LabeledAxisAccessorEN3c108ArrayRefIlEEb
FN:115,122,_ZN5neml213VariableStore22declare_input_variableINS_2R4EEERKNS_8VariableIT_EERKNS_19LabeledAxisAccessorEN3c108ArrayRefIlEEb
FN:115,122,_ZN5neml213VariableStore22declare_input_variableINS_3RotEEERKNS_8VariableIT_EERKNS_19LabeledAxisAccessorEN3c108ArrayRefIlEEb
FN:115,122,_ZN5neml213VariableStore22declare_input_variableINS_3SR2EEERKNS_8VariableIT_EERKNS_19LabeledAxisAccessorEN3c108ArrayRefIlEEb
FN:115,122,_ZN5neml213VariableStore22declare_input_variableINS_3VecEEERKNS_8VariableIT_EERKNS_19LabeledAxisAccessorEN3c108ArrayRefIlEEb
FN:115,122,_ZN5neml213VariableStore22declare_input_variableINS_3WR2EEERKNS_8VariableIT_EERKNS_19LabeledAxisAccessorEN3c108ArrayRefIlEEb
FN:115,122,_ZN5neml213VariableStore22declare_input_variableINS_4SFR3EEERKNS_8VariableIT_EERKNS_19LabeledAxisAccessorEN3c108ArrayRefIlEEb
FN:115,122,_ZN5neml213VariableStore22declare_input_variableINS_4SSR4EEERKNS_8VariableIT_EERKNS_19LabeledAxisAccessorEN3c108ArrayRefIlEEb
FN:115,122,_ZN5neml213VariableStore22declare_input_variableINS_4SWR4EEERKNS_8VariableIT_EERKNS_19LabeledAxisAccessorEN3c108ArrayRefIlEEb
FN:115,122,_ZN5neml213VariableStore22declare_input_variableINS_4WSR4EEERKNS_8VariableIT_EERKNS_19LabeledAxisAccessorEN3c108ArrayRefIlEEb
FN:115,122,_ZN5neml213VariableStore22declare_input_variableINS_4WWR4EEERKNS_8VariableIT_EERKNS_19LabeledAxisAccessorEN3c108ArrayRefIlEEb
FN:115,122,_ZN5neml213VariableStore22declare_input_variableINS_5SFFR4EEERKNS_8VariableIT_EERKNS_19LabeledAxisAccessorEN3c108ArrayRefIlEEb
FN:115,122,_ZN5neml213VariableStore22declare_input_variableINS_5WFFR4EEERKNS_8VariableIT_EERKNS_19LabeledAxisAccessorEN3c108ArrayRefIlEEb
FN:115,122,_ZN5neml213VariableStore22declare_input_variableINS_6ScalarEEERKNS_8VariableIT_EERKNS_19LabeledAxisAccessorEN3c108ArrayRefIlEEb
FN:132,139,_ZN5neml213VariableStore23declare_output_variableINS_10QuaternionEEERNS_8VariableIT_EEPKcN3c108ArrayRefIlEE
FN:132,139,_ZN5neml213VariableStore23declare_output_variableINS_11MillerIndexEEERNS_8VariableIT_EEPKcN3c108ArrayRefIlEE
FN:132,139,_ZN5neml213VariableStore23declare_output_variableINS_2R2EEERNS_8VariableIT_EEPKcN3c108ArrayRefIlEE
FN:132,139,_ZN5neml213VariableStore23declare_output_variableINS_2R3EEERNS_8VariableIT_EEPKcN3c108ArrayRefIlEE
FN:132,139,_ZN5neml213VariableStore23declare_output_variableINS_2R4EEERNS_8VariableIT_EEPKcN3c108ArrayRefIlEE
FN:132,139,_ZN5neml213VariableStore23declare_output_variableINS_3RotEEERNS_8VariableIT_EEPKcN3c108ArrayRefIlEE
FN:132,139,_ZN5neml213VariableStore23declare_output_variableINS_3SR2EEERNS_8VariableIT_EEPKcN3c108ArrayRefIlEE
FN:132,139,_ZN5neml213VariableStore23declare_output_variableINS_3VecEEERNS_8VariableIT_EEPKcN3c108ArrayRefIlEE
FN:132,139,_ZN5neml213VariableStore23declare_output_variableINS_3WR2EEERNS_8VariableIT_EEPKcN3c108ArrayRefIlEE
FN:132,139,_ZN5neml213VariableStore23declare_output_variableINS_4SFR3EEERNS_8VariableIT_EEPKcN3c108ArrayRefIlEE
FN:132,139,_ZN5neml213VariableStore23declare_output_variableINS_4SSR4EEERNS_8VariableIT_EEPKcN3c108ArrayRefIlEE
FN:132,139,_ZN5neml213VariableStore23declare_output_variableINS_4SWR4EEERNS_8VariableIT_EEPKcN3c108ArrayRefIlEE
FN:132,139,_ZN5neml213VariableStore23declare_output_variableINS_4WSR4EEERNS_8VariableIT_EEPKcN3c108ArrayRefIlEE
FN:132,139,_ZN5neml213VariableStore23declare_output_variableINS_4WWR4EEERNS_8VariableIT_EEPKcN3c108ArrayRefIlEE
FN:132,139,_ZN5neml213VariableStore23declare_output_variableINS_5SFFR4EEERNS_8VariableIT_EEPKcN3c108ArrayRefIlEE
FN:132,139,_ZN5neml213VariableStore23declare_output_variableINS_5WFFR4EEERNS_8VariableIT_EEPKcN3c108ArrayRefIlEE
FN:132,139,_ZN5neml213VariableStore23declare_output_variableINS_6ScalarEEERNS_8VariableIT_EEPKcN3c108ArrayRefIlEE
FN:143,147,_ZN5neml213VariableStore23declare_output_variableINS_10QuaternionEEERNS_8VariableIT_EERKNS_19LabeledAxisAccessorEN3c108ArrayRefIlEE
FN:143,147,_ZN5neml213VariableStore23declare_output_variableINS_11MillerIndexEEERNS_8VariableIT_EERKNS_19LabeledAxisAccessorEN3c108ArrayRefIlEE
FN:143,147,_ZN5neml213VariableStore23declare_output_variableINS_2R2EEERNS_8VariableIT_EERKNS_19LabeledAxisAccessorEN3c108ArrayRefIlEE
FN:143,147,_ZN5neml213VariableStore23declare_output_variableINS_2R3EEERNS_8VariableIT_EERKNS_19LabeledAxisAccessorEN3c108ArrayRefIlEE
FN:143,147,_ZN5neml213VariableStore23declare_output_variableINS_2R4EEERNS_8VariableIT_EERKNS_19LabeledAxisAccessorEN3c108ArrayRefIlEE
FN:143,147,_ZN5neml213VariableStore23declare_output_variableINS_3RotEEERNS_8VariableIT_EERKNS_19LabeledAxisAccessorEN3c108ArrayRefIlEE
FN:143,147,_ZN5neml213VariableStore23declare_output_variableINS_3SR2EEERNS_8VariableIT_EERKNS_19LabeledAxisAccessorEN3c108ArrayRefIlEE
FN:143,147,_ZN5neml213VariableStore23declare_output_variableINS_3VecEEERNS_8VariableIT_EERKNS_19LabeledAxisAccessorEN3c108ArrayRefIlEE
FN:143,147,_ZN5neml213VariableStore23declare_output_variableINS_3WR2EEERNS_8VariableIT_EERKNS_19LabeledAxisAccessorEN3c108ArrayRefIlEE
FN:143,147,_ZN5neml213VariableStore23declare_output_variableINS_4SFR3EEERNS_8VariableIT_EERKNS_19LabeledAxisAccessorEN3c108ArrayRefIlEE
FN:143,147,_ZN5neml213VariableStore23declare_output_variableINS_4SSR4EEERNS_8VariableIT_EERKNS_19LabeledAxisAccessorEN3c108ArrayRefIlEE
FN:143,147,_ZN5neml213VariableStore23declare_output_variableINS_4SWR4EEERNS_8VariableIT_EERKNS_19LabeledAxisAccessorEN3c108ArrayRefIlEE
FN:143,147,_ZN5neml213VariableStore23declare_output_variableINS_4WSR4EEERNS_8VariableIT_EERKNS_19LabeledAxisAccessorEN3c108ArrayRefIlEE
FN:143,147,_ZN5neml213VariableStore23declare_output_variableINS_4WWR4EEERNS_8VariableIT_EERKNS_19LabeledAxisAccessorEN3c108ArrayRefIlEE
FN:143,147,_ZN5neml213VariableStore23declare_output_variableINS_5SFFR4EEERNS_8VariableIT_EERKNS_19LabeledAxisAccessorEN3c108ArrayRefIlEE
FN:143,147,_ZN5neml213VariableStore23declare_output_variableINS_5WFFR4EEERNS_8VariableIT_EERKNS_19LabeledAxisAccessorEN3c108ArrayRefIlEE
FN:143,147,_ZN5neml213VariableStore23declare_output_variableINS_6ScalarEEERNS_8VariableIT_EERKNS_19LabeledAxisAccessorEN3c108ArrayRefIlEE
FN:155,167,_ZN5neml213VariableStore20clone_input_variableERKNS_12VariableBaseERKNS_19LabeledAxisAccessorE
FN:170,182,_ZN5neml213VariableStore21clone_output_variableERKNS_12VariableBaseERKNS_19LabeledAxisAccessorE
FN:186,218,_ZN5neml213VariableStore15create_variableINS_10QuaternionEEEPNS_8VariableIT_EERSt3mapINS_19LabeledAxisAccessorESt10unique_ptrINS_12VariableBaseESt14default_deleteISA_EESt4lessIS8_ESaISt4pairIKS8_SD_EEERSH_N3c108ArrayRefIlEEb
FN:186,218,_ZN5neml213VariableStore15create_variableINS_11MillerIndexEEEPNS_8VariableIT_EERSt3mapINS_19LabeledAxisAccessorESt10unique_ptrINS_12VariableBaseESt14default_deleteISA_EESt4lessIS8_ESaISt4pairIKS8_SD_EEERSH_N3c108ArrayRefIlEEb
FN:186,218,_ZN5neml213VariableStore15create_variableINS_2R2EEEPNS_8VariableIT_EERSt3mapINS_19LabeledAxisAccessorESt10unique_ptrINS_12VariableBaseESt14default_deleteISA_EESt4lessIS8_ESaISt4pairIKS8_SD_EEERSH_N3c108ArrayRefIlEEb
FN:186,218,_ZN5neml213VariableStore15create_variableINS_2R3EEEPNS_8VariableIT_EERSt3mapINS_19LabeledAxisAccessorESt10unique_ptrINS_12VariableBaseESt14default_deleteISA_EESt4lessIS8_ESaISt4pairIKS8_SD_EEERSH_N3c108ArrayRefIlEEb
FN:186,218,_ZN5neml213VariableStore15create_variableINS_2R4EEEPNS_8VariableIT_EERSt3mapINS_19LabeledAxisAccessorESt10unique_ptrINS_12VariableBaseESt14default_deleteISA_EESt4lessIS8_ESaISt4pairIKS8_SD_EEERSH_N3c108ArrayRefIlEEb
FN:186,218,_ZN5neml213VariableStore15create_variableINS_3RotEEEPNS_8VariableIT_EERSt3mapINS_19LabeledAxisAccessorESt10unique_ptrINS_12VariableBaseESt14default_deleteISA_EESt4lessIS8_ESaISt4pairIKS8_SD_EEERSH_N3c108ArrayRefIlEEb
FN:186,218,_ZN5neml213VariableStore15create_variableINS_3SR2EEEPNS_8VariableIT_EERSt3mapINS_19LabeledAxisAccessorESt10unique_ptrINS_12VariableBaseESt14default_deleteISA_EESt4lessIS8_ESaISt4pairIKS8_SD_EEERSH_N3c108ArrayRefIlEEb
FN:186,218,_ZN5neml213VariableStore15create_variableINS_3VecEEEPNS_8VariableIT_EERSt3mapINS_19LabeledAxisAccessorESt10unique_ptrINS_12VariableBaseESt14default_deleteISA_EESt4lessIS8_ESaISt4pairIKS8_SD_EEERSH_N3c108ArrayRefIlEEb
FN:186,218,_ZN5neml213VariableStore15create_variableINS_3WR2EEEPNS_8VariableIT_EERSt3mapINS_19LabeledAxisAccessorESt10unique_ptrINS_12VariableBaseESt14default_deleteISA_EESt4lessIS8_ESaISt4pairIKS8_SD_EEERSH_N3c108ArrayRefIlEEb
FN:186,218,_ZN5neml213VariableStore15create_variableINS_4SFR3EEEPNS_8VariableIT_EERSt3mapINS_19LabeledAxisAccessorESt10unique_ptrINS_12VariableBaseESt14default_deleteISA_EESt4lessIS8_ESaISt4pairIKS8_SD_EEERSH_N3c108ArrayRefIlEEb
FN:186,218,_ZN5neml213VariableStore15create_variableINS_4SSR4EEEPNS_8VariableIT_EERSt3mapINS_19LabeledAxisAccessorESt10unique_ptrINS_12VariableBaseESt14default_deleteISA_EESt4lessIS8_ESaISt4pairIKS8_SD_EEERSH_N3c108ArrayRefIlEEb
FN:186,218,_ZN5neml213VariableStore15create_variableINS_4SWR4EEEPNS_8VariableIT_EERSt3mapINS_19LabeledAxisAccessorESt10unique_ptrINS_12VariableBaseESt14default_deleteISA_EESt4lessIS8_ESaISt4pairIKS8_SD_EEERSH_N3c108ArrayRefIlEEb
FN:186,218,_ZN5neml213VariableStore15create_variableINS_4WSR4EEEPNS_8VariableIT_EERSt3mapINS_19LabeledAxisAccessorESt10unique_ptrINS_12VariableBaseESt14default_deleteISA_EESt4lessIS8_ESaISt4pairIKS8_SD_EEERSH_N3c108ArrayRefIlEEb
FN:186,218,_ZN5neml213VariableStore15create_variableINS_4WWR4EEEPNS_8VariableIT_EERSt3mapINS_19LabeledAxisAccessorESt10unique_ptrINS_12VariableBaseESt14default_deleteISA_EESt4lessIS8_ESaISt4pairIKS8_SD_EEERSH_N3c108ArrayRefIlEEb
FN:186,218,_ZN5neml213VariableStore15create_variableINS_5SFFR4EEEPNS_8VariableIT_EERSt3mapINS_19LabeledAxisAccessorESt10unique_ptrINS_12VariableBaseESt14default_deleteISA_EESt4lessIS8_ESaISt4pairIKS8_SD_EEERSH_N3c108ArrayRefIlEEb
FN:186,218,_ZN5neml213VariableStore15create_variableINS_5WFFR4EEEPNS_8VariableIT_EERSt3mapINS_19LabeledAxisAccessorESt10unique_ptrINS_12VariableBaseESt14default_deleteISA_EESt4lessIS8_ESaISt4pairIKS8_SD_EEERSH_N3c108ArrayRefIlEEb
FN:186,218,_ZN5neml213VariableStore15create_variableINS_6ScalarEEEPNS_8VariableIT_EERSt3mapINS_19LabeledAxisAccessorESt10unique_ptrINS_12VariableBaseESt14default_deleteISA_EESt4lessIS8_ESaISt4pairIKS8_SD_EEERSH_N3c108ArrayRefIlEEb
FN:225,234,_ZN5neml213VariableStore14input_variableERKNS_19LabeledAxisAccessorE
FN:237,241,_ZNK5neml213VariableStore14input_variableERKNS_19LabeledAxisAccessorE
FN:244,253,_ZN5neml213VariableStore15output_variableERKNS_19LabeledAxisAccessorE
FN:256,260,_ZNK5neml213VariableStore15output_variableERKNS_19LabeledAxisAccessorE
FN:263,266,_ZN5neml213VariableStore17send_variables_toERKN3c1013TensorOptionsE
FN:269,274,_ZN5neml213VariableStore11clear_inputEv
FN:277,282,_ZN5neml213VariableStore12clear_outputEv
FN:285,289,_ZN5neml213VariableStore17clear_derivativesEv
FN:292,297,_ZN5neml213VariableStore20zero_undefined_inputEv
FN:300,312,_ZN5neml213VariableStore25cache_derivative_sparsityEv
FN:315,326,_ZN5neml213VariableStore32cache_second_derivative_sparsityEv
FN:329,334,_ZNK5neml213VariableStore19derivative_sparsityEv
FN:337,342,_ZNK5neml213VariableStore26second_derivative_sparsityEv
FN:345,352,_ZN5neml213VariableStore12assign_inputERKSt3mapINS_19LabeledAxisAccessorENS_6TensorESt4lessIS2_ESaISt4pairIKS2_S3_EEEb
FN:355,362,_ZN5neml213VariableStore13assign_outputERKSt3mapINS_19LabeledAxisAccessorENS_6TensorESt4lessIS2_ESaISt4pairIKS2_S3_EEEb
FN:365,380,_ZN5neml213VariableStore25assign_output_derivativesERKSt3mapINS_19LabeledAxisAccessorES1_IS2_NS_6TensorESt4lessIS2_ESaISt4pairIKS2_S3_EEES5_SaIS6_IS7_SA_EEEb
FN:383,396,_ZN5neml213VariableStore18assign_input_stackERSt6vectorIN3c106IValueESaIS3_EE
FN:39,45,_ZN5neml213VariableStoreC2EPNS_5ModelE
FN:399,433,_ZN5neml213VariableStore19assign_output_stackERSt6vectorIN3c106IValueESaIS3_EEbbb
FN:436,442,_ZNK5neml213VariableStore13collect_inputEb
FN:445,451,_ZNK5neml213VariableStore14collect_outputEb
FN:454,461,_ZNK5neml213VariableStore26collect_output_derivativesEb
FN:464,472,_ZNK5neml213VariableStore33collect_output_second_derivativesEb
FN:475,481,_ZNK5neml213VariableStore19collect_input_stackEv
FN:48,58,_ZN5neml213VariableStore12declare_axisERKNSt7__cxx1112basic_stringIcSt11char_traitsIcESaIcEEE
FN:484,501,_ZNK5neml213VariableStore20collect_output_stackEbbb
FN:504,512,_ZN5neml213VariableStore21set_input_intmd_sizesERKNS_19LabeledAxisAccessorEN3c108ArrayRefIlEE
FN:515,523,_ZN5neml213VariableStore22set_output_intmd_sizesERKNS_19LabeledAxisAccessorEN3c108ArrayRefIlEE
FN:61,72,_ZN5neml213VariableStore10input_axisEv
FN:75,78,_ZNK5neml213VariableStore10input_axisEv
FN:81,92,_ZN5neml213VariableStore11output_axisEv
FN:95,98,_ZNK5neml213VariableStore11output_axisEv
FNDA:0,_ZN5neml213VariableStore22declare_input_variableINS_10QuaternionEEERKNS_8VariableIT_EEPKcN3c108ArrayRefIlEEb
FNDA:0,_ZN5neml213VariableStore22declare_input_variableINS_11MillerIndexEEERKNS_8VariableIT_EEPKcN3c108ArrayRefIlEEb
FNDA:23,_ZN5neml213VariableStore22declare_input_variableINS_2R2EEERKNS_8VariableIT_EEPKcN3c108ArrayRefIlEEb
FNDA:0,_ZN5neml213VariableStore22declare_input_variableINS_2R3EEERKNS_8VariableIT_EEPKcN3c108ArrayRefIlEEb
FNDA:0,_ZN5neml213VariableStore22declare_input_variableINS_2R4EEERKNS_8VariableIT_EEPKcN3c108ArrayRefIlEEb
FNDA:13,_ZN5neml213VariableStore22declare_input_variableINS_3RotEEERKNS_8VariableIT_EEPKcN3c108ArrayRefIlEEb
FNDA:103,_ZN5neml213VariableStore22declare_input_variableINS_3SR2EEERKNS_8VariableIT_EEPKcN3c108ArrayRefIlEEb
FNDA:1,_ZN5neml213VariableStore22declare_input_variableINS_3VecEEERKNS_8VariableIT_EEPKcN3c108ArrayRefIlEEb
FNDA:6,_ZN5neml213VariableStore22declare_input_variableINS_3WR2EEERKNS_8VariableIT_EEPKcN3c108ArrayRefIlEEb
FNDA:0,_ZN5neml213VariableStore22declare_input_variableINS_4SFR3EEERKNS_8VariableIT_EEPKcN3c108ArrayRefIlEEb
FNDA:2,_ZN5neml213VariableStore22declare_input_variableINS_4SSR4EEERKNS_8VariableIT_EEPKcN3c108ArrayRefIlEEb
FNDA:0,_ZN5neml213VariableStore22declare_input_variableINS_4SWR4EEERKNS_8VariableIT_EEPKcN3c108ArrayRefIlEEb
FNDA:0,_ZN5neml213VariableStore22declare_input_variableINS_4WSR4EEERKNS_8VariableIT_EEPKcN3c108ArrayRefIlEEb
FNDA:0,_ZN5neml213VariableStore22declare_input_variableINS_4WWR4EEERKNS_8VariableIT_EEPKcN3c108ArrayRefIlEEb
FNDA:0,_ZN5neml213VariableStore22declare_input_variableINS_5SFFR4EEERKNS_8VariableIT_EEPKcN3c108ArrayRefIlEEb
FNDA:0,_ZN5neml213VariableStore22declare_input_variableINS_5WFFR4EEERKNS_8VariableIT_EEPKcN3c108ArrayRefIlEEb
FNDA:318,_ZN5neml213VariableStore22declare_input_variableINS_6ScalarEEERKNS_8VariableIT_EEPKcN3c108ArrayRefIlEEb
FNDA:0,_ZN5neml213VariableStore22declare_input_variableINS_10QuaternionEEERKNS_8VariableIT_EERKNS_19LabeledAxisAccessorEN3c108ArrayRefIlEEb
FNDA:0,_ZN5neml213VariableStore22declare_input_variableINS_11MillerIndexEEERKNS_8VariableIT_EERKNS_19LabeledAxisAccessorEN3c108ArrayRefIlEEb
FNDA:23,_ZN5neml213VariableStore22declare_input_variableINS_2R2EEERKNS_8VariableIT_EERKNS_19LabeledAxisAccessorEN3c108ArrayRefIlEEb
FNDA:0,_ZN5neml213VariableStore22declare_input_variableINS_2R3EEERKNS_8VariableIT_EERKNS_19LabeledAxisAccessorEN3c108ArrayRefIlEEb
FNDA:0,_ZN5neml213VariableStore22declare_input_variableINS_2R4EEERKNS_8VariableIT_EERKNS_19LabeledAxisAccessorEN3c108ArrayRefIlEEb
FNDA:16,_ZN5neml213VariableStore22declare_input_variableINS_3RotEEERKNS_8VariableIT_EERKNS_19LabeledAxisAccessorEN3c108ArrayRefIlEEb
FNDA:194,_ZN5neml213VariableStore22declare_input_variableINS_3SR2EEERKNS_8VariableIT_EERKNS_19LabeledAxisAccessorEN3c108ArrayRefIlEEb
FNDA:1,_ZN5neml213VariableStore22declare_input_variableINS_3VecEEERKNS_8VariableIT_EERKNS_19LabeledAxisAccessorEN3c108ArrayRefIlEEb
FNDA:9,_ZN5neml213VariableStore22declare_input_variableINS_3WR2EEERKNS_8VariableIT_EERKNS_19LabeledAxisAccessorEN3c108ArrayRefIlEEb
FNDA:0,_ZN5neml213VariableStore22declare_input_variableINS_4SFR3EEERKNS_8VariableIT_EERKNS_19LabeledAxisAccessorEN3c108ArrayRefIlEEb
FNDA:4,_ZN5neml213VariableStore22declare_input_variableINS_4SSR4EEERKNS_8VariableIT_EERKNS_19LabeledAxisAccessorEN3c108ArrayRefIlEEb
FNDA:0,_ZN5neml213VariableStore22declare_input_variableINS_4SWR4EEERKNS_8VariableIT_EERKNS_19LabeledAxisAccessorEN3c108ArrayRefIlEEb
FNDA:0,_ZN5neml213VariableStore22declare_input_variableINS_4WSR4EEERKNS_8VariableIT_EERKNS_19LabeledAxisAccessorEN3c108ArrayRefIlEEb
FNDA:0,_ZN5neml213VariableStore22declare_input_variableINS_4WWR4EEERKNS_8VariableIT_EERKNS_19LabeledAxisAccessorEN3c108ArrayRefIlEEb
FNDA:0,_ZN5neml213VariableStore22declare_input_variableINS_5SFFR4EEERKNS_8VariableIT_EERKNS_19LabeledAxisAccessorEN3c108ArrayRefIlEEb
FNDA:0,_ZN5neml213VariableStore22declare_input_variableINS_5WFFR4EEERKNS_8VariableIT_EERKNS_19LabeledAxisAccessorEN3c108ArrayRefIlEEb
FNDA:564,_ZN5neml213VariableStore22declare_input_variableINS_6ScalarEEERKNS_8VariableIT_EERKNS_19LabeledAxisAccessorEN3c108ArrayRefIlEEb
FNDA:0,_ZN5neml213VariableStore23declare_output_variableINS_10QuaternionEEERNS_8VariableIT_EEPKcN3c108ArrayRefIlEE
FNDA:0,_ZN5neml213VariableStore23declare_output_variableINS_11MillerIndexEEERNS_8VariableIT_EEPKcN3c108ArrayRefIlEE
FNDA:13,_ZN5neml213VariableStore23declare_output_variableINS_2R2EEERNS_8VariableIT_EEPKcN3c108ArrayRefIlEE
FNDA:0,_ZN5neml213VariableStore23declare_output_variableINS_2R3EEERNS_8VariableIT_EEPKcN3c108ArrayRefIlEE
FNDA:0,_ZN5neml213VariableStore23declare_output_variableINS_2R4EEERNS_8VariableIT_EEPKcN3c108ArrayRefIlEE
FNDA:2,_ZN5neml213VariableStore23declare_output_variableINS_3RotEEERNS_8VariableIT_EEPKcN3c108ArrayRefIlEE
FNDA:56,_ZN5neml213VariableStore23declare_output_variableINS_3SR2EEERNS_8VariableIT_EEPKcN3c108ArrayRefIlEE
FNDA:1,_ZN5neml213VariableStore23declare_output_variableINS_3VecEEERNS_8VariableIT_EEPKcN3c108ArrayRefIlEE
FNDA:5,_ZN5neml213VariableStore23declare_output_variableINS_3WR2EEERNS_8VariableIT_EEPKcN3c108ArrayRefIlEE
FNDA:0,_ZN5neml213VariableStore23declare_output_variableINS_4SFR3EEERNS_8VariableIT_EEPKcN3c108ArrayRefIlEE
FNDA:0,_ZN5neml213VariableStore23declare_output_variableINS_4SSR4EEERNS_8VariableIT_EEPKcN3c108ArrayRefIlEE
FNDA:0,_ZN5neml213VariableStore23declare_output_variableINS_4SWR4EEERNS_8VariableIT_EEPKcN3c108ArrayRefIlEE
FNDA:0,_ZN5neml213VariableStore23declare_output_variableINS_4WSR4EEERNS_8VariableIT_EEPKcN3c108ArrayRefIlEE
FNDA:0,_ZN5neml213VariableStore23declare_output_variableINS_4WWR4EEERNS_8VariableIT_EEPKcN3c108ArrayRefIlEE
FNDA:0,_ZN5neml213VariableStore23declare_output_variableINS_5SFFR4EEERNS_8VariableIT_EEPKcN3c108ArrayRefIlEE
FNDA:0,_ZN5neml213VariableStore23declare_output_variableINS_5WFFR4EEERNS_8VariableIT_EEPKcN3c108ArrayRefIlEE
FNDA:216,_ZN5neml213VariableStore23declare_output_variableINS_6ScalarEEERNS_8VariableIT_EEPKcN3c108ArrayRefIlEE
FNDA:0,_ZN5neml213VariableStore23declare_output_variableINS_10QuaternionEEERNS_8VariableIT_EERKNS_19LabeledAxisAccessorEN3c108ArrayRefIlEE
FNDA:0,_ZN5neml213VariableStore23declare_output_variableINS_11MillerIndexEEERNS_8VariableIT_EERKNS_19LabeledAxisAccessorEN3c108ArrayRefIlEE
FNDA:13,_ZN5neml213VariableStore23declare_output_variableINS_2R2EEERNS_8VariableIT_EERKNS_19LabeledAxisAccessorEN3c108ArrayRefIlEE
FNDA:0,_ZN5neml213VariableStore23declare_output_variableINS_2R3EEERNS_8VariableIT_EERKNS_19LabeledAxisAccessorEN3c108ArrayRefIlEE
FNDA:0,_ZN5neml213VariableStore23declare_output_variableINS_2R4EEERNS_8VariableIT_EERKNS_19LabeledAxisAccessorEN3c108ArrayRefIlEE
FNDA:4,_ZN5neml213VariableStore23declare_output_variableINS_3RotEEERNS_8VariableIT_EERKNS_19LabeledAxisAccessorEN3c108ArrayRefIlEE
FNDA:114,_ZN5neml213VariableStore23declare_output_variableINS_3SR2EEERNS_8VariableIT_EERKNS_19LabeledAxisAccessorEN3c108ArrayRefIlEE
FNDA:1,_ZN5neml213VariableStore23declare_output_variableINS_3VecEEERNS_8VariableIT_EERKNS_19LabeledAxisAccessorEN3c108ArrayRefIlEE
FNDA:5,_ZN5neml213VariableStore23declare_output_variableINS_3WR2EEERNS_8VariableIT_EERKNS_19LabeledAxisAccessorEN3c108ArrayRefIlEE
FNDA:0,_ZN5neml213VariableStore23declare_output_variableINS_4SFR3EEERNS_8VariableIT_EERKNS_19LabeledAxisAccessorEN3c108ArrayRefIlEE
FNDA:6,_ZN5neml213VariableStore23declare_output_variableINS_4SSR4EEERNS_8VariableIT_EERKNS_19LabeledAxisAccessorEN3c108ArrayRefIlEE
FNDA:0,_ZN5neml213VariableStore23declare_output_variableINS_4SWR4EEERNS_8VariableIT_EERKNS_19LabeledAxisAccessorEN3c108ArrayRefIlEE
FNDA:0,_ZN5neml213VariableStore23declare_output_variableINS_4WSR4EEERNS_8VariableIT_EERKNS_19LabeledAxisAccessorEN3c108ArrayRefIlEE
FNDA:0,_ZN5neml213VariableStore23declare_output_variableINS_4WWR4EEERNS_8VariableIT_EERKNS_19LabeledAxisAccessorEN3c108ArrayRefIlEE
FNDA:0,_ZN5neml213VariableStore23declare_output_variableINS_5SFFR4EEERNS_8VariableIT_EERKNS_19LabeledAxisAccessorEN3c108ArrayRefIlEE
FNDA:0,_ZN5neml213VariableStore23declare_output_variableINS_5WFFR4EEERNS_8VariableIT_EERKNS_19LabeledAxisAccessorEN3c108ArrayRefIlEE
FNDA:282,_ZN5neml213VariableStore23declare_output_variableINS_6ScalarEEERNS_8VariableIT_EERKNS_19LabeledAxisAccessorEN3c108ArrayRefIlEE
FNDA:408,_ZN5neml213VariableStore20clone_input_variableERKNS_12VariableBaseERKNS_19LabeledAxisAccessorE
FNDA:134,_ZN5neml213VariableStore21clone_output_variableERKNS_12VariableBaseERKNS_19LabeledAxisAccessorE
FNDA:0,_ZN5neml213VariableStore15create_variableINS_10QuaternionEEEPNS_8VariableIT_EERSt3mapINS_19LabeledAxisAccessorESt10unique_ptrINS_12VariableBaseESt14default_deleteISA_EESt4lessIS8_ESaISt4pairIKS8_SD_EEERSH_N3c108ArrayRefIlEEb
FNDA:0,_ZN5neml213VariableStore15create_variableINS_11MillerIndexEEEPNS_8VariableIT_EERSt3mapINS_19LabeledAxisAccessorESt10unique_ptrINS_12VariableBaseESt14default_deleteISA_EESt4lessIS8_ESaISt4pairIKS8_SD_EEERSH_N3c108ArrayRefIlEEb
FNDA:36,_ZN5neml213VariableStore15create_variableINS_2R2EEEPNS_8VariableIT_EERSt3mapINS_19LabeledAxisAccessorESt10unique_ptrINS_12VariableBaseESt14default_deleteISA_EESt4lessIS8_ESaISt4pairIKS8_SD_EEERSH_N3c108ArrayRefIlEEb
FNDA:0,_ZN5neml213VariableStore15create_variableINS_2R3EEEPNS_8VariableIT_EERSt3mapINS_19LabeledAxisAccessorESt10unique_ptrINS_12VariableBaseESt14default_deleteISA_EESt4lessIS8_ESaISt4pairIKS8_SD_EEERSH_N3c108ArrayRefIlEEb
FNDA:0,_ZN5neml213VariableStore15create_variableINS_2R4EEEPNS_8VariableIT_EERSt3mapINS_19LabeledAxisAccessorESt10unique_ptrINS_12VariableBaseESt14default_deleteISA_EESt4lessIS8_ESaISt4pairIKS8_SD_EEERSH_N3c108ArrayRefIlEEb
FNDA:20,_ZN5neml213VariableStore15create_variableINS_3RotEEEPNS_8VariableIT_EERSt3mapINS_19LabeledAxisAccessorESt10unique_ptrINS_12VariableBaseESt14default_deleteISA_EESt4lessIS8_ESaISt4pairIKS8_SD_EEERSH_N3c108ArrayRefIlEEb
FNDA:308,_ZN5neml213VariableStore15create_variableINS_3SR2EEEPNS_8VariableIT_EERSt3mapINS_19LabeledAxisAccessorESt10unique_ptrINS_12VariableBaseESt14default_deleteISA_EESt4lessIS8_ESaISt4pairIKS8_SD_EEERSH_N3c108ArrayRefIlEEb
FNDA:2,_ZN5neml213VariableStore15create_variableINS_3VecEEEPNS_8VariableIT_EERSt3mapINS_19LabeledAxisAccessorESt10unique_ptrINS_12VariableBaseESt14default_deleteISA_EESt4lessIS8_ESaISt4pairIKS8_SD_EEERSH_N3c108ArrayRefIlEEb
FNDA:14,_ZN5neml213VariableStore15create_variableINS_3WR2EEEPNS_8VariableIT_EERSt3mapINS_19LabeledAxisAccessorESt10unique_ptrINS_12VariableBaseESt14default_deleteISA_EESt4lessIS8_ESaISt4pairIKS8_SD_EEERSH_N3c108ArrayRefIlEEb
FNDA:0,_ZN5neml213VariableStore15create_variableINS_4SFR3EEEPNS_8VariableIT_EERSt3mapINS_19LabeledAxisAccessorESt10unique_ptrINS_12VariableBaseESt14default_deleteISA_EESt4lessIS8_ESaISt4pairIKS8_SD_EEERSH_N3c108ArrayRefIlEEb
FNDA:10,_ZN5neml213VariableStore15create_variableINS_4SSR4EEEPNS_8VariableIT_EERSt3mapINS_19LabeledAxisAccessorESt10unique_ptrINS_12VariableBaseESt14default_deleteISA_EESt4lessIS8_ESaISt4pairIKS8_SD_EEERSH_N3c108ArrayRefIlEEb
FNDA:0,_ZN5neml213VariableStore15create_variableINS_4SWR4EEEPNS_8VariableIT_EERSt3mapINS_19LabeledAxisAccessorESt10unique_ptrINS_12VariableBaseESt14default_deleteISA_EESt4lessIS8_ESaISt4pairIKS8_SD_EEERSH_N3c108ArrayRefIlEEb
FNDA:0,_ZN5neml213VariableStore15create_variableINS_4WSR4EEEPNS_8VariableIT_EERSt3mapINS_19LabeledAxisAccessorESt10unique_ptrINS_12VariableBaseESt14default_deleteISA_EESt4lessIS8_ESaISt4pairIKS8_SD_EEERSH_N3c108ArrayRefIlEEb
FNDA:0,_ZN5neml213VariableStore15create_variableINS_4WWR4EEEPNS_8VariableIT_EERSt3mapINS_19LabeledAxisAccessorESt10unique_ptrINS_12VariableBaseESt14default_deleteISA_EESt4lessIS8_ESaISt4pairIKS8_SD_EEERSH_N3c108ArrayRefIlEEb
FNDA:0,_ZN5neml213VariableStore15create_variableINS_5SFFR4EEEPNS_8VariableIT_EERSt3mapINS_19LabeledAxisAccessorESt10unique_ptrINS_12VariableBaseESt14default_deleteISA_EESt4lessIS8_ESaISt4pairIKS8_SD_EEERSH_N3c108ArrayRefIlEEb
FNDA:0,_ZN5neml213VariableStore15create_variableINS_5WFFR4EEEPNS_8VariableIT_EERSt3mapINS_19LabeledAxisAccessorESt10unique_ptrINS_12VariableBaseESt14default_deleteISA_EESt4lessIS8_ESaISt4pairIKS8_SD_EEERSH_N3c108ArrayRefIlEEb
FNDA:846,_ZN5neml213VariableStore15create_variableINS_6ScalarEEEPNS_8VariableIT_EERSt3mapINS_19LabeledAxisAccessorESt10unique_ptrINS_12VariableBaseESt14default_deleteISA_EESt4lessIS8_ESaISt4pairIKS8_SD_EEERSH_N3c108ArrayRefIlEEb
FNDA:9690,_ZN5neml213VariableStore14input_variableERKNS_19LabeledAxisAccessorE
FNDA:0,_ZNK5neml213VariableStore14input_variableERKNS_19LabeledAxisAccessorE
FNDA:1420,_ZN5neml213VariableStore15output_variableERKNS_19LabeledAxisAccessorE
FNDA:0,_ZNK5neml213VariableStore15output_variableERKNS_19LabeledAxisAccessorE
FNDA:91,_ZN5neml213VariableStore17send_variables_toERKN3c1013TensorOptionsE
FNDA:4069,_ZN5neml213VariableStore11clear_inputEv
FNDA:3100,_ZN5neml213VariableStore12clear_outputEv
FNDA:1790,_ZN5neml213VariableStore17clear_derivativesEv
FNDA:4069,_ZN5neml213VariableStore20zero_undefined_inputEv
FNDA:435,_ZN5neml213VariableStore25cache_derivative_sparsityEv
FNDA:114,_ZN5neml213VariableStore32cache_second_derivative_sparsityEv
FNDA:2559,_ZNK5neml213VariableStore19derivative_sparsityEv
FNDA:258,_ZNK5neml213VariableStore26second_derivative_sparsityEv
FNDA:2452,_ZN5neml213VariableStore12assign_inputERKSt3mapINS_19LabeledAxisAccessorENS_6TensorESt4lessIS2_ESaISt4pairIKS2_S3_EEEb
FNDA:26,_ZN5neml213VariableStore13assign_outputERKSt3mapINS_19LabeledAxisAccessorENS_6TensorESt4lessIS2_ESaISt4pairIKS2_S3_EEEb
FNDA:9,_ZN5neml213VariableStore25assign_output_derivativesERKSt3mapINS_19LabeledAxisAccessorES1_IS2_NS_6TensorESt4lessIS2_ESaISt4pairIKS2_S3_EEES5_SaIS6_IS7_SA_EEEb
FNDA:473,_ZN5neml213VariableStore18assign_input_stackERSt6vectorIN3c106IValueESaIS3_EE
FNDA:485,_ZN5neml213VariableStoreC2EPNS_5ModelE
FNDA:5469,_ZN5neml213VariableStore19assign_output_stackERSt6vectorIN3c106IValueESaIS3_EEbbb
FNDA:191,_ZNK5neml213VariableStore13collect_inputEb
FNDA:1250,_ZNK5neml213VariableStore14collect_outputEb
FNDA:863,_ZNK5neml213VariableStore26collect_output_derivativesEb
FNDA:62,_ZNK5neml213VariableStore33collect_output_second_derivativesEb
FNDA:5942,_ZNK5neml213VariableStore19collect_input_stackEv
FNDA:970,_ZN5neml213VariableStore12declare_axisERKNSt7__cxx1112basic_stringIcSt11char_traitsIcESaIcEEE
FNDA:473,_ZNK5neml213VariableStore20collect_output_stackEbbb
FNDA:0,_ZN5neml213VariableStore21set_input_intmd_sizesERKNS_19LabeledAxisAccessorEN3c108ArrayRefIlEE
FNDA:0,_ZN5neml213VariableStore22set_output_intmd_sizesERKNS_19LabeledAxisAccessorEN3c108ArrayRefIlEE
FNDA:1877,_ZN5neml213VariableStore10input_axisEv
FNDA:0,_ZNK5neml213VariableStore10input_axisEv
FNDA:1774,_ZN5neml213VariableStore11output_axisEv
FNDA:0,_ZNK5neml213VariableStore11output_axisEv
FNF:119
FNH:62
DA:39,485
DA:40,485
DA:41,970
DA:42,485
DA:43,970
DA:45,485
DA:48,970
DA:50,970
DA:55,970
DA:56,970
DA:57,1940
DA:58,970
DA:61,1877
DA:63,1877
DA:64,1866
DA:66,11
DA:67,89
DA:68,78
DA:70,11
DA:71,11
DA:75,0
DA:77,0
DA:81,1774
DA:83,1774
DA:84,1687
DA:86,87
DA:87,189
DA:88,102
DA:90,87
DA:91,87
DA:95,0
DA:97,0
DA:102,466
DA:106,1398
DA:107,1398
DA:108,932
DA:110,0
DA:115,811
DA:119,811
DA:120,809
DA:121,811
DA:132,293
DA:134,879
DA:135,1172
DA:136,293
DA:138,0
DA:143,425
DA:145,425
DA:146,425
DA:155,408
DA:157,408
DA:159,408
DA:160,408
DA:161,408
DA:162,408
DA:164,408
DA:165,408
DA:166,816
DA:167,408
DA:170,134
DA:172,134
DA:174,134
DA:175,134
DA:176,134
DA:177,134
DA:179,134
DA:180,134
DA:181,268
DA:182,134
DA:186,1236
DA:192,1236
DA:193,1157
DA:198,1236
DA:200,1236
DA:201,2
DA:205,1234
DA:206,1234
DA:207,1234
DA:208,1234
DA:209,1234
DA:212,1236
DA:213,1236
DA:214,0
DA:217,1236
DA:225,9690
DA:227,9690
DA:228,9690
DA:232,9690
DA:233,19380
DA:237,0
DA:240,0
DA:244,1420
DA:246,1420
DA:247,1420
DA:251,1420
DA:252,2840
DA:256,0
DA:259,0
DA:263,91
DA:265,91
DA:266,91
DA:269,4069
DA:271,15827
DA:272,11758
DA:273,4871
DA:274,4069
DA:277,3100
DA:279,6993
DA:280,3893
DA:281,2559
DA:282,3100
DA:285,1790
DA:287,5025
DA:288,3235
DA:289,1790
DA:292,4069
DA:294,15827
DA:295,11758
DA:296,131
DA:297,4069
DA:300,435
DA:302,435
DA:303,919
DA:304,1552
DA:305,1068
DA:306,1068
DA:308,435
DA:309,77
DA:311,358
DA:312,435
DA:315,114
DA:317,114
DA:318,238
DA:319,461
DA:320,337
DA:322,114
DA:323,0
DA:325,114
DA:326,114
DA:329,2559
DA:331,2559
DA:332,870
DA:333,1689
DA:337,258
DA:339,258
DA:340,0
DA:341,258
DA:345,2452
DA:347,10054
DA:348,7602
DA:349,2862
DA:351,4740
DA:352,2452
DA:355,26
DA:357,104
DA:358,78
DA:359,78
DA:361,0
DA:362,26
DA:365,9
DA:367,30
DA:369,21
DA:370,60
DA:372,39
DA:373,39
DA:374,39
DA:375,39
DA:377,0
DA:380,9
DA:383,473
DA:385,473
DA:386,1718
DA:388,1245
DA:393,1245
DA:395,473
DA:396,473
DA:399,5469
DA:401,5469
DA:402,5469
DA:404,5469
DA:411,5469
DA:412,9861
DA:414,6180
DA:415,6180
DA:418,5469
DA:419,11232
DA:421,9504
DA:422,9504
DA:425,5469
DA:426,293
DA:428,231
DA:429,231
DA:432,5469
DA:433,5469
DA:436,191
DA:438,191
DA:439,1846
DA:440,1655
DA:441,191
DA:442,0
DA:445,1250
DA:447,1250
DA:448,4462
DA:449,3212
DA:450,1250
DA:451,0
DA:454,863
DA:456,863
DA:457,3023
DA:458,8676
DA:459,6516
DA:460,863
DA:461,0
DA:464,62
DA:466,62
DA:467,134
DA:468,303
DA:469,462
DA:470,462
DA:471,62
DA:472,0
DA:475,5942
DA:477,5942
DA:478,32856
DA:479,26914
DA:480,5942
DA:481,0
DA:484,473
DA:486,473
DA:488,473
DA:489,462
DA:490,250
DA:492,473
DA:493,782
DA:494,581
DA:496,473
DA:497,293
DA:498,231
DA:500,1892
DA:501,946
DA:504,0
DA:506,0
DA:508,0
DA:510,0
DA:511,0
DA:512,0
DA:515,0
DA:517,0
DA:519,0
DA:521,0
DA:522,0
DA:523,0
LF:252
LH:220
end_of_record
TN:
SF:/home/runner/work/neml2/neml2/src/neml2/models/WR2ExplicitExponentialTimeIntegration.cxx
FN:36,53,_ZN5neml237WR2ExplicitExponentialTimeIntegration16expected_optionsEv
FN:55,66,_ZN5neml237WR2ExplicitExponentialTimeIntegrationC2ERKNS_9OptionSetE
FN:69,75,_ZNK5neml237WR2ExplicitExponentialTimeIntegration8diagnoseEv
FN:78,100,_ZN5neml237WR2ExplicitExponentialTimeIntegration9set_valueEbbb
FNDA:2,_ZN5neml237WR2ExplicitExponentialTimeIntegration16expected_optionsEv
FNDA:1,_ZN5neml237WR2ExplicitExponentialTimeIntegrationC2ERKNS_9OptionSetE
FNDA:0,_ZNK5neml237WR2ExplicitExponentialTimeIntegration8diagnoseEv
FNDA:2,_ZN5neml237WR2ExplicitExponentialTimeIntegration9set_valueEbbb
FNF:4
FNH:3
DA:36,2
DA:38,2
DA:39,2
DA:41,2
DA:43,4
DA:44,4
DA:46,4
DA:47,2
DA:49,6
DA:50,2
DA:52,2
DA:53,0
DA:55,1
DA:56,1
DA:58,1
DA:59,1
DA:60,2
DA:61,4
DA:62,1
DA:63,1
DA:64,2
DA:66,1
DA:69,0
DA:71,0
DA:72,0
DA:73,0
DA:74,0
DA:75,0
DA:78,2
DA:80,2
DA:83,2
DA:85,2
DA:86,2
DA:88,2
DA:90,1
DA:91,1
DA:93,1
DA:94,0
DA:96,1
DA:97,1
DA:98,1
DA:99,1
DA:100,2
LF:43
LH:35
end_of_record
TN:
SF:/home/runner/work/neml2/neml2/src/neml2/models/WR2ImplicitExponentialTimeIntegration.cxx
FN:38,58,_ZN5neml237WR2ImplicitExponentialTimeIntegration16expected_optionsEv
FN:60,72,_ZN5neml237WR2ImplicitExponentialTimeIntegrationC2ERKNS_9OptionSetE
FN:75,81,_ZNK5neml237WR2ImplicitExponentialTimeIntegration8diagnoseEv
FN:84,105,_ZN5neml237WR2ImplicitExponentialTimeIntegration9set_valueEbbb
FNDA:2,_ZN5neml237WR2ImplicitExponentialTimeIntegration16expected_optionsEv
FNDA:2,_ZN5neml237WR2ImplicitExponentialTimeIntegrationC2ERKNS_9OptionSetE
FNDA:1,_ZNK5neml237WR2ImplicitExponentialTimeIntegration8diagnoseEv
FNDA:6,_ZN5neml237WR2ImplicitExponentialTimeIntegration9set_valueEbbb
FNF:4
FNH:4
DA:38,2
DA:40,2
DA:41,2
DA:44,2
DA:46,2
DA:48,4
DA:49,4
DA:51,4
DA:52,2
DA:54,6
DA:55,2
DA:57,2
DA:58,0
DA:60,2
DA:61,2
DA:63,2
DA:64,2
DA:65,4
DA:66,8
DA:67,2
DA:68,2
DA:69,2
DA:70,4
DA:72,2
DA:75,1
DA:77,1
DA:78,1
DA:79,1
DA:80,1
DA:81,1
DA:84,6
DA:86,6
DA:87,6
DA:89,6
DA:90,6
DA:92,6
DA:94,3
DA:95,3
DA:96,3
DA:98,3
DA:99,2
DA:101,1
DA:102,1
DA:103,1
DA:104,3
DA:105,8
LF:46
LH:45
end_of_record
TN:
SF:/home/runner/work/neml2/neml2/src/neml2/models/chemical_reactions/AvramiErofeevNucleation.cxx
FN:34,49,_ZN5neml223AvramiErofeevNucleation16expected_optionsEv
FN:51,56,_ZN5neml223AvramiErofeevNucleationC2ERKNS_9OptionSetE
FN:59,66,_ZN5neml223AvramiErofeevNucleation9set_valueEbbb
FNDA:2,_ZN5neml223AvramiErofeevNucleation16expected_optionsEv
FNDA:1,_ZN5neml223AvramiErofeevNucleationC2ERKNS_9OptionSetE
FNDA:2,_ZN5neml223AvramiErofeevNucleation9set_valueEbbb
FNF:3
FNH:3
DA:34,2
DA:36,2
DA:37,2
DA:40,2
DA:42,4
DA:43,4
DA:45,4
DA:46,2
DA:48,2
DA:49,0
DA:51,1
DA:53,3
DA:54,5
DA:56,1
DA:59,2
DA:61,2
DA:62,2
DA:64,2
DA:65,1
DA:66,2
LF:20
LH:19
end_of_record
TN:
SF:/home/runner/work/neml2/neml2/src/neml2/models/chemical_reactions/ContractingGeometry.cxx
FN:33,49,_ZN5neml219ContractingGeometry16expected_optionsEv
FN:51,56,_ZN5neml219ContractingGeometryC2ERKNS_9OptionSetE
FN:59,75,_ZN5neml219ContractingGeometry9set_valueEbbb
FNDA:2,_ZN5neml219ContractingGeometry16expected_optionsEv
FNDA:1,_ZN5neml219ContractingGeometryC2ERKNS_9OptionSetE
FNDA:2,_ZN5neml219ContractingGeometry9set_valueEbbb
FNF:3
FNH:3
DA:33,2
DA:35,2
DA:36,2
DA:40,2
DA:42,4
DA:43,4
DA:45,4
DA:46,2
DA:48,2
DA:49,0
DA:51,1
DA:53,3
DA:54,5
DA:56,1
DA:59,2
DA:61,2
DA:62,2
DA:64,2
DA:65,2
DA:67,2
DA:69,1
DA:70,1
DA:72,3
DA:73,0
DA:75,2
LF:25
LH:23
end_of_record
TN:
SF:/home/runner/work/neml2/neml2/src/neml2/models/chemical_reactions/CylindricalChannelGeometry.cxx
FN:36,52,_ZN5neml226CylindricalChannelGeometry16expected_optionsEv
FN:54,61,_ZN5neml226CylindricalChannelGeometryC2ERKNS_9OptionSetE
FN:64,87,_ZN5neml226CylindricalChannelGeometry9set_valueEbbb
FNDA:2,_ZN5neml226CylindricalChannelGeometry16expected_optionsEv
FNDA:1,_ZN5neml226CylindricalChannelGeometryC2ERKNS_9OptionSetE
FNDA:2,_ZN5neml226CylindricalChannelGeometry9set_valueEbbb
FNF:3
FNH:3
DA:36,2
DA:38,2
DA:39,2
DA:41,6
DA:42,2
DA:43,6
DA:44,2
DA:46,6
DA:47,2
DA:48,6
DA:49,2
DA:51,2
DA:52,0
DA:54,1
DA:56,1
DA:57,1
DA:58,1
DA:59,2
DA:61,1
DA:64,2
DA:66,2
DA:67,2
DA:70,2
DA:71,2
DA:72,2
DA:73,2
DA:75,2
DA:77,2
DA:78,2
DA:81,2
DA:83,1
DA:84,1
DA:85,1
DA:87,2
LF:34
LH:33
end_of_record
TN:
SF:/home/runner/work/neml2/neml2/src/neml2/models/chemical_reactions/DiffusionLimitedReaction.cxx
FN:33,61,_ZN5neml224DiffusionLimitedReaction16expected_optionsEv
FN:63,74,_ZN5neml224DiffusionLimitedReactionC2ERKNS_9OptionSetE
FN:77,98,_ZN5neml224DiffusionLimitedReaction9set_valueEbbb
FNDA:2,_ZN5neml224DiffusionLimitedReaction16expected_optionsEv
FNDA:1,_ZN5neml224DiffusionLimitedReactionC2ERKNS_9OptionSetE
FNDA:2,_ZN5neml224DiffusionLimitedReaction9set_valueEbbb
FNF:3
FNH:3
DA:33,2
DA:35,2
DA:36,2
DA:38,6
DA:39,2
DA:40,6
DA:41,4
DA:42,4
DA:43,2
DA:45,6
DA:46,2
DA:47,6
DA:48,2
DA:50,6
DA:51,4
DA:53,4
DA:54,6
DA:55,2
DA:57,4
DA:58,2
DA:60,2
DA:61,0
DA:63,1
DA:65,1
DA:66,1
DA:67,1
DA:68,1
DA:69,1
DA:70,1
DA:71,5
DA:72,2
DA:74,1
DA:77,2
DA:79,2
DA:81,2
DA:82,2
DA:84,2
DA:86,2
DA:89,2
DA:91,1
DA:93,1
DA:94,1
DA:95,1
DA:96,1
DA:97,1
DA:98,2
LF:46
LH:45
end_of_record
TN:
SF:/home/runner/work/neml2/neml2/src/neml2/models/chemical_reactions/EffectiveVolume.cxx
FN:33,59,_ZN5neml215EffectiveVolume16expected_optionsEv
FN:61,88,_ZN5neml215EffectiveVolumeC2ERKNS_9OptionSetE
FN:91,112,_ZN5neml215EffectiveVolume9set_valueEbbb
FNDA:2,_ZN5neml215EffectiveVolume16expected_optionsEv
FNDA:1,_ZN5neml215EffectiveVolumeC2ERKNS_9OptionSetE
FNDA:2,_ZN5neml215EffectiveVolume9set_valueEbbb
FNF:3
FNH:3
DA:33,2
DA:35,2
DA:36,2
DA:41,2
DA:43,4
DA:44,4
DA:46,4
DA:47,4
DA:49,4
DA:50,4
DA:52,4
DA:53,2
DA:55,6
DA:56,2
DA:58,2
DA:59,0
DA:61,1
DA:63,4
DA:64,1
DA:65,1
DA:67,2
DA:69,6
DA:70,5
DA:73,1
DA:76,1
DA:78,1
DA:80,1
DA:84,1
DA:85,5
DA:86,4
DA:87,8
DA:88,1
DA:91,2
DA:93,2
DA:95,10
DA:96,8
DA:98,2
DA:100,2
DA:101,2
DA:103,2
DA:105,5
DA:106,4
DA:107,4
DA:109,1
DA:110,1
DA:112,2
LF:46
LH:45
end_of_record
TN:
SF:/home/runner/work/neml2/neml2/src/neml2/models/chemical_reactions/ReactionMechanism.cxx
FN:30,41,_ZN5neml217ReactionMechanism16expected_optionsEv
FN:43,48,_ZN5neml217ReactionMechanismC2ERKNS_9OptionSetE
FNDA:4,_ZN5neml217ReactionMechanism16expected_optionsEv
FNDA:2,_ZN5neml217ReactionMechanismC2ERKNS_9OptionSetE
FNF:2
FNH:2
DA:30,4
DA:32,4
DA:34,12
DA:35,4
DA:37,12
DA:38,4
DA:40,4
DA:41,0
DA:43,2
DA:45,2
DA:46,4
DA:48,2
LF:12
LH:11
end_of_record
TN:
SF:/home/runner/work/neml2/neml2/src/neml2/models/crystallography/CrystalGeometry.cxx
FN:100,122,_ZN5neml215crystallography15CrystalGeometryC2ERKNS_9OptionSetERKNS_2R2ERKNS_3VecESt5tupleIJS8_S8_NS_6ScalarESt6vectorIlSaIlEEEE
FN:125,128,_ZNK5neml215crystallography15CrystalGeometry2a1Ev
FN:131,134,_ZNK5neml215crystallography15CrystalGeometry2a2Ev
FN:137,140,_ZNK5neml215crystallography15CrystalGeometry2a3Ev
FN:143,146,_ZNK5neml215crystallography15CrystalGeometry2b1Ev
FN:149,152,_ZNK5neml215crystallography15CrystalGeometry2b2Ev
FN:155,158,_ZNK5neml215crystallography15CrystalGeometry2b3Ev
FN:161,164,_ZNK5neml215crystallography15CrystalGeometry5nslipEv
FN:167,171,_ZNK5neml215crystallography15CrystalGeometry12nslip_groupsEv
FN:174,178,_ZNK5neml215crystallography15CrystalGeometry14nslip_in_groupEl
FN:181,192,_ZN5neml215crystallography15CrystalGeometry23make_reciprocal_latticeERKNS_3VecE
FN:195,201,_ZN5neml215crystallographyL19miller_to_cartesianERKNS_3VecERKNS_11MillerIndexE
FN:204,267,_ZN5neml215crystallography15CrystalGeometry20setup_schmid_tensorsERKNS_3VecERKNS_2R2ERKNS_11MillerIndexESA_
FN:51,72,_ZN5neml215crystallography15CrystalGeometry16expected_optionsEv
FN:74,77,_ZN5neml215crystallography15CrystalGeometryC2ERKNS_9OptionSetE
FN:79,86,_ZN5neml215crystallography15CrystalGeometryC2ERKNS_9OptionSetEPNS_7FactoryE
FN:88,98,_ZN5neml215crystallography15CrystalGeometryC2ERKNS_9OptionSetERKNS_2R2ERKNS_3VecERKNS_11MillerIndexESD_
FNDA:27,_ZN5neml215crystallography15CrystalGeometryC2ERKNS_9OptionSetERKNS_2R2ERKNS_3VecESt5tupleIJS8_S8_NS_6ScalarESt6vectorIlSaIlEEEE
FNDA:2,_ZNK5neml215crystallography15CrystalGeometry2a1Ev
FNDA:2,_ZNK5neml215crystallography15CrystalGeometry2a2Ev
FNDA:2,_ZNK5neml215crystallography15CrystalGeometry2a3Ev
FNDA:2,_ZNK5neml215crystallography15CrystalGeometry2b1Ev
FNDA:2,_ZNK5neml215crystallography15CrystalGeometry2b2Ev
FNDA:2,_ZNK5neml215crystallography15CrystalGeometry2b3Ev
FNDA:2,_ZNK5neml215crystallography15CrystalGeometry5nslipEv
FNDA:6,_ZNK5neml215crystallography15CrystalGeometry12nslip_groupsEv
FNDA:2,_ZNK5neml215crystallography15CrystalGeometry14nslip_in_groupEl
FNDA:54,_ZN5neml215crystallography15CrystalGeometry23make_reciprocal_latticeERKNS_3VecE
FNDA:54,_ZN5neml215crystallographyL19miller_to_cartesianERKNS_3VecERKNS_11MillerIndexE
FNDA:27,_ZN5neml215crystallography15CrystalGeometry20setup_schmid_tensorsERKNS_3VecERKNS_2R2ERKNS_11MillerIndexESA_
FNDA:4,_ZN5neml215crystallography15CrystalGeometry16expected_optionsEv
FNDA:11,_ZN5neml215crystallography15CrystalGeometryC2ERKNS_9OptionSetE
FNDA:11,_ZN5neml215crystallography15CrystalGeometryC2ERKNS_9OptionSetEPNS_7FactoryE
FNDA:27,_ZN5neml215crystallography15CrystalGeometryC2ERKNS_9OptionSetERKNS_2R2ERKNS_3VecERKNS_11MillerIndexESD_
FNF:17
FNH:17
DA:51,4
DA:53,4
DA:55,4
DA:56,4
DA:58,8
DA:59,8
DA:61,8
DA:62,12
DA:63,4
DA:65,8
DA:66,8
DA:68,8
DA:69,4
DA:71,4
DA:72,0
DA:74,11
DA:75,11
DA:77,11
DA:79,11
DA:81,22
DA:82,22
DA:83,22
DA:84,55
DA:86,11
DA:88,27
DA:92,27
DA:96,27
DA:98,27
DA:100,27
DA:103,27
DA:105,27
DA:106,27
DA:107,27
DA:108,54
DA:109,108
DA:110,108
DA:111,27
DA:112,54
DA:113,54
DA:114,54
DA:115,27
DA:116,27
DA:117,54
DA:118,54
DA:119,81
DA:120,108
DA:122,27
DA:125,2
DA:127,6
DA:128,2
DA:131,2
DA:133,6
DA:134,2
DA:137,2
DA:139,6
DA:140,2
DA:143,2
DA:145,6
DA:146,2
DA:149,2
DA:151,6
DA:152,2
DA:155,2
DA:157,6
DA:158,2
DA:161,2
DA:163,2
DA:167,6
DA:170,6
DA:174,2
DA:176,2
DA:177,2
DA:181,54
DA:183,108
DA:184,108
DA:185,108
DA:187,324
DA:188,108
DA:189,270
DA:191,108
DA:192,432
DA:195,54
DA:197,54
DA:198,216
DA:199,216
DA:200,324
DA:201,216
DA:204,27
DA:210,27
DA:213,27
DA:214,0
DA:216,27
DA:217,27
DA:218,27
DA:220,27
DA:221,27
DA:222,27
DA:225,27
DA:226,27
DA:227,27
DA:228,54
DA:230,54
DA:233,54
DA:234,54
DA:237,27
DA:238,27
DA:243,27
DA:244,189
DA:246,324
DA:247,162
DA:248,162
DA:250,486
DA:252,648
DA:253,648
DA:254,324
DA:255,324
DA:256,324
DA:257,324
DA:258,324
DA:259,162
DA:260,27
DA:261,27
DA:263,54
DA:264,54
DA:265,54
DA:266,54
DA:267,891
LF:127
LH:125
end_of_record
TN:
SF:/home/runner/work/neml2/neml2/src/neml2/models/crystallography/CubicCrystal.cxx
FN:37,50,_ZN5neml215crystallography12CubicCrystal16expected_optionsEv
FN:52,55,_ZN5neml215crystallography12CubicCrystalC2ERKNS_9OptionSetE
FN:57,65,_ZN5neml215crystallography12CubicCrystalC2ERKNS_9OptionSetEPNS_7FactoryE
FNDA:2,_ZN5neml215crystallography12CubicCrystal16expected_optionsEv
FNDA:16,_ZN5neml215crystallography12CubicCrystalC2ERKNS_9OptionSetE
FNDA:16,_ZN5neml215crystallography12CubicCrystalC2ERKNS_9OptionSetEPNS_7FactoryE
FNF:3
FNH:3
DA:37,2
DA:39,2
DA:40,2
DA:41,2
DA:43,4
DA:44,4
DA:46,4
DA:47,2
DA:49,2
DA:50,0
DA:52,16
DA:53,16
DA:55,16
DA:57,16
DA:60,64
DA:61,32
DA:62,32
DA:63,80
DA:65,16
LF:19
LH:18
end_of_record
TN:
SF:/home/runner/work/neml2/neml2/src/neml2/models/link_anchor.cxx
FN:30,34,_neml2_force_link_models
FNDA:319,_neml2_force_link_models
FNF:1
FNH:1
DA:30,319
DA:33,319
DA:34,319
LF:3
LH:3
end_of_record
TN:
SF:/home/runner/work/neml2/neml2/src/neml2/models/phase_field_fracture/CrackGeometricFunction.cxx
FN:31,42,_ZN5neml222CrackGeometricFunction16expected_optionsEv
FN:44,49,_ZN5neml222CrackGeometricFunctionC2ERKNS_9OptionSetE
FNDA:4,_ZN5neml222CrackGeometricFunction16expected_optionsEv
FNDA:2,_ZN5neml222CrackGeometricFunctionC2ERKNS_9OptionSetE
FNF:2
FNH:2
DA:31,4
DA:33,4
DA:35,12
DA:36,4
DA:38,12
DA:39,4
DA:41,4
DA:42,0
DA:44,2
DA:46,2
DA:47,4
DA:49,2
LF:12
LH:11
end_of_record
TN:
SF:/home/runner/work/neml2/neml2/src/neml2/models/phase_field_fracture/CrackGeometricFunctionAT1.cxx
FN:33,41,_ZN5neml225CrackGeometricFunctionAT116expected_optionsEv
FN:43,46,_ZN5neml225CrackGeometricFunctionAT1C2ERKNS_9OptionSetE
FN:49,58,_ZN5neml225CrackGeometricFunctionAT19set_valueEbbb
FNDA:2,_ZN5neml225CrackGeometricFunctionAT116expected_optionsEv
FNDA:1,_ZN5neml225CrackGeometricFunctionAT1C2ERKNS_9OptionSetE
FNDA:3,_ZN5neml225CrackGeometricFunctionAT19set_valueEbbb
FNF:3
FNH:3
DA:33,2
DA:35,2
DA:36,2
DA:37,2
DA:38,2
DA:40,2
DA:41,0
DA:43,1
DA:44,1
DA:46,1
DA:49,3
DA:51,3
DA:52,3
DA:54,3
DA:56,1
DA:58,3
LF:16
LH:15
end_of_record
TN:
SF:/home/runner/work/neml2/neml2/src/neml2/models/phase_field_fracture/CrackGeometricFunctionAT2.cxx
FN:33,41,_ZN5neml225CrackGeometricFunctionAT216expected_optionsEv
FN:43,46,_ZN5neml225CrackGeometricFunctionAT2C2ERKNS_9OptionSetE
FN:49,65,_ZN5neml225CrackGeometricFunctionAT29set_valueEbbb
FNDA:2,_ZN5neml225CrackGeometricFunctionAT216expected_optionsEv
FNDA:1,_ZN5neml225CrackGeometricFunctionAT2C2ERKNS_9OptionSetE
FNDA:3,_ZN5neml225CrackGeometricFunctionAT29set_valueEbbb
FNF:3
FNH:3
DA:33,2
DA:35,2
DA:36,2
DA:37,2
DA:39,2
DA:40,2
DA:41,0
DA:43,1
DA:44,1
DA:46,1
DA:49,3
DA:51,3
DA:53,3
DA:56,3
DA:58,1
DA:61,3
DA:63,1
DA:65,3
LF:18
LH:17
end_of_record
TN:
SF:/home/runner/work/neml2/neml2/src/neml2/models/phase_field_fracture/DegradationFunction.cxx
FN:31,41,_ZN5neml219DegradationFunction16expected_optionsEv
FN:43,48,_ZN5neml219DegradationFunctionC2ERKNS_9OptionSetE
FNDA:4,_ZN5neml219DegradationFunction16expected_optionsEv
FNDA:2,_ZN5neml219DegradationFunctionC2ERKNS_9OptionSetE
FNF:2
FNH:2
DA:31,4
DA:33,4
DA:34,12
DA:35,4
DA:37,12
DA:38,4
DA:40,4
DA:41,0
DA:43,2
DA:45,2
DA:46,4
DA:48,2
LF:12
LH:11
end_of_record
TN:
SF:/home/runner/work/neml2/neml2/src/neml2/models/phase_field_fracture/LinearIsotropicStrainEnergyDensity.cxx
FN:115,145,_ZN5neml234LinearIsotropicStrainEnergyDensity20voldev_decompositionEbbb
FN:148,183,_ZN5neml234LinearIsotropicStrainEnergyDensity22spectral_decompositionEbbb
FN:46,59,_ZN5neml234LinearIsotropicStrainEnergyDensity16expected_optionsEv
FN:61,66,_ZN5neml234LinearIsotropicStrainEnergyDensityC2ERKNS_9OptionSetE
FN:69,85,_ZN5neml234LinearIsotropicStrainEnergyDensity9set_valueEbbb
FN:88,112,_ZN5neml234LinearIsotropicStrainEnergyDensity16no_decompositionEbbb
FNDA:12,_ZN5neml234LinearIsotropicStrainEnergyDensity20voldev_decompositionEbbb
FNDA:15,_ZN5neml234LinearIsotropicStrainEnergyDensity22spectral_decompositionEbbb
FNDA:2,_ZN5neml234LinearIsotropicStrainEnergyDensity16expected_optionsEv
FNDA:10,_ZN5neml234LinearIsotropicStrainEnergyDensityC2ERKNS_9OptionSetE
FNDA:30,_ZN5neml234LinearIsotropicStrainEnergyDensity9set_valueEbbb
FNDA:3,_ZN5neml234LinearIsotropicStrainEnergyDensity16no_decompositionEbbb
FNF:6
FNH:6
DA:46,2
DA:48,2
DA:49,2
DA:50,2
DA:51,4
DA:53,8
DA:54,4
DA:55,4
DA:56,6
DA:58,4
DA:59,2
DA:61,10
DA:63,10
DA:64,20
DA:66,10
DA:69,30
DA:71,30
DA:73,3
DA:74,3
DA:75,3
DA:76,12
DA:77,12
DA:78,12
DA:79,15
DA:80,15
DA:81,15
DA:82,0
DA:83,0
DA:85,30
DA:88,3
DA:90,3
DA:91,3
DA:92,3
DA:93,3
DA:94,3
DA:95,3
DA:96,3
DA:97,3
DA:99,3
DA:101,3
DA:102,3
DA:104,3
DA:106,1
DA:108,3
DA:110,1
DA:112,3
DA:115,12
DA:117,12
DA:118,12
DA:119,12
DA:120,12
DA:121,12
DA:122,12
DA:123,12
DA:124,12
DA:127,12
DA:128,12
DA:130,12
DA:132,12
DA:133,12
DA:135,12
DA:137,4
DA:138,4
DA:140,12
DA:142,4
DA:143,4
DA:145,12
DA:148,15
DA:150,15
DA:151,15
DA:152,15
DA:153,15
DA:154,15
DA:155,15
DA:156,15
DA:159,15
DA:160,15
DA:161,15
DA:162,15
DA:163,15
DA:164,15
DA:166,15
DA:168,15
DA:169,15
DA:171,15
DA:173,5
DA:174,5
DA:176,15
DA:178,5
DA:179,5
DA:180,5
DA:181,5
DA:182,5
DA:183,15
LF:94
LH:92
end_of_record
TN:
SF:/home/runner/work/neml2/neml2/src/neml2/models/phase_field_fracture/PowerDegradationFunction.cxx
FN:34,47,_ZN5neml224PowerDegradationFunction16expected_optionsEv
FN:49,54,_ZN5neml224PowerDegradationFunctionC2ERKNS_9OptionSetE
FN:57,73,_ZN5neml224PowerDegradationFunction9set_valueEbbb
FNDA:2,_ZN5neml224PowerDegradationFunction16expected_optionsEv
FNDA:1,_ZN5neml224PowerDegradationFunctionC2ERKNS_9OptionSetE
FNDA:3,_ZN5neml224PowerDegradationFunction9set_valueEbbb
FNF:3
FNH:3
DA:34,2
DA:36,2
DA:37,2
DA:38,2
DA:39,4
DA:40,4
DA:41,4
DA:42,4
DA:44,2
DA:46,2
DA:47,0
DA:49,1
DA:51,4
DA:52,2
DA:54,1
DA:57,3
DA:59,3
DA:61,3
DA:64,3
DA:66,1
DA:69,3
DA:71,1
DA:73,3
LF:23
LH:22
end_of_record
TN:
SF:/home/runner/work/neml2/neml2/src/neml2/models/phase_field_fracture/RationalDegradationFunction.cxx
FN:34,59,_ZN5neml227RationalDegradationFunction16expected_optionsEv
FN:61,70,_ZN5neml227RationalDegradationFunctionC2ERKNS_9OptionSetE
FN:73,103,_ZN5neml227RationalDegradationFunction9set_valueEbbb
FNDA:2,_ZN5neml227RationalDegradationFunction16expected_optionsEv
FNDA:1,_ZN5neml227RationalDegradationFunctionC2ERKNS_9OptionSetE
FNDA:3,_ZN5neml227RationalDegradationFunction9set_valueEbbb
FNF:3
FNH:3
DA:34,2
DA:36,2
DA:37,2
DA:40,2
DA:41,4
DA:42,4
DA:44,4
DA:45,4
DA:47,4
DA:48,4
DA:50,4
DA:51,4
DA:53,4
DA:54,4
DA:56,2
DA:58,2
DA:59,0
DA:61,1
DA:63,4
DA:64,1
DA:65,4
DA:66,4
DA:67,5
DA:70,1
DA:73,3
DA:75,3
DA:76,3
DA:78,3
DA:81,3
DA:82,6
DA:83,9
DA:84,3
DA:86,3
DA:88,1
DA:91,3
DA:93,6
DA:94,12
DA:95,6
DA:96,9
DA:97,3
DA:99,3
DA:101,1
DA:103,3
LF:43
LH:42
end_of_record
TN:
SF:/home/runner/work/neml2/neml2/src/neml2/models/phase_field_fracture/StrainEnergyDensity.cxx
FN:31,46,_ZN5neml219StrainEnergyDensity16expected_optionsEv
FN:48,54,_ZN5neml219StrainEnergyDensityC2ERKNS_9OptionSetE
FNDA:2,_ZN5neml219StrainEnergyDensity16expected_optionsEv
FNDA:10,_ZN5neml219StrainEnergyDensityC2ERKNS_9OptionSetE
FNF:2
FNH:2
DA:31,2
DA:33,2
DA:35,6
DA:36,2
DA:38,6
DA:39,2
DA:41,6
DA:42,4
DA:43,2
DA:45,2
DA:46,0
DA:48,10
DA:50,10
DA:51,10
DA:52,20
DA:54,10
LF:16
LH:15
end_of_record
TN:
SF:/home/runner/work/neml2/neml2/src/neml2/models/porous_flow/AdvectiveStress.cxx
FN:35,65,_ZN5neml215AdvectiveStress16expected_optionsEv
FN:67,76,_ZN5neml215AdvectiveStressC2ERKNS_9OptionSetE
FN:79,107,_ZN5neml215AdvectiveStress9set_valueEbbb
FNDA:2,_ZN5neml215AdvectiveStress16expected_optionsEv
FNDA:1,_ZN5neml215AdvectiveStressC2ERKNS_9OptionSetE
FNDA:2,_ZN5neml215AdvectiveStress9set_valueEbbb
FNF:3
FNH:3
DA:35,2
DA:37,2
DA:38,2
DA:42,2
DA:44,4
DA:45,4
DA:47,4
DA:48,6
DA:49,2
DA:51,4
DA:52,4
DA:53,2
DA:55,6
DA:56,2
DA:58,6
DA:59,2
DA:61,6
DA:62,2
DA:64,2
DA:65,0
DA:67,1
DA:69,4
DA:70,2
DA:71,1
DA:72,1
DA:73,1
DA:74,2
DA:76,1
DA:79,2
DA:81,2
DA:82,2
DA:84,2
DA:86,2
DA:89,2
DA:91,1
DA:93,1
DA:94,3
DA:95,4
DA:97,1
DA:98,3
DA:99,4
DA:101,1
DA:102,1
DA:104,1
DA:105,1
DA:106,1
DA:107,2
LF:47
LH:46
end_of_record
TN:
SF:/home/runner/work/neml2/neml2/src/neml2/models/porous_flow/BrooksCoreyCapillaryPressure.cxx
FN:32,49,_ZN5neml228BrooksCoreyCapillaryPressure16expected_optionsEv
FN:51,56,_ZN5neml228BrooksCoreyCapillaryPressureC2ERKNS_9OptionSetE
FN:59,69,_ZNK5neml228BrooksCoreyCapillaryPressure18calculate_pressureERKNS_6ScalarEbbb
FNDA:2,_ZN5neml228BrooksCoreyCapillaryPressure16expected_optionsEv
FNDA:1,_ZN5neml228BrooksCoreyCapillaryPressureC2ERKNS_9OptionSetE
FNDA:6,_ZNK5neml228BrooksCoreyCapillaryPressure18calculate_pressureERKNS_6ScalarEbbb
FNF:3
FNH:3
DA:32,2
DA:34,2
DA:35,2
DA:38,2
DA:40,4
DA:42,4
DA:43,4
DA:45,4
DA:46,2
DA:48,2
DA:49,0
DA:51,1
DA:53,3
DA:54,5
DA:56,1
DA:59,6
DA:64,6
DA:65,6
DA:66,6
DA:68,12
DA:69,6
LF:21
LH:20
end_of_record
TN:
SF:/home/runner/work/neml2/neml2/src/neml2/models/porous_flow/CapillaryPressure.cxx
FN:33,52,_ZN5neml217CapillaryPressure16expected_optionsEv
FN:54,73,_ZN5neml217CapillaryPressureC2ERKNS_9OptionSetE
FN:76,110,_ZN5neml217CapillaryPressure9set_valueEbbb
FNDA:4,_ZN5neml217CapillaryPressure16expected_optionsEv
FNDA:2,_ZN5neml217CapillaryPressureC2ERKNS_9OptionSetE
FNDA:6,_ZN5neml217CapillaryPressure9set_valueEbbb
FNF:3
FNH:3
DA:33,4
DA:35,4
DA:36,4
DA:38,12
DA:39,4
DA:41,12
DA:42,8
DA:44,8
DA:45,8
DA:47,8
DA:48,8
DA:49,4
DA:51,4
DA:52,0
DA:54,2
DA:56,2
DA:57,2
DA:58,4
DA:59,4
DA:60,4
DA:62,2
DA:64,0
DA:66,2
DA:68,0
DA:70,2
DA:72,0
DA:73,2
DA:76,6
DA:78,6
DA:80,6
DA:83,6
DA:84,6
DA:85,6
DA:86,6
DA:87,6
DA:88,6
DA:90,6
DA:91,6
DA:93,6
DA:94,2
DA:96,6
DA:97,2
DA:98,6
DA:101,0
DA:102,0
DA:104,0
DA:105,0
DA:107,0
DA:108,0
DA:110,6
LF:50
LH:40
end_of_record
TN:
SF:/home/runner/work/neml2/neml2/src/neml2/models/porous_flow/EffectiveSaturation.cxx
FN:31,53,_ZN5neml219EffectiveSaturation16expected_optionsEv
FN:55,62,_ZN5neml219EffectiveSaturationC2ERKNS_9OptionSetE
FN:65,80,_ZN5neml219EffectiveSaturation9set_valueEbbb
FNDA:2,_ZN5neml219EffectiveSaturation16expected_optionsEv
FNDA:1,_ZN5neml219EffectiveSaturationC2ERKNS_9OptionSetE
FNDA:2,_ZN5neml219EffectiveSaturation9set_valueEbbb
FNF:3
FNH:3
DA:31,2
DA:33,2
DA:34,2
DA:38,2
DA:40,8
DA:41,2
DA:43,6
DA:44,4
DA:46,8
DA:47,2
DA:49,6
DA:50,2
DA:52,2
DA:53,0
DA:55,1
DA:57,3
DA:58,1
DA:59,4
DA:60,2
DA:62,1
DA:65,2
DA:67,2
DA:69,2
DA:72,2
DA:74,1
DA:75,1
DA:77,3
DA:78,1
DA:80,2
LF:29
LH:28
end_of_record
TN:
SF:/home/runner/work/neml2/neml2/src/neml2/models/porous_flow/ExponentialLawPermeability.cxx
FN:33,51,_ZN5neml226ExponentialLawPermeability16expected_optionsEv
FN:53,59,_ZN5neml226ExponentialLawPermeabilityC2ERKNS_9OptionSetE
FN:62,69,_ZN5neml226ExponentialLawPermeability9set_valueEbbb
FNDA:2,_ZN5neml226ExponentialLawPermeability16expected_optionsEv
FNDA:1,_ZN5neml226ExponentialLawPermeabilityC2ERKNS_9OptionSetE
FNDA:2,_ZN5neml226ExponentialLawPermeability9set_valueEbbb
FNF:3
FNH:3
DA:33,2
DA:35,2
DA:36,2
DA:39,2
DA:41,4
DA:42,4
DA:44,4
DA:45,4
DA:47,4
DA:48,2
DA:50,2
DA:51,0
DA:53,1
DA:55,3
DA:56,4
DA:57,5
DA:59,1
DA:62,2
DA:64,2
DA:65,2
DA:67,2
DA:68,1
DA:69,2
LF:23
LH:22
end_of_record
TN:
SF:/home/runner/work/neml2/neml2/src/neml2/models/porous_flow/KozenyCarmanPermeability.cxx
FN:32,54,_ZN5neml224KozenyCarmanPermeability16expected_optionsEv
FN:56,63,_ZN5neml224KozenyCarmanPermeabilityC2ERKNS_9OptionSetE
FN:66,74,_ZN5neml224KozenyCarmanPermeability9set_valueEbbb
FNDA:2,_ZN5neml224KozenyCarmanPermeability16expected_optionsEv
FNDA:1,_ZN5neml224KozenyCarmanPermeabilityC2ERKNS_9OptionSetE
FNDA:2,_ZN5neml224KozenyCarmanPermeability9set_valueEbbb
FNF:3
FNH:3
DA:32,2
DA:34,2
DA:35,2
DA:39,2
DA:41,4
DA:42,4
DA:44,4
DA:45,4
DA:47,4
DA:48,4
DA:50,4
DA:51,2
DA:53,2
DA:54,0
DA:56,1
DA:58,3
DA:59,4
DA:60,4
DA:61,5
DA:63,1
DA:66,2
DA:68,2
DA:69,2
DA:71,2
DA:72,3
DA:73,4
DA:74,2
LF:27
LH:26
end_of_record
TN:
SF:/home/runner/work/neml2/neml2/src/neml2/models/porous_flow/PorosityPermeabilityRelation.cxx
FN:30,42,_ZN5neml228PorosityPermeabilityRelation16expected_optionsEv
FN:44,49,_ZN5neml228PorosityPermeabilityRelationC2ERKNS_9OptionSetE
FNDA:6,_ZN5neml228PorosityPermeabilityRelation16expected_optionsEv
FNDA:3,_ZN5neml228PorosityPermeabilityRelationC2ERKNS_9OptionSetE
FNF:2
FNH:2
DA:30,6
DA:32,6
DA:33,6
DA:35,18
DA:36,6
DA:38,18
DA:39,6
DA:41,6
DA:42,0
DA:44,3
DA:46,3
DA:47,6
DA:49,3
LF:13
LH:12
end_of_record
TN:
SF:/home/runner/work/neml2/neml2/src/neml2/models/porous_flow/PowerLawPermeability.cxx
FN:32,49,_ZN5neml220PowerLawPermeability16expected_optionsEv
FN:51,57,_ZN5neml220PowerLawPermeabilityC2ERKNS_9OptionSetE
FN:60,67,_ZN5neml220PowerLawPermeability9set_valueEbbb
FNDA:2,_ZN5neml220PowerLawPermeability16expected_optionsEv
FNDA:1,_ZN5neml220PowerLawPermeabilityC2ERKNS_9OptionSetE
FNDA:2,_ZN5neml220PowerLawPermeability9set_valueEbbb
FNF:3
FNH:3
DA:32,2
DA:34,2
DA:35,2
DA:37,2
DA:39,4
DA:40,4
DA:42,4
DA:43,4
DA:45,4
DA:46,2
DA:48,2
DA:49,0
DA:51,1
DA:53,3
DA:54,4
DA:55,5
DA:57,1
DA:60,2
DA:62,2
DA:63,2
DA:65,2
DA:66,1
DA:67,2
LF:23
LH:22
end_of_record
TN:
SF:/home/runner/work/neml2/neml2/src/neml2/models/porous_flow/VanGenuchtenCapillaryPressure.cxx
FN:36,53,_ZN5neml229VanGenuchtenCapillaryPressure16expected_optionsEv
FN:55,60,_ZN5neml229VanGenuchtenCapillaryPressureC2ERKNS_9OptionSetE
FN:63,79,_ZNK5neml229VanGenuchtenCapillaryPressure18calculate_pressureERKNS_6ScalarEbbb
FNDA:2,_ZN5neml229VanGenuchtenCapillaryPressure16expected_optionsEv
FNDA:1,_ZN5neml229VanGenuchtenCapillaryPressureC2ERKNS_9OptionSetE
FNDA:6,_ZNK5neml229VanGenuchtenCapillaryPressure18calculate_pressureERKNS_6ScalarEbbb
FNF:3
FNH:3
DA:36,2
DA:38,2
DA:39,2
DA:42,2
DA:44,4
DA:46,4
DA:47,4
DA:49,4
DA:50,2
DA:52,2
DA:53,0
DA:55,1
DA:57,3
DA:58,5
DA:60,1
DA:63,6
DA:68,6
DA:69,6
DA:71,6
DA:72,6
DA:73,12
DA:74,12
DA:75,18
DA:78,12
DA:79,6
LF:25
LH:24
end_of_record
TN:
SF:/home/runner/work/neml2/neml2/src/neml2/models/solid_mechanics/AssociativeIsotropicPlasticHardening.cxx
FN:33,51,_ZN5neml236AssociativeIsotropicPlasticHardening16expected_optionsEv
FN:53,59,_ZN5neml236AssociativeIsotropicPlasticHardeningC2ERKNS_9OptionSetE
FN:62,79,_ZN5neml236AssociativeIsotropicPlasticHardening9set_valueEbbb
FNDA:2,_ZN5neml236AssociativeIsotropicPlasticHardening16expected_optionsEv
FNDA:2,_ZN5neml236AssociativeIsotropicPlasticHardeningC2ERKNS_9OptionSetE
FNDA:8,_ZN5neml236AssociativeIsotropicPlasticHardening9set_valueEbbb
FNF:3
FNH:3
DA:33,2
DA:35,2
DA:36,2
DA:41,2
DA:43,6
DA:44,4
DA:45,2
DA:47,6
DA:48,2
DA:50,2
DA:51,0
DA:53,2
DA:54,2
DA:56,2
DA:57,4
DA:59,2
DA:62,8
DA:68,8
DA:69,8
DA:71,8
DA:73,4
DA:74,4
DA:76,4
DA:77,4
DA:79,8
LF:25
LH:24
end_of_record
TN:
SF:/home/runner/work/neml2/neml2/src/neml2/models/solid_mechanics/AssociativeJ2FlowDirection.cxx
FN:38,50,_ZN5neml226AssociativeJ2FlowDirection16expected_optionsEv
FN:52,57,_ZN5neml226AssociativeJ2FlowDirectionC2ERKNS_9OptionSetE
FN:60,80,_ZN5neml226AssociativeJ2FlowDirection9set_valueEbbb
FNDA:2,_ZN5neml226AssociativeJ2FlowDirection16expected_optionsEv
FNDA:1,_ZN5neml226AssociativeJ2FlowDirectionC2ERKNS_9OptionSetE
FNDA:2,_ZN5neml226AssociativeJ2FlowDirection9set_valueEbbb
FNF:3
FNH:3
DA:38,2
DA:40,2
DA:41,2
DA:43,6
DA:44,2
DA:46,6
DA:47,2
DA:49,2
DA:50,0
DA:52,1
DA:54,1
DA:55,2
DA:57,1
DA:60,2
DA:62,2
DA:63,2
DA:64,2
DA:65,2
DA:67,2
DA:69,2
DA:72,2
DA:73,1
DA:75,1
DA:76,1
DA:78,1
DA:79,1
DA:80,2
LF:27
LH:26
end_of_record
TN:
SF:/home/runner/work/neml2/neml2/src/neml2/models/solid_mechanics/AssociativeKinematicPlasticHardening.cxx
FN:36,54,_ZN5neml236AssociativeKinematicPlasticHardening16expected_optionsEv
FN:56,62,_ZN5neml236AssociativeKinematicPlasticHardeningC2ERKNS_9OptionSetE
FN:65,84,_ZN5neml236AssociativeKinematicPlasticHardening9set_valueEbbb
FNDA:2,_ZN5neml236AssociativeKinematicPlasticHardening16expected_optionsEv
FNDA:1,_ZN5neml236AssociativeKinematicPlasticHardeningC2ERKNS_9OptionSetE
FNDA:2,_ZN5neml236AssociativeKinematicPlasticHardening9set_valueEbbb
FNF:3
FNH:3
DA:36,2
DA:38,2
DA:39,2
DA:44,2
DA:46,6
DA:47,4
DA:48,2
DA:50,6
DA:51,2
DA:53,2
DA:54,0
DA:56,1
DA:57,1
DA:59,1
DA:60,2
DA:62,1
DA:65,2
DA:71,2
DA:72,2
DA:74,2
DA:76,1
DA:78,1
DA:79,1
DA:81,1
DA:82,1
DA:83,1
DA:84,2
LF:27
LH:26
end_of_record
TN:
SF:/home/runner/work/neml2/neml2/src/neml2/models/solid_mechanics/AssociativePlasticFlow.cxx
FN:36,53,_ZN5neml222AssociativePlasticFlow16expected_optionsEv
FN:55,60,_ZN5neml222AssociativePlasticFlowC2ERKNS_9OptionSetE
FN:63,82,_ZN5neml222AssociativePlasticFlow9set_valueEbbb
FNDA:2,_ZN5neml222AssociativePlasticFlow16expected_optionsEv
FNDA:4,_ZN5neml222AssociativePlasticFlowC2ERKNS_9OptionSetE
FNDA:20,_ZN5neml222AssociativePlasticFlow9set_valueEbbb
FNF:3
FNH:3
DA:36,2
DA:38,2
DA:39,2
DA:44,2
DA:46,6
DA:47,2
DA:49,6
DA:50,2
DA:52,2
DA:53,0
DA:55,4
DA:57,4
DA:58,8
DA:60,4
DA:63,20
DA:69,20
DA:70,20
DA:72,20
DA:74,10
DA:76,10
DA:77,10
DA:79,10
DA:80,10
DA:81,10
DA:82,20
LF:25
LH:24
end_of_record
TN:
SF:/home/runner/work/neml2/neml2/src/neml2/models/solid_mechanics/ChabochePlasticHardening.cxx
FN:40,56,_ZN5neml224ChabochePlasticHardening16expected_optionsEv
FN:58,63,_ZN5neml224ChabochePlasticHardeningC2ERKNS_9OptionSetE
FN:66,105,_ZN5neml224ChabochePlasticHardening9set_valueEbbb
FNDA:2,_ZN5neml224ChabochePlasticHardening16expected_optionsEv
FNDA:4,_ZN5neml224ChabochePlasticHardeningC2ERKNS_9OptionSetE
FNDA:16,_ZN5neml224ChabochePlasticHardening9set_valueEbbb
FNF:3
FNH:3
DA:40,2
DA:42,2
DA:43,2
DA:47,2
DA:49,4
DA:50,4
DA:52,4
DA:53,2
DA:55,2
DA:56,0
DA:58,4
DA:60,12
DA:61,20
DA:63,4
DA:66,16
DA:68,16
DA:70,16
DA:72,16
DA:74,16
DA:76,16
DA:77,16
DA:79,16
DA:81,8
DA:83,8
DA:84,8
DA:86,8
DA:87,8
DA:89,8
DA:90,8
DA:91,16
DA:93,24
DA:94,1
DA:96,24
DA:97,1
DA:99,24
DA:100,1
DA:102,24
DA:103,1
DA:104,8
DA:105,16
LF:40
LH:39
end_of_record
TN:
SF:/home/runner/work/neml2/neml2/src/neml2/models/solid_mechanics/Eigenstrain.cxx
FN:31,39,_ZN5neml211Eigenstrain16expected_optionsEv
FN:41,45,_ZN5neml211EigenstrainC2ERKNS_9OptionSetE
FNDA:6,_ZN5neml211Eigenstrain16expected_optionsEv
FNDA:4,_ZN5neml211EigenstrainC2ERKNS_9OptionSetE
FNF:2
FNH:2
DA:31,6
DA:33,6
DA:35,18
DA:36,6
DA:38,6
DA:39,0
DA:41,4
DA:43,4
DA:45,4
LF:9
LH:8
end_of_record
TN:
SF:/home/runner/work/neml2/neml2/src/neml2/models/solid_mechanics/FlowRule.cxx
FN:31,41,_ZN5neml28FlowRule16expected_optionsEv
FN:43,47,_ZN5neml28FlowRuleC2ERKNS_9OptionSetE
FNDA:12,_ZN5neml28FlowRule16expected_optionsEv
FNDA:17,_ZN5neml28FlowRuleC2ERKNS_9OptionSetE
FNF:2
FNH:2
DA:31,12
DA:33,12
DA:34,12
DA:35,12
DA:37,36
DA:38,12
DA:40,12
DA:41,0
DA:43,17
DA:45,17
DA:47,17
LF:11
LH:10
end_of_record
TN:
SF:/home/runner/work/neml2/neml2/src/neml2/models/solid_mechanics/FredrickArmstrongPlasticHardening.cxx
FN:37,65,_ZN5neml233FredrickArmstrongPlasticHardening16expected_optionsEv
FN:67,77,_ZN5neml233FredrickArmstrongPlasticHardeningC2ERKNS_9OptionSetE
FN:80,110,_ZN5neml233FredrickArmstrongPlasticHardening9set_valueEbbb
FNDA:4,_ZN5neml233FredrickArmstrongPlasticHardening16expected_optionsEv
FNDA:6,_ZN5neml233FredrickArmstrongPlasticHardeningC2ERKNS_9OptionSetE
FNDA:4,_ZN5neml233FredrickArmstrongPlasticHardening9set_valueEbbb
FNF:3
FNH:3
DA:37,4
DA:39,4
DA:40,4
DA:47,4
DA:49,12
DA:50,8
DA:52,8
DA:53,4
DA:55,12
DA:56,8
DA:58,8
DA:59,8
DA:61,8
DA:62,4
DA:64,4
DA:65,0
DA:67,6
DA:69,6
DA:70,6
DA:71,24
DA:72,24
DA:74,24
DA:75,30
DA:77,6
DA:80,4
DA:82,4
DA:84,4
DA:86,4
DA:88,4
DA:89,4
DA:91,4
DA:93,2
DA:95,2
DA:96,2
DA:98,2
DA:99,2
DA:101,2
DA:102,2
DA:104,6
DA:105,1
DA:107,6
DA:108,1
DA:109,2
DA:110,4
LF:44
LH:43
end_of_record
TN:
SF:/home/runner/work/neml2/neml2/src/neml2/models/solid_mechanics/GTNYieldFunction.cxx
FN:36,80,_ZN5neml216GTNYieldFunction16expected_optionsEv
FN:82,96,_ZN5neml216GTNYieldFunctionC2ERKNS_9OptionSetE
FN:99,404,_ZN5neml216GTNYieldFunction9set_valueEbbb
FNDA:2,_ZN5neml216GTNYieldFunction16expected_optionsEv
FNDA:3,_ZN5neml216GTNYieldFunctionC2ERKNS_9OptionSetE
FNDA:9,_ZN5neml216GTNYieldFunction9set_valueEbbb
FNF:3
FNH:3
DA:36,2
DA:38,2
DA:39,2
DA:47,2
DA:49,4
DA:51,4
DA:52,4
DA:54,4
DA:55,6
DA:56,2
DA:58,4
DA:59,4
DA:61,4
DA:62,2
DA:64,6
DA:65,2
DA:67,6
DA:68,4
DA:70,4
DA:71,2
DA:73,6
DA:74,2
DA:76,6
DA:77,2
DA:79,2
DA:80,0
DA:82,3
DA:84,3
DA:85,3
DA:86,3
DA:87,3
DA:88,6
DA:89,3
DA:90,3
DA:91,12
DA:92,12
DA:93,12
DA:94,15
DA:96,3
DA:99,9
DA:102,9
DA:104,9
DA:105,18
DA:106,27
DA:108,9
DA:110,5
DA:111,5
DA:113,5
DA:114,5
DA:116,5
DA:117,5
DA:119,5
DA:120,15
DA:121,20
DA:124,15
DA:125,6
DA:126,8
DA:128,15
DA:129,2
DA:131,15
DA:132,2
DA:134,15
DA:135,2
DA:138,9
DA:140,6
DA:141,6
DA:142,6
DA:143,6
DA:174,3
DA:176,3
DA:178,3
DA:179,3
DA:181,3
DA:182,1
DA:192,3
DA:194,3
DA:195,6
DA:197,3
DA:198,3
DA:200,3
DA:201,3
DA:202,6
DA:203,12
DA:204,12
DA:205,3
DA:206,1
DA:207,2
DA:208,4
DA:209,4
DA:211,3
DA:212,1
DA:214,3
DA:215,1
DA:216,2
DA:217,4
DA:218,4
DA:228,3
DA:230,3
DA:231,3
DA:233,3
DA:235,3
DA:236,3
DA:238,3
DA:239,1
DA:241,3
DA:242,1
DA:244,3
DA:245,1
DA:247,3
DA:248,1
DA:258,3
DA:260,3
DA:261,3
DA:263,3
DA:264,3
DA:265,6
DA:266,12
DA:267,12
DA:269,3
DA:270,3
DA:272,9
DA:273,6
DA:274,12
DA:275,12
DA:277,3
DA:278,3
DA:279,2
DA:280,4
DA:281,4
DA:283,3
DA:284,1
DA:286,3
DA:287,1
DA:288,2
DA:289,4
DA:290,4
DA:300,3
DA:302,1
DA:303,1
DA:305,1
DA:306,1
DA:308,1
DA:309,3
DA:310,2
DA:311,4
DA:312,4
DA:314,3
DA:315,2
DA:316,4
DA:317,4
DA:319,1
DA:320,1
DA:322,1
DA:323,1
DA:324,2
DA:325,4
DA:326,4
DA:336,3
DA:338,1
DA:339,1
DA:341,1
DA:342,1
DA:344,1
DA:345,1
DA:347,1
DA:348,1
DA:350,1
DA:351,1
DA:361,3
DA:363,1
DA:364,1
DA:365,2
DA:366,4
DA:367,4
DA:369,1
DA:370,1
DA:372,1
DA:373,1
DA:374,2
DA:375,4
DA:376,4
DA:378,1
DA:379,1
DA:380,2
DA:381,4
DA:382,4
DA:384,1
DA:385,1
DA:387,1
DA:388,2
DA:398,3
DA:400,1
DA:401,1
DA:404,9
LF:194
LH:193
end_of_record
TN:
SF:/home/runner/work/neml2/neml2/src/neml2/models/solid_mechanics/GursonCavitation.cxx
FN:36,52,_ZN5neml216GursonCavitation16expected_optionsEv
FN:54,60,_ZN5neml216GursonCavitationC2ERKNS_9OptionSetE
FN:63,80,_ZN5neml216GursonCavitation9set_valueEbbb
FNDA:2,_ZN5neml216GursonCavitation16expected_optionsEv
FNDA:1,_ZN5neml216GursonCavitationC2ERKNS_9OptionSetE
FNDA:2,_ZN5neml216GursonCavitation9set_valueEbbb
FNF:3
FNH:3
DA:36,2
DA:38,2
DA:39,2
DA:40,2
DA:42,6
DA:43,2
DA:45,6
DA:46,2
DA:48,6
DA:49,2
DA:51,2
DA:52,0
DA:54,1
DA:56,1
DA:57,1
DA:58,2
DA:60,1
DA:63,2
DA:65,2
DA:67,2
DA:68,2
DA:70,2
DA:72,1
DA:74,1
DA:75,1
DA:77,1
DA:78,1
DA:79,1
DA:80,2
LF:29
LH:28
end_of_record
TN:
SF:/home/runner/work/neml2/neml2/src/neml2/models/solid_mechanics/IsotropicHardening.cxx
FN:31,43,_ZN5neml218IsotropicHardening16expected_optionsEv
FN:45,50,_ZN5neml218IsotropicHardeningC2ERKNS_9OptionSetE
FNDA:4,_ZN5neml218IsotropicHardening16expected_optionsEv
FNDA:4,_ZN5neml218IsotropicHardeningC2ERKNS_9OptionSetE
FNF:2
FNH:2
DA:31,4
DA:33,4
DA:34,4
DA:36,12
DA:37,4
DA:39,12
DA:40,4
DA:42,4
DA:43,0
DA:45,4
DA:47,4
DA:48,8
DA:50,4
LF:13
LH:12
end_of_record
TN:
SF:/home/runner/work/neml2/neml2/src/neml2/models/solid_mechanics/IsotropicHardeningStaticRecovery.cxx
FN:31,44,_ZN5neml232IsotropicHardeningStaticRecovery16expected_optionsEv
FN:46,54,_ZN5neml232IsotropicHardeningStaticRecoveryC2ERKNS_9OptionSetE
FNDA:2,_ZN5neml232IsotropicHardeningStaticRecovery16expected_optionsEv
FNDA:1,_ZN5neml232IsotropicHardeningStaticRecoveryC2ERKNS_9OptionSetE
FNF:2
FNH:2
DA:31,2
DA:33,2
DA:34,2
DA:36,6
DA:37,4
DA:39,4
DA:40,4
DA:41,2
DA:43,2
DA:44,0
DA:46,1
DA:48,1
DA:49,2
DA:50,2
DA:51,4
DA:52,1
DA:54,1
LF:17
LH:16
end_of_record
TN:
SF:/home/runner/work/neml2/neml2/src/neml2/models/solid_mechanics/IsotropicMandelStress.cxx
FN:35,42,_ZN5neml221IsotropicMandelStress16expected_optionsEv
FN:45,60,_ZN5neml221IsotropicMandelStress9set_valueEbbb
FNDA:2,_ZN5neml221IsotropicMandelStress16expected_optionsEv
FNDA:20,_ZN5neml221IsotropicMandelStress9set_valueEbbb
FNF:2
FNH:2
DA:35,2
DA:37,2
DA:38,2
DA:39,2
DA:41,2
DA:42,0
DA:45,20
DA:49,20
DA:50,20
DA:52,20
DA:53,10
DA:54,10
DA:60,20
LF:13
LH:12
end_of_record
TN:
SF:/home/runner/work/neml2/neml2/src/neml2/models/solid_mechanics/KinematicHardening.cxx
FN:31,43,_ZN5neml218KinematicHardening16expected_optionsEv
FN:45,50,_ZN5neml218KinematicHardeningC2ERKNS_9OptionSetE
FNDA:2,_ZN5neml218KinematicHardening16expected_optionsEv
FNDA:2,_ZN5neml218KinematicHardeningC2ERKNS_9OptionSetE
FNF:2
FNH:2
DA:31,2
DA:33,2
DA:34,2
DA:36,6
DA:37,2
DA:39,6
DA:40,2
DA:42,2
DA:43,0
DA:45,2
DA:47,2
DA:48,4
DA:50,2
LF:13
LH:12
end_of_record
TN:
SF:/home/runner/work/neml2/neml2/src/neml2/models/solid_mechanics/KinematicHardeningStaticRecovery.cxx
FN:32,45,_ZN5neml232KinematicHardeningStaticRecovery16expected_optionsEv
FN:47,54,_ZN5neml232KinematicHardeningStaticRecoveryC2ERKNS_9OptionSetE
FNDA:2,_ZN5neml232KinematicHardeningStaticRecovery16expected_optionsEv
FNDA:1,_ZN5neml232KinematicHardeningStaticRecoveryC2ERKNS_9OptionSetE
FNF:2
FNH:2
DA:32,2
DA:34,2
DA:35,2
DA:37,6
DA:38,4
DA:40,4
DA:41,4
DA:42,2
DA:44,2
DA:45,0
DA:47,1
DA:49,1
DA:50,4
DA:51,4
DA:52,1
DA:54,1
LF:16
LH:15
end_of_record
TN:
SF:/home/runner/work/neml2/neml2/src/neml2/models/solid_mechanics/KocksMeckingActivationEnergy.cxx
FN:34,64,_ZN5neml228KocksMeckingActivationEnergy16expected_optionsEv
FN:66,76,_ZN5neml228KocksMeckingActivationEnergyC2ERKNS_9OptionSetE
FN:79,95,_ZN5neml228KocksMeckingActivationEnergy9set_valueEbbb
FNDA:2,_ZN5neml228KocksMeckingActivationEnergy16expected_optionsEv
FNDA:2,_ZN5neml228KocksMeckingActivationEnergyC2ERKNS_9OptionSetE
FNDA:4,_ZN5neml228KocksMeckingActivationEnergy9set_valueEbbb
FNF:3
FNH:3
DA:34,2
DA:36,2
DA:37,2
DA:42,2
DA:44,4
DA:45,4
DA:47,4
DA:48,4
DA:50,4
DA:51,4
DA:52,4
DA:53,2
DA:55,6
DA:56,2
DA:58,6
DA:59,2
DA:61,6
DA:62,2
DA:63,2
DA:64,0
DA:66,2
DA:68,8
DA:69,4
DA:70,4
DA:71,10
DA:72,2
DA:73,2
DA:74,4
DA:76,2
DA:79,4
DA:81,4
DA:82,4
DA:84,4
DA:86,2
DA:87,2
DA:89,2
DA:90,2
DA:92,6
DA:93,1
DA:95,4
LF:40
LH:39
end_of_record
TN:
SF:/home/runner/work/neml2/neml2/src/neml2/models/solid_mechanics/KocksMeckingFlowSwitch.cxx
FN:36,63,_ZN5neml222KocksMeckingFlowSwitch16expected_optionsEv
FN:65,74,_ZN5neml222KocksMeckingFlowSwitchC2ERKNS_9OptionSetE
FN:77,98,_ZN5neml222KocksMeckingFlowSwitch9set_valueEbbb
FNDA:2,_ZN5neml222KocksMeckingFlowSwitch16expected_optionsEv
FNDA:2,_ZN5neml222KocksMeckingFlowSwitchC2ERKNS_9OptionSetE
FNDA:4,_ZN5neml222KocksMeckingFlowSwitch9set_valueEbbb
FNF:3
FNH:3
DA:36,2
DA:38,2
DA:39,2
DA:43,2
DA:45,4
DA:46,2
DA:48,6
DA:49,4
DA:51,4
DA:52,4
DA:53,2
DA:55,6
DA:56,2
DA:57,6
DA:58,2
DA:60,6
DA:61,2
DA:62,2
DA:63,0
DA:65,2
DA:67,6
DA:68,2
DA:69,2
DA:70,2
DA:71,2
DA:72,4
DA:74,2
DA:77,4
DA:79,4
DA:81,4
DA:82,4
DA:84,4
DA:86,2
DA:87,2
DA:89,2
DA:90,2
DA:92,2
DA:93,2
DA:95,6
DA:96,1
DA:97,2
DA:98,4
LF:42
LH:41
end_of_record
TN:
SF:/home/runner/work/neml2/neml2/src/neml2/models/solid_mechanics/KocksMeckingFlowViscosity.cxx
FN:35,69,_ZN5neml225KocksMeckingFlowViscosity16expected_optionsEv
FN:71,82,_ZN5neml225KocksMeckingFlowViscosityC2ERKNS_9OptionSetE
FN:85,174,_ZN5neml225KocksMeckingFlowViscosity9set_valueEbbb
FNDA:2,_ZN5neml225KocksMeckingFlowViscosity16expected_optionsEv
FNDA:2,_ZN5neml225KocksMeckingFlowViscosityC2ERKNS_9OptionSetE
FNDA:6,_ZN5neml225KocksMeckingFlowViscosity9set_valueEbbb
FNF:3
FNH:3
DA:35,2
DA:37,2
DA:38,2
DA:46,2
DA:48,4
DA:50,4
DA:51,4
DA:52,4
DA:53,4
DA:54,4
DA:55,4
DA:57,4
DA:58,4
DA:60,4
DA:61,4
DA:62,4
DA:63,2
DA:65,6
DA:66,2
DA:68,2
DA:69,0
DA:71,2
DA:73,6
DA:74,8
DA:75,10
DA:76,4
DA:77,4
DA:78,10
DA:79,2
DA:80,4
DA:82,2
DA:85,6
DA:87,6
DA:89,6
DA:90,6
DA:92,6
DA:94,3
DA:95,3
DA:97,9
DA:98,2
DA:100,9
DA:101,2
DA:103,9
DA:104,2
DA:107,6
DA:110,2
DA:112,2
DA:114,6
DA:115,3
DA:116,4
DA:118,6
DA:119,1
DA:121,6
DA:122,1
DA:126,6
DA:128,1
DA:129,3
DA:130,4
DA:132,1
DA:134,3
DA:135,1
DA:137,3
DA:138,1
DA:142,6
DA:144,1
DA:145,1
DA:147,3
DA:148,1
DA:150,1
DA:152,3
DA:153,1
DA:154,2
DA:158,6
DA:160,1
DA:161,1
DA:163,3
DA:164,1
DA:166,3
DA:167,1
DA:168,2
DA:170,1
DA:171,2
DA:174,6
LF:83
LH:82
end_of_record
TN:
SF:/home/runner/work/neml2/neml2/src/neml2/models/solid_mechanics/KocksMeckingIntercept.cxx
FN:34,55,_ZN5neml221KocksMeckingIntercept16expected_optionsEv
FN:57,64,_ZN5neml221KocksMeckingInterceptC2ERKNS_9OptionSetE
FN:67,103,_ZN5neml221KocksMeckingIntercept9set_valueEbbb
FNDA:2,_ZN5neml221KocksMeckingIntercept16expected_optionsEv
FNDA:2,_ZN5neml221KocksMeckingInterceptC2ERKNS_9OptionSetE
FNDA:6,_ZN5neml221KocksMeckingIntercept9set_valueEbbb
FNF:3
FNH:3
DA:34,2
DA:36,2
DA:37,2
DA:38,2
DA:40,4
DA:42,4
DA:43,4
DA:45,4
DA:46,4
DA:48,4
DA:49,4
DA:51,4
DA:52,2
DA:54,2
DA:55,0
DA:57,2
DA:59,6
DA:60,8
DA:61,8
DA:62,4
DA:64,2
DA:67,6
DA:69,6
DA:70,6
DA:72,6
DA:74,9
DA:75,2
DA:77,9
DA:78,2
DA:80,9
DA:81,2
DA:84,6
DA:86,6
DA:88,1
DA:89,3
DA:90,1
DA:91,3
DA:92,1
DA:95,6
DA:96,3
DA:97,1
DA:99,6
DA:100,3
DA:101,1
DA:103,6
LF:45
LH:44
end_of_record
TN:
SF:/home/runner/work/neml2/neml2/src/neml2/models/solid_mechanics/KocksMeckingRateSensitivity.cxx
FN:33,58,_ZN5neml227KocksMeckingRateSensitivity16expected_optionsEv
FN:60,69,_ZN5neml227KocksMeckingRateSensitivityC2ERKNS_9OptionSetE
FN:72,125,_ZN5neml227KocksMeckingRateSensitivity9set_valueEbbb
FNDA:2,_ZN5neml227KocksMeckingRateSensitivity16expected_optionsEv
FNDA:2,_ZN5neml227KocksMeckingRateSensitivityC2ERKNS_9OptionSetE
FNDA:6,_ZN5neml227KocksMeckingRateSensitivity9set_valueEbbb
FNF:3
FNH:3
DA:33,2
DA:35,2
DA:36,2
DA:40,2
DA:42,4
DA:44,4
DA:45,4
DA:46,4
DA:47,4
DA:49,4
DA:50,4
DA:51,4
DA:52,2
DA:54,6
DA:55,2
DA:57,2
DA:58,0
DA:60,2
DA:62,6
DA:63,10
DA:64,4
DA:65,10
DA:66,2
DA:67,4
DA:69,2
DA:72,6
DA:74,6
DA:75,6
DA:77,6
DA:79,3
DA:80,3
DA:81,9
DA:82,2
DA:83,9
DA:84,2
DA:87,6
DA:90,2
DA:91,2
DA:93,6
DA:96,1
DA:98,1
DA:100,1
DA:101,1
DA:102,1
DA:103,1
DA:106,6
DA:109,1
DA:111,1
DA:112,1
DA:113,1
DA:114,1
DA:116,3
DA:119,1
DA:120,1
DA:121,1
DA:122,1
DA:125,6
LF:57
LH:56
end_of_record
TN:
SF:/home/runner/work/neml2/neml2/src/neml2/models/solid_mechanics/KocksMeckingYieldStress.cxx
FN:34,50,_ZN5neml223KocksMeckingYieldStress16expected_optionsEv
FN:52,58,_ZN5neml223KocksMeckingYieldStressC2ERKNS_9OptionSetE
FN:61,88,_ZN5neml223KocksMeckingYieldStress9set_valueEbbb
FNDA:2,_ZN5neml223KocksMeckingYieldStress16expected_optionsEv
FNDA:2,_ZN5neml223KocksMeckingYieldStressC2ERKNS_9OptionSetE
FNDA:5,_ZN5neml223KocksMeckingYieldStress9set_valueEbbb
FNF:3
FNH:3
DA:34,2
DA:36,2
DA:38,2
DA:40,2
DA:42,4
DA:44,4
DA:45,4
DA:46,4
DA:47,2
DA:49,2
DA:50,0
DA:52,2
DA:54,6
DA:55,8
DA:56,4
DA:58,2
DA:61,5
DA:63,5
DA:64,5
DA:66,5
DA:68,9
DA:69,2
DA:71,9
DA:72,2
DA:75,5
DA:77,3
DA:79,1
DA:81,3
DA:83,1
DA:84,1
DA:88,5
LF:31
LH:30
end_of_record
TN:
SF:/home/runner/work/neml2/neml2/src/neml2/models/solid_mechanics/LinearIsotropicElasticJ2TrialStressUpdate.cxx
FN:33,52,_ZN5neml241LinearIsotropicElasticJ2TrialStressUpdate16expected_optionsEv
FN:54,63,_ZN5neml241LinearIsotropicElasticJ2TrialStressUpdateC2ERKNS_9OptionSetE
FN:66,98,_ZN5neml241LinearIsotropicElasticJ2TrialStressUpdate9set_valueEbbb
FNDA:2,_ZN5neml241LinearIsotropicElasticJ2TrialStressUpdate16expected_optionsEv
FNDA:1,_ZN5neml241LinearIsotropicElasticJ2TrialStressUpdateC2ERKNS_9OptionSetE
FNDA:2,_ZN5neml241LinearIsotropicElasticJ2TrialStressUpdate9set_valueEbbb
FNF:3
FNH:3
DA:33,2
DA:35,2
DA:37,2
DA:38,2
DA:40,6
DA:41,2
DA:43,6
DA:44,4
DA:45,2
DA:47,6
DA:48,4
DA:49,2
DA:51,2
DA:52,0
DA:54,1
DA:55,1
DA:57,1
DA:58,1
DA:59,1
DA:60,1
DA:61,2
DA:63,1
DA:66,2
DA:68,2
DA:69,2
DA:71,2
DA:72,4
DA:73,6
DA:75,2
DA:77,1
DA:78,1
DA:79,2
DA:81,1
DA:82,1
DA:84,1
DA:85,1
DA:87,1
DA:88,0
DA:90,1
DA:91,0
DA:98,2
LF:41
LH:38
end_of_record
TN:
SF:/home/runner/work/neml2/neml2/src/neml2/models/solid_mechanics/LinearIsotropicHardening.cxx
FN:33,46,_ZN5neml224LinearIsotropicHardening16expected_optionsEv
FN:48,52,_ZN5neml224LinearIsotropicHardeningC2ERKNS_9OptionSetE
FN:55,68,_ZN5neml224LinearIsotropicHardening9set_valueEbbb
FNDA:2,_ZN5neml224LinearIsotropicHardening16expected_optionsEv
FNDA:1,_ZN5neml224LinearIsotropicHardeningC2ERKNS_9OptionSetE
FNDA:2,_ZN5neml224LinearIsotropicHardening9set_valueEbbb
FNF:3
FNH:3
DA:33,2
DA:35,2
DA:36,2
DA:38,2
DA:40,4
DA:42,4
DA:43,2
DA:45,2
DA:46,0
DA:48,1
DA:50,4
DA:52,1
DA:55,2
DA:57,2
DA:58,2
DA:60,2
DA:61,1
DA:62,1
DA:68,2
LF:19
LH:18
end_of_record
TN:
SF:/home/runner/work/neml2/neml2/src/neml2/models/solid_mechanics/LinearKinematicHardening.cxx
FN:36,48,_ZN5neml224LinearKinematicHardening16expected_optionsEv
FN:50,54,_ZN5neml224LinearKinematicHardeningC2ERKNS_9OptionSetE
FN:57,75,_ZN5neml224LinearKinematicHardening9set_valueEbbb
FNDA:2,_ZN5neml224LinearKinematicHardening16expected_optionsEv
FNDA:2,_ZN5neml224LinearKinematicHardeningC2ERKNS_9OptionSetE
FNDA:4,_ZN5neml224LinearKinematicHardening9set_valueEbbb
FNF:3
FNH:3
DA:36,2
DA:38,2
DA:39,2
DA:40,2
DA:42,4
DA:44,4
DA:45,2
DA:47,2
DA:48,0
DA:50,2
DA:52,8
DA:54,2
DA:57,4
DA:59,4
DA:60,4
DA:62,4
DA:64,2
DA:65,2
DA:67,6
DA:68,1
DA:75,4
LF:21
LH:20
end_of_record
TN:
SF:/home/runner/work/neml2/neml2/src/neml2/models/solid_mechanics/MandelStress.cxx
FN:31,43,_ZN5neml212MandelStress16expected_optionsEv
FN:45,50,_ZN5neml212MandelStressC2ERKNS_9OptionSetE
FNDA:2,_ZN5neml212MandelStress16expected_optionsEv
FNDA:4,_ZN5neml212MandelStressC2ERKNS_9OptionSetE
FNF:2
FNH:2
DA:31,2
DA:33,2
DA:34,2
DA:36,6
DA:37,2
DA:39,6
DA:40,2
DA:42,2
DA:43,0
DA:45,4
DA:47,4
DA:48,8
DA:50,4
LF:13
LH:12
end_of_record
TN:
SF:/home/runner/work/neml2/neml2/src/neml2/models/solid_mechanics/Normality.cxx
FN:34,53,_ZN5neml29Normality16expected_optionsEv
FN:55,73,_ZN5neml29NormalityC2ERKNS_9OptionSetE
FN:76,114,_ZN5neml29Normality9set_valueEbbb
FNDA:2,_ZN5neml29Normality16expected_optionsEv
FNDA:4,_ZN5neml29NormalityC2ERKNS_9OptionSetE
FNDA:20,_ZN5neml29Normality9set_valueEbbb
FNF:3
FNH:3
DA:34,2
DA:36,2
DA:37,2
DA:38,2
DA:40,4
DA:41,4
DA:43,4
DA:44,4
DA:46,4
DA:47,4
DA:49,4
DA:50,2
DA:52,2
DA:53,0
DA:55,4
DA:57,8
DA:58,12
DA:61,8
DA:62,4
DA:63,4
DA:65,4
DA:67,4
DA:71,11
DA:72,7
DA:73,4
DA:76,20
DA:79,20
DA:83,20
DA:84,20
DA:86,20
DA:87,56
DA:89,36
DA:90,36
DA:91,6
DA:93,30
DA:95,30
DA:97,30
DA:99,0
DA:100,0
DA:103,30
DA:106,30
DA:107,48
DA:108,33
DA:109,16
DA:110,16
DA:111,16
DA:112,32
DA:114,20
LF:48
LH:45
end_of_record
TN:
SF:/home/runner/work/neml2/neml2/src/neml2/models/solid_mechanics/OlevskySinteringStress.cxx
FN:33,57,_ZN5neml222OlevskySinteringStress16expected_optionsEv
FN:59,66,_ZN5neml222OlevskySinteringStressC2ERKNS_9OptionSetE
FN:69,81,_ZN5neml222OlevskySinteringStress9set_valueEbbb
FNDA:2,_ZN5neml222OlevskySinteringStress16expected_optionsEv
FNDA:1,_ZN5neml222OlevskySinteringStressC2ERKNS_9OptionSetE
FNDA:3,_ZN5neml222OlevskySinteringStress9set_valueEbbb
FNF:3
FNH:3
DA:33,2
DA:35,2
DA:36,2
DA:40,2
DA:42,2
DA:44,6
DA:45,2
DA:47,6
DA:48,4
DA:50,4
DA:51,4
DA:53,4
DA:54,2
DA:56,2
DA:57,0
DA:59,1
DA:61,1
DA:62,1
DA:63,4
DA:64,5
DA:66,1
DA:69,3
DA:71,3
DA:72,3
DA:74,3
DA:75,1
DA:76,1
DA:78,3
DA:79,1
DA:80,1
DA:81,3
LF:31
LH:30
end_of_record
TN:
SF:/home/runner/work/neml2/neml2/src/neml2/models/solid_mechanics/PerzynaPlasticFlowRate.cxx
FN:37,53,_ZN5neml222PerzynaPlasticFlowRate16expected_optionsEv
FN:55,60,_ZN5neml222PerzynaPlasticFlowRateC2ERKNS_9OptionSetE
FN:63,87,_ZN5neml222PerzynaPlasticFlowRate9set_valueEbbb
FNDA:2,_ZN5neml222PerzynaPlasticFlowRate16expected_optionsEv
FNDA:5,_ZN5neml222PerzynaPlasticFlowRateC2ERKNS_9OptionSetE
FNDA:22,_ZN5neml222PerzynaPlasticFlowRate9set_valueEbbb
FNF:3
FNH:3
DA:37,2
DA:39,2
DA:40,2
DA:44,2
DA:46,4
DA:47,4
DA:49,4
DA:50,2
DA:52,2
DA:53,0
DA:55,5
DA:57,15
DA:58,25
DA:60,5
DA:63,22
DA:66,22
DA:67,22
DA:68,22
DA:69,22
DA:71,22
DA:72,22
DA:74,22
DA:76,11
DA:78,11
DA:79,11
DA:81,33
DA:82,1
DA:84,33
DA:85,1
DA:86,11
DA:87,22
LF:31
LH:30
end_of_record
TN:
SF:/home/runner/work/neml2/neml2/src/neml2/models/solid_mechanics/PhaseTransformationEigenstrain.cxx
FN:32,51,_ZN5neml230PhaseTransformationEigenstrain16expected_optionsEv
FN:53,58,_ZN5neml230PhaseTransformationEigenstrainC2ERKNS_9OptionSetE
FN:61,77,_ZN5neml230PhaseTransformationEigenstrain9set_valueEbbb
FNDA:2,_ZN5neml230PhaseTransformationEigenstrain16expected_optionsEv
FNDA:1,_ZN5neml230PhaseTransformationEigenstrainC2ERKNS_9OptionSetE
FNDA:2,_ZN5neml230PhaseTransformationEigenstrain9set_valueEbbb
FNF:3
FNH:3
DA:32,2
DA:34,2
DA:35,2
DA:39,2
DA:41,6
DA:42,4
DA:43,2
DA:45,6
DA:46,4
DA:48,2
DA:50,2
DA:51,0
DA:53,1
DA:55,1
DA:56,2
DA:58,1
DA:61,2
DA:63,2
DA:64,2
DA:66,2
DA:68,1
DA:69,1
DA:72,2
DA:74,0
DA:75,0
DA:77,2
LF:26
LH:23
end_of_record
TN:
SF:/home/runner/work/neml2/neml2/src/neml2/models/solid_mechanics/PlasticFlowRate.cxx
FN:31,42,_ZN5neml215PlasticFlowRate16expected_optionsEv
FN:44,49,_ZN5neml215PlasticFlowRateC2ERKNS_9OptionSetE
FNDA:2,_ZN5neml215PlasticFlowRate16expected_optionsEv
FNDA:5,_ZN5neml215PlasticFlowRateC2ERKNS_9OptionSetE
FNF:2
FNH:2
DA:31,2
DA:33,2
DA:35,6
DA:36,2
DA:38,6
DA:39,2
DA:41,2
DA:42,0
DA:44,5
DA:46,5
DA:47,10
DA:49,5
LF:12
LH:11
end_of_record
TN:
SF:/home/runner/work/neml2/neml2/src/neml2/models/solid_mechanics/PowerLawIsotropicHardeningStaticRecovery.cxx
FN:36,49,_ZN5neml240PowerLawIsotropicHardeningStaticRecovery16expected_optionsEv
FN:51,57,_ZN5neml240PowerLawIsotropicHardeningStaticRecoveryC2ERKNS_9OptionSetE
FN:60,77,_ZN5neml240PowerLawIsotropicHardeningStaticRecovery9set_valueEbbb
FNDA:2,_ZN5neml240PowerLawIsotropicHardeningStaticRecovery16expected_optionsEv
FNDA:1,_ZN5neml240PowerLawIsotropicHardeningStaticRecoveryC2ERKNS_9OptionSetE
FNDA:2,_ZN5neml240PowerLawIsotropicHardeningStaticRecovery9set_valueEbbb
FNF:3
FNH:3
DA:36,2
DA:38,2
DA:39,2
DA:41,2
DA:43,4
DA:44,4
DA:45,4
DA:46,2
DA:48,2
DA:49,0
DA:51,1
DA:52,1
DA:54,3
DA:55,5
DA:57,1
DA:60,2
DA:62,2
DA:63,2
DA:65,2
DA:67,1
DA:68,1
DA:70,3
DA:71,1
DA:73,3
DA:74,3
DA:75,4
DA:77,2
LF:27
LH:26
end_of_record
TN:
SF:/home/runner/work/neml2/neml2/src/neml2/models/solid_mechanics/PowerLawKinematicHardeningStaticRecovery.cxx
FN:40,57,_ZN5neml240PowerLawKinematicHardeningStaticRecovery16expected_optionsEv
FN:59,65,_ZN5neml240PowerLawKinematicHardeningStaticRecoveryC2ERKNS_9OptionSetE
FN:68,90,_ZN5neml240PowerLawKinematicHardeningStaticRecovery9set_valueEbbb
FNDA:2,_ZN5neml240PowerLawKinematicHardeningStaticRecovery16expected_optionsEv
FNDA:1,_ZN5neml240PowerLawKinematicHardeningStaticRecoveryC2ERKNS_9OptionSetE
FNDA:2,_ZN5neml240PowerLawKinematicHardeningStaticRecovery9set_valueEbbb
FNF:3
FNH:3
DA:40,2
DA:42,2
DA:43,2
DA:48,2
DA:50,4
DA:51,4
DA:53,4
DA:54,2
DA:56,2
DA:57,0
DA:59,1
DA:60,1
DA:62,3
DA:63,5
DA:65,1
DA:68,2
DA:70,2
DA:72,2
DA:74,2
DA:75,2
DA:77,2
DA:79,1
DA:81,1
DA:82,1
DA:84,3
DA:85,1
DA:87,3
DA:88,1
DA:89,1
DA:90,2
LF:30
LH:29
end_of_record
TN:
SF:/home/runner/work/neml2/neml2/src/neml2/models/solid_mechanics/RateIndependentPlasticFlowConstraint.cxx
FN:35,49,_ZN5neml236RateIndependentPlasticFlowConstraint16expected_optionsEv
FN:51,58,_ZN5neml236RateIndependentPlasticFlowConstraintC2ERKNS_9OptionSetE
FN:61,79,_ZN5neml236RateIndependentPlasticFlowConstraint9set_valueEbbb
FNDA:2,_ZN5neml236RateIndependentPlasticFlowConstraint16expected_optionsEv
FNDA:1,_ZN5neml236RateIndependentPlasticFlowConstraintC2ERKNS_9OptionSetE
FNDA:2,_ZN5neml236RateIndependentPlasticFlowConstraint9set_valueEbbb
FNF:3
FNH:3
DA:35,2
DA:37,2
DA:38,2
DA:40,2
DA:42,6
DA:43,2
DA:45,6
DA:46,2
DA:48,2
DA:49,0
DA:51,1
DA:52,1
DA:54,1
DA:55,1
DA:56,2
DA:58,1
DA:61,2
DA:63,2
DA:65,2
DA:66,2
DA:68,2
DA:70,1
DA:71,1
DA:73,1
DA:74,1
DA:76,1
DA:77,1
DA:78,1
DA:79,2
LF:29
LH:28
end_of_record
TN:
SF:/home/runner/work/neml2/neml2/src/neml2/models/solid_mechanics/SlopeSaturationVoceIsotropicHardening.cxx
FN:34,59,_ZN5neml237SlopeSaturationVoceIsotropicHardening16expected_optionsEv
FN:61,72,_ZN5neml237SlopeSaturationVoceIsotropicHardeningC2ERKNS_9OptionSetE
FN:75,94,_ZN5neml237SlopeSaturationVoceIsotropicHardening9set_valueEbbb
FNDA:2,_ZN5neml237SlopeSaturationVoceIsotropicHardening16expected_optionsEv
FNDA:4,_ZN5neml237SlopeSaturationVoceIsotropicHardeningC2ERKNS_9OptionSetE
FNDA:8,_ZN5neml237SlopeSaturationVoceIsotropicHardening9set_valueEbbb
FNF:3
FNH:3
DA:34,2
DA:36,2
DA:37,2
DA:44,2
DA:46,6
DA:47,4
DA:49,4
DA:50,6
DA:51,2
DA:53,4
DA:54,4
DA:55,4
DA:56,2
DA:58,2
DA:59,0
DA:61,4
DA:62,4
DA:64,4
DA:65,8
DA:66,8
DA:67,16
DA:69,16
DA:70,20
DA:72,4
DA:75,8
DA:77,8
DA:78,8
DA:80,8
DA:82,4
DA:83,4
DA:85,4
DA:86,4
DA:88,16
DA:89,2
DA:91,12
DA:92,2
DA:94,8
LF:37
LH:36
end_of_record
TN:
SF:/home/runner/work/neml2/neml2/src/neml2/models/solid_mechanics/SwellingAndPhaseChangeDeformationJacobian.cxx
FN:33,62,_ZN5neml241SwellingAndPhaseChangeDeformationJacobian16expected_optionsEv
FN:64,73,_ZN5neml241SwellingAndPhaseChangeDeformationJacobianC2ERKNS_9OptionSetE
FN:76,89,_ZN5neml241SwellingAndPhaseChangeDeformationJacobian9set_valueEbbb
FNDA:2,_ZN5neml241SwellingAndPhaseChangeDeformationJacobian16expected_optionsEv
FNDA:1,_ZN5neml241SwellingAndPhaseChangeDeformationJacobianC2ERKNS_9OptionSetE
FNDA:2,_ZN5neml241SwellingAndPhaseChangeDeformationJacobian9set_valueEbbb
FNF:3
FNH:3
DA:33,2
DA:35,2
DA:36,2
DA:42,2
DA:44,6
DA:45,4
DA:47,4
DA:48,6
DA:49,2
DA:51,4
DA:52,4
DA:54,4
DA:55,4
DA:56,2
DA:58,6
DA:59,2
DA:61,2
DA:62,0
DA:64,1
DA:65,1
DA:67,1
DA:68,4
DA:69,4
DA:70,4
DA:71,2
DA:73,1
DA:76,2
DA:78,2
DA:79,2
DA:81,2
DA:83,1
DA:84,1
DA:86,3
DA:87,1
DA:89,2
LF:35
LH:34
end_of_record
TN:
SF:/home/runner/work/neml2/neml2/src/neml2/models/solid_mechanics/ThermalDeformationJacobian.cxx
FN:33,54,_ZN5neml226ThermalDeformationJacobian16expected_optionsEv
FN:56,63,_ZN5neml226ThermalDeformationJacobianC2ERKNS_9OptionSetE
FN:66,79,_ZN5neml226ThermalDeformationJacobian9set_valueEbbb
FNDA:2,_ZN5neml226ThermalDeformationJacobian16expected_optionsEv
FNDA:1,_ZN5neml226ThermalDeformationJacobianC2ERKNS_9OptionSetE
FNDA:2,_ZN5neml226ThermalDeformationJacobian9set_valueEbbb
FNF:3
FNH:3
DA:33,2
DA:35,2
DA:36,2
DA:39,2
DA:41,6
DA:42,4
DA:44,4
DA:45,4
DA:47,4
DA:48,2
DA:50,6
DA:51,2
DA:53,2
DA:54,0
DA:56,1
DA:58,1
DA:59,4
DA:60,4
DA:61,2
DA:63,1
DA:66,2
DA:68,2
DA:69,2
DA:71,2
DA:73,1
DA:74,1
DA:76,3
DA:77,0
DA:79,2
LF:29
LH:27
end_of_record
TN:
SF:/home/runner/work/neml2/neml2/src/neml2/models/solid_mechanics/ThermalEigenstrain.cxx
FN:34,55,_ZN5neml218ThermalEigenstrain16expected_optionsEv
FN:57,63,_ZN5neml218ThermalEigenstrainC2ERKNS_9OptionSetE
FN:66,89,_ZN5neml218ThermalEigenstrain9set_valueEbbb
FNDA:2,_ZN5neml218ThermalEigenstrain16expected_optionsEv
FNDA:2,_ZN5neml218ThermalEigenstrainC2ERKNS_9OptionSetE
FNDA:4,_ZN5neml218ThermalEigenstrain9set_valueEbbb
FNF:3
FNH:3
DA:34,2
DA:36,2
DA:37,2
DA:41,2
DA:43,6
DA:44,4
DA:46,4
DA:47,4
DA:49,4
DA:50,4
DA:52,2
DA:54,2
DA:55,0
DA:57,2
DA:59,2
DA:60,8
DA:61,10
DA:63,2
DA:66,4
DA:68,4
DA:69,4
DA:71,4
DA:73,2
DA:74,2
DA:76,6
DA:77,1
DA:80,4
DA:82,0
DA:83,0
DA:85,0
DA:86,0
DA:89,4
LF:32
LH:27
end_of_record
TN:
SF:/home/runner/work/neml2/neml2/src/neml2/models/solid_mechanics/TwoStageThermalAnnealing.cxx
FN:44,82,_ZN5neml224TwoStageThermalAnnealingINS_3SR2EE16expected_optionsEv
FN:44,82,_ZN5neml224TwoStageThermalAnnealingINS_6ScalarEE16expected_optionsEv
FN:85,95,_ZN5neml224TwoStageThermalAnnealingINS_3SR2EEC2ERKNS_9OptionSetE
FN:85,95,_ZN5neml224TwoStageThermalAnnealingINS_6ScalarEEC2ERKNS_9OptionSetE
FN:99,119,_ZN5neml224TwoStageThermalAnnealingINS_3SR2EE9set_valueEbbb
FN:99,119,_ZN5neml224TwoStageThermalAnnealingINS_6ScalarEE9set_valueEbbb
FNDA:2,_ZN5neml224TwoStageThermalAnnealingINS_3SR2EE16expected_optionsEv
FNDA:2,_ZN5neml224TwoStageThermalAnnealingINS_6ScalarEE16expected_optionsEv
FNDA:1,_ZN5neml224TwoStageThermalAnnealingINS_3SR2EEC2ERKNS_9OptionSetE
FNDA:1,_ZN5neml224TwoStageThermalAnnealingINS_6ScalarEEC2ERKNS_9OptionSetE
FNDA:2,_ZN5neml224TwoStageThermalAnnealingINS_3SR2EE9set_valueEbbb
FNDA:2,_ZN5neml224TwoStageThermalAnnealingINS_6ScalarEE9set_valueEbbb
FNF:6
FNH:6
DA:44,4
DA:48,4
DA:50,4
DA:51,4
DA:60,8
DA:61,8
DA:63,8
DA:64,8
DA:66,8
DA:67,4
DA:69,12
DA:70,8
DA:72,8
DA:73,8
DA:75,8
DA:76,8
DA:78,8
DA:79,4
DA:81,8
DA:82,4
DA:85,2
DA:87,2
DA:88,2
DA:89,2
DA:90,2
DA:91,8
DA:92,8
DA:93,10
DA:95,2
DA:99,4
DA:101,4
DA:102,4
DA:103,4
DA:104,4
DA:106,4
DA:107,4
DA:109,4
DA:111,2
DA:113,2
DA:114,2
DA:116,2
DA:117,2
DA:118,2
DA:119,4
LF:44
LH:44
end_of_record
TN:
SF:/home/runner/work/neml2/neml2/src/neml2/models/solid_mechanics/VoceIsotropicHardening.cxx
FN:34,50,_ZN5neml222VoceIsotropicHardening16expected_optionsEv
FN:52,57,_ZN5neml222VoceIsotropicHardeningC2ERKNS_9OptionSetE
FN:60,80,_ZN5neml222VoceIsotropicHardening9set_valueEbbb
FNDA:2,_ZN5neml222VoceIsotropicHardening16expected_optionsEv
FNDA:3,_ZN5neml222VoceIsotropicHardeningC2ERKNS_9OptionSetE
FNDA:11,_ZN5neml222VoceIsotropicHardening9set_valueEbbb
FNF:3
FNH:3
DA:34,2
DA:36,2
DA:37,2
DA:40,2
DA:42,4
DA:44,4
DA:45,4
DA:46,4
DA:47,2
DA:49,2
DA:50,0
DA:52,3
DA:54,9
DA:55,15
DA:57,3
DA:60,11
DA:62,11
DA:63,11
DA:65,11
DA:67,5
DA:68,5
DA:70,15
DA:71,1
DA:73,15
DA:74,1
DA:77,11
DA:78,1
DA:79,1
DA:80,11
LF:29
LH:28
end_of_record
TN:
SF:/home/runner/work/neml2/neml2/src/neml2/models/solid_mechanics/VolumeAdjustDeformationGradient.cxx
FN:36,55,_ZN5neml231VolumeAdjustDeformationGradient16expected_optionsEv
FN:57,63,_ZN5neml231VolumeAdjustDeformationGradientC2ERKNS_9OptionSetE
FN:66,82,_ZN5neml231VolumeAdjustDeformationGradient9set_valueEbbb
FNDA:2,_ZN5neml231VolumeAdjustDeformationGradient16expected_optionsEv
FNDA:1,_ZN5neml231VolumeAdjustDeformationGradientC2ERKNS_9OptionSetE
FNDA:2,_ZN5neml231VolumeAdjustDeformationGradient9set_valueEbbb
FNF:3
FNH:3
DA:36,2
DA:38,2
DA:39,2
DA:42,2
DA:44,4
DA:45,4
DA:47,4
DA:48,6
DA:49,2
DA:51,4
DA:52,2
DA:54,2
DA:55,0
DA:57,1
DA:59,1
DA:60,1
DA:61,2
DA:63,1
DA:66,2
DA:68,2
DA:69,2
DA:71,2
DA:73,1
DA:74,1
DA:76,1
DA:78,1
DA:79,1
DA:80,1
DA:82,2
LF:29
LH:28
end_of_record
TN:
SF:/home/runner/work/neml2/neml2/src/neml2/models/solid_mechanics/VolumeChangeEigenstrain.cxx
FN:33,53,_ZN5neml223VolumeChangeEigenstrain16expected_optionsEv
FN:55,60,_ZN5neml223VolumeChangeEigenstrainC2ERKNS_9OptionSetE
FN:63,80,_ZN5neml223VolumeChangeEigenstrain9set_valueEbbb
FNDA:2,_ZN5neml223VolumeChangeEigenstrain16expected_optionsEv
FNDA:1,_ZN5neml223VolumeChangeEigenstrainC2ERKNS_9OptionSetE
FNDA:2,_ZN5neml223VolumeChangeEigenstrain9set_valueEbbb
FNF:3
FNH:3
DA:33,2
DA:35,2
DA:36,2
DA:42,2
DA:44,6
DA:45,4
DA:47,4
DA:48,4
DA:50,2
DA:52,2
DA:53,0
DA:55,1
DA:57,3
DA:58,2
DA:60,1
DA:63,2
DA:65,2
DA:66,2
DA:68,2
DA:70,1
DA:71,1
DA:74,2
DA:76,0
DA:77,0
DA:78,0
DA:80,2
LF:26
LH:22
end_of_record
TN:
SF:/home/runner/work/neml2/neml2/src/neml2/models/solid_mechanics/YieldFunction.cxx
FN:34,57,_ZN5neml213YieldFunction16expected_optionsEv
FN:59,68,_ZN5neml213YieldFunctionC2ERKNS_9OptionSetE
FN:71,99,_ZN5neml213YieldFunction9set_valueEbbb
FNDA:2,_ZN5neml213YieldFunction16expected_optionsEv
FNDA:13,_ZN5neml213YieldFunctionC2ERKNS_9OptionSetE
FNDA:56,_ZN5neml213YieldFunction9set_valueEbbb
FNF:3
FNH:3
DA:34,2
DA:36,2
DA:37,2
DA:40,2
DA:42,4
DA:44,4
DA:45,2
DA:47,6
DA:48,4
DA:50,4
DA:51,2
DA:53,6
DA:54,2
DA:56,2
DA:57,0
DA:59,13
DA:61,13
DA:62,26
DA:63,13
DA:64,13
DA:65,13
DA:66,65
DA:68,13
DA:71,56
DA:73,56
DA:75,56
DA:76,20
DA:78,36
DA:81,56
DA:83,41
DA:85,41
DA:86,41
DA:88,41
DA:89,15
DA:91,123
DA:92,4
DA:93,41
DA:99,56
LF:38
LH:37
end_of_record
TN:
SF:/home/runner/work/neml2/neml2/src/neml2/models/solid_mechanics/crystal_plasticity/ElasticStrainRate.cxx
FN:104,125,_ZN5neml217ElasticStrainRate9set_valueEbbb
FN:38,65,_ZN5neml217ElasticStrainRate16expected_optionsEv
FN:67,75,_ZN5neml217ElasticStrainRateC2ERKNS_9OptionSetE
FN:78,85,_ZN5neml2L19skew_and_sym_to_symERKNS_3SR2ERKNS_3WR2E
FN:88,93,_ZN5neml2L27d_skew_and_sym_to_sym_d_symERKNS_3WR2E
FN:96,101,_ZN5neml2L28d_skew_and_sym_to_sym_d_skewERKNS_3SR2E
FNDA:6,_ZN5neml217ElasticStrainRate9set_valueEbbb
FNDA:2,_ZN5neml217ElasticStrainRate16expected_optionsEv
FNDA:2,_ZN5neml217ElasticStrainRateC2ERKNS_9OptionSetE
FNDA:6,_ZN5neml2L19skew_and_sym_to_symERKNS_3SR2ERKNS_3WR2E
FNDA:3,_ZN5neml2L27d_skew_and_sym_to_sym_d_symERKNS_3WR2E
FNDA:1,_ZN5neml2L28d_skew_and_sym_to_sym_d_skewERKNS_3SR2E
FNF:6
FNH:6
DA:38,2
DA:40,2
DA:42,2
DA:46,2
DA:48,6
DA:49,2
DA:51,6
DA:52,2
DA:54,6
DA:55,2
DA:57,6
DA:58,2
DA:60,4
DA:61,6
DA:62,2
DA:64,2
DA:65,0
DA:67,2
DA:69,2
DA:70,2
DA:71,2
DA:72,2
DA:73,4
DA:75,2
DA:78,6
DA:82,6
DA:83,6
DA:84,12
DA:85,6
DA:88,3
DA:90,3
DA:91,3
DA:92,21
DA:93,9
DA:96,1
DA:98,1
DA:99,1
DA:100,7
DA:101,3
DA:104,6
DA:106,6
DA:107,6
DA:109,6
DA:111,3
DA:113,3
DA:114,3
DA:116,3
DA:117,1
DA:119,3
DA:120,1
DA:122,3
DA:123,3
DA:124,3
DA:125,6
LF:54
LH:53
end_of_record
TN:
SF:/home/runner/work/neml2/neml2/src/neml2/models/solid_mechanics/crystal_plasticity/FixOrientation.cxx
FN:36,56,_ZN5neml214FixOrientation16expected_optionsEv
FN:58,64,_ZN5neml214FixOrientationC2ERKNS_9OptionSetE
FN:67,78,_ZN5neml214FixOrientation9set_valueEbbb
FNDA:2,_ZN5neml214FixOrientation16expected_optionsEv
FNDA:1,_ZN5neml214FixOrientationC2ERKNS_9OptionSetE
FNDA:2,_ZN5neml214FixOrientation9set_valueEbbb
FNF:3
FNH:3
DA:36,2
DA:38,2
DA:40,2
DA:44,2
DA:46,6
DA:47,2
DA:49,6
DA:50,4
DA:52,4
DA:53,2
DA:55,2
DA:56,0
DA:58,1
DA:60,1
DA:61,1
DA:62,2
DA:64,1
DA:67,2
DA:69,2
DA:70,2
DA:72,2
DA:73,1
DA:75,1
DA:76,1
DA:77,1
DA:78,2
LF:26
LH:25
end_of_record
TN:
SF:/home/runner/work/neml2/neml2/src/neml2/models/solid_mechanics/crystal_plasticity/LinearSingleSlipHardeningRule.cxx
FN:33,45,_ZN5neml229LinearSingleSlipHardeningRule16expected_optionsEv
FN:47,51,_ZN5neml229LinearSingleSlipHardeningRuleC2ERKNS_9OptionSetE
FN:54,67,_ZN5neml229LinearSingleSlipHardeningRule9set_valueEbbb
FNDA:2,_ZN5neml229LinearSingleSlipHardeningRule16expected_optionsEv
FNDA:2,_ZN5neml229LinearSingleSlipHardeningRuleC2ERKNS_9OptionSetE
FNDA:4,_ZN5neml229LinearSingleSlipHardeningRule9set_valueEbbb
FNF:3
FNH:3
DA:33,2
DA:35,2
DA:37,2
DA:39,2
DA:41,4
DA:42,2
DA:44,2
DA:45,0
DA:47,2
DA:49,8
DA:51,2
DA:54,4
DA:56,4
DA:57,4
DA:59,4
DA:61,2
DA:62,2
DA:64,6
DA:65,1
DA:67,4
LF:20
LH:19
end_of_record
TN:
SF:/home/runner/work/neml2/neml2/src/neml2/models/solid_mechanics/crystal_plasticity/OrientationRate.cxx
FN:103,124,_ZN5neml215OrientationRate9set_valueEbbb
FN:38,65,_ZN5neml215OrientationRate16expected_optionsEv
FN:67,75,_ZN5neml215OrientationRateC2ERKNS_9OptionSetE
FN:78,84,_ZN5neml2L22multiply_and_make_skewERKNS_3SR2ES2_
FN:87,92,_ZN5neml2L32d_multiply_and_make_skew_d_firstERKNS_3SR2E
FN:95,100,_ZN5neml2L33d_multiply_and_make_skew_d_secondERKNS_3SR2E
FNDA:6,_ZN5neml215OrientationRate9set_valueEbbb
FNDA:2,_ZN5neml215OrientationRate16expected_optionsEv
FNDA:2,_ZN5neml215OrientationRateC2ERKNS_9OptionSetE
FNDA:6,_ZN5neml2L22multiply_and_make_skewERKNS_3SR2ES2_
FNDA:3,_ZN5neml2L32d_multiply_and_make_skew_d_firstERKNS_3SR2E
FNDA:3,_ZN5neml2L33d_multiply_and_make_skew_d_secondERKNS_3SR2E
FNF:6
FNH:6
DA:38,2
DA:40,2
DA:42,2
DA:47,2
DA:49,6
DA:50,2
DA:52,6
DA:53,2
DA:55,6
DA:56,2
DA:58,4
DA:59,6
DA:60,2
DA:62,6
DA:63,2
DA:64,2
DA:65,0
DA:67,2
DA:69,2
DA:70,2
DA:71,2
DA:72,2
DA:73,4
DA:75,2
DA:78,6
DA:80,6
DA:81,6
DA:83,12
DA:84,6
DA:87,3
DA:89,3
DA:90,3
DA:91,21
DA:92,9
DA:95,3
DA:97,3
DA:98,3
DA:99,21
DA:100,9
DA:103,6
DA:105,6
DA:106,6
DA:108,6
DA:110,3
DA:112,3
DA:113,3
DA:115,3
DA:116,1
DA:118,3
DA:119,3
DA:121,3
DA:122,3
DA:123,3
DA:124,6
LF:54
LH:53
end_of_record
TN:
SF:/home/runner/work/neml2/neml2/src/neml2/models/solid_mechanics/crystal_plasticity/PlasticDeformationRate.cxx
FN:40,65,_ZN5neml222PlasticDeformationRate16expected_optionsEv
FN:67,75,_ZN5neml222PlasticDeformationRateC2ERKNS_9OptionSetE
FN:78,94,_ZN5neml222PlasticDeformationRate9set_valueEbbb
FNDA:2,_ZN5neml222PlasticDeformationRate16expected_optionsEv
FNDA:2,_ZN5neml222PlasticDeformationRateC2ERKNS_9OptionSetE
FNDA:6,_ZN5neml222PlasticDeformationRate9set_valueEbbb
FNF:3
FNH:3
DA:40,2
DA:42,2
DA:44,2
DA:48,2
DA:50,4
DA:51,6
DA:52,2
DA:54,6
DA:55,2
DA:57,6
DA:58,4
DA:60,4
DA:61,4
DA:62,2
DA:64,2
DA:65,0
DA:67,2
DA:69,2
DA:70,4
DA:71,2
DA:72,2
DA:73,4
DA:75,2
DA:78,6
DA:80,6
DA:81,6
DA:83,6
DA:84,6
DA:86,6
DA:88,3
DA:89,3
DA:91,3
DA:92,3
DA:94,6
LF:34
LH:33
end_of_record
TN:
SF:/home/runner/work/neml2/neml2/src/neml2/models/solid_mechanics/crystal_plasticity/PlasticSpatialVelocityGradient.cxx
FN:39,66,_ZN5neml230PlasticSpatialVelocityGradient16expected_optionsEv
FN:68,76,_ZN5neml230PlasticSpatialVelocityGradientC2ERKNS_9OptionSetE
FN:79,94,_ZN5neml230PlasticSpatialVelocityGradient9set_valueEbbb
FNDA:2,_ZN5neml230PlasticSpatialVelocityGradient16expected_optionsEv
FNDA:1,_ZN5neml230PlasticSpatialVelocityGradientC2ERKNS_9OptionSetE
FNDA:2,_ZN5neml230PlasticSpatialVelocityGradient9set_valueEbbb
FNF:3
FNH:3
DA:39,2
DA:41,2
DA:43,2
DA:48,2
DA:50,4
DA:51,6
DA:52,4
DA:53,2
DA:55,6
DA:56,2
DA:58,6
DA:59,4
DA:61,4
DA:62,4
DA:63,2
DA:65,2
DA:66,0
DA:68,1
DA:70,1
DA:71,2
DA:72,1
DA:73,1
DA:74,2
DA:76,1
DA:79,2
DA:81,2
DA:83,2
DA:84,2
DA:86,2
DA:88,1
DA:89,1
DA:91,1
DA:92,1
DA:94,2
LF:34
LH:33
end_of_record
TN:
SF:/home/runner/work/neml2/neml2/src/neml2/models/solid_mechanics/crystal_plasticity/PlasticVorticity.cxx
FN:40,64,_ZN5neml216PlasticVorticity16expected_optionsEv
FN:66,74,_ZN5neml216PlasticVorticityC2ERKNS_9OptionSetE
FN:77,93,_ZN5neml216PlasticVorticity9set_valueEbbb
FNDA:2,_ZN5neml216PlasticVorticity16expected_optionsEv
FNDA:2,_ZN5neml216PlasticVorticityC2ERKNS_9OptionSetE
FNDA:6,_ZN5neml216PlasticVorticity9set_valueEbbb
FNF:3
FNH:3
DA:40,2
DA:42,2
DA:44,2
DA:48,2
DA:50,6
DA:51,2
DA:53,6
DA:54,2
DA:56,6
DA:57,4
DA:59,4
DA:60,4
DA:61,2
DA:63,2
DA:64,0
DA:66,2
DA:68,2
DA:69,4
DA:70,2
DA:71,2
DA:72,4
DA:74,2
DA:77,6
DA:79,6
DA:80,6
DA:82,6
DA:83,6
DA:85,6
DA:87,3
DA:88,3
DA:90,3
DA:91,3
DA:93,6
LF:33
LH:32
end_of_record
TN:
SF:/home/runner/work/neml2/neml2/src/neml2/models/solid_mechanics/crystal_plasticity/PowerLawSlipRule.cxx
FN:39,56,_ZN5neml216PowerLawSlipRule16expected_optionsEv
FN:58,63,_ZN5neml216PowerLawSlipRuleC2ERKNS_9OptionSetE
FN:66,87,_ZN5neml216PowerLawSlipRule9set_valueEbbb
FNDA:2,_ZN5neml216PowerLawSlipRule16expected_optionsEv
FNDA:4,_ZN5neml216PowerLawSlipRuleC2ERKNS_9OptionSetE
FNDA:10,_ZN5neml216PowerLawSlipRule9set_valueEbbb
FNF:3
FNH:3
DA:39,2
DA:41,2
DA:42,2
DA:47,2
DA:49,4
DA:50,4
DA:52,4
DA:53,2
DA:55,2
DA:56,0
DA:58,4
DA:60,12
DA:61,20
DA:63,4
DA:66,10
DA:68,10
DA:69,10
DA:71,10
DA:73,5
DA:74,5
DA:76,5
DA:78,5
DA:81,15
DA:82,2
DA:84,15
DA:85,1
DA:87,10
LF:27
LH:26
end_of_record
TN:
SF:/home/runner/work/neml2/neml2/src/neml2/models/solid_mechanics/crystal_plasticity/ResolvedShear.cxx
FN:40,63,_ZN5neml213ResolvedShear16expected_optionsEv
FN:65,73,_ZN5neml213ResolvedShearC2ERKNS_9OptionSetE
FN:76,95,_ZN5neml213ResolvedShear9set_valueEbbb
FNDA:2,_ZN5neml213ResolvedShear16expected_optionsEv
FNDA:2,_ZN5neml213ResolvedShearC2ERKNS_9OptionSetE
FNDA:6,_ZN5neml213ResolvedShear9set_valueEbbb
FNF:3
FNH:3
DA:40,2
DA:42,2
DA:44,2
DA:48,2
DA:50,6
DA:51,2
DA:53,6
DA:54,2
DA:56,6
DA:57,4
DA:59,4
DA:60,4
DA:61,2
DA:62,2
DA:63,0
DA:65,2
DA:67,2
DA:68,4
DA:69,2
DA:70,2
DA:71,4
DA:73,2
DA:76,6
DA:79,6
DA:81,6
DA:82,6
DA:84,6
DA:85,6
DA:87,6
DA:89,3
DA:90,3
DA:92,3
DA:93,9
DA:95,9
LF:34
LH:33
end_of_record
TN:
SF:/home/runner/work/neml2/neml2/src/neml2/models/solid_mechanics/crystal_plasticity/SingleSlipHardeningRule.cxx
FN:32,51,_ZN5neml223SingleSlipHardeningRule16expected_optionsEv
FN:53,59,_ZN5neml223SingleSlipHardeningRuleC2ERKNS_9OptionSetE
FNDA:4,_ZN5neml223SingleSlipHardeningRule16expected_optionsEv
FNDA:5,_ZN5neml223SingleSlipHardeningRuleC2ERKNS_9OptionSetE
FNF:2
FNH:2
DA:32,4
DA:34,4
DA:36,4
DA:37,4
DA:39,8
DA:40,12
DA:41,8
DA:42,4
DA:44,12
DA:45,4
DA:47,12
DA:48,4
DA:50,4
DA:51,0
DA:53,5
DA:55,5
DA:56,5
DA:57,10
DA:59,5
LF:19
LH:18
end_of_record
TN:
SF:/home/runner/work/neml2/neml2/src/neml2/models/solid_mechanics/crystal_plasticity/SingleSlipStrengthMap.cxx
FN:33,50,_ZN5neml221SingleSlipStrengthMap16expected_optionsEv
FN:52,57,_ZN5neml221SingleSlipStrengthMapC2ERKNS_9OptionSetE
FN:60,73,_ZN5neml221SingleSlipStrengthMap9set_valueEbbb
FNDA:2,_ZN5neml221SingleSlipStrengthMap16expected_optionsEv
FNDA:3,_ZN5neml221SingleSlipStrengthMapC2ERKNS_9OptionSetE
FNDA:8,_ZN5neml221SingleSlipStrengthMap9set_valueEbbb
FNF:3
FNH:3
DA:33,2
DA:35,2
DA:37,2
DA:41,2
DA:43,6
DA:44,4
DA:46,4
DA:47,2
DA:49,2
DA:50,0
DA:52,3
DA:54,3
DA:55,15
DA:57,3
DA:60,8
DA:62,8
DA:63,8
DA:65,8
DA:67,4
DA:68,4
DA:70,12
DA:71,1
DA:73,8
LF:23
LH:22
end_of_record
TN:
SF:/home/runner/work/neml2/neml2/src/neml2/models/solid_mechanics/crystal_plasticity/SlipRule.cxx
FN:32,49,_ZN5neml28SlipRule16expected_optionsEv
FN:51,57,_ZN5neml28SlipRuleC2ERKNS_9OptionSetE
FNDA:2,_ZN5neml28SlipRule16expected_optionsEv
FNDA:4,_ZN5neml28SlipRuleC2ERKNS_9OptionSetE
FNF:2
FNH:2
DA:32,2
DA:34,2
DA:36,2
DA:37,2
DA:39,6
DA:40,2
DA:42,6
DA:43,2
DA:45,6
DA:46,2
DA:48,2
DA:49,0
DA:51,4
DA:53,4
DA:54,4
DA:55,8
DA:57,4
LF:17
LH:16
end_of_record
TN:
SF:/home/runner/work/neml2/neml2/src/neml2/models/solid_mechanics/crystal_plasticity/SlipStrengthMap.cxx
FN:32,41,_ZN5neml215SlipStrengthMap16expected_optionsEv
FN:43,47,_ZN5neml215SlipStrengthMapC2ERKNS_9OptionSetE
FNDA:2,_ZN5neml215SlipStrengthMap16expected_optionsEv
FNDA:3,_ZN5neml215SlipStrengthMapC2ERKNS_9OptionSetE
FNF:2
FNH:2
DA:32,2
DA:34,2
DA:35,2
DA:37,6
DA:38,2
DA:40,2
DA:41,0
DA:43,3
DA:45,3
DA:47,3
LF:10
LH:9
end_of_record
TN:
SF:/home/runner/work/neml2/neml2/src/neml2/models/solid_mechanics/crystal_plasticity/SumSlipRates.cxx
FN:37,53,_ZN5neml212SumSlipRates16expected_optionsEv
FN:55,61,_ZN5neml212SumSlipRatesC2ERKNS_9OptionSetE
FN:64,72,_ZN5neml212SumSlipRates9set_valueEbbb
FNDA:2,_ZN5neml212SumSlipRates16expected_optionsEv
FNDA:2,_ZN5neml212SumSlipRatesC2ERKNS_9OptionSetE
FNDA:6,_ZN5neml212SumSlipRates9set_valueEbbb
FNF:3
FNH:3
DA:37,2
DA:39,2
DA:40,2
DA:41,2
DA:43,6
DA:44,2
DA:46,6
DA:47,4
DA:49,4
DA:50,2
DA:52,2
DA:53,0
DA:55,2
DA:57,2
DA:58,2
DA:59,4
DA:61,2
DA:64,6
DA:66,6
DA:67,6
DA:69,6
DA:70,3
DA:71,3
DA:72,6
LF:24
LH:23
end_of_record
TN:
SF:/home/runner/work/neml2/neml2/src/neml2/models/solid_mechanics/crystal_plasticity/VoceSingleSlipHardeningRule.cxx
FN:33,49,_ZN5neml227VoceSingleSlipHardeningRule16expected_optionsEv
FN:51,56,_ZN5neml227VoceSingleSlipHardeningRuleC2ERKNS_9OptionSetE
FN:59,78,_ZN5neml227VoceSingleSlipHardeningRule9set_valueEbbb
FNDA:2,_ZN5neml227VoceSingleSlipHardeningRule16expected_optionsEv
FNDA:3,_ZN5neml227VoceSingleSlipHardeningRuleC2ERKNS_9OptionSetE
FNDA:8,_ZN5neml227VoceSingleSlipHardeningRule9set_valueEbbb
FNF:3
FNH:3
DA:33,2
DA:35,2
DA:36,2
DA:41,2
DA:43,4
DA:44,4
DA:45,4
DA:46,4
DA:47,2
DA:48,2
DA:49,0
DA:51,3
DA:53,9
DA:54,15
DA:56,3
DA:59,8
DA:61,8
DA:62,8
DA:64,8
DA:66,4
DA:67,4
DA:69,4
DA:70,4
DA:72,12
DA:73,1
DA:75,12
DA:76,1
DA:78,8
LF:28
LH:27
end_of_record
TN:
SF:/home/runner/work/neml2/neml2/src/neml2/models/solid_mechanics/elasticity/AnisotropicElasticity.cxx
FN:30,39,_ZN5neml221AnisotropicElasticity16expected_optionsEv
FN:41,45,_ZN5neml221AnisotropicElasticityC2ERKNS_9OptionSetE
FNDA:2,_ZN5neml221AnisotropicElasticity16expected_optionsEv
FNDA:5,_ZN5neml221AnisotropicElasticityC2ERKNS_9OptionSetE
FNF:2
FNH:2
DA:30,2
DA:32,2
DA:33,2
DA:35,6
DA:36,2
DA:38,2
DA:39,0
DA:41,5
DA:43,5
DA:45,5
LF:10
LH:9
end_of_record
TN:
SF:/home/runner/work/neml2/neml2/src/neml2/models/solid_mechanics/elasticity/CubicElasticityConverter.cxx
FN:39,53,_ZN5neml224CubicElasticityConverter12G_E_nu_to_C1ERKSt5arrayINS_6ScalarELm3EERKS1_IbLm3EE
FN:56,70,_ZN5neml224CubicElasticityConverter12G_E_nu_to_C2ERKSt5arrayINS_6ScalarELm3EERKS1_IbLm3EE
FN:73,85,_ZN5neml224CubicElasticityConverter12G_E_nu_to_C3ERKSt5arrayINS_6ScalarELm3EERKS1_IbLm3EE
FNDA:4,_ZN5neml224CubicElasticityConverter12G_E_nu_to_C1ERKSt5arrayINS_6ScalarELm3EERKS1_IbLm3EE
FNDA:4,_ZN5neml224CubicElasticityConverter12G_E_nu_to_C2ERKSt5arrayINS_6ScalarELm3EERKS1_IbLm3EE
FNDA:4,_ZN5neml224CubicElasticityConverter12G_E_nu_to_C3ERKSt5arrayINS_6ScalarELm3EERKS1_IbLm3EE
FNF:3
FNH:3
DA:39,4
DA:41,4
DA:42,4
DA:43,4
DA:45,4
DA:46,4
DA:47,4
DA:48,12
DA:49,8
DA:50,12
DA:52,8
DA:53,8
DA:56,4
DA:58,4
DA:59,4
DA:60,4
DA:62,4
DA:63,4
DA:64,4
DA:66,16
DA:67,12
DA:69,8
DA:70,8
DA:73,4
DA:75,4
DA:76,4
DA:77,4
DA:79,4
DA:80,4
DA:81,4
DA:82,4
DA:84,8
DA:85,8
LF:33
LH:33
end_of_record
TN:
SF:/home/runner/work/neml2/neml2/src/neml2/models/solid_mechanics/elasticity/CubicElasticityTensor.cxx
FN:33,40,_ZN5neml221CubicElasticityTensor16expected_optionsEv
FN:42,47,_ZN5neml221CubicElasticityTensorC2ERKNS_9OptionSetE
FN:50,75,_ZN5neml221CubicElasticityTensor9set_valueEbbb
FNDA:2,_ZN5neml221CubicElasticityTensor16expected_optionsEv
FNDA:2,_ZN5neml221CubicElasticityTensorC2ERKNS_9OptionSetE
FNDA:4,_ZN5neml221CubicElasticityTensor9set_valueEbbb
FNF:3
FNH:3
DA:33,2
DA:35,2
DA:36,2
DA:37,2
DA:39,2
DA:40,0
DA:42,2
DA:44,2
DA:45,2
DA:47,2
DA:50,4
DA:52,4
DA:53,4
DA:54,4
DA:55,4
DA:57,4
DA:58,4
DA:59,4
DA:61,4
DA:62,4
DA:64,4
DA:66,2
DA:67,2
DA:69,2
DA:70,2
DA:72,2
DA:73,2
DA:75,4
LF:28
LH:27
end_of_record
TN:
SF:/home/runner/work/neml2/neml2/src/neml2/models/solid_mechanics/elasticity/Elasticity.cxx
FN:30,52,_ZN5neml210Elasticity16expected_optionsEv
FN:54,63,_ZN5neml210ElasticityC2ERKNS_9OptionSetE
FNDA:4,_ZN5neml210Elasticity16expected_optionsEv
FNDA:26,_ZN5neml210ElasticityC2ERKNS_9OptionSetE
FNF:2
FNH:2
DA:30,4
DA:32,4
DA:33,4
DA:35,12
DA:36,4
DA:38,12
DA:39,8
DA:41,8
DA:42,12
DA:44,4
DA:46,8
DA:47,8
DA:49,4
DA:51,4
DA:52,0
DA:54,26
DA:56,52
DA:57,52
DA:58,104
DA:59,78
DA:60,26
DA:61,52
DA:63,26
LF:23
LH:22
end_of_record
TN:
SF:/home/runner/work/neml2/neml2/src/neml2/models/solid_mechanics/elasticity/ElasticityConverter.cxx
FN:30,55,_ZN5neml24nameB5cxx11ENS_15ElasticConstantE
FNDA:194,_ZN5neml24nameB5cxx11ENS_15ElasticConstantE
FNF:1
FNH:1
DA:30,194
DA:32,194
DA:34,20
DA:35,40
DA:36,74
DA:37,148
DA:38,0
DA:39,0
DA:40,26
DA:41,52
DA:42,74
DA:43,148
DA:44,0
DA:45,0
DA:46,0
DA:47,0
DA:48,0
DA:49,0
DA:50,0
DA:51,0
DA:52,0
DA:53,0
LF:22
LH:10
end_of_record
TN:
SF:/home/runner/work/neml2/neml2/src/neml2/models/solid_mechanics/elasticity/GeneralElasticity.cxx
FN:35,45,_ZN5neml217GeneralElasticity16expected_optionsEv
FN:47,51,_ZN5neml217GeneralElasticityC2ERKNS_9OptionSetE
FN:54,85,_ZN5neml217GeneralElasticity9set_valueEbbb
FNDA:2,_ZN5neml217GeneralElasticity16expected_optionsEv
FNDA:5,_ZN5neml217GeneralElasticityC2ERKNS_9OptionSetE
FNDA:10,_ZN5neml217GeneralElasticity9set_valueEbbb
FNF:3
FNH:3
DA:35,2
DA:37,2
DA:38,2
DA:39,2
DA:41,4
DA:42,2
DA:44,2
DA:45,0
DA:47,5
DA:49,20
DA:51,5
DA:54,10
DA:56,10
DA:57,10
DA:59,10
DA:60,10
DA:62,10
DA:64,5
DA:65,5
DA:67,5
DA:69,5
DA:70,5
DA:71,10
DA:73,9
DA:74,5
DA:76,15
DA:78,2
DA:79,2
DA:80,5
DA:82,3
DA:83,2
DA:85,17
LF:32
LH:31
end_of_record
TN:
SF:/home/runner/work/neml2/neml2/src/neml2/models/solid_mechanics/elasticity/GreenLagrangeStrain.cxx
FN:36,50,_ZN5neml219GreenLagrangeStrain16expected_optionsEv
FN:52,57,_ZN5neml219GreenLagrangeStrainC2ERKNS_9OptionSetE
FN:60,75,_ZN5neml219GreenLagrangeStrain9set_valueEbbb
FNDA:2,_ZN5neml219GreenLagrangeStrain16expected_optionsEv
FNDA:1,_ZN5neml219GreenLagrangeStrainC2ERKNS_9OptionSetE
FNDA:2,_ZN5neml219GreenLagrangeStrain9set_valueEbbb
FNF:3
FNH:3
DA:36,2
DA:38,2
DA:39,2
DA:41,2
DA:43,6
DA:44,2
DA:46,6
DA:47,2
DA:49,2
DA:50,0
DA:52,1
DA:54,1
DA:55,2
DA:57,1
DA:60,2
DA:62,2
DA:64,2
DA:65,2
DA:66,2
DA:68,2
DA:70,1
DA:72,8
DA:73,1
DA:74,1
DA:75,4
LF:25
LH:24
end_of_record
TN:
SF:/home/runner/work/neml2/neml2/src/neml2/models/solid_mechanics/elasticity/IsotropicElasticityConverter.cxx
FN:37,45,_ZN5neml228IsotropicElasticityConverter8K_G_to_KERKSt5arrayINS_6ScalarELm2EERKS1_IbLm2EE
FN:48,56,_ZN5neml228IsotropicElasticityConverter8K_G_to_GERKSt5arrayINS_6ScalarELm2EERKS1_IbLm2EE
FN:59,69,_ZN5neml228IsotropicElasticityConverter9E_nu_to_KERKSt5arrayINS_6ScalarELm2EERKS1_IbLm2EE
FN:72,82,_ZN5neml228IsotropicElasticityConverter9E_nu_to_GERKSt5arrayINS_6ScalarELm2EERKS1_IbLm2EE
FNDA:30,_ZN5neml228IsotropicElasticityConverter8K_G_to_KERKSt5arrayINS_6ScalarELm2EERKS1_IbLm2EE
FNDA:30,_ZN5neml228IsotropicElasticityConverter8K_G_to_GERKSt5arrayINS_6ScalarELm2EERKS1_IbLm2EE
FNDA:46,_ZN5neml228IsotropicElasticityConverter9E_nu_to_KERKSt5arrayINS_6ScalarELm2EERKS1_IbLm2EE
FNDA:48,_ZN5neml228IsotropicElasticityConverter9E_nu_to_GERKSt5arrayINS_6ScalarELm2EERKS1_IbLm2EE
FNF:4
FNH:4
DA:37,30
DA:39,30
DA:41,30
DA:42,30
DA:44,60
DA:45,60
DA:48,30
DA:50,30
DA:52,30
DA:53,30
DA:55,60
DA:56,60
DA:59,46
DA:61,46
DA:62,46
DA:64,46
DA:65,46
DA:66,46
DA:68,92
DA:69,92
DA:72,48
DA:74,48
DA:75,48
DA:77,48
DA:78,48
DA:79,48
DA:81,96
DA:82,96
LF:28
LH:28
end_of_record
TN:
SF:/home/runner/work/neml2/neml2/src/neml2/models/solid_mechanics/elasticity/IsotropicElasticityTensor.cxx
FN:33,40,_ZN5neml225IsotropicElasticityTensor16expected_optionsEv
FN:42,47,_ZN5neml225IsotropicElasticityTensorC2ERKNS_9OptionSetE
FN:50,70,_ZN5neml225IsotropicElasticityTensor9set_valueEbbb
FNDA:2,_ZN5neml225IsotropicElasticityTensor16expected_optionsEv
FNDA:2,_ZN5neml225IsotropicElasticityTensorC2ERKNS_9OptionSetE
FNDA:4,_ZN5neml225IsotropicElasticityTensor9set_valueEbbb
FNF:3
FNH:3
DA:33,2
DA:35,2
DA:36,2
DA:37,2
DA:39,2
DA:40,0
DA:42,2
DA:44,2
DA:45,2
DA:47,2
DA:50,4
DA:52,4
DA:53,4
DA:54,4
DA:56,4
DA:57,4
DA:59,4
DA:60,4
DA:62,4
DA:64,2
DA:65,2
DA:67,2
DA:68,2
DA:70,4
LF:24
LH:23
end_of_record
TN:
SF:/home/runner/work/neml2/neml2/src/neml2/models/solid_mechanics/elasticity/LinearIsotropicElasticity.cxx
FN:35,44,_ZN5neml225LinearIsotropicElasticity16expected_optionsEv
FN:46,50,_ZN5neml225LinearIsotropicElasticityC2ERKNS_9OptionSetE
FN:53,83,_ZN5neml225LinearIsotropicElasticity9set_valueEbbb
FNDA:2,_ZN5neml225LinearIsotropicElasticity16expected_optionsEv
FNDA:21,_ZN5neml225LinearIsotropicElasticityC2ERKNS_9OptionSetE
FNDA:42,_ZN5neml225LinearIsotropicElasticity9set_valueEbbb
FNF:3
FNH:3
DA:35,2
DA:37,2
DA:38,2
DA:41,2
DA:43,2
DA:44,0
DA:46,21
DA:48,21
DA:50,21
DA:53,42
DA:55,42
DA:56,42
DA:57,42
DA:58,42
DA:59,42
DA:61,42
DA:62,42
DA:64,42
DA:66,17
DA:67,17
DA:69,17
DA:70,17
DA:72,17
DA:73,17
DA:74,17
DA:75,17
DA:77,17
DA:78,2
DA:80,17
DA:81,2
DA:82,17
DA:83,42
LF:32
LH:31
end_of_record
TN:
SF:/home/runner/work/neml2/neml2/src/neml2/neml2.cxx
FN:31,48,_ZN5neml210load_inputERKNSt10filesystem7__cxx114pathERKNSt7__cxx1112basic_stringIcSt11char_traitsIcESaIcEEE
FN:51,55,_ZN5neml210load_modelERKNSt10filesystem7__cxx114pathERKNSt7__cxx1112basic_stringIcSt11char_traitsIcESaIcEEE
FNDA:319,_ZN5neml210load_inputERKNSt10filesystem7__cxx114pathERKNSt7__cxx1112basic_stringIcSt11char_traitsIcESaIcEEE
FNDA:15,_ZN5neml210load_modelERKNSt10filesystem7__cxx114pathERKNSt7__cxx1112basic_stringIcSt11char_traitsIcESaIcEEE
FNF:2
FNH:2
DA:31,319
DA:34,319
DA:35,319
DA:36,319
DA:37,319
DA:40,319
DA:42,319
DA:43,319
DA:44,634
DA:45,319
DA:47,0
DA:51,15
DA:53,15
DA:54,30
DA:55,15
LF:15
LH:14
end_of_record
TN:
SF:/home/runner/work/neml2/neml2/src/neml2/solvers/Newton.cxx
FN:101,111,_ZNK5neml26Newton9convergedEmRKN2at6TensorES4_
FN:114,120,_ZN5neml26Newton6updateERNS_15NonlinearSystemERNS1_3SolILb1EEERKNS1_3ResILb1EEERKNS1_3JacILb1EEE
FN:123,129,_ZN5neml26Newton12final_updateERNS_15NonlinearSystemERNS1_3SolILb1EEERKNS1_3ResILb1EEERKNS1_3JacILb1EEE
FN:132,138,_ZN5neml26Newton15solve_directionERKNS_15NonlinearSystem3ResILb1EEERKNS1_3JacILb1EEE
FN:38,44,_ZN5neml26Newton16expected_optionsEv
FN:46,49,_ZN5neml26NewtonC2ERKNS_9OptionSetE
FN:52,98,_ZN5neml26Newton5solveERNS_15NonlinearSystemERKNS1_3SolILb0EEE
FNDA:970,_ZNK5neml26Newton9convergedEmRKN2at6TensorES4_
FNDA:655,_ZN5neml26Newton6updateERNS_15NonlinearSystemERNS1_3SolILb1EEERKNS1_3ResILb1EEERKNS1_3JacILb1EEE
FNDA:26,_ZN5neml26Newton12final_updateERNS_15NonlinearSystemERNS1_3SolILb1EEERKNS1_3ResILb1EEERKNS1_3JacILb1EEE
FNDA:778,_ZN5neml26Newton15solve_directionERKNS_15NonlinearSystem3ResILb1EEERKNS1_3JacILb1EEE
FNDA:18,_ZN5neml26Newton16expected_optionsEv
FNDA:22,_ZN5neml26NewtonC2ERKNS_9OptionSetE
FNDA:218,_ZN5neml26Newton5solveERNS_15NonlinearSystemERKNS1_3SolILb0EEE
FNF:7
FNH:7
DA:38,18
DA:40,18
DA:41,18
DA:43,18
DA:44,0
DA:46,22
DA:47,22
DA:49,22
DA:52,218
DA:55,218
DA:58,218
DA:59,218
DA:60,218
DA:63,218
DA:66,5
DA:67,2
DA:69,5
DA:73,213
DA:79,753
DA:81,752
DA:82,752
DA:83,752
DA:84,752
DA:87,752
DA:90,212
DA:91,24
DA:93,212
DA:95,752
DA:97,1
DA:98,430
DA:101,970
DA:110,970
DA:114,655
DA:119,655
DA:120,655
DA:123,26
DA:128,26
DA:129,26
DA:132,778
DA:134,778
DA:135,51
DA:137,727
LF:42
LH:41
end_of_record
TN:
SF:/home/runner/work/neml2/neml2/src/neml2/solvers/NewtonWithLineSearch.cxx
FN:38,67,_ZN5neml220NewtonWithLineSearch16expected_optionsEv
FN:69,77,_ZN5neml220NewtonWithLineSearchC2ERKNS_9OptionSetE
FN:80,88,_ZN5neml220NewtonWithLineSearch6updateERNS_15NonlinearSystemERNS1_3SolILb1EEERKNS1_3ResILb1EEERKNS1_3JacILb1EEE
FN:91,135,_ZNK5neml220NewtonWithLineSearch10linesearchERNS_15NonlinearSystemERKNS1_3SolILb1EEES6_RKNS1_3ResILb1EEE
FNDA:5,_ZN5neml220NewtonWithLineSearch16expected_optionsEv
FNDA:4,_ZN5neml220NewtonWithLineSearchC2ERKNS_9OptionSetE
FNDA:79,_ZN5neml220NewtonWithLineSearch6updateERNS_15NonlinearSystemERNS1_3SolILb1EEERKNS1_3ResILb1EEERKNS1_3JacILb1EEE
FNDA:79,_ZNK5neml220NewtonWithLineSearch10linesearchERNS_15NonlinearSystemERKNS1_3SolILb1EEES6_RKNS1_3ResILb1EEE
FNF:4
FNH:4
DA:38,5
DA:40,5
DA:41,5
DA:43,20
DA:44,10
DA:45,10
DA:46,10
DA:47,20
DA:49,10
DA:50,15
DA:52,5
DA:54,10
DA:55,15
DA:56,5
DA:58,10
DA:59,15
DA:60,5
DA:62,10
DA:63,10
DA:64,5
DA:66,10
DA:67,5
DA:69,4
DA:71,8
DA:72,8
DA:73,8
DA:74,8
DA:75,8
DA:77,4
DA:80,79
DA:85,79
DA:86,79
DA:87,79
DA:88,79
DA:91,79
DA:96,79
DA:97,79
DA:98,79
DA:100,192
DA:102,173
DA:103,173
DA:104,173
DA:106,346
DA:107,173
DA:108,0
DA:109,0
DA:111,173
DA:112,0
DA:113,0
DA:114,0
DA:115,0
DA:117,173
DA:119,173
DA:120,60
DA:122,226
DA:123,452
DA:124,353
DA:126,79
DA:127,0
DA:131,0
DA:132,0
DA:134,158
DA:135,305
LF:63
LH:54
end_of_record
TN:
SF:/home/runner/work/neml2/neml2/src/neml2/solvers/NewtonWithTrustRegion.cxx
FN:102,106,_ZNK5neml221NewtonWithTrustRegion18subproblem_optionsERKNS_9OptionSetE
FN:109,116,_ZNK5neml221NewtonWithTrustRegion25subproblem_solver_optionsERKNS_9OptionSetE
FN:119,123,_ZN5neml221NewtonWithTrustRegion7prepareERKNS_15NonlinearSystemERKNS1_3SolILb1EEE
FN:126,171,_ZN5neml221NewtonWithTrustRegion6updateERNS_15NonlinearSystemERNS1_3SolILb1EEERKNS1_3ResILb1EEERKNS1_3JacILb1EEE
FN:174,201,_ZN5neml221NewtonWithTrustRegion15solve_directionERKNS_15NonlinearSystem3ResILb1EEERKNS1_3JacILb1EEE
FN:204,210,_ZNK5neml221NewtonWithTrustRegion24merit_function_reductionERKNS_15NonlinearSystem3ResILb1EEERKNS1_3JacILb1EEERKNS1_3SolILb1EEE
FN:41,85,_ZN5neml221NewtonWithTrustRegion16expected_optionsEv
FN:87,99,_ZN5neml221NewtonWithTrustRegionC2ERKNS_9OptionSetE
FNDA:3,_ZNK5neml221NewtonWithTrustRegion18subproblem_optionsERKNS_9OptionSetE
FNDA:3,_ZNK5neml221NewtonWithTrustRegion25subproblem_solver_optionsERKNS_9OptionSetE
FNDA:3,_ZN5neml221NewtonWithTrustRegion7prepareERKNS_15NonlinearSystemERKNS1_3SolILb1EEE
FNDA:18,_ZN5neml221NewtonWithTrustRegion6updateERNS_15NonlinearSystemERNS1_3SolILb1EEERKNS1_3ResILb1EEERKNS1_3JacILb1EEE
FNDA:18,_ZN5neml221NewtonWithTrustRegion15solve_directionERKNS_15NonlinearSystem3ResILb1EEERKNS1_3JacILb1EEE
FNDA:18,_ZNK5neml221NewtonWithTrustRegion24merit_function_reductionERKNS_15NonlinearSystem3ResILb1EEERKNS1_3JacILb1EEERKNS1_3SolILb1EEE
FNDA:5,_ZN5neml221NewtonWithTrustRegion16expected_optionsEv
FNDA:3,_ZN5neml221NewtonWithTrustRegionC2ERKNS_9OptionSetE
FNF:8
FNH:8
DA:41,5
DA:43,5
DA:44,5
DA:48,5
DA:50,10
DA:51,10
DA:53,10
DA:54,10
DA:56,10
DA:57,15
DA:58,5
DA:60,10
DA:61,15
DA:62,5
DA:64,10
DA:65,10
DA:67,10
DA:68,10
DA:70,10
DA:71,15
DA:72,5
DA:74,10
DA:75,10
DA:77,10
DA:78,10
DA:80,10
DA:81,10
DA:82,5
DA:84,5
DA:85,0
DA:87,3
DA:89,3
DA:90,3
DA:91,6
DA:92,6
DA:93,6
DA:94,6
DA:95,6
DA:96,6
DA:97,9
DA:99,3
DA:102,3
DA:105,3
DA:109,3
DA:111,3
DA:112,12
DA:113,12
DA:114,9
DA:115,3
DA:116,0
DA:119,3
DA:122,3
DA:123,3
DA:126,18
DA:131,18
DA:134,18
DA:135,18
DA:138,18
DA:139,18
DA:140,18
DA:141,18
DA:144,18
DA:147,72
DA:148,90
DA:149,36
DA:150,36
DA:151,126
DA:153,18
DA:156,18
DA:159,18
DA:161,0
DA:162,0
DA:163,0
DA:164,0
DA:165,0
DA:166,0
DA:167,0
DA:170,18
DA:171,306
DA:174,18
DA:178,18
DA:181,18
DA:183,18
DA:186,18
DA:188,0
DA:189,0
DA:190,0
DA:193,18
DA:194,18
DA:197,18
DA:199,54
DA:200,72
DA:201,18
DA:204,18
DA:208,18
DA:209,36
DA:210,18
LF:97
LH:85
end_of_record
TN:
SF:/home/runner/work/neml2/neml2/src/neml2/solvers/NonlinearSolver.cxx
FN:30,45,_ZN5neml215NonlinearSolver16expected_optionsEv
FN:47,53,_ZN5neml215NonlinearSolverC2ERKNS_9OptionSetE
FNDA:18,_ZN5neml215NonlinearSolver16expected_optionsEv
FNDA:22,_ZN5neml215NonlinearSolverC2ERKNS_9OptionSetE
FNF:2
FNH:2
DA:30,18
DA:32,18
DA:34,36
DA:35,36
DA:37,36
DA:38,36
DA:40,36
DA:41,36
DA:42,18
DA:44,18
DA:45,0
DA:47,22
DA:49,44
DA:50,44
DA:51,44
DA:53,22
LF:16
LH:15
end_of_record
TN:
SF:/home/runner/work/neml2/neml2/src/neml2/solvers/NonlinearSystem.cxx
FN:155,161,_ZNK5neml215NonlinearSystem39ensure_scaling_matrices_initialized_dbgEv
FN:164,171,_ZNK5neml215NonlinearSystem5scaleERKNS0_3ResILb0EEE
FN:174,181,_ZNK5neml215NonlinearSystem7unscaleERKNS0_3ResILb1EEE
FN:184,191,_ZNK5neml215NonlinearSystem5scaleERKNS0_3JacILb0EEE
FN:194,202,_ZNK5neml215NonlinearSystem7unscaleERKNS0_3JacILb1EEE
FN:205,212,_ZNK5neml215NonlinearSystem5scaleERKNS0_3SolILb0EEE
FN:215,222,_ZNK5neml215NonlinearSystem7unscaleERKNS0_3SolILb1EEE
FN:225,228,_ZN5neml215NonlinearSystem9set_guessERKNS0_3SolILb1EEE
FN:35,39,_ZN5neml234currently_solving_nonlinear_systemEv
FN:41,45,_ZN5neml222SolvingNonlinearSystemC2Eb
FN:47,50,_ZN5neml222SolvingNonlinearSystemD2Ev
FN:53,73,_ZN5neml215NonlinearSystem16expected_optionsEv
FN:76,81,_ZN5neml215NonlinearSystem25disable_automatic_scalingERNS_9OptionSetE
FN:84,89,_ZN5neml215NonlinearSystem24enable_automatic_scalingERNS_9OptionSetE
FN:91,96,_ZN5neml215NonlinearSystemC2ERKNS_9OptionSetE
FN:99,152,_ZN5neml215NonlinearSystem12init_scalingERKNS0_3SolILb0EEEb
FNDA:98,_ZNK5neml215NonlinearSystem39ensure_scaling_matrices_initialized_dbgEv
FNDA:1161,_ZNK5neml215NonlinearSystem5scaleERKNS0_3ResILb0EEE
FNDA:0,_ZNK5neml215NonlinearSystem7unscaleERKNS0_3ResILb1EEE
FNDA:779,_ZNK5neml215NonlinearSystem5scaleERKNS0_3JacILb0EEE
FNDA:0,_ZNK5neml215NonlinearSystem7unscaleERKNS0_3JacILb1EEE
FNDA:219,_ZNK5neml215NonlinearSystem5scaleERKNS0_3SolILb0EEE
FNDA:1380,_ZNK5neml215NonlinearSystem7unscaleERKNS0_3SolILb1EEE
FNDA:1162,_ZN5neml215NonlinearSystem9set_guessERKNS0_3SolILb1EEE
FNDA:11963,_ZN5neml234currently_solving_nonlinear_systemEv
FNDA:211,_ZN5neml222SolvingNonlinearSystemC2Eb
FNDA:211,_ZN5neml222SolvingNonlinearSystemD2Ev
FNDA:588,_ZN5neml215NonlinearSystem16expected_optionsEv
FNDA:575,_ZN5neml215NonlinearSystem25disable_automatic_scalingERNS_9OptionSetE
FNDA:12,_ZN5neml215NonlinearSystem24enable_automatic_scalingERNS_9OptionSetE
FNDA:498,_ZN5neml215NonlinearSystemC2ERKNS_9OptionSetE
FNDA:195,_ZN5neml215NonlinearSystem12init_scalingERKNS0_3SolILb0EEEb
FNF:16
FNH:14
DA:35,11963
DA:38,11963
DA:41,211
DA:42,211
DA:44,211
DA:45,211
DA:47,211
DA:49,211
DA:50,211
DA:53,588
DA:55,588
DA:57,1176
DA:58,1764
DA:60,588
DA:62,1176
DA:63,1764
DA:64,588
DA:66,1176
DA:67,1176
DA:70,588
DA:72,588
DA:73,0
DA:76,575
DA:78,1150
DA:79,1150
DA:80,575
DA:81,575
DA:84,12
DA:86,24
DA:87,24
DA:88,12
DA:89,12
DA:91,498
DA:92,996
DA:93,996
DA:94,1494
DA:96,498
DA:99,195
DA:101,195
DA:102,191
DA:104,4
DA:105,0
DA:108,4
DA:111,4
DA:112,4
DA:113,4
DA:115,4
DA:116,0
DA:117,0
DA:119,4
DA:121,8
DA:124,16
DA:125,8
DA:126,16
DA:127,8
DA:129,8
DA:130,0
DA:131,0
DA:132,8
DA:133,4
DA:136,20
DA:138,48
DA:139,80
DA:140,32
DA:141,32
DA:142,32
DA:143,64
DA:144,16
DA:147,4
DA:149,4
DA:150,0
DA:151,0
DA:152,132
DA:155,98
DA:157,98
DA:158,98
DA:159,98
DA:161,98
DA:164,1161
DA:166,1161
DA:167,1126
DA:169,35
DA:170,35
DA:174,0
DA:176,0
DA:177,0
DA:179,0
DA:180,0
DA:184,779
DA:186,779
DA:187,759
DA:189,20
DA:190,20
DA:194,0
DA:196,0
DA:197,0
DA:199,0
DA:201,0
DA:205,219
DA:207,219
DA:208,215
DA:210,4
DA:211,4
DA:215,1380
DA:217,1380
DA:218,1341
DA:220,39
DA:221,39
DA:225,1162
DA:227,1162
DA:228,1162
LF:111
LH:93
end_of_record
TN:
SF:/home/runner/work/neml2/neml2/src/neml2/solvers/Solver.cxx
FN:30,39,_ZN5neml26Solver16expected_optionsEv
FN:41,45,_ZN5neml26SolverC2ERKNS_9OptionSetE
FNDA:18,_ZN5neml26Solver16expected_optionsEv
FNDA:22,_ZN5neml26SolverC2ERKNS_9OptionSetE
FNF:2
FNH:2
DA:30,18
DA:32,18
DA:33,18
DA:35,36
DA:36,18
DA:38,18
DA:39,0
DA:41,22
DA:43,44
DA:45,22
LF:10
LH:9
end_of_record
TN:
SF:/home/runner/work/neml2/neml2/src/neml2/solvers/TrustRegionSubProblem.cxx
FN:35,38,_ZN5neml221TrustRegionSubProblemC2ERKNS_9OptionSetE
FN:41,48,_ZN5neml221TrustRegionSubProblem6reinitERKNS_15NonlinearSystem3ResILb1EEERKNS1_3JacILb1EEERKNS_6ScalarE
FN:51,54,_ZN5neml221TrustRegionSubProblem9set_guessERKNS_15NonlinearSystem3SolILb0EEE
FN:57,69,_ZN5neml221TrustRegionSubProblem8assembleEPNS_15NonlinearSystem3ResILb0EEEPNS1_3JacILb0EEE
FN:72,75,_ZNK5neml221TrustRegionSubProblem20preconditioned_solveERKNS_6ScalarERKNS_6TensorE
FN:78,81,_ZNK5neml221TrustRegionSubProblem24preconditioned_directionERKNS_6ScalarE
FNDA:3,_ZN5neml221TrustRegionSubProblemC2ERKNS_9OptionSetE
FNDA:18,_ZN5neml221TrustRegionSubProblem6reinitERKNS_15NonlinearSystem3ResILb1EEERKNS1_3JacILb1EEERKNS_6ScalarE
FNDA:69,_ZN5neml221TrustRegionSubProblem9set_guessERKNS_15NonlinearSystem3SolILb0EEE
FNDA:120,_ZN5neml221TrustRegionSubProblem8assembleEPNS_15NonlinearSystem3ResILb0EEEPNS1_3JacILb0EEE
FNDA:189,_ZNK5neml221TrustRegionSubProblem20preconditioned_solveERKNS_6ScalarERKNS_6TensorE
FNDA:138,_ZNK5neml221TrustRegionSubProblem24preconditioned_directionERKNS_6ScalarE
FNF:6
FNH:6
DA:35,3
DA:36,3
DA:38,3
DA:41,18
DA:45,18
DA:46,18
DA:47,18
DA:48,18
DA:51,69
DA:53,69
DA:54,69
DA:57,120
DA:60,120
DA:61,120
DA:63,120
DA:64,69
DA:66,120
DA:68,51
DA:69,120
DA:72,189
DA:74,189
DA:78,138
DA:80,138
LF:23
LH:23
end_of_record
TN:
SF:/home/runner/work/neml2/neml2/src/neml2/solvers/link_anchor.cxx
FN:30,34,_neml2_force_link_solvers
FNDA:319,_neml2_force_link_solvers
FNF:1
FNH:1
DA:30,319
DA:33,319
DA:34,319
LF:3
LH:3
end_of_record
TN:
SF:/home/runner/work/neml2/neml2/src/neml2/tensors/Quaternion.cxx
FN:40,44,_ZN5neml210QuaternionC2ERKNS_3RotE
FN:47,64,_ZNK5neml210Quaternion15rotation_matrixEv
FN:67,71,_ZNK5neml210Quaternion4distERKS0_
FNDA:1,_ZN5neml210QuaternionC2ERKNS_3RotE
FNDA:3259,_ZNK5neml210Quaternion15rotation_matrixEv
FNDA:2,_ZNK5neml210Quaternion4distERKS0_
FNF:3
FNH:3
DA:40,1
DA:41,5
DA:42,4
DA:44,4
DA:47,3259
DA:49,3259
DA:51,3259
DA:52,3259
DA:53,3259
DA:55,6518
DA:56,6518
DA:57,6518
DA:58,6518
DA:59,6518
DA:60,6518
DA:61,6518
DA:62,6518
DA:63,13036
DA:64,3259
DA:67,2
DA:69,2
DA:70,4
DA:71,2
LF:23
LH:23
end_of_record
TN:
SF:/home/runner/work/neml2/neml2/src/neml2/tensors/R2.cxx
FN:111,118,_ZN5neml22R24skewERKNS_3VecE
FN:121,124,_ZN5neml22R28identityERKN3c1013TensorOptionsE
FN:127,130,_ZNK5neml22R26rotateERKNS_3RotE
FN:133,136,_ZNK5neml22R26rotateERKS0_
FN:139,145,_ZNK5neml22R27drotateERKNS_3RotE
FN:148,153,_ZNK5neml22R27drotateERKS0_
FN:156,159,_ZNK5neml22R23rowEl
FN:162,165,_ZNK5neml22R23colEl
FN:168,171,_ZNK5neml22R29transposeEv
FN:174,177,_ZN5neml2mlERKNS_2R2ES2_
FN:180,183,_ZN5neml2mlERKNS_2R2ERKNS_3VecE
FN:41,44,_ZN5neml22R2C2ERKNS_3SR2E
FN:46,49,_ZN5neml22R2C2ERKNS_3WR2E
FN:52,55,_ZN5neml22R24fillERKN3c106ScalarERKNS1_13TensorOptionsE
FN:58,61,_ZN5neml22R24fillERKNS_6ScalarE
FN:64,70,_ZN5neml22R24fillERKN3c106ScalarES4_S4_RKNS1_13TensorOptionsE
FN:73,77,_ZN5neml22R24fillERKNS_6ScalarES3_S3_
FN:80,94,_ZN5neml22R24fillERKN3c106ScalarES4_S4_S4_S4_S4_RKNS1_13TensorOptionsE
FN:97,108,_ZN5neml22R24fillERKNS_6ScalarES3_S3_S3_S3_S3_
FNDA:8655,_ZN5neml22R24skewERKNS_3VecE
FNDA:8838,_ZN5neml22R28identityERKN3c1013TensorOptionsE
FNDA:11,_ZNK5neml22R26rotateERKNS_3RotE
FNDA:52,_ZNK5neml22R26rotateERKS0_
FNDA:2,_ZNK5neml22R27drotateERKNS_3RotE
FNDA:9,_ZNK5neml22R27drotateERKS0_
FNDA:3,_ZNK5neml22R23rowEl
FNDA:63,_ZNK5neml22R23colEl
FNDA:3408,_ZNK5neml22R29transposeEv
FNDA:18257,_ZN5neml2mlERKNS_2R2ES2_
FNDA:106,_ZN5neml2mlERKNS_2R2ERKNS_3VecE
FNDA:113,_ZN5neml22R2C2ERKNS_3SR2E
FNDA:12,_ZN5neml22R2C2ERKNS_3WR2E
FNDA:4,_ZN5neml22R24fillERKN3c106ScalarERKNS1_13TensorOptionsE
FNDA:21,_ZN5neml22R24fillERKNS_6ScalarE
FNDA:8,_ZN5neml22R24fillERKN3c106ScalarES4_S4_RKNS1_13TensorOptionsE
FNDA:37,_ZN5neml22R24fillERKNS_6ScalarES3_S3_
FNDA:8,_ZN5neml22R24fillERKN3c106ScalarES4_S4_S4_S4_S4_RKNS1_13TensorOptionsE
FNDA:53,_ZN5neml22R24fillERKNS_6ScalarES3_S3_S3_S3_S3_
FNF:19
FNH:19
DA:41,113
DA:42,113
DA:44,113
DA:46,12
DA:47,12
DA:49,12
DA:52,4
DA:54,4
DA:58,21
DA:60,21
DA:64,8
DA:69,8
DA:73,37
DA:75,37
DA:76,74
DA:77,37
DA:80,8
DA:88,16
DA:89,16
DA:90,16
DA:91,16
DA:92,16
DA:93,24
DA:97,53
DA:104,477
DA:105,212
DA:106,212
DA:107,106
DA:108,795
DA:111,8655
DA:113,8655
DA:114,95205
DA:115,51930
DA:116,51930
DA:117,17310
DA:118,181755
DA:121,8838
DA:123,8838
DA:127,11
DA:129,11
DA:133,52
DA:135,52
DA:139,2
DA:141,2
DA:142,2
DA:143,10
DA:144,14
DA:145,6
DA:148,9
DA:150,9
DA:151,45
DA:152,54
DA:153,36
DA:156,3
DA:158,18
DA:159,6
DA:162,63
DA:164,378
DA:165,126
DA:168,3408
DA:170,3408
DA:174,18257
DA:176,18257
DA:180,106
DA:182,106
LF:65
LH:65
end_of_record
TN:
SF:/home/runner/work/neml2/neml2/src/neml2/tensors/R3.cxx
FN:32,39,_ZN5neml22R311levi_civitaERKN3c1013TensorOptionsE
FNDA:8639,_ZN5neml22R311levi_civitaERKN3c1013TensorOptionsE
FNF:1
FNH:1
DA:32,8639
DA:34,380116
DA:38,51834
DA:39,354199
LF:4
LH:4
end_of_record
TN:
SF:/home/runner/work/neml2/neml2/src/neml2/tensors/R4.cxx
FN:37,40,_ZN5neml22R4C2ERKNS_4SSR4E
FN:42,45,_ZN5neml22R4C2ERKNS_4WWR4E
FN:48,52,_ZNK5neml22R46rotateERKNS_3RotE
FN:55,69,_ZNK5neml22R47drotateERKNS_3RotE
FN:72,76,_ZNK5neml22R412drotate_selfERKNS_3RotE
FN:79,82,_ZNK5neml22R49transposeEll
FN:85,88,_ZNK5neml22R415transpose_minorEv
FN:91,94,_ZNK5neml22R415transpose_majorEv
FNDA:63,_ZN5neml22R4C2ERKNS_4SSR4E
FNDA:0,_ZN5neml22R4C2ERKNS_4WWR4E
FNDA:139,_ZNK5neml22R46rotateERKNS_3RotE
FNDA:7,_ZNK5neml22R47drotateERKNS_3RotE
FNDA:1,_ZNK5neml22R412drotate_selfERKNS_3RotE
FNDA:163,_ZNK5neml22R49transposeEll
FNDA:78,_ZNK5neml22R415transpose_minorEv
FNDA:1,_ZNK5neml22R415transpose_majorEv
FNF:8
FNH:7
DA:37,63
DA:38,63
DA:40,63
DA:42,0
DA:43,0
DA:45,0
DA:48,139
DA:50,139
DA:51,973
DA:52,278
DA:55,7
DA:57,7
DA:58,7
DA:61,42
DA:63,42
DA:65,42
DA:67,42
DA:68,14
DA:69,35
DA:72,1
DA:74,1
DA:75,6
DA:76,2
DA:79,163
DA:81,163
DA:85,78
DA:87,78
DA:91,1
DA:93,1
LF:29
LH:26
end_of_record
TN:
SF:/home/runner/work/neml2/neml2/src/neml2/tensors/Rot.cxx
FN:140,155,_ZN5neml23Rot11fill_matrixERKNS_2R2E
FN:158,166,_ZN5neml23Rot14fill_rodriguesERKNS_6ScalarES3_S3_
FN:169,178,_ZN5neml23Rot16rotation_from_toERKNS_3VecES3_
FN:181,187,_ZN5neml23Rot10axis_angleERKNS_3VecERKNS_6ScalarE
FN:190,194,_ZN5neml23Rot19axis_angle_standardERKNS_3VecERKNS_6ScalarE
FN:197,205,_ZNK5neml23Rot15euler_rodriguesEv
FN:208,220,_ZNK5neml23Rot16deuler_rodriguesEv
FN:223,226,_ZNK5neml23Rot6rotateERKS0_
FN:229,242,_ZNK5neml23Rot7drotateERKS0_
FN:245,258,_ZNK5neml23Rot12drotate_selfERKS0_
FN:261,264,_ZNK5neml23Rot6shadowEv
FN:267,271,_ZNK5neml23Rot7dshadowEv
FN:274,284,_ZNK5neml23Rot4distERKS0_
FN:287,293,_ZNK5neml23Rot5gdistERKS0_
FN:296,299,_ZNK5neml23Rot2dVEv
FN:302,327,_ZNK5neml23Rot15to_euler_anglesERKNSt7__cxx1112basic_stringIcSt11char_traitsIcESaIcEEES8_
FN:330,337,_ZN5neml2mlERKNS_3RotES2_
FN:340,371,_ZN5neml231convert_euler_angles_from_kocksERKNS_3VecERKNSt7__cxx1112basic_stringIcSt11char_traitsIcESaIcEEE
FN:63,66,_ZN5neml23Rot4randERKN3c1013TensorOptionsE
FN:69,83,_ZN5neml23Rot4randERKNS_20TraceableTensorShapeEN3c108ArrayRefIlEERKNS4_13TensorOptionsE
FN:86,89,_ZN5neml23Rot8identityERKN3c1013TensorOptionsE
FN:92,137,_ZN5neml23Rot17fill_euler_anglesERKNS_3VecERKNSt7__cxx1112basic_stringIcSt11char_traitsIcESaIcEEESB_
FNDA:2125,_ZN5neml23Rot11fill_matrixERKNS_2R2E
FNDA:2125,_ZN5neml23Rot14fill_rodriguesERKNS_6ScalarES3_S3_
FNDA:1,_ZN5neml23Rot16rotation_from_toERKNS_3VecES3_
FNDA:3,_ZN5neml23Rot10axis_angleERKNS_3VecERKNS_6ScalarE
FNDA:1,_ZN5neml23Rot19axis_angle_standardERKNS_3VecERKNS_6ScalarE
FNDA:8620,_ZNK5neml23Rot15euler_rodriguesEv
FNDA:18,_ZNK5neml23Rot16deuler_rodriguesEv
FNDA:27,_ZNK5neml23Rot6rotateERKS0_
FNDA:7,_ZNK5neml23Rot7drotateERKS0_
FNDA:3,_ZNK5neml23Rot12drotate_selfERKS0_
FNDA:7,_ZNK5neml23Rot6shadowEv
FNDA:2,_ZNK5neml23Rot7dshadowEv
FNDA:0,_ZNK5neml23Rot4distERKS0_
FNDA:0,_ZNK5neml23Rot5gdistERKS0_
FNDA:0,_ZNK5neml23Rot2dVEv
FNDA:6,_ZNK5neml23Rot15to_euler_anglesERKNSt7__cxx1112basic_stringIcSt11char_traitsIcESaIcEEES8_
FNDA:28,_ZN5neml2mlERKNS_3RotES2_
FNDA:6,_ZN5neml231convert_euler_angles_from_kocksERKNS_3VecERKNSt7__cxx1112basic_stringIcSt11char_traitsIcESaIcEEE
FNDA:3,_ZN5neml23Rot4randERKN3c1013TensorOptionsE
FNDA:17,_ZN5neml23Rot4randERKNS_20TraceableTensorShapeEN3c108ArrayRefIlEERKNS4_13TensorOptionsE
FNDA:2,_ZN5neml23Rot8identityERKN3c1013TensorOptionsE
FNDA:16,_ZN5neml23Rot17fill_euler_anglesERKNS_3VecERKNSt7__cxx1112basic_stringIcSt11char_traitsIcESaIcEEESB_
FNF:22
FNH:19
DA:63,3
DA:65,3
DA:69,17
DA:73,17
DA:75,17
DA:76,17
DA:77,17
DA:78,17
DA:80,102
DA:82,34
DA:83,34
DA:86,2
DA:88,2
DA:92,16
DA:96,16
DA:98,16
DA:99,10
DA:101,6
DA:103,16
DA:105,40
DA:106,40
DA:107,40
DA:109,8
DA:111,16
DA:114,4
DA:117,16
DA:118,32
DA:119,32
DA:120,32
DA:121,48
DA:122,32
DA:123,48
DA:124,32
DA:125,64
DA:126,48
DA:127,32
DA:128,48
DA:129,32
DA:130,64
DA:131,64
DA:132,64
DA:133,64
DA:136,32
DA:137,264
DA:140,2125
DA:143,2125
DA:144,2125
DA:147,2125
DA:148,10625
DA:150,2125
DA:151,2125
DA:152,2125
DA:154,4250
DA:155,10625
DA:158,2125
DA:161,2125
DA:162,2125
DA:165,12750
DA:166,4250
DA:169,1
DA:171,1
DA:172,1
DA:174,1
DA:175,1
DA:177,2
DA:178,1
DA:181,3
DA:183,3
DA:184,3
DA:186,6
DA:187,3
DA:190,1
DA:192,1
DA:193,2
DA:194,1
DA:197,8620
DA:199,8620
DA:200,8620
DA:201,8620
DA:203,17240
DA:204,34480
DA:205,8620
DA:208,18
DA:210,18
DA:211,18
DA:212,18
DA:213,18
DA:215,72
DA:216,108
DA:217,54
DA:218,36
DA:219,162
DA:220,108
DA:223,27
DA:225,27
DA:229,7
DA:231,7
DA:233,7
DA:234,7
DA:235,7
DA:236,7
DA:237,7
DA:239,14
DA:240,14
DA:241,42
DA:242,7
DA:245,3
DA:247,3
DA:249,3
DA:250,3
DA:251,3
DA:252,3
DA:253,3
DA:255,6
DA:256,6
DA:257,18
DA:258,3
DA:261,7
DA:263,7
DA:267,2
DA:269,2
DA:270,4
DA:271,2
DA:274,0
DA:276,0
DA:277,0
DA:278,0
DA:279,0
DA:280,0
DA:281,0
DA:283,0
DA:284,0
DA:287,0
DA:289,0
DA:290,0
DA:291,0
DA:292,0
DA:296,0
DA:298,0
DA:302,6
DA:304,6
DA:305,6
DA:307,42
DA:308,36
DA:310,18
DA:311,6
DA:312,36
DA:313,36
DA:314,30
DA:316,24
DA:318,6
DA:320,6
DA:322,6
DA:323,3
DA:325,3
DA:326,12
DA:327,72
DA:330,28
DA:332,28
DA:333,28
DA:335,56
DA:336,112
DA:337,28
DA:340,6
DA:342,6
DA:344,6
DA:346,2
DA:348,4
DA:350,4
DA:351,4
DA:352,4
DA:354,16
DA:356,6
DA:357,2
DA:358,2
DA:360,4
DA:361,4
DA:362,4
DA:364,10
DA:365,2
DA:368,0
DA:370,6
DA:371,26
LF:183
LH:166
end_of_record
TN:
SF:/home/runner/work/neml2/neml2/src/neml2/tensors/SR2.cxx
FN:105,108,_ZN5neml23SR28identityERKN3c1013TensorOptionsE
FN:111,114,_ZNK5neml23SR26rotateERKNS_3RotE
FN:117,120,_ZNK5neml23SR26rotateERKNS_2R2E
FN:123,127,_ZNK5neml23SR27drotateERKNS_3RotE
FN:130,134,_ZNK5neml23SR27drotateERKNS_2R2E
FN:137,141,_ZNK5neml23SR2clEll
FN:144,147,_ZNK5neml23SR29transposeEv
FN:42,45,_ZN5neml23SR2C2ERKNS_2R2E
FN:48,51,_ZN5neml23SR24fillERKN3c106ScalarERKNS1_13TensorOptionsE
FN:54,57,_ZN5neml23SR24fillERKNS_6ScalarE
FN:60,66,_ZN5neml23SR24fillERKN3c106ScalarES4_S4_RKNS1_13TensorOptionsE
FN:69,73,_ZN5neml23SR24fillERKNS_6ScalarES3_S3_
FN:76,90,_ZN5neml23SR24fillERKN3c106ScalarES4_S4_S4_S4_S4_RKNS1_13TensorOptionsE
FN:93,102,_ZN5neml23SR24fillERKNS_6ScalarES3_S3_S3_S3_S3_
FNDA:361,_ZN5neml23SR28identityERKN3c1013TensorOptionsE
FNDA:5,_ZNK5neml23SR26rotateERKNS_3RotE
FNDA:28,_ZNK5neml23SR26rotateERKNS_2R2E
FNDA:1,_ZNK5neml23SR27drotateERKNS_3RotE
FNDA:7,_ZNK5neml23SR27drotateERKNS_2R2E
FNDA:9,_ZNK5neml23SR2clEll
FNDA:0,_ZNK5neml23SR29transposeEv
FNDA:136,_ZN5neml23SR2C2ERKNS_2R2E
FNDA:3,_ZN5neml23SR24fillERKN3c106ScalarERKNS1_13TensorOptionsE
FNDA:24,_ZN5neml23SR24fillERKNS_6ScalarE
FNDA:19,_ZN5neml23SR24fillERKN3c106ScalarES4_S4_RKNS1_13TensorOptionsE
FNDA:80,_ZN5neml23SR24fillERKNS_6ScalarES3_S3_
FNDA:7,_ZN5neml23SR24fillERKN3c106ScalarES4_S4_S4_S4_S4_RKNS1_13TensorOptionsE
FNDA:114,_ZN5neml23SR24fillERKNS_6ScalarES3_S3_S3_S3_S3_
FNF:14
FNH:13
DA:42,136
DA:43,136
DA:45,136
DA:48,3
DA:50,3
DA:54,24
DA:56,24
DA:60,19
DA:65,19
DA:69,80
DA:71,80
DA:72,720
DA:73,160
DA:76,7
DA:84,14
DA:85,14
DA:86,14
DA:87,14
DA:88,14
DA:89,21
DA:93,114
DA:100,1026
DA:101,570
DA:102,456
DA:105,361
DA:107,2527
DA:108,361
DA:111,5
DA:113,5
DA:117,28
DA:119,28
DA:123,1
DA:125,1
DA:126,2
DA:127,1
DA:130,7
DA:132,7
DA:133,14
DA:134,7
DA:137,9
DA:139,9
DA:140,27
DA:141,9
DA:144,0
DA:146,0
LF:45
LH:43
end_of_record
TN:
SF:/home/runner/work/neml2/neml2/src/neml2/tensors/SSR4.cxx
FN:101,104,_ZN5neml24SSR412identity_symERKN3c1013TensorOptionsE
FN:107,110,_ZN5neml24SSR412identity_volERKN3c1013TensorOptionsE
FN:113,116,_ZN5neml24SSR412identity_devERKN3c1013TensorOptionsE
FN:119,130,_ZN5neml24SSR414isotropic_E_nuERKNS_6ScalarES3_
FN:133,136,_ZN5neml24SSR414isotropic_E_nuERKdS2_RKN3c1013TensorOptionsE
FN:139,145,_ZN5neml24SSR413fill_C1_C2_C3ERKNS_6ScalarES3_S3_
FN:148,154,_ZN5neml24SSR413fill_C1_C2_C3ERKdS2_S2_RKN3c1013TensorOptionsE
FN:157,160,_ZNK5neml24SSR46rotateERKNS_3RotE
FN:163,167,_ZNK5neml24SSR47drotateERKNS_3RotE
FN:170,180,_ZNK5neml24SSR412drotate_selfERKNS_3RotE
FN:183,188,_ZNK5neml24SSR4clEllll
FN:191,194,_ZNK5neml24SSR415transpose_minorEv
FN:197,200,_ZNK5neml24SSR415transpose_majorEv
FN:203,206,_ZN5neml2mlERKNS_4SSR4ES2_
FN:209,212,_ZN5neml2mlERKNS_4SSR4ERKNS_3SR2E
FN:40,46,_ZN5neml24SSR4C2ERKNS_2R4E
FN:49,59,_ZN5neml24SSR48identityERKN3c1013TensorOptionsE
FN:62,72,_ZN5neml24SSR411identity_C1ERKN3c1013TensorOptionsE
FN:75,85,_ZN5neml24SSR411identity_C2ERKN3c1013TensorOptionsE
FN:88,98,_ZN5neml24SSR411identity_C3ERKN3c1013TensorOptionsE
FNDA:197,_ZN5neml24SSR412identity_symERKN3c1013TensorOptionsE
FNDA:22,_ZN5neml24SSR412identity_volERKN3c1013TensorOptionsE
FNDA:56,_ZN5neml24SSR412identity_devERKN3c1013TensorOptionsE
FNDA:1,_ZN5neml24SSR414isotropic_E_nuERKNS_6ScalarES3_
FNDA:0,_ZN5neml24SSR414isotropic_E_nuERKdS2_RKN3c1013TensorOptionsE
FNDA:1,_ZN5neml24SSR413fill_C1_C2_C3ERKNS_6ScalarES3_S3_
FNDA:0,_ZN5neml24SSR413fill_C1_C2_C3ERKdS2_S2_RKN3c1013TensorOptionsE
FNDA:52,_ZNK5neml24SSR46rotateERKNS_3RotE
FNDA:6,_ZNK5neml24SSR47drotateERKNS_3RotE
FNDA:3,_ZNK5neml24SSR412drotate_selfERKNS_3RotE
FNDA:405,_ZNK5neml24SSR4clEllll
FNDA:0,_ZNK5neml24SSR415transpose_minorEv
FNDA:1,_ZNK5neml24SSR415transpose_majorEv
FNDA:19,_ZN5neml2mlERKNS_4SSR4ES2_
FNDA:46,_ZN5neml2mlERKNS_4SSR4ERKNS_3SR2E
FNDA:72,_ZN5neml24SSR4C2ERKNS_2R4E
FNDA:110,_ZN5neml24SSR48identityERKN3c1013TensorOptionsE
FNDA:5,_ZN5neml24SSR411identity_C1ERKN3c1013TensorOptionsE
FNDA:5,_ZN5neml24SSR411identity_C2ERKN3c1013TensorOptionsE
FNDA:5,_ZN5neml24SSR411identity_C3ERKN3c1013TensorOptionsE
FNF:20
FNH:17
DA:40,72
DA:41,144
DA:42,144
DA:44,72
DA:46,72
DA:49,110
DA:51,4840
DA:58,990
DA:59,4180
DA:62,5
DA:64,220
DA:71,45
DA:72,190
DA:75,5
DA:77,220
DA:84,45
DA:85,190
DA:88,5
DA:90,220
DA:97,45
DA:98,190
DA:101,197
DA:103,197
DA:107,22
DA:109,44
DA:113,56
DA:115,56
DA:119,1
DA:121,1
DA:123,1
DA:124,1
DA:125,1
DA:126,1
DA:127,1
DA:129,2
DA:130,1
DA:133,0
DA:135,0
DA:139,1
DA:141,1
DA:143,2
DA:144,3
DA:148,0
DA:153,0
DA:157,52
DA:159,52
DA:163,6
DA:165,6
DA:166,12
DA:167,6
DA:170,3
DA:172,3
DA:173,18
DA:174,24
DA:175,21
DA:176,21
DA:177,6
DA:178,6
DA:179,6
DA:180,15
DA:183,405
DA:185,405
DA:186,405
DA:187,1620
DA:188,405
DA:191,0
DA:193,0
DA:197,1
DA:199,1
DA:203,19
DA:205,19
DA:209,46
DA:211,46
LF:73
LH:67
end_of_record
TN:
SF:/home/runner/work/neml2/neml2/src/neml2/tensors/SWR4.cxx
FN:32,35,_ZN5neml24SWR4C2ERKNS_2R4E
FNDA:1,_ZN5neml24SWR4C2ERKNS_2R4E
FNF:1
FNH:1
DA:32,1
DA:33,1
DA:35,1
LF:3
LH:3
end_of_record
TN:
SF:/home/runner/work/neml2/neml2/src/neml2/tensors/Scalar.cxx
FN:30,37,_ZN5neml26ScalarC2ERKN3c106ScalarERKNS1_13TensorOptionsE
FNDA:1178,_ZN5neml26ScalarC2ERKN3c106ScalarERKNS1_13TensorOptionsE
FNF:1
FNH:1
DA:30,1178
DA:31,1178
DA:33,1178
DA:34,1178
DA:37,1178
LF:5
LH:5
end_of_record
TN:
SF:/home/runner/work/neml2/neml2/src/neml2/tensors/Tensor.cxx
FN:105,121,_ZN5neml26Tensor5emptyERKNS_20TraceableTensorShapeEN3c108ArrayRefIlEES6_RKNS4_13TensorOptionsE
FN:124,127,_ZN5neml26Tensor5zerosEN3c108ArrayRefIlEERKNS1_13TensorOptionsE
FN:130,145,_ZN5neml26Tensor5zerosERKNS_20TraceableTensorShapeEN3c108ArrayRefIlEES6_RKNS4_13TensorOptionsE
FN:148,151,_ZN5neml26Tensor4onesEN3c108ArrayRefIlEERKNS1_13TensorOptionsE
FN:154,169,_ZN5neml26Tensor4onesERKNS_20TraceableTensorShapeEN3c108ArrayRefIlEES6_RKNS4_13TensorOptionsE
FN:172,175,_ZN5neml26Tensor4fullEN3c108ArrayRefIlEERKNS1_6ScalarERKNS1_13TensorOptionsE
FN:178,194,_ZN5neml26Tensor4fullERKNS_20TraceableTensorShapeEN3c108ArrayRefIlEES6_RKNS4_6ScalarERKNS4_13TensorOptionsE
FN:197,200,_ZN5neml26Tensor4randEN3c108ArrayRefIlEERKNS1_13TensorOptionsE
FN:203,218,_ZN5neml26Tensor4randERKNS_20TraceableTensorShapeEN3c108ArrayRefIlEES6_RKNS4_13TensorOptionsE
FN:221,224,_ZN5neml26Tensor8identityElRKN3c1013TensorOptionsE
FN:37,43,_ZN5neml25utilsL11pad_prependERKN2at6TensorEll
FN:46,66,_ZN5neml25utils23broadcast_dynamic_sizesERKSt6vectorINS_6TensorESaIS2_EE
FN:69,72,_ZN5neml26TensorC2ERKN2at6TensorEll
FN:74,77,_ZN5neml26TensorC2ERKN2at6TensorERKNS_20TraceableTensorShapeEl
FN:80,83,_ZN5neml26Tensor6createERKN5torch6detail19TensorDataContainerERKN3c1013TensorOptionsE
FN:86,96,_ZN5neml26Tensor6createERKN5torch6detail19TensorDataContainerEllRKN3c1013TensorOptionsE
FN:99,102,_ZN5neml26Tensor5emptyEN3c108ArrayRefIlEERKNS1_13TensorOptionsE
FNDA:154,_ZN5neml26Tensor5emptyERKNS_20TraceableTensorShapeEN3c108ArrayRefIlEES6_RKNS4_13TensorOptionsE
FNDA:281,_ZN5neml26Tensor5zerosEN3c108ArrayRefIlEERKNS1_13TensorOptionsE
FNDA:487,_ZN5neml26Tensor5zerosERKNS_20TraceableTensorShapeEN3c108ArrayRefIlEES6_RKNS4_13TensorOptionsE
FNDA:282,_ZN5neml26Tensor4onesEN3c108ArrayRefIlEERKNS1_13TensorOptionsE
FNDA:203,_ZN5neml26Tensor4onesERKNS_20TraceableTensorShapeEN3c108ArrayRefIlEES6_RKNS4_13TensorOptionsE
FNDA:1972,_ZN5neml26Tensor4fullEN3c108ArrayRefIlEERKNS1_6ScalarERKNS1_13TensorOptionsE
FNDA:373,_ZN5neml26Tensor4fullERKNS_20TraceableTensorShapeEN3c108ArrayRefIlEES6_RKNS4_6ScalarERKNS4_13TensorOptionsE
FNDA:48,_ZN5neml26Tensor4randEN3c108ArrayRefIlEERKNS1_13TensorOptionsE
FNDA:85,_ZN5neml26Tensor4randERKNS_20TraceableTensorShapeEN3c108ArrayRefIlEES6_RKNS4_13TensorOptionsE
FNDA:9061,_ZN5neml26Tensor8identityElRKN3c1013TensorOptionsE
FNDA:4054,_ZN5neml25utilsL11pad_prependERKN2at6TensorEll
FNDA:4161,_ZN5neml25utils23broadcast_dynamic_sizesERKSt6vectorINS_6TensorESaIS2_EE
FNDA:71506,_ZN5neml26TensorC2ERKN2at6TensorEll
FNDA:6563446,_ZN5neml26TensorC2ERKN2at6TensorERKNS_20TraceableTensorShapeEl
FNDA:375,_ZN5neml26Tensor6createERKN5torch6detail19TensorDataContainerERKN3c1013TensorOptionsE
FNDA:512,_ZN5neml26Tensor6createERKN5torch6detail19TensorDataContainerEllRKN3c1013TensorOptionsE
FNDA:136,_ZN5neml26Tensor5emptyEN3c108ArrayRefIlEERKNS1_13TensorOptionsE
FNF:17
FNH:17
DA:37,4054
DA:39,4054
DA:40,4054
DA:41,4054
DA:42,24324
DA:43,12162
DA:46,4161
DA:48,4161
DA:49,4161
DA:50,16258
DA:51,12097
DA:53,12082
DA:54,12082
DA:55,12082
DA:56,4054
DA:57,12082
DA:58,4161
DA:59,2716
DA:61,5499
DA:62,4054
DA:64,1445
DA:65,1445
DA:66,4161
DA:69,71506
DA:70,71506
DA:72,71506
DA:74,6563446
DA:75,6563446
DA:77,6563446
DA:80,375
DA:82,375
DA:86,512
DA:91,1024
DA:92,512
DA:95,1024
DA:99,136
DA:101,136
DA:105,154
DA:111,154
DA:112,0
DA:113,0
DA:114,0
DA:115,0
DA:118,308
DA:120,462
DA:124,281
DA:126,281
DA:130,487
DA:136,567
DA:137,80
DA:138,27
DA:139,9
DA:142,974
DA:144,1461
DA:148,282
DA:150,282
DA:154,203
DA:160,282
DA:161,79
DA:162,0
DA:163,0
DA:166,406
DA:168,609
DA:172,1972
DA:174,1972
DA:178,373
DA:185,911
DA:186,538
DA:187,0
DA:188,0
DA:191,746
DA:193,1119
DA:197,48
DA:199,48
DA:203,85
DA:209,118
DA:210,33
DA:211,0
DA:212,0
DA:215,170
DA:217,255
DA:221,9061
DA:223,9061
LF:83
LH:73
end_of_record
TN:
SF:/home/runner/work/neml2/neml2/src/neml2/tensors/TensorCache.cxx
FN:30,33,_ZN5neml211TensorCacheC2EOSt8functionIFNS_6TensorERKN3c1013TensorOptionsEEE
FN:36,47,_ZN5neml211TensorCacheclERKN3c1013TensorOptionsE
FN:50,53,_ZNK5neml211TensorCache8CacheKeyeqERKS1_
FNDA:8,_ZN5neml211TensorCacheC2EOSt8functionIFNS_6TensorERKN3c1013TensorOptionsEEE
FNDA:1258,_ZN5neml211TensorCacheclERKN3c1013TensorOptionsE
FNDA:1261,_ZNK5neml211TensorCache8CacheKeyeqERKS1_
FNF:3
FNH:3
DA:30,8
DA:31,8
DA:33,8
DA:36,1258
DA:38,1258
DA:39,1258
DA:40,1258
DA:42,9
DA:43,9
DA:44,9
DA:46,1249
DA:50,1261
DA:52,1261
LF:13
LH:13
end_of_record
TN:
SF:/home/runner/work/neml2/neml2/src/neml2/tensors/TensorValue.cxx
FN:32,35,_ZN5neml211TensorValueINS_10QuaternionEE3to_ERKN3c1013TensorOptionsE
FN:32,35,_ZN5neml211TensorValueINS_11MillerIndexEE3to_ERKN3c1013TensorOptionsE
FN:32,35,_ZN5neml211TensorValueINS_2R2EE3to_ERKN3c1013TensorOptionsE
FN:32,35,_ZN5neml211TensorValueINS_2R3EE3to_ERKN3c1013TensorOptionsE
FN:32,35,_ZN5neml211TensorValueINS_2R4EE3to_ERKN3c1013TensorOptionsE
FN:32,35,_ZN5neml211TensorValueINS_3RotEE3to_ERKN3c1013TensorOptionsE
FN:32,35,_ZN5neml211TensorValueINS_3SR2EE3to_ERKN3c1013TensorOptionsE
FN:32,35,_ZN5neml211TensorValueINS_3VecEE3to_ERKN3c1013TensorOptionsE
FN:32,35,_ZN5neml211TensorValueINS_3WR2EE3to_ERKN3c1013TensorOptionsE
FN:32,35,_ZN5neml211TensorValueINS_4SFR3EE3to_ERKN3c1013TensorOptionsE
FN:32,35,_ZN5neml211TensorValueINS_4SSR4EE3to_ERKN3c1013TensorOptionsE
FN:32,35,_ZN5neml211TensorValueINS_4SWR4EE3to_ERKN3c1013TensorOptionsE
FN:32,35,_ZN5neml211TensorValueINS_4WSR4EE3to_ERKN3c1013TensorOptionsE
FN:32,35,_ZN5neml211TensorValueINS_4WWR4EE3to_ERKN3c1013TensorOptionsE
FN:32,35,_ZN5neml211TensorValueINS_5SFFR4EE3to_ERKN3c1013TensorOptionsE
FN:32,35,_ZN5neml211TensorValueINS_5WFFR4EE3to_ERKN3c1013TensorOptionsE
FN:32,35,_ZN5neml211TensorValueINS_6ScalarEE3to_ERKN3c1013TensorOptionsE
FN:32,35,_ZN5neml211TensorValueINS_6TensorEE3to_ERKN3c1013TensorOptionsE
FN:39,42,_ZN5neml211TensorValueINS_10QuaternionEE14requires_grad_Eb
FN:39,42,_ZN5neml211TensorValueINS_11MillerIndexEE14requires_grad_Eb
FN:39,42,_ZN5neml211TensorValueINS_2R2EE14requires_grad_Eb
FN:39,42,_ZN5neml211TensorValueINS_2R3EE14requires_grad_Eb
FN:39,42,_ZN5neml211TensorValueINS_2R4EE14requires_grad_Eb
FN:39,42,_ZN5neml211TensorValueINS_3RotEE14requires_grad_Eb
FN:39,42,_ZN5neml211TensorValueINS_3SR2EE14requires_grad_Eb
FN:39,42,_ZN5neml211TensorValueINS_3VecEE14requires_grad_Eb
FN:39,42,_ZN5neml211TensorValueINS_3WR2EE14requires_grad_Eb
FN:39,42,_ZN5neml211TensorValueINS_4SFR3EE14requires_grad_Eb
FN:39,42,_ZN5neml211TensorValueINS_4SSR4EE14requires_grad_Eb
FN:39,42,_ZN5neml211TensorValueINS_4SWR4EE14requires_grad_Eb
FN:39,42,_ZN5neml211TensorValueINS_4WSR4EE14requires_grad_Eb
FN:39,42,_ZN5neml211TensorValueINS_4WWR4EE14requires_grad_Eb
FN:39,42,_ZN5neml211TensorValueINS_5SFFR4EE14requires_grad_Eb
FN:39,42,_ZN5neml211TensorValueINS_5WFFR4EE14requires_grad_Eb
FN:39,42,_ZN5neml211TensorValueINS_6ScalarEE14requires_grad_Eb
FN:39,42,_ZN5neml211TensorValueINS_6TensorEE14requires_grad_Eb
FN:45,48,_ZNK5neml211TensorValueINS_10QuaternionEEcvNS_6TensorEEv
FN:45,48,_ZNK5neml211TensorValueINS_11MillerIndexEEcvNS_6TensorEEv
FN:45,48,_ZNK5neml211TensorValueINS_2R2EEcvNS_6TensorEEv
FN:45,48,_ZNK5neml211TensorValueINS_2R3EEcvNS_6TensorEEv
FN:45,48,_ZNK5neml211TensorValueINS_2R4EEcvNS_6TensorEEv
FN:45,48,_ZNK5neml211TensorValueINS_3RotEEcvNS_6TensorEEv
FN:45,48,_ZNK5neml211TensorValueINS_3SR2EEcvNS_6TensorEEv
FN:45,48,_ZNK5neml211TensorValueINS_3VecEEcvNS_6TensorEEv
FN:45,48,_ZNK5neml211TensorValueINS_3WR2EEcvNS_6TensorEEv
FN:45,48,_ZNK5neml211TensorValueINS_4SFR3EEcvNS_6TensorEEv
FN:45,48,_ZNK5neml211TensorValueINS_4SSR4EEcvNS_6TensorEEv
FN:45,48,_ZNK5neml211TensorValueINS_4SWR4EEcvNS_6TensorEEv
FN:45,48,_ZNK5neml211TensorValueINS_4WSR4EEcvNS_6TensorEEv
FN:45,48,_ZNK5neml211TensorValueINS_4WWR4EEcvNS_6TensorEEv
FN:45,48,_ZNK5neml211TensorValueINS_5SFFR4EEcvNS_6TensorEEv
FN:45,48,_ZNK5neml211TensorValueINS_5WFFR4EEcvNS_6TensorEEv
FN:45,48,_ZNK5neml211TensorValueINS_6ScalarEEcvNS_6TensorEEv
FN:45,48,_ZNK5neml211TensorValueINS_6TensorEEcvS1_Ev
FN:52,56,_ZN5neml211TensorValueINS_10QuaternionEEaSERKNS_6TensorE
FN:52,56,_ZN5neml211TensorValueINS_11MillerIndexEEaSERKNS_6TensorE
FN:52,56,_ZN5neml211TensorValueINS_2R2EEaSERKNS_6TensorE
FN:52,56,_ZN5neml211TensorValueINS_2R3EEaSERKNS_6TensorE
FN:52,56,_ZN5neml211TensorValueINS_2R4EEaSERKNS_6TensorE
FN:52,56,_ZN5neml211TensorValueINS_3RotEEaSERKNS_6TensorE
FN:52,56,_ZN5neml211TensorValueINS_3SR2EEaSERKNS_6TensorE
FN:52,56,_ZN5neml211TensorValueINS_3VecEEaSERKNS_6TensorE
FN:52,56,_ZN5neml211TensorValueINS_3WR2EEaSERKNS_6TensorE
FN:52,56,_ZN5neml211TensorValueINS_4SFR3EEaSERKNS_6TensorE
FN:52,56,_ZN5neml211TensorValueINS_4SSR4EEaSERKNS_6TensorE
FN:52,56,_ZN5neml211TensorValueINS_4SWR4EEaSERKNS_6TensorE
FN:52,56,_ZN5neml211TensorValueINS_4WSR4EEaSERKNS_6TensorE
FN:52,56,_ZN5neml211TensorValueINS_4WWR4EEaSERKNS_6TensorE
FN:52,56,_ZN5neml211TensorValueINS_5SFFR4EEaSERKNS_6TensorE
FN:52,56,_ZN5neml211TensorValueINS_5WFFR4EEaSERKNS_6TensorE
FN:52,56,_ZN5neml211TensorValueINS_6ScalarEEaSERKNS_6TensorE
FN:52,56,_ZN5neml211TensorValueINS_6TensorEEaSERKS1_
FN:60,63,_ZNK5neml211TensorValueINS_10QuaternionEE4typeEv
FN:60,63,_ZNK5neml211TensorValueINS_11MillerIndexEE4typeEv
FN:60,63,_ZNK5neml211TensorValueINS_2R2EE4typeEv
FN:60,63,_ZNK5neml211TensorValueINS_2R3EE4typeEv
FN:60,63,_ZNK5neml211TensorValueINS_2R4EE4typeEv
FN:60,63,_ZNK5neml211TensorValueINS_3RotEE4typeEv
FN:60,63,_ZNK5neml211TensorValueINS_3SR2EE4typeEv
FN:60,63,_ZNK5neml211TensorValueINS_3VecEE4typeEv
FN:60,63,_ZNK5neml211TensorValueINS_3WR2EE4typeEv
FN:60,63,_ZNK5neml211TensorValueINS_4SFR3EE4typeEv
FN:60,63,_ZNK5neml211TensorValueINS_4SSR4EE4typeEv
FN:60,63,_ZNK5neml211TensorValueINS_4SWR4EE4typeEv
FN:60,63,_ZNK5neml211TensorValueINS_4WSR4EE4typeEv
FN:60,63,_ZNK5neml211TensorValueINS_4WWR4EE4typeEv
FN:60,63,_ZNK5neml211TensorValueINS_5SFFR4EE4typeEv
FN:60,63,_ZNK5neml211TensorValueINS_5WFFR4EE4typeEv
FN:60,63,_ZNK5neml211TensorValueINS_6ScalarEE4typeEv
FN:60,63,_ZNK5neml211TensorValueINS_6TensorEE4typeEv
FN:67,70,_ZN5neml211TensorValueINS_10QuaternionEE6assignERKN2at6TensorENS_15TracerPrivilegeE
FN:67,70,_ZN5neml211TensorValueINS_11MillerIndexEE6assignERKN2at6TensorENS_15TracerPrivilegeE
FN:67,70,_ZN5neml211TensorValueINS_2R2EE6assignERKN2at6TensorENS_15TracerPrivilegeE
FN:67,70,_ZN5neml211TensorValueINS_2R3EE6assignERKN2at6TensorENS_15TracerPrivilegeE
FN:67,70,_ZN5neml211TensorValueINS_2R4EE6assignERKN2at6TensorENS_15TracerPrivilegeE
FN:67,70,_ZN5neml211TensorValueINS_3RotEE6assignERKN2at6TensorENS_15TracerPrivilegeE
FN:67,70,_ZN5neml211TensorValueINS_3SR2EE6assignERKN2at6TensorENS_15TracerPrivilegeE
FN:67,70,_ZN5neml211TensorValueINS_3VecEE6assignERKN2at6TensorENS_15TracerPrivilegeE
FN:67,70,_ZN5neml211TensorValueINS_3WR2EE6assignERKN2at6TensorENS_15TracerPrivilegeE
FN:67,70,_ZN5neml211TensorValueINS_4SFR3EE6assignERKN2at6TensorENS_15TracerPrivilegeE
FN:67,70,_ZN5neml211TensorValueINS_4SSR4EE6assignERKN2at6TensorENS_15TracerPrivilegeE
FN:67,70,_ZN5neml211TensorValueINS_4SWR4EE6assignERKN2at6TensorENS_15TracerPrivilegeE
FN:67,70,_ZN5neml211TensorValueINS_4WSR4EE6assignERKN2at6TensorENS_15TracerPrivilegeE
FN:67,70,_ZN5neml211TensorValueINS_4WWR4EE6assignERKN2at6TensorENS_15TracerPrivilegeE
FN:67,70,_ZN5neml211TensorValueINS_5SFFR4EE6assignERKN2at6TensorENS_15TracerPrivilegeE
FN:67,70,_ZN5neml211TensorValueINS_5WFFR4EE6assignERKN2at6TensorENS_15TracerPrivilegeE
FN:67,70,_ZN5neml211TensorValueINS_6ScalarEE6assignERKN2at6TensorENS_15TracerPrivilegeE
FN:67,70,_ZN5neml211TensorValueINS_6TensorEE6assignERKN2at6TensorENS_15TracerPrivilegeE
FNDA:0,_ZN5neml211TensorValueINS_10QuaternionEE3to_ERKN3c1013TensorOptionsE
FNDA:2,_ZN5neml211TensorValueINS_11MillerIndexEE3to_ERKN3c1013TensorOptionsE
FNDA:1,_ZN5neml211TensorValueINS_2R2EE3to_ERKN3c1013TensorOptionsE
FNDA:0,_ZN5neml211TensorValueINS_2R3EE3to_ERKN3c1013TensorOptionsE
FNDA:0,_ZN5neml211TensorValueINS_2R4EE3to_ERKN3c1013TensorOptionsE
FNDA:0,_ZN5neml211TensorValueINS_3RotEE3to_ERKN3c1013TensorOptionsE
FNDA:2,_ZN5neml211TensorValueINS_3SR2EE3to_ERKN3c1013TensorOptionsE
FNDA:4,_ZN5neml211TensorValueINS_3VecEE3to_ERKN3c1013TensorOptionsE
FNDA:1,_ZN5neml211TensorValueINS_3WR2EE3to_ERKN3c1013TensorOptionsE
FNDA:0,_ZN5neml211TensorValueINS_4SFR3EE3to_ERKN3c1013TensorOptionsE
FNDA:0,_ZN5neml211TensorValueINS_4SSR4EE3to_ERKN3c1013TensorOptionsE
FNDA:0,_ZN5neml211TensorValueINS_4SWR4EE3to_ERKN3c1013TensorOptionsE
FNDA:0,_ZN5neml211TensorValueINS_4WSR4EE3to_ERKN3c1013TensorOptionsE
FNDA:0,_ZN5neml211TensorValueINS_4WWR4EE3to_ERKN3c1013TensorOptionsE
FNDA:0,_ZN5neml211TensorValueINS_5SFFR4EE3to_ERKN3c1013TensorOptionsE
FNDA:0,_ZN5neml211TensorValueINS_5WFFR4EE3to_ERKN3c1013TensorOptionsE
FNDA:50,_ZN5neml211TensorValueINS_6ScalarEE3to_ERKN3c1013TensorOptionsE
FNDA:0,_ZN5neml211TensorValueINS_6TensorEE3to_ERKN3c1013TensorOptionsE
FNDA:0,_ZN5neml211TensorValueINS_10QuaternionEE14requires_grad_Eb
FNDA:0,_ZN5neml211TensorValueINS_11MillerIndexEE14requires_grad_Eb
FNDA:0,_ZN5neml211TensorValueINS_2R2EE14requires_grad_Eb
FNDA:0,_ZN5neml211TensorValueINS_2R3EE14requires_grad_Eb
FNDA:0,_ZN5neml211TensorValueINS_2R4EE14requires_grad_Eb
FNDA:0,_ZN5neml211TensorValueINS_3RotEE14requires_grad_Eb
FNDA:1,_ZN5neml211TensorValueINS_3SR2EE14requires_grad_Eb
FNDA:0,_ZN5neml211TensorValueINS_3VecEE14requires_grad_Eb
FNDA:0,_ZN5neml211TensorValueINS_3WR2EE14requires_grad_Eb
FNDA:0,_ZN5neml211TensorValueINS_4SFR3EE14requires_grad_Eb
FNDA:3,_ZN5neml211TensorValueINS_4SSR4EE14requires_grad_Eb
FNDA:0,_ZN5neml211TensorValueINS_4SWR4EE14requires_grad_Eb
FNDA:0,_ZN5neml211TensorValueINS_4WSR4EE14requires_grad_Eb
FNDA:0,_ZN5neml211TensorValueINS_4WWR4EE14requires_grad_Eb
FNDA:0,_ZN5neml211TensorValueINS_5SFFR4EE14requires_grad_Eb
FNDA:0,_ZN5neml211TensorValueINS_5WFFR4EE14requires_grad_Eb
FNDA:108,_ZN5neml211TensorValueINS_6ScalarEE14requires_grad_Eb
FNDA:0,_ZN5neml211TensorValueINS_6TensorEE14requires_grad_Eb
FNDA:0,_ZNK5neml211TensorValueINS_10QuaternionEEcvNS_6TensorEEv
FNDA:144090,_ZNK5neml211TensorValueINS_11MillerIndexEEcvNS_6TensorEEv
FNDA:72052,_ZNK5neml211TensorValueINS_2R2EEcvNS_6TensorEEv
FNDA:0,_ZNK5neml211TensorValueINS_2R3EEcvNS_6TensorEEv
FNDA:0,_ZNK5neml211TensorValueINS_2R4EEcvNS_6TensorEEv
FNDA:0,_ZNK5neml211TensorValueINS_3RotEEcvNS_6TensorEEv
FNDA:204453,_ZNK5neml211TensorValueINS_3SR2EEcvNS_6TensorEEv
FNDA:288208,_ZNK5neml211TensorValueINS_3VecEEcvNS_6TensorEEv
FNDA:72051,_ZNK5neml211TensorValueINS_3WR2EEcvNS_6TensorEEv
FNDA:0,_ZNK5neml211TensorValueINS_4SFR3EEcvNS_6TensorEEv
FNDA:2585,_ZNK5neml211TensorValueINS_4SSR4EEcvNS_6TensorEEv
FNDA:0,_ZNK5neml211TensorValueINS_4SWR4EEcvNS_6TensorEEv
FNDA:0,_ZNK5neml211TensorValueINS_4WSR4EEcvNS_6TensorEEv
FNDA:0,_ZNK5neml211TensorValueINS_4WWR4EEcvNS_6TensorEEv
FNDA:0,_ZNK5neml211TensorValueINS_5SFFR4EEcvNS_6TensorEEv
FNDA:0,_ZNK5neml211TensorValueINS_5WFFR4EEcvNS_6TensorEEv
FNDA:3844409,_ZNK5neml211TensorValueINS_6ScalarEEcvNS_6TensorEEv
FNDA:0,_ZNK5neml211TensorValueINS_6TensorEEcvS1_Ev
FNDA:0,_ZN5neml211TensorValueINS_10QuaternionEEaSERKNS_6TensorE
FNDA:0,_ZN5neml211TensorValueINS_11MillerIndexEEaSERKNS_6TensorE
FNDA:0,_ZN5neml211TensorValueINS_2R2EEaSERKNS_6TensorE
FNDA:0,_ZN5neml211TensorValueINS_2R3EEaSERKNS_6TensorE
FNDA:0,_ZN5neml211TensorValueINS_2R4EEaSERKNS_6TensorE
FNDA:0,_ZN5neml211TensorValueINS_3RotEEaSERKNS_6TensorE
FNDA:14,_ZN5neml211TensorValueINS_3SR2EEaSERKNS_6TensorE
FNDA:0,_ZN5neml211TensorValueINS_3VecEEaSERKNS_6TensorE
FNDA:0,_ZN5neml211TensorValueINS_3WR2EEaSERKNS_6TensorE
FNDA:0,_ZN5neml211TensorValueINS_4SFR3EEaSERKNS_6TensorE
FNDA:222,_ZN5neml211TensorValueINS_4SSR4EEaSERKNS_6TensorE
FNDA:0,_ZN5neml211TensorValueINS_4SWR4EEaSERKNS_6TensorE
FNDA:0,_ZN5neml211TensorValueINS_4WSR4EEaSERKNS_6TensorE
FNDA:0,_ZN5neml211TensorValueINS_4WWR4EEaSERKNS_6TensorE
FNDA:0,_ZN5neml211TensorValueINS_5SFFR4EEaSERKNS_6TensorE
FNDA:0,_ZN5neml211TensorValueINS_5WFFR4EEaSERKNS_6TensorE
FNDA:570,_ZN5neml211TensorValueINS_6ScalarEEaSERKNS_6TensorE
FNDA:0,_ZN5neml211TensorValueINS_6TensorEEaSERKS1_
FNDA:0,_ZNK5neml211TensorValueINS_10QuaternionEE4typeEv
FNDA:0,_ZNK5neml211TensorValueINS_11MillerIndexEE4typeEv
FNDA:0,_ZNK5neml211TensorValueINS_2R2EE4typeEv
FNDA:0,_ZNK5neml211TensorValueINS_2R3EE4typeEv
FNDA:0,_ZNK5neml211TensorValueINS_2R4EE4typeEv
FNDA:0,_ZNK5neml211TensorValueINS_3RotEE4typeEv
FNDA:0,_ZNK5neml211TensorValueINS_3SR2EE4typeEv
FNDA:0,_ZNK5neml211TensorValueINS_3VecEE4typeEv
FNDA:0,_ZNK5neml211TensorValueINS_3WR2EE4typeEv
FNDA:0,_ZNK5neml211TensorValueINS_4SFR3EE4typeEv
FNDA:0,_ZNK5neml211TensorValueINS_4SSR4EE4typeEv
FNDA:0,_ZNK5neml211TensorValueINS_4SWR4EE4typeEv
FNDA:0,_ZNK5neml211TensorValueINS_4WSR4EE4typeEv
FNDA:0,_ZNK5neml211TensorValueINS_4WWR4EE4typeEv
FNDA:0,_ZNK5neml211TensorValueINS_5SFFR4EE4typeEv
FNDA:0,_ZNK5neml211TensorValueINS_5WFFR4EE4typeEv
FNDA:2,_ZNK5neml211TensorValueINS_6ScalarEE4typeEv
FNDA:0,_ZNK5neml211TensorValueINS_6TensorEE4typeEv
FNDA:0,_ZN5neml211TensorValueINS_10QuaternionEE6assignERKN2at6TensorENS_15TracerPrivilegeE
FNDA:0,_ZN5neml211TensorValueINS_11MillerIndexEE6assignERKN2at6TensorENS_15TracerPrivilegeE
FNDA:0,_ZN5neml211TensorValueINS_2R2EE6assignERKN2at6TensorENS_15TracerPrivilegeE
FNDA:0,_ZN5neml211TensorValueINS_2R3EE6assignERKN2at6TensorENS_15TracerPrivilegeE
FNDA:0,_ZN5neml211TensorValueINS_2R4EE6assignERKN2at6TensorENS_15TracerPrivilegeE
FNDA:0,_ZN5neml211TensorValueINS_3RotEE6assignERKN2at6TensorENS_15TracerPrivilegeE
FNDA:14,_ZN5neml211TensorValueINS_3SR2EE6assignERKN2at6TensorENS_15TracerPrivilegeE
FNDA:0,_ZN5neml211TensorValueINS_3VecEE6assignERKN2at6TensorENS_15TracerPrivilegeE
FNDA:0,_ZN5neml211TensorValueINS_3WR2EE6assignERKN2at6TensorENS_15TracerPrivilegeE
FNDA:0,_ZN5neml211TensorValueINS_4SFR3EE6assignERKN2at6TensorENS_15TracerPrivilegeE
FNDA:6,_ZN5neml211TensorValueINS_4SSR4EE6assignERKN2at6TensorENS_15TracerPrivilegeE
FNDA:0,_ZN5neml211TensorValueINS_4SWR4EE6assignERKN2at6TensorENS_15TracerPrivilegeE
FNDA:0,_ZN5neml211TensorValueINS_4WSR4EE6assignERKN2at6TensorENS_15TracerPrivilegeE
FNDA:0,_ZN5neml211TensorValueINS_4WWR4EE6assignERKN2at6TensorENS_15TracerPrivilegeE
FNDA:0,_ZN5neml211TensorValueINS_5SFFR4EE6assignERKN2at6TensorENS_15TracerPrivilegeE
FNDA:0,_ZN5neml211TensorValueINS_5WFFR4EE6assignERKN2at6TensorENS_15TracerPrivilegeE
FNDA:677,_ZN5neml211TensorValueINS_6ScalarEE6assignERKN2at6TensorENS_15TracerPrivilegeE
FNDA:0,_ZN5neml211TensorValueINS_6TensorEE6assignERKN2at6TensorENS_15TracerPrivilegeE
FNF:108
FNH:23
DA:32,60
DA:34,60
DA:35,60
DA:39,112
DA:41,112
DA:42,112
DA:45,4627848
DA:47,4627848
DA:52,806
DA:54,806
DA:55,806
DA:56,806
DA:60,2
DA:62,2
DA:67,697
DA:69,697
DA:70,697
LF:17
LH:17
end_of_record
TN:
SF:/home/runner/work/neml2/neml2/src/neml2/tensors/TraceableSize.cxx
FN:34,37,_ZNK5neml213TraceableSize9traceableEv
FN:40,50,_ZNK5neml213TraceableSize8concreteEv
FN:53,59,_ZNK5neml213TraceableSize9as_tensorEv
FN:62,65,_ZNK5neml213TraceableSize9as_scalarEv
FN:68,79,_ZN5neml2mlERKNS_13TraceableSizeES2_
FN:82,85,_ZN5neml2eqERKNS_13TraceableSizeES2_
FN:88,91,_ZN5neml2neERKNS_13TraceableSizeES2_
FN:94,98,_ZN5neml2lsERSoRKNS_13TraceableSizeE
FNDA:3216400,_ZNK5neml213TraceableSize9traceableEv
FNDA:3209829,_ZNK5neml213TraceableSize8concreteEv
FNDA:4364,_ZNK5neml213TraceableSize9as_tensorEv
FNDA:0,_ZNK5neml213TraceableSize9as_scalarEv
FNDA:9,_ZN5neml2mlERKNS_13TraceableSizeES2_
FNDA:68,_ZN5neml2eqERKNS_13TraceableSizeES2_
FNDA:0,_ZN5neml2neERKNS_13TraceableSizeES2_
FNDA:0,_ZN5neml2lsERSoRKNS_13TraceableSizeE
FNF:8
FNH:5
DA:34,3216400
DA:36,3216400
DA:40,3209829
DA:42,3209829
DA:44,872791
DA:45,872791
DA:46,872791
DA:49,2337038
DA:53,4364
DA:55,4364
DA:56,696
DA:58,3668
DA:62,0
DA:64,0
DA:68,9
DA:70,9
DA:71,9
DA:72,9
DA:73,0
DA:74,9
DA:75,0
DA:76,9
DA:77,0
DA:78,9
DA:82,68
DA:84,68
DA:88,0
DA:90,0
DA:94,0
DA:96,0
DA:97,0
LF:31
LH:21
end_of_record
TN:
SF:/home/runner/work/neml2/neml2/src/neml2/tensors/TraceableTensorShape.cxx
FN:32,36,_ZN5neml220TraceableTensorShapeC2ERKN3c1011SmallVectorIlLj8EEE
FN:38,42,_ZN5neml220TraceableTensorShapeC2EN3c108ArrayRefIlEE
FN:44,47,_ZN5neml220TraceableTensorShapeC2El
FN:49,56,_ZN5neml220TraceableTensorShapeC2ERKN2at6TensorE
FN:59,62,_ZNK5neml220TraceableTensorShape5sliceEmm
FN:65,68,_ZNK5neml220TraceableTensorShape5sliceEm
FN:71,77,_ZNK5neml220TraceableTensorShape8concreteEv
FN:80,89,_ZNK5neml220TraceableTensorShape9as_tensorEv
FN:92,95,_ZN5neml2eqERKNS_20TraceableTensorShapeES2_
FN:98,101,_ZN5neml2neERKNS_20TraceableTensorShapeES2_
FNDA:837083,_ZN5neml220TraceableTensorShapeC2ERKN3c1011SmallVectorIlLj8EEE
FNDA:8569082,_ZN5neml220TraceableTensorShapeC2EN3c108ArrayRefIlEE
FNDA:0,_ZN5neml220TraceableTensorShapeC2El
FNDA:1445,_ZN5neml220TraceableTensorShapeC2ERKN2at6TensorE
FNDA:0,_ZNK5neml220TraceableTensorShape5sliceEmm
FNDA:0,_ZNK5neml220TraceableTensorShape5sliceEm
FNDA:17090383,_ZNK5neml220TraceableTensorShape8concreteEv
FNDA:12082,_ZNK5neml220TraceableTensorShape9as_tensorEv
FNDA:8260500,_ZN5neml2eqERKNS_20TraceableTensorShapeES2_
FNDA:795887,_ZN5neml2neERKNS_20TraceableTensorShapeES2_
FNF:10
FNH:7
DA:32,837083
DA:34,1305440
DA:35,468357
DA:36,837083
DA:38,8569082
DA:40,10136552
DA:41,1567470
DA:42,8569082
DA:44,0
DA:45,0
DA:47,0
DA:49,1445
DA:51,1445
DA:52,1445
DA:54,3079
DA:55,1634
DA:56,1445
DA:59,0
DA:61,0
DA:65,0
DA:67,0
DA:71,17090383
DA:73,17090383
DA:74,20299985
DA:75,3209602
DA:76,17090383
DA:77,0
DA:80,12082
DA:82,12082
DA:83,8028
DA:85,4054
DA:86,8418
DA:87,4364
DA:88,4054
DA:89,4054
DA:92,8260500
DA:94,8260500
DA:98,795887
DA:100,795887
LF:39
LH:31
end_of_record
TN:
SF:/home/runner/work/neml2/neml2/src/neml2/tensors/Transformable.cxx
FN:37,40,_ZN5neml225transform_from_quaternionERKNS_10QuaternionE
FN:43,46,_ZN5neml218identity_transformERKN3c1013TensorOptionsE
FN:49,52,_ZN5neml225proper_rotation_transformERKNS_3RotE
FN:55,59,_ZN5neml227improper_rotation_transformERKNS_3RotE
FN:62,65,_ZN5neml220reflection_transformERKNS_3VecE
FN:68,71,_ZN5neml219inversion_transformERKN3c1013TensorOptionsE
FNDA:3240,_ZN5neml225transform_from_quaternionERKNS_10QuaternionE
FNDA:2,_ZN5neml218identity_transformERKN3c1013TensorOptionsE
FNDA:2,_ZN5neml225proper_rotation_transformERKNS_3RotE
FNDA:3,_ZN5neml227improper_rotation_transformERKNS_3RotE
FNDA:0,_ZN5neml220reflection_transformERKNS_3VecE
FNDA:2,_ZN5neml219inversion_transformERKN3c1013TensorOptionsE
FNF:6
FNH:5
DA:37,3240
DA:39,3240
DA:43,2
DA:45,2
DA:49,2
DA:51,2
DA:55,3
DA:57,3
DA:58,6
DA:59,3
DA:62,0
DA:64,0
DA:68,2
DA:70,2
LF:14
LH:12
end_of_record
TN:
SF:/home/runner/work/neml2/neml2/src/neml2/tensors/Vec.cxx
FN:32,35,_ZN5neml23VecC2ERKNS_3RotE
FN:38,41,_ZNK5neml23Vec9transformERKNS_2R2E
FNDA:8816,_ZN5neml23VecC2ERKNS_3RotE
FNDA:8,_ZNK5neml23Vec9transformERKNS_2R2E
FNF:2
FNH:2
DA:32,8816
DA:33,8816
DA:35,8816
DA:38,8
DA:40,8
LF:5
LH:5
end_of_record
TN:
SF:/home/runner/work/neml2/neml2/src/neml2/tensors/VecBase.cxx
FN:36,39,_ZNK5neml27VecBaseINS_3RotEE6rotateERKS1_
FN:36,39,_ZNK5neml27VecBaseINS_3VecEE6rotateERKNS_3RotE
FN:36,39,_ZNK5neml27VecBaseINS_3WR2EE6rotateERKNS_3RotE
FN:43,46,_ZNK5neml27VecBaseINS_3RotEE6rotateERKNS_2R2E
FN:43,46,_ZNK5neml27VecBaseINS_3VecEE6rotateERKNS_2R2E
FN:43,46,_ZNK5neml27VecBaseINS_3WR2EE6rotateERKNS_2R2E
FN:50,53,_ZNK5neml27VecBaseINS_3RotEE7drotateERKS1_
FN:50,53,_ZNK5neml27VecBaseINS_3VecEE7drotateERKNS_3RotE
FN:50,53,_ZNK5neml27VecBaseINS_3WR2EE7drotateERKNS_3RotE
FN:57,61,_ZNK5neml27VecBaseINS_3RotEE7drotateERKNS_2R2E
FN:57,61,_ZNK5neml27VecBaseINS_3VecEE7drotateERKNS_2R2E
FN:57,61,_ZNK5neml27VecBaseINS_3WR2EE7drotateERKNS_2R2E
FNDA:0,_ZNK5neml27VecBaseINS_3RotEE6rotateERKS1_
FNDA:8,_ZNK5neml27VecBaseINS_3VecEE6rotateERKNS_3RotE
FNDA:5,_ZNK5neml27VecBaseINS_3WR2EE6rotateERKNS_3RotE
FNDA:0,_ZNK5neml27VecBaseINS_3RotEE6rotateERKNS_2R2E
FNDA:18,_ZNK5neml27VecBaseINS_3VecEE6rotateERKNS_2R2E
FNDA:24,_ZNK5neml27VecBaseINS_3WR2EE6rotateERKNS_2R2E
FNDA:0,_ZNK5neml27VecBaseINS_3RotEE7drotateERKS1_
FNDA:1,_ZNK5neml27VecBaseINS_3VecEE7drotateERKNS_3RotE
FNDA:1,_ZNK5neml27VecBaseINS_3WR2EE7drotateERKNS_3RotE
FNDA:0,_ZNK5neml27VecBaseINS_3RotEE7drotateERKNS_2R2E
