TN:
SF:/home/runner/work/neml2/neml2/src/neml2/base/DiagnosticsInterface.cxx
FN:31,35,_ZN5neml210DiagnosingC2Eb
FN:37,37,_ZN5neml210DiagnosingD2Ev
FN:40,44,_ZN5neml224current_diagnostic_stateEv
FN:47,51,_ZN5neml217current_diagnosesEv
FN:54,77,_ZN5neml28diagnoseERKNS_20DiagnosticsInterfaceE
FN:79,82,_ZN5neml220DiagnosticsInterfaceC2EPNS_11NEML2ObjectE
FNDA:222,_ZN5neml210DiagnosingC2Eb
FNDA:222,_ZN5neml210DiagnosingD2Ev
FNDA:892,_ZN5neml224current_diagnostic_stateEv
FNDA:355,_ZN5neml217current_diagnosesEv
FNDA:222,_ZN5neml28diagnoseERKNS_20DiagnosticsInterfaceE
FNDA:501,_ZN5neml220DiagnosticsInterfaceC2EPNS_11NEML2ObjectE
FNF:6
FNH:6
DA:31,222
DA:32,222
DA:34,222
DA:35,222
DA:37,222
DA:40,892
DA:42,892
DA:43,892
DA:47,355
DA:49,355
DA:50,355
DA:54,222
DA:56,222
DA:57,222
DA:58,222
DA:62,222
DA:63,222
DA:64,222
DA:67,222
DA:70,222
DA:72,129
DA:73,129
DA:76,222
DA:77,0
DA:79,501
DA:80,501
DA:82,501
LF:27
LH:26
end_of_record
TN:
SF:/home/runner/work/neml2/neml2/src/neml2/base/EnumSelection.cxx
FN:32,36,_ZN5neml2lsERSoRKNS_13EnumSelectionE
FN:39,43,_ZN5neml2rsERSt18basic_stringstreamIcSt11char_traitsIcESaIcEERNS_13EnumSelectionE
FN:45,50,_ZN5neml213EnumSelectionC2ERKSt6vectorISsSaISsEERKSs
FN:52,58,_ZN5neml213EnumSelectionC2ERKSt6vectorISsSaISsEERKS1_IiSaIiEERKSs
FN:61,65,_ZNK5neml213EnumSelectioneqERKS0_
FN:68,71,_ZNK5neml213EnumSelectionneERKS0_
FN:74,77,_ZNK5neml213EnumSelectioneqERKSs
FN:80,83,_ZNK5neml213EnumSelectionneERKSs
FN:86,93,_ZN5neml213EnumSelection6selectERKSs
FNDA:1,_ZN5neml2lsERSoRKNS_13EnumSelectionE
FNDA:42,_ZN5neml2rsERSt18basic_stringstreamIcSt11char_traitsIcESaIcEERNS_13EnumSelectionE
FNDA:9,_ZN5neml213EnumSelectionC2ERKSt6vectorISsSaISsEERKSs
FNDA:1241,_ZN5neml213EnumSelectionC2ERKSt6vectorISsSaISsEERKS1_IiSaIiEERKSs
FNDA:7,_ZNK5neml213EnumSelectioneqERKS0_
FNDA:5,_ZNK5neml213EnumSelectionneERKS0_
FNDA:178,_ZNK5neml213EnumSelectioneqERKSs
FNDA:0,_ZNK5neml213EnumSelectionneERKSs
FNDA:1289,_ZN5neml213EnumSelection6selectERKSs
FNF:9
FNH:8
DA:32,1
DA:34,1
DA:35,1
DA:39,42
DA:41,42
DA:42,41
DA:45,9
DA:46,9
DA:47,17
DA:49,8
DA:50,9
DA:52,1241
DA:54,1241
DA:55,2480
DA:57,1239
DA:58,1240
DA:61,7
DA:63,9
DA:64,9
DA:68,5
DA:70,5
DA:74,178
DA:76,178
DA:80,0
DA:82,0
DA:86,1289
DA:88,1289
DA:90,2578
DA:91,1286
DA:92,1286
DA:93,1286
LF:31
LH:29
end_of_record
TN:
SF:/home/runner/work/neml2/neml2/src/neml2/base/EnumSelectionBase.cxx
FN:31,40,_ZN5neml217EnumSelectionBaseC2ERKSt6vectorISsSaISsEE
FN:42,57,_ZN5neml217EnumSelectionBaseC2ERKSt6vectorISsSaISsEERKS1_IiSaIiEE
FN:60,66,_ZNK5neml217EnumSelectionBase14candidates_strEv
FNDA:12,_ZN5neml217EnumSelectionBaseC2ERKSt6vectorISsSaISsEE
FNDA:1254,_ZN5neml217EnumSelectionBaseC2ERKSt6vectorISsSaISsEERKS1_IiSaIiEE
FNDA:2601,_ZNK5neml217EnumSelectionBase14candidates_strEv
FNF:3
FNH:3
DA:31,12
DA:33,12
DA:34,12
DA:37,11
DA:38,41
DA:39,30
DA:40,13
DA:42,1254
DA:43,1254
DA:45,1254
DA:48,1253
DA:49,1253
DA:52,1253
DA:53,1253
DA:55,5639
DA:56,4387
DA:57,1256
DA:60,2601
DA:62,2601
DA:63,11903
DA:64,9302
DA:65,5202
DA:66,2601
LF:23
LH:23
end_of_record
TN:
SF:/home/runner/work/neml2/neml2/src/neml2/base/Factory.cxx
FN:117,120,_ZN5neml27Factory5clearEv
FN:33,47,_ZN5neml210load_inputERKNSt10filesystem4pathERKSs
FN:50,54,_ZN5neml212reload_inputERKNSt10filesystem4pathERKSs
FN:57,61,_ZN5neml27Factory3getEv
FN:64,72,_ZN5neml27Factory12load_optionsERKNS_16OptionCollectionE
FN:75,79,_ZN5neml27Factory14loaded_optionsEv
FN:82,100,_ZN5neml27Factory13create_objectERKSsRKNS_9OptionSetE
FNDA:302,_ZN5neml27Factory5clearEv
FNDA:300,_ZN5neml210load_inputERKNSt10filesystem4pathERKSs
FNDA:290,_ZN5neml212reload_inputERKNSt10filesystem4pathERKSs
FNDA:2027,_ZN5neml27Factory3getEv
FNDA:300,_ZN5neml27Factory12load_optionsERKNS_16OptionCollectionE
FNDA:1,_ZN5neml27Factory14loaded_optionsEv
FNDA:1361,_ZN5neml27Factory13create_objectERKSsRKNS_9OptionSetE
FNF:7
FNH:7
DA:33,300
DA:35,300
DA:38,300
DA:40,300
DA:41,300
DA:42,300
DA:44,0
DA:46,298
DA:47,300
DA:50,290
DA:52,290
DA:53,290
DA:54,288
DA:57,2027
DA:59,2027
DA:60,2027
DA:64,300
DA:66,300
DA:68,300
DA:71,300
DA:72,300
DA:75,1
DA:77,1
DA:78,1
DA:82,1361
DA:84,1361
DA:85,1361
DA:87,1361
DA:88,1361
DA:89,1359
DA:93,1359
DA:95,0
DA:97,0
DA:98,0
DA:99,0
DA:100,1359
DA:117,302
DA:119,302
DA:120,302
LF:39
LH:34
end_of_record
TN:
SF:/home/runner/work/neml2/neml2/src/neml2/base/HITParser.cxx
FN:113,118,_ZNK5neml29HITParser15extract_optionsEPN3hit4NodeERNS_9OptionSetE
FN:122,169,_ZNK5neml29HITParser14extract_optionEPN3hit4NodeERNS_9OptionSetE
FN:39,93,_ZNK5neml29HITParser5parseERKNSt10filesystem4pathERKSs
FN:96,110,_ZNK5neml29HITParser22extract_object_optionsEPN3hit4NodeES3_
FNDA:3220,_ZNK5neml29HITParser15extract_optionsEPN3hit4NodeERNS_9OptionSetE
FNDA:6780,_ZNK5neml29HITParser14extract_optionEPN3hit4NodeERNS_9OptionSetE
FNDA:310,_ZNK5neml29HITParser5parseERKNSt10filesystem4pathERKSs
FNDA:3210,_ZNK5neml29HITParser22extract_object_optionsEPN3hit4NodeES3_
FNF:4
FNH:4
DA:39,310
DA:42,310
DA:43,310
DA:46,310
DA:47,310
DA:48,310
DA:51,310
DA:52,310
DA:55,310
DA:58,310
DA:59,310
DA:60,310
DA:63,310
DA:64,310
DA:65,310
DA:66,620
DA:67,310
DA:68,310
DA:70,310
DA:73,620
DA:74,310
DA:75,10
DA:78,1851
DA:80,1544
DA:81,1544
DA:83,580
DA:84,3787
DA:86,3210
DA:87,3207
DA:88,3207
DA:89,580
DA:92,614
DA:93,334
DA:96,3210
DA:99,6420
DA:101,3210
DA:102,3210
DA:105,3207
DA:106,3207
DA:107,3207
DA:109,6414
DA:110,3213
DA:113,3220
DA:115,13207
DA:116,9990
DA:117,9997
DA:118,3217
DA:122,6780
DA:133,6780
DA:135,6780
DA:136,71828
DA:137,71828
DA:139,6780
DA:141,6780
DA:144,6779
DA:148,6779
DA:149,5323
DA:150,5222
DA:151,5192
DA:152,5156
DA:153,4311
DA:154,3147
DA:155,2219
DA:156,1652
DA:157,1612
DA:158,1590
DA:163,6777
DA:165,6777
DA:167,6777
DA:169,6777
LF:70
LH:70
end_of_record
TN:
SF:/home/runner/work/neml2/neml2/src/neml2/base/LabeledAxis.cxx
FN:147,160,_ZNK5neml211LabeledAxis4sizeEv
FN:163,191,_ZNK5neml211LabeledAxis4sizeERKNS_19LabeledAxisAccessorE
FN:194,214,_ZNK5neml211LabeledAxis5sliceERKNS_19LabeledAxisAccessorE
FN:217,228,_ZNK5neml211LabeledAxis9nvariableEv
FN:231,246,_ZNK5neml211LabeledAxis12has_variableERKNS_19LabeledAxisAccessorE
FN:249,260,_ZNK5neml211LabeledAxis11variable_idERKNS_19LabeledAxisAccessorE
FN:263,267,_ZNK5neml211LabeledAxis14variable_namesEv
FN:270,274,_ZNK5neml211LabeledAxis15variable_slicesEv
FN:277,281,_ZNK5neml211LabeledAxis14variable_sliceERKNS_19LabeledAxisAccessorE
FN:284,288,_ZNK5neml211LabeledAxis14variable_sizesEv
FN:291,310,_ZNK5neml211LabeledAxis13variable_sizeERKNS_19LabeledAxisAccessorE
FN:313,316,_ZNK5neml211LabeledAxis8nsubaxisEv
FN:319,329,_ZNK5neml211LabeledAxis11has_subaxisERKNS_19LabeledAxisAccessorE
FN:33,36,_ZN5neml211LabeledAxisC2ENS_19LabeledAxisAccessorE
FN:332,342,_ZNK5neml211LabeledAxis10subaxis_idERKSs
FN:345,349,_ZNK5neml211LabeledAxis7subaxesEv
FN:352,364,_ZNK5neml211LabeledAxis7subaxisERKNS_19LabeledAxisAccessorE
FN:367,371,_ZN5neml211LabeledAxis7subaxisERKNS_19LabeledAxisAccessorE
FN:374,378,_ZNK5neml211LabeledAxis13subaxis_namesEv
FN:381,385,_ZNK5neml211LabeledAxis14subaxis_slicesEv
FN:388,403,_ZNK5neml211LabeledAxis13subaxis_sliceERKNS_19LabeledAxisAccessorE
FN:39,42,_ZNK5neml211LabeledAxis7qualifyERKNS_19LabeledAxisAccessorE
FN:406,410,_ZNK5neml211LabeledAxis13subaxis_sizesEv
FN:413,423,_ZNK5neml211LabeledAxis12subaxis_sizeERKNS_19LabeledAxisAccessorE
FN:426,447,_ZNK5neml211LabeledAxis6equalsERKS0_
FN:45,55,_ZN5neml211LabeledAxis11add_subaxisERKSs
FN:450,464,_ZN5neml211LabeledAxis22cache_reserved_subaxisERKSs
FN:467,470,_ZNK5neml211LabeledAxis16ensure_setup_dbgEv
FN:473,500,_ZN5neml2lsERSoRKNS_11LabeledAxisE
FN:503,506,_ZN5neml2eqERKNS_11LabeledAxisES2_
FN:509,512,_ZN5neml2neERKNS_11LabeledAxisES2_
FN:58,73,_ZN5neml211LabeledAxis12add_variableERKNS_19LabeledAxisAccessorEl
FN:77,81,_ZN5neml211LabeledAxis12add_variableINS_10QuaternionEEEvRKNS_19LabeledAxisAccessorE
FN:77,81,_ZN5neml211LabeledAxis12add_variableINS_11MillerIndexEEEvRKNS_19LabeledAxisAccessorE
FN:77,81,_ZN5neml211LabeledAxis12add_variableINS_2R2EEEvRKNS_19LabeledAxisAccessorE
FN:77,81,_ZN5neml211LabeledAxis12add_variableINS_2R3EEEvRKNS_19LabeledAxisAccessorE
FN:77,81,_ZN5neml211LabeledAxis12add_variableINS_2R4EEEvRKNS_19LabeledAxisAccessorE
FN:77,81,_ZN5neml211LabeledAxis12add_variableINS_2R5EEEvRKNS_19LabeledAxisAccessorE
FN:77,81,_ZN5neml211LabeledAxis12add_variableINS_2R8EEEvRKNS_19LabeledAxisAccessorE
FN:77,81,_ZN5neml211LabeledAxis12add_variableINS_3RotEEEvRKNS_19LabeledAxisAccessorE
FN:77,81,_ZN5neml211LabeledAxis12add_variableINS_3SR2EEEvRKNS_19LabeledAxisAccessorE
FN:77,81,_ZN5neml211LabeledAxis12add_variableINS_3VecEEEvRKNS_19LabeledAxisAccessorE
FN:77,81,_ZN5neml211LabeledAxis12add_variableINS_3WR2EEEvRKNS_19LabeledAxisAccessorE
FN:77,81,_ZN5neml211LabeledAxis12add_variableINS_4SFR3EEEvRKNS_19LabeledAxisAccessorE
FN:77,81,_ZN5neml211LabeledAxis12add_variableINS_4SFR4EEEvRKNS_19LabeledAxisAccessorE
FN:77,81,_ZN5neml211LabeledAxis12add_variableINS_4SSR4EEEvRKNS_19LabeledAxisAccessorE
FN:77,81,_ZN5neml211LabeledAxis12add_variableINS_4SWR4EEEvRKNS_19LabeledAxisAccessorE
FN:77,81,_ZN5neml211LabeledAxis12add_variableINS_4WFR4EEEvRKNS_19LabeledAxisAccessorE
FN:77,81,_ZN5neml211LabeledAxis12add_variableINS_4WSR4EEEvRKNS_19LabeledAxisAccessorE
FN:77,81,_ZN5neml211LabeledAxis12add_variableINS_4WWR4EEEvRKNS_19LabeledAxisAccessorE
FN:77,81,_ZN5neml211LabeledAxis12add_variableINS_5SFFR4EEEvRKNS_19LabeledAxisAccessorE
FN:77,81,_ZN5neml211LabeledAxis12add_variableINS_5SSFR5EEEvRKNS_19LabeledAxisAccessorE
FN:77,81,_ZN5neml211LabeledAxis12add_variableINS_6SSSSR8EEEvRKNS_19LabeledAxisAccessorE
FN:77,81,_ZN5neml211LabeledAxis12add_variableINS_6ScalarEEEvRKNS_19LabeledAxisAccessorE
FN:87,144,_ZN5neml211LabeledAxis12setup_layoutEv
FNDA:1432,_ZNK5neml211LabeledAxis4sizeEv
FNDA:78,_ZNK5neml211LabeledAxis4sizeERKNS_19LabeledAxisAccessorE
FNDA:27,_ZNK5neml211LabeledAxis5sliceERKNS_19LabeledAxisAccessorE
FNDA:320,_ZNK5neml211LabeledAxis9nvariableEv
FNDA:13888,_ZNK5neml211LabeledAxis12has_variableERKNS_19LabeledAxisAccessorE
FNDA:88,_ZNK5neml211LabeledAxis11variable_idERKNS_19LabeledAxisAccessorE
FNDA:24122,_ZNK5neml211LabeledAxis14variable_namesEv
FNDA:16,_ZNK5neml211LabeledAxis15variable_slicesEv
FNDA:40,_ZNK5neml211LabeledAxis14variable_sliceERKNS_19LabeledAxisAccessorE
FNDA:56467,_ZNK5neml211LabeledAxis14variable_sizesEv
FNDA:62,_ZNK5neml211LabeledAxis13variable_sizeERKNS_19LabeledAxisAccessorE
FNDA:13,_ZNK5neml211LabeledAxis8nsubaxisEv
FNDA:27,_ZNK5neml211LabeledAxis11has_subaxisERKNS_19LabeledAxisAccessorE
FNDA:1975,_ZN5neml211LabeledAxisC2ENS_19LabeledAxisAccessorE
FNDA:17,_ZNK5neml211LabeledAxis10subaxis_idERKSs
FNDA:2,_ZNK5neml211LabeledAxis7subaxesEv
FNDA:6659,_ZNK5neml211LabeledAxis7subaxisERKNS_19LabeledAxisAccessorE
FNDA:6571,_ZN5neml211LabeledAxis7subaxisERKNS_19LabeledAxisAccessorE
FNDA:9,_ZNK5neml211LabeledAxis13subaxis_namesEv
FNDA:3,_ZNK5neml211LabeledAxis14subaxis_slicesEv
FNDA:14,_ZNK5neml211LabeledAxis13subaxis_sliceERKNS_19LabeledAxisAccessorE
FNDA:24665,_ZNK5neml211LabeledAxis7qualifyERKNS_19LabeledAxisAccessorE
FNDA:9,_ZNK5neml211LabeledAxis13subaxis_sizesEv
FNDA:14,_ZNK5neml211LabeledAxis12subaxis_sizeERKNS_19LabeledAxisAccessorE
FNDA:10,_ZNK5neml211LabeledAxis6equalsERKS0_
FNDA:1975,_ZN5neml211LabeledAxis11add_subaxisERKSs
FNDA:1458,_ZN5neml211LabeledAxis22cache_reserved_subaxisERKSs
FNDA:80814,_ZNK5neml211LabeledAxis16ensure_setup_dbgEv
FNDA:0,_ZN5neml2lsERSoRKNS_11LabeledAxisE
FNDA:6,_ZN5neml2eqERKNS_11LabeledAxisES2_
FNDA:4,_ZN5neml2neERKNS_11LabeledAxisES2_
FNDA:3624,_ZN5neml211LabeledAxis12add_variableERKNS_19LabeledAxisAccessorEl
FNDA:0,_ZN5neml211LabeledAxis12add_variableINS_10QuaternionEEEvRKNS_19LabeledAxisAccessorE
FNDA:0,_ZN5neml211LabeledAxis12add_variableINS_11MillerIndexEEEvRKNS_19LabeledAxisAccessorE
FNDA:0,_ZN5neml211LabeledAxis12add_variableINS_2R2EEEvRKNS_19LabeledAxisAccessorE
FNDA:0,_ZN5neml211LabeledAxis12add_variableINS_2R3EEEvRKNS_19LabeledAxisAccessorE
FNDA:0,_ZN5neml211LabeledAxis12add_variableINS_2R4EEEvRKNS_19LabeledAxisAccessorE
FNDA:0,_ZN5neml211LabeledAxis12add_variableINS_2R5EEEvRKNS_19LabeledAxisAccessorE
FNDA:0,_ZN5neml211LabeledAxis12add_variableINS_2R8EEEvRKNS_19LabeledAxisAccessorE
FNDA:0,_ZN5neml211LabeledAxis12add_variableINS_3RotEEEvRKNS_19LabeledAxisAccessorE
FNDA:136,_ZN5neml211LabeledAxis12add_variableINS_3SR2EEEvRKNS_19LabeledAxisAccessorE
FNDA:0,_ZN5neml211LabeledAxis12add_variableINS_3VecEEEvRKNS_19LabeledAxisAccessorE
FNDA:0,_ZN5neml211LabeledAxis12add_variableINS_3WR2EEEvRKNS_19LabeledAxisAccessorE
FNDA:0,_ZN5neml211LabeledAxis12add_variableINS_4SFR3EEEvRKNS_19LabeledAxisAccessorE
FNDA:0,_ZN5neml211LabeledAxis12add_variableINS_4SFR4EEEvRKNS_19LabeledAxisAccessorE
FNDA:0,_ZN5neml211LabeledAxis12add_variableINS_4SSR4EEEvRKNS_19LabeledAxisAccessorE
FNDA:0,_ZN5neml211LabeledAxis12add_variableINS_4SWR4EEEvRKNS_19LabeledAxisAccessorE
FNDA:0,_ZN5neml211LabeledAxis12add_variableINS_4WFR4EEEvRKNS_19LabeledAxisAccessorE
FNDA:0,_ZN5neml211LabeledAxis12add_variableINS_4WSR4EEEvRKNS_19LabeledAxisAccessorE
FNDA:0,_ZN5neml211LabeledAxis12add_variableINS_4WWR4EEEvRKNS_19LabeledAxisAccessorE
FNDA:0,_ZN5neml211LabeledAxis12add_variableINS_5SFFR4EEEvRKNS_19LabeledAxisAccessorE
FNDA:0,_ZN5neml211LabeledAxis12add_variableINS_5SSFR5EEEvRKNS_19LabeledAxisAccessorE
FNDA:0,_ZN5neml211LabeledAxis12add_variableINS_6SSSSR8EEEvRKNS_19LabeledAxisAccessorE
FNDA:181,_ZN5neml211LabeledAxis12add_variableINS_6ScalarEEEvRKNS_19LabeledAxisAccessorE
FNDA:2171,_ZN5neml211LabeledAxis12setup_layoutEv
FNF:55
FNH:34
DA:33,1975
DA:34,1975
DA:36,1975
DA:39,24665
DA:41,24665
DA:45,1975
DA:47,1975
DA:48,1975
DA:49,1975
DA:50,1975
DA:51,1975
DA:52,1975
DA:53,1458
DA:54,3950
DA:58,3624
DA:60,3624
DA:61,3624
DA:63,3624
DA:65,1775
DA:67,1775
DA:69,1775
DA:72,1849
DA:73,3624
DA:77,317
DA:79,317
DA:80,317
DA:81,317
DA:87,2171
DA:90,2171
DA:92,2171
DA:93,2171
DA:94,2171
DA:95,2171
DA:97,2171
DA:98,2171
DA:99,2171
DA:100,2171
DA:101,2171
DA:104,3778
DA:106,1607
DA:107,1607
DA:108,1607
DA:109,1607
DA:110,1607
DA:114,3566
DA:116,1395
DA:117,1395
DA:118,1395
DA:119,1395
DA:120,1395
DA:121,1395
DA:122,1395
DA:123,1395
DA:126,3454
DA:128,2059
DA:129,2059
DA:130,2059
DA:131,2059
DA:132,2059
DA:135,2059
DA:136,2059
DA:137,2059
DA:138,2059
DA:139,2059
DA:143,2171
DA:144,2171
DA:147,1432
DA:150,1432
DA:151,1409
DA:154,23
DA:155,69
DA:156,46
DA:157,32
DA:158,9
DA:159,23
DA:163,78
DA:165,78
DA:168,78
DA:170,46
DA:171,46
DA:172,36
DA:174,10
DA:175,10
DA:180,10
DA:184,32
DA:185,32
DA:190,32
DA:194,27
DA:196,27
DA:197,27
DA:200,27
DA:202,22
DA:203,22
DA:207,5
DA:212,5
DA:213,5
DA:217,320
DA:220,320
DA:221,311
DA:224,9
DA:225,14
DA:226,5
DA:227,9
DA:231,13888
DA:233,13888
DA:236,13888
DA:237,13230
DA:238,26460
DA:241,658
DA:242,206
DA:244,452
DA:245,452
DA:249,88
DA:251,88
DA:252,88
DA:253,88
DA:254,88
DA:259,176
DA:263,24122
DA:265,24122
DA:266,24122
DA:270,16
DA:272,16
DA:273,16
DA:277,40
DA:279,40
DA:280,40
DA:284,56467
DA:286,56467
DA:287,56467
DA:291,62
DA:294,62
DA:295,30
DA:298,32
DA:300,18
DA:301,18
DA:302,18
DA:303,18
DA:306,14
DA:307,14
DA:308,14
DA:309,14
DA:313,13
DA:315,13
DA:319,27
DA:321,27
DA:323,27
DA:325,27
DA:326,23
DA:328,4
DA:332,17
DA:334,17
DA:335,17
DA:336,17
DA:341,34
DA:345,2
DA:347,2
DA:348,2
DA:352,6659
DA:354,6659
DA:356,6659
DA:357,6659
DA:358,6659
DA:360,6659
DA:361,6655
DA:363,4
DA:367,6571
DA:370,6571
DA:374,9
DA:376,9
DA:377,9
DA:381,3
DA:383,3
DA:384,3
DA:388,14
DA:390,14
DA:393,14
DA:394,10
DA:397,4
DA:398,4
DA:399,4
DA:400,4
DA:401,4
DA:402,4
DA:406,9
DA:408,9
DA:409,9
DA:413,14
DA:415,14
DA:416,14
DA:417,14
DA:419,14
DA:420,10
DA:422,4
DA:426,10
DA:429,10
DA:430,2
DA:433,8
DA:434,0
DA:437,10
DA:439,2
DA:440,0
DA:442,2
DA:443,0
DA:446,8
DA:450,1458
DA:452,1458
DA:453,476
DA:454,982
DA:455,61
DA:456,921
DA:457,139
DA:458,782
DA:459,70
DA:460,712
DA:461,49
DA:462,663
DA:463,125
DA:464,1458
DA:467,80814
DA:469,80814
DA:470,80814
DA:473,0
DA:476,0
DA:479,0
DA:480,0
DA:482,0
DA:483,0
DA:484,0
DA:485,0
DA:488,0
DA:490,0
DA:491,0
DA:492,0
DA:493,0
DA:494,0
DA:495,0
DA:496,0
DA:499,0
DA:500,0
DA:503,6
DA:505,6
DA:509,4
DA:511,4
LF:244
LH:223
end_of_record
TN:
SF:/home/runner/work/neml2/neml2/src/neml2/base/LabeledAxisAccessor.cxx
FN:101,109,_ZNK5neml219LabeledAxisAccessor5sliceEll
FN:112,115,_ZNK5neml219LabeledAxisAccessor7remountERKS0_l
FN:118,121,_ZNK5neml219LabeledAxisAccessor10start_withERKS0_
FN:124,127,_ZNK5neml219LabeledAxisAccessor8is_stateEv
FN:130,133,_ZNK5neml219LabeledAxisAccessor12is_old_stateEv
FN:136,139,_ZNK5neml219LabeledAxisAccessor8is_forceEv
FN:142,145,_ZNK5neml219LabeledAxisAccessor12is_old_forceEv
FN:148,151,_ZNK5neml219LabeledAxisAccessor11is_residualEv
FN:154,157,_ZNK5neml219LabeledAxisAccessor12is_parameterEv
FN:160,169,_ZNK5neml219LabeledAxisAccessor7currentEv
FN:172,181,_ZNK5neml219LabeledAxisAccessor3oldEv
FN:184,192,_ZNK5neml219LabeledAxisAccessor18validate_item_nameERKSs
FN:195,198,_ZN5neml2neERKNS_19LabeledAxisAccessorES2_
FN:201,204,_ZN5neml2eqERKNS_19LabeledAxisAccessorES2_
FN:207,210,_ZN5neml2ltERKNS_19LabeledAxisAccessorES2_
FN:213,222,_ZN5neml2lsERSoRKNS_19LabeledAxisAccessorE
FN:34,37,_ZN5neml222reserved_subaxis_namesEv
FN:39,43,_ZNK5neml219LabeledAxisAccessorcvSt6vectorISsSaISsEEEv
FN:46,49,_ZNK5neml219LabeledAxisAccessor3strEv
FN:52,55,_ZNK5neml219LabeledAxisAccessor5emptyEv
FN:58,61,_ZNK5neml219LabeledAxisAccessor4sizeEv
FN:64,67,_ZNK5neml219LabeledAxisAccessorixEm
FN:70,75,_ZNK5neml219LabeledAxisAccessor11with_suffixERKSs
FN:78,81,_ZNK5neml219LabeledAxisAccessor6appendERKS0_
FN:84,89,_ZNK5neml219LabeledAxisAccessor7prependERKS0_
FN:92,98,_ZNK5neml219LabeledAxisAccessor5sliceEl
FNDA:1794,_ZNK5neml219LabeledAxisAccessor5sliceEll
FNDA:133,_ZNK5neml219LabeledAxisAccessor7remountERKS0_l
FNDA:1792,_ZNK5neml219LabeledAxisAccessor10start_withERKS0_
FNDA:1016,_ZNK5neml219LabeledAxisAccessor8is_stateEv
FNDA:163,_ZNK5neml219LabeledAxisAccessor12is_old_stateEv
FNDA:167,_ZNK5neml219LabeledAxisAccessor8is_forceEv
FNDA:47,_ZNK5neml219LabeledAxisAccessor12is_old_forceEv
FNDA:157,_ZNK5neml219LabeledAxisAccessor11is_residualEv
FNDA:107,_ZNK5neml219LabeledAxisAccessor12is_parameterEv
FNDA:0,_ZNK5neml219LabeledAxisAccessor7currentEv
FNDA:85,_ZNK5neml219LabeledAxisAccessor3oldEv
FNDA:85827,_ZNK5neml219LabeledAxisAccessor18validate_item_nameERKSs
FNDA:7305,_ZN5neml2neERKNS_19LabeledAxisAccessorES2_
FNDA:65258,_ZN5neml2eqERKNS_19LabeledAxisAccessorES2_
FNDA:466870,_ZN5neml2ltERKNS_19LabeledAxisAccessorES2_
FNDA:2934,_ZN5neml2lsERSoRKNS_19LabeledAxisAccessorE
FNDA:0,_ZN5neml222reserved_subaxis_namesEv
FNDA:1,_ZNK5neml219LabeledAxisAccessorcvSt6vectorISsSaISsEEEv
FNDA:405,_ZNK5neml219LabeledAxisAccessor3strEv
FNDA:25389,_ZNK5neml219LabeledAxisAccessor5emptyEv
FNDA:18780,_ZNK5neml219LabeledAxisAccessor4sizeEv
FNDA:16450,_ZNK5neml219LabeledAxisAccessorixEm
FNDA:95,_ZNK5neml219LabeledAxisAccessor11with_suffixERKSs
FNDA:1976,_ZNK5neml219LabeledAxisAccessor6appendERKS0_
FNDA:29682,_ZNK5neml219LabeledAxisAccessor7prependERKS0_
FNDA:2294,_ZNK5neml219LabeledAxisAccessor5sliceEl
FNF:26
FNH:24
DA:34,0
DA:36,0
DA:37,0
DA:39,1
DA:41,1
DA:42,1
DA:46,405
DA:48,405
DA:52,25389
DA:54,25389
DA:58,18780
DA:60,18780
DA:64,16450
DA:66,16450
DA:70,95
DA:72,95
DA:73,95
DA:74,190
DA:75,95
DA:78,1976
DA:80,1976
DA:84,29682
DA:86,29682
DA:87,29682
DA:88,59364
DA:89,29682
DA:92,2294
DA:94,2294
DA:95,2294
DA:96,2294
DA:97,4588
DA:98,2294
DA:101,1794
DA:103,1794
DA:104,1794
DA:105,1794
DA:106,1794
DA:107,1794
DA:108,3588
DA:109,1794
DA:112,133
DA:114,133
DA:118,1792
DA:120,1792
DA:124,1016
DA:126,1016
DA:130,163
DA:132,163
DA:136,167
DA:138,167
DA:142,47
DA:144,47
DA:148,157
DA:150,157
DA:154,107
DA:156,107
DA:160,0
DA:162,0
DA:163,0
DA:164,0
DA:165,0
DA:166,0
DA:167,0
DA:168,0
DA:172,85
DA:174,85
DA:175,85
DA:176,35
DA:177,50
DA:178,50
DA:179,0
DA:180,0
DA:184,85827
DA:186,85827
DA:187,85827
DA:188,85827
DA:192,85826
DA:195,7305
DA:197,7305
DA:201,65258
DA:203,65258
DA:207,466870
DA:209,466870
DA:213,2934
DA:215,9812
DA:217,6878
DA:218,3944
DA:219,6878
DA:221,2934
LF:89
LH:76
end_of_record
TN:
SF:/home/runner/work/neml2/neml2/src/neml2/base/MultiEnumSelection.cxx
FN:32,44,_ZN5neml2lsERSoRKNS_18MultiEnumSelectionE
FN:47,51,_ZN5neml2rsERSt18basic_stringstreamIcSt11char_traitsIcESaIcEERNS_18MultiEnumSelectionE
FN:53,58,_ZN5neml218MultiEnumSelectionC2ERKSt6vectorISsSaISsEES5_
FN:60,66,_ZN5neml218MultiEnumSelectionC2ERKSt6vectorISsSaISsEERKS1_IiSaIiEES5_
FN:69,73,_ZNK5neml218MultiEnumSelectioneqERKS0_
FN:76,79,_ZNK5neml218MultiEnumSelectionneERKS0_
FN:82,94,_ZN5neml218MultiEnumSelection6selectERKSt6vectorISsSaISsEE
FNDA:1,_ZN5neml2lsERSoRKNS_18MultiEnumSelectionE
FNDA:26,_ZN5neml2rsERSt18basic_stringstreamIcSt11char_traitsIcESaIcEERNS_18MultiEnumSelectionE
FNDA:3,_ZN5neml218MultiEnumSelectionC2ERKSt6vectorISsSaISsEES5_
FNDA:13,_ZN5neml218MultiEnumSelectionC2ERKSt6vectorISsSaISsEERKS1_IiSaIiEES5_
FNDA:4,_ZNK5neml218MultiEnumSelectioneqERKS0_
FNDA:3,_ZNK5neml218MultiEnumSelectionneERKS0_
FNDA:42,_ZN5neml218MultiEnumSelection6selectERKSt6vectorISsSaISsEE
FNF:7
FNH:7
DA:32,1
DA:34,1
DA:35,1
DA:36,3
DA:38,2
DA:39,2
DA:40,1
DA:42,1
DA:43,1
DA:44,1
DA:47,26
DA:49,28
DA:50,25
DA:53,3
DA:54,3
DA:55,3
DA:57,3
DA:58,5
DA:60,13
DA:62,13
DA:63,13
DA:65,13
DA:66,15
DA:69,4
DA:71,5
DA:72,5
DA:76,3
DA:78,3
DA:82,42
DA:84,42
DA:85,42
DA:86,115
DA:88,76
DA:90,155
DA:91,73
DA:92,73
DA:94,39
LF:37
LH:37
end_of_record
TN:
SF:/home/runner/work/neml2/neml2/src/neml2/base/NEML2Object.cxx
FN:30,36,_ZN5neml211NEML2Object16expected_optionsEv
FN:38,42,_ZN5neml211NEML2ObjectC2ERKNS_9OptionSetE
FNDA:363,_ZN5neml211NEML2Object16expected_optionsEv
FNDA:1372,_ZN5neml211NEML2ObjectC2ERKNS_9OptionSetE
FNF:2
FNH:2
DA:30,363
DA:32,363
DA:33,726
DA:34,363
DA:35,363
DA:36,0
DA:38,1372
DA:39,1372
DA:40,2744
DA:42,1372
LF:10
LH:9
end_of_record
TN:
SF:/home/runner/work/neml2/neml2/src/neml2/base/Option.cxx
FN:127,130,_ZN5neml27details13_print_helperIcEEvRSoPKT_
FN:134,137,_ZN5neml27details13_print_helperIhEEvRSoPKT_
FN:141,145,_ZN5neml27details13_print_helperIbEEvRSoPKSt6vectorIT_SaIS4_EE
FN:38,43,_ZN5neml26OptionIN3c1011SmallVectorIlLj8EEEEC2ERKSs
FN:38,43,_ZN5neml26OptionINS_10TensorNameEEC2ERKSs
FN:38,43,_ZN5neml26OptionINS_13EnumSelectionEEC2ERKSs
FN:38,43,_ZN5neml26OptionINS_18MultiEnumSelectionEEC2ERKSs
FN:38,43,_ZN5neml26OptionINS_19LabeledAxisAccessorEEC2ERKSs
FN:38,43,_ZN5neml26OptionIPNS_11NEML2ObjectEEC2ERKSs
FN:38,43,_ZN5neml26OptionISsEC2ERKSs
FN:38,43,_ZN5neml26OptionISt6vectorIN3c1011SmallVectorIlLj8EEESaIS4_EEEC2ERKSs
FN:38,43,_ZN5neml26OptionISt6vectorINS_10TensorNameESaIS2_EEEC2ERKSs
FN:38,43,_ZN5neml26OptionISt6vectorINS_19LabeledAxisAccessorESaIS2_EEEC2ERKSs
FN:38,43,_ZN5neml26OptionISt6vectorIS1_IN3c1011SmallVectorIlLj8EEESaIS4_EESaIS6_EEEC2ERKSs
FN:38,43,_ZN5neml26OptionISt6vectorIS1_INS_10TensorNameESaIS2_EESaIS4_EEEC2ERKSs
FN:38,43,_ZN5neml26OptionISt6vectorIS1_INS_19LabeledAxisAccessorESaIS2_EESaIS4_EEEC2ERKSs
FN:38,43,_ZN5neml26OptionISt6vectorIS1_ISsSaISsEESaIS3_EEEC2ERKSs
FN:38,43,_ZN5neml26OptionISt6vectorIS1_IbSaIbEESaIS3_EEEC2ERKSs
FN:38,43,_ZN5neml26OptionISt6vectorIS1_IdSaIdEESaIS3_EEEC2ERKSs
FN:38,43,_ZN5neml26OptionISt6vectorIS1_IiSaIiEESaIS3_EEEC2ERKSs
FN:38,43,_ZN5neml26OptionISt6vectorIS1_IjSaIjEESaIS3_EEEC2ERKSs
FN:38,43,_ZN5neml26OptionISt6vectorIS1_IlSaIlEESaIS3_EEEC2ERKSs
FN:38,43,_ZN5neml26OptionISt6vectorISsSaISsEEEC2ERKSs
FN:38,43,_ZN5neml26OptionISt6vectorIbSaIbEEEC2ERKSs
FN:38,43,_ZN5neml26OptionISt6vectorIdSaIdEEEC2ERKSs
FN:38,43,_ZN5neml26OptionISt6vectorIiSaIiEEEC2ERKSs
FN:38,43,_ZN5neml26OptionISt6vectorIjSaIjEEEC2ERKSs
FN:38,43,_ZN5neml26OptionISt6vectorIlSaIlEEEC2ERKSs
FN:38,43,_ZN5neml26OptionIbEC2ERKSs
FN:38,43,_ZN5neml26OptionIdEC2ERKSs
FN:38,43,_ZN5neml26OptionIiEC2ERKSs
FN:38,43,_ZN5neml26OptionIjEC2ERKSs
FN:38,43,_ZN5neml26OptionIlEC2ERKSs
FN:47,54,_ZNK5neml26OptionIN3c1011SmallVectorIlLj8EEEEeqERKNS_10OptionBaseE
FN:47,54,_ZNK5neml26OptionINS_10TensorNameEEeqERKNS_10OptionBaseE
FN:47,54,_ZNK5neml26OptionINS_13EnumSelectionEEeqERKNS_10OptionBaseE
FN:47,54,_ZNK5neml26OptionINS_18MultiEnumSelectionEEeqERKNS_10OptionBaseE
FN:47,54,_ZNK5neml26OptionINS_19LabeledAxisAccessorEEeqERKNS_10OptionBaseE
FN:47,54,_ZNK5neml26OptionIPNS_11NEML2ObjectEEeqERKNS_10OptionBaseE
FN:47,54,_ZNK5neml26OptionISsEeqERKNS_10OptionBaseE
FN:47,54,_ZNK5neml26OptionISt6vectorIN3c1011SmallVectorIlLj8EEESaIS4_EEEeqERKNS_10OptionBaseE
FN:47,54,_ZNK5neml26OptionISt6vectorINS_10TensorNameESaIS2_EEEeqERKNS_10OptionBaseE
FN:47,54,_ZNK5neml26OptionISt6vectorINS_19LabeledAxisAccessorESaIS2_EEEeqERKNS_10OptionBaseE
FN:47,54,_ZNK5neml26OptionISt6vectorIS1_IN3c1011SmallVectorIlLj8EEESaIS4_EESaIS6_EEEeqERKNS_10OptionBaseE
FN:47,54,_ZNK5neml26OptionISt6vectorIS1_INS_10TensorNameESaIS2_EESaIS4_EEEeqERKNS_10OptionBaseE
FN:47,54,_ZNK5neml26OptionISt6vectorIS1_INS_19LabeledAxisAccessorESaIS2_EESaIS4_EEEeqERKNS_10OptionBaseE
FN:47,54,_ZNK5neml26OptionISt6vectorIS1_ISsSaISsEESaIS3_EEEeqERKNS_10OptionBaseE
FN:47,54,_ZNK5neml26OptionISt6vectorIS1_IbSaIbEESaIS3_EEEeqERKNS_10OptionBaseE
FN:47,54,_ZNK5neml26OptionISt6vectorIS1_IdSaIdEESaIS3_EEEeqERKNS_10OptionBaseE
FN:47,54,_ZNK5neml26OptionISt6vectorIS1_IiSaIiEESaIS3_EEEeqERKNS_10OptionBaseE
FN:47,54,_ZNK5neml26OptionISt6vectorIS1_IjSaIjEESaIS3_EEEeqERKNS_10OptionBaseE
FN:47,54,_ZNK5neml26OptionISt6vectorIS1_IlSaIlEESaIS3_EEEeqERKNS_10OptionBaseE
FN:47,54,_ZNK5neml26OptionISt6vectorISsSaISsEEEeqERKNS_10OptionBaseE
FN:47,54,_ZNK5neml26OptionISt6vectorIbSaIbEEEeqERKNS_10OptionBaseE
FN:47,54,_ZNK5neml26OptionISt6vectorIdSaIdEEEeqERKNS_10OptionBaseE
FN:47,54,_ZNK5neml26OptionISt6vectorIiSaIiEEEeqERKNS_10OptionBaseE
FN:47,54,_ZNK5neml26OptionISt6vectorIjSaIjEEEeqERKNS_10OptionBaseE
FN:47,54,_ZNK5neml26OptionISt6vectorIlSaIlEEEeqERKNS_10OptionBaseE
FN:47,54,_ZNK5neml26OptionIbEeqERKNS_10OptionBaseE
FN:47,54,_ZNK5neml26OptionIdEeqERKNS_10OptionBaseE
FN:47,54,_ZNK5neml26OptionIiEeqERKNS_10OptionBaseE
FN:47,54,_ZNK5neml26OptionIjEeqERKNS_10OptionBaseE
FN:47,54,_ZNK5neml26OptionIlEeqERKNS_10OptionBaseE
FN:58,61,_ZNK5neml26OptionIN3c1011SmallVectorIlLj8EEEEneERKNS_10OptionBaseE
FN:58,61,_ZNK5neml26OptionINS_10TensorNameEEneERKNS_10OptionBaseE
FN:58,61,_ZNK5neml26OptionINS_13EnumSelectionEEneERKNS_10OptionBaseE
FN:58,61,_ZNK5neml26OptionINS_18MultiEnumSelectionEEneERKNS_10OptionBaseE
FN:58,61,_ZNK5neml26OptionINS_19LabeledAxisAccessorEEneERKNS_10OptionBaseE
FN:58,61,_ZNK5neml26OptionIPNS_11NEML2ObjectEEneERKNS_10OptionBaseE
FN:58,61,_ZNK5neml26OptionISsEneERKNS_10OptionBaseE
FN:58,61,_ZNK5neml26OptionISt6vectorIN3c1011SmallVectorIlLj8EEESaIS4_EEEneERKNS_10OptionBaseE
FN:58,61,_ZNK5neml26OptionISt6vectorINS_10TensorNameESaIS2_EEEneERKNS_10OptionBaseE
FN:58,61,_ZNK5neml26OptionISt6vectorINS_19LabeledAxisAccessorESaIS2_EEEneERKNS_10OptionBaseE
FN:58,61,_ZNK5neml26OptionISt6vectorIS1_IN3c1011SmallVectorIlLj8EEESaIS4_EESaIS6_EEEneERKNS_10OptionBaseE
FN:58,61,_ZNK5neml26OptionISt6vectorIS1_INS_10TensorNameESaIS2_EESaIS4_EEEneERKNS_10OptionBaseE
FN:58,61,_ZNK5neml26OptionISt6vectorIS1_INS_19LabeledAxisAccessorESaIS2_EESaIS4_EEEneERKNS_10OptionBaseE
FN:58,61,_ZNK5neml26OptionISt6vectorIS1_ISsSaISsEESaIS3_EEEneERKNS_10OptionBaseE
FN:58,61,_ZNK5neml26OptionISt6vectorIS1_IbSaIbEESaIS3_EEEneERKNS_10OptionBaseE
FN:58,61,_ZNK5neml26OptionISt6vectorIS1_IdSaIdEESaIS3_EEEneERKNS_10OptionBaseE
FN:58,61,_ZNK5neml26OptionISt6vectorIS1_IiSaIiEESaIS3_EEEneERKNS_10OptionBaseE
FN:58,61,_ZNK5neml26OptionISt6vectorIS1_IjSaIjEESaIS3_EEEneERKNS_10OptionBaseE
FN:58,61,_ZNK5neml26OptionISt6vectorIS1_IlSaIlEESaIS3_EEEneERKNS_10OptionBaseE
FN:58,61,_ZNK5neml26OptionISt6vectorISsSaISsEEEneERKNS_10OptionBaseE
FN:58,61,_ZNK5neml26OptionISt6vectorIbSaIbEEEneERKNS_10OptionBaseE
FN:58,61,_ZNK5neml26OptionISt6vectorIdSaIdEEEneERKNS_10OptionBaseE
FN:58,61,_ZNK5neml26OptionISt6vectorIiSaIiEEEneERKNS_10OptionBaseE
FN:58,61,_ZNK5neml26OptionISt6vectorIjSaIjEEEneERKNS_10OptionBaseE
FN:58,61,_ZNK5neml26OptionISt6vectorIlSaIlEEEneERKNS_10OptionBaseE
FN:58,61,_ZNK5neml26OptionIbEneERKNS_10OptionBaseE
FN:58,61,_ZNK5neml26OptionIdEneERKNS_10OptionBaseE
FN:58,61,_ZNK5neml26OptionIiEneERKNS_10OptionBaseE
FN:58,61,_ZNK5neml26OptionIjEneERKNS_10OptionBaseE
FN:58,61,_ZNK5neml26OptionIlEneERKNS_10OptionBaseE
FN:74,80,_ZNK5neml26OptionIN3c1011SmallVectorIlLj8EEEE5cloneEv
FN:74,80,_ZNK5neml26OptionINS_10TensorNameEE5cloneEv
FN:74,80,_ZNK5neml26OptionINS_13EnumSelectionEE5cloneEv
FN:74,80,_ZNK5neml26OptionINS_18MultiEnumSelectionEE5cloneEv
FN:74,80,_ZNK5neml26OptionINS_19LabeledAxisAccessorEE5cloneEv
FN:74,80,_ZNK5neml26OptionIPNS_11NEML2ObjectEE5cloneEv
FN:74,80,_ZNK5neml26OptionISsE5cloneEv
FN:74,80,_ZNK5neml26OptionISt6vectorIN3c1011SmallVectorIlLj8EEESaIS4_EEE5cloneEv
FN:74,80,_ZNK5neml26OptionISt6vectorINS_10TensorNameESaIS2_EEE5cloneEv
FN:74,80,_ZNK5neml26OptionISt6vectorINS_19LabeledAxisAccessorESaIS2_EEE5cloneEv
FN:74,80,_ZNK5neml26OptionISt6vectorIS1_IN3c1011SmallVectorIlLj8EEESaIS4_EESaIS6_EEE5cloneEv
FN:74,80,_ZNK5neml26OptionISt6vectorIS1_INS_10TensorNameESaIS2_EESaIS4_EEE5cloneEv
FN:74,80,_ZNK5neml26OptionISt6vectorIS1_INS_19LabeledAxisAccessorESaIS2_EESaIS4_EEE5cloneEv
FN:74,80,_ZNK5neml26OptionISt6vectorIS1_ISsSaISsEESaIS3_EEE5cloneEv
FN:74,80,_ZNK5neml26OptionISt6vectorIS1_IbSaIbEESaIS3_EEE5cloneEv
FN:74,80,_ZNK5neml26OptionISt6vectorIS1_IdSaIdEESaIS3_EEE5cloneEv
FN:74,80,_ZNK5neml26OptionISt6vectorIS1_IiSaIiEESaIS3_EEE5cloneEv
FN:74,80,_ZNK5neml26OptionISt6vectorIS1_IjSaIjEESaIS3_EEE5cloneEv
FN:74,80,_ZNK5neml26OptionISt6vectorIS1_IlSaIlEESaIS3_EEE5cloneEv
FN:74,80,_ZNK5neml26OptionISt6vectorISsSaISsEEE5cloneEv
FN:74,80,_ZNK5neml26OptionISt6vectorIbSaIbEEE5cloneEv
FN:74,80,_ZNK5neml26OptionISt6vectorIdSaIdEEE5cloneEv
FN:74,80,_ZNK5neml26OptionISt6vectorIiSaIiEEE5cloneEv
FN:74,80,_ZNK5neml26OptionISt6vectorIjSaIjEEE5cloneEv
FN:74,80,_ZNK5neml26OptionISt6vectorIlSaIlEEE5cloneEv
FN:74,80,_ZNK5neml26OptionIbE5cloneEv
FN:74,80,_ZNK5neml26OptionIdE5cloneEv
FN:74,80,_ZNK5neml26OptionIiE5cloneEv
FN:74,80,_ZNK5neml26OptionIjE5cloneEv
FN:74,80,_ZNK5neml26OptionIlE5cloneEv
FNDA:0,_ZN5neml27details13_print_helperIcEEvRSoPKT_
FNDA:0,_ZN5neml27details13_print_helperIhEEvRSoPKT_
FNDA:0,_ZN5neml27details13_print_helperIbEEvRSoPKSt6vectorIT_SaIS4_EE
FNDA:6968,_ZN5neml26OptionIN3c1011SmallVectorIlLj8EEEEC2ERKSs
FNDA:6344,_ZN5neml26OptionINS_10TensorNameEEC2ERKSs
FNDA:2726,_ZN5neml26OptionINS_13EnumSelectionEEC2ERKSs
FNDA:280,_ZN5neml26OptionINS_18MultiEnumSelectionEEC2ERKSs
FNDA:7425,_ZN5neml26OptionINS_19LabeledAxisAccessorEEC2ERKSs
FNDA:15895,_ZN5neml26OptionIPNS_11NEML2ObjectEEC2ERKSs
FNDA:8357,_ZN5neml26OptionISsEC2ERKSs
FNDA:29,_ZN5neml26OptionISt6vectorIN3c1011SmallVectorIlLj8EEESaIS4_EEEC2ERKSs
FNDA:30506,_ZN5neml26OptionISt6vectorINS_10TensorNameESaIS2_EEEC2ERKSs
FNDA:30224,_ZN5neml26OptionISt6vectorINS_19LabeledAxisAccessorESaIS2_EEEC2ERKSs
FNDA:29,_ZN5neml26OptionISt6vectorIS1_IN3c1011SmallVectorIlLj8EEESaIS4_EESaIS6_EEEC2ERKSs
FNDA:0,_ZN5neml26OptionISt6vectorIS1_INS_10TensorNameESaIS2_EESaIS4_EEEC2ERKSs
FNDA:0,_ZN5neml26OptionISt6vectorIS1_INS_19LabeledAxisAccessorESaIS2_EESaIS4_EEEC2ERKSs
FNDA:29,_ZN5neml26OptionISt6vectorIS1_ISsSaISsEESaIS3_EEEC2ERKSs
FNDA:29,_ZN5neml26OptionISt6vectorIS1_IbSaIbEESaIS3_EEEC2ERKSs
FNDA:29,_ZN5neml26OptionISt6vectorIS1_IdSaIdEESaIS3_EEEC2ERKSs
FNDA:29,_ZN5neml26OptionISt6vectorIS1_IiSaIiEESaIS3_EEEC2ERKSs
FNDA:29,_ZN5neml26OptionISt6vectorIS1_IjSaIjEESaIS3_EEEC2ERKSs
FNDA:0,_ZN5neml26OptionISt6vectorIS1_IlSaIlEESaIS3_EEEC2ERKSs
FNDA:1405,_ZN5neml26OptionISt6vectorISsSaISsEEEC2ERKSs
FNDA:524,_ZN5neml26OptionISt6vectorIbSaIbEEEC2ERKSs
FNDA:720,_ZN5neml26OptionISt6vectorIdSaIdEEEC2ERKSs
FNDA:29,_ZN5neml26OptionISt6vectorIiSaIiEEEC2ERKSs
FNDA:29,_ZN5neml26OptionISt6vectorIjSaIjEEEC2ERKSs
FNDA:476,_ZN5neml26OptionISt6vectorIlSaIlEEEC2ERKSs
FNDA:36804,_ZN5neml26OptionIbEC2ERKSs
FNDA:17407,_ZN5neml26OptionIdEC2ERKSs
FNDA:2451,_ZN5neml26OptionIiEC2ERKSs
FNDA:4838,_ZN5neml26OptionIjEC2ERKSs
FNDA:3275,_ZN5neml26OptionIlEC2ERKSs
FNDA:0,_ZNK5neml26OptionIN3c1011SmallVectorIlLj8EEEEeqERKNS_10OptionBaseE
FNDA:0,_ZNK5neml26OptionINS_10TensorNameEEeqERKNS_10OptionBaseE
FNDA:0,_ZNK5neml26OptionINS_13EnumSelectionEEeqERKNS_10OptionBaseE
FNDA:0,_ZNK5neml26OptionINS_18MultiEnumSelectionEEeqERKNS_10OptionBaseE
FNDA:0,_ZNK5neml26OptionINS_19LabeledAxisAccessorEEeqERKNS_10OptionBaseE
FNDA:1,_ZNK5neml26OptionIPNS_11NEML2ObjectEEeqERKNS_10OptionBaseE
FNDA:0,_ZNK5neml26OptionISsEeqERKNS_10OptionBaseE
FNDA:0,_ZNK5neml26OptionISt6vectorIN3c1011SmallVectorIlLj8EEESaIS4_EEEeqERKNS_10OptionBaseE
FNDA:0,_ZNK5neml26OptionISt6vectorINS_10TensorNameESaIS2_EEEeqERKNS_10OptionBaseE
FNDA:0,_ZNK5neml26OptionISt6vectorINS_19LabeledAxisAccessorESaIS2_EEEeqERKNS_10OptionBaseE
FNDA:0,_ZNK5neml26OptionISt6vectorIS1_IN3c1011SmallVectorIlLj8EEESaIS4_EESaIS6_EEEeqERKNS_10OptionBaseE
FNDA:0,_ZNK5neml26OptionISt6vectorIS1_INS_10TensorNameESaIS2_EESaIS4_EEEeqERKNS_10OptionBaseE
FNDA:0,_ZNK5neml26OptionISt6vectorIS1_INS_19LabeledAxisAccessorESaIS2_EESaIS4_EEEeqERKNS_10OptionBaseE
FNDA:0,_ZNK5neml26OptionISt6vectorIS1_ISsSaISsEESaIS3_EEEeqERKNS_10OptionBaseE
FNDA:0,_ZNK5neml26OptionISt6vectorIS1_IbSaIbEESaIS3_EEEeqERKNS_10OptionBaseE
FNDA:0,_ZNK5neml26OptionISt6vectorIS1_IdSaIdEESaIS3_EEEeqERKNS_10OptionBaseE
FNDA:0,_ZNK5neml26OptionISt6vectorIS1_IiSaIiEESaIS3_EEEeqERKNS_10OptionBaseE
FNDA:0,_ZNK5neml26OptionISt6vectorIS1_IjSaIjEESaIS3_EEEeqERKNS_10OptionBaseE
FNDA:0,_ZNK5neml26OptionISt6vectorIS1_IlSaIlEESaIS3_EEEeqERKNS_10OptionBaseE
FNDA:0,_ZNK5neml26OptionISt6vectorISsSaISsEEEeqERKNS_10OptionBaseE
FNDA:0,_ZNK5neml26OptionISt6vectorIbSaIbEEEeqERKNS_10OptionBaseE
FNDA:0,_ZNK5neml26OptionISt6vectorIdSaIdEEEeqERKNS_10OptionBaseE
FNDA:0,_ZNK5neml26OptionISt6vectorIiSaIiEEEeqERKNS_10OptionBaseE
FNDA:0,_ZNK5neml26OptionISt6vectorIjSaIjEEEeqERKNS_10OptionBaseE
FNDA:0,_ZNK5neml26OptionISt6vectorIlSaIlEEEeqERKNS_10OptionBaseE
FNDA:0,_ZNK5neml26OptionIbEeqERKNS_10OptionBaseE
FNDA:0,_ZNK5neml26OptionIdEeqERKNS_10OptionBaseE
FNDA:0,_ZNK5neml26OptionIiEeqERKNS_10OptionBaseE
FNDA:0,_ZNK5neml26OptionIjEeqERKNS_10OptionBaseE
FNDA:0,_ZNK5neml26OptionIlEeqERKNS_10OptionBaseE
FNDA:0,_ZNK5neml26OptionIN3c1011SmallVectorIlLj8EEEEneERKNS_10OptionBaseE
FNDA:0,_ZNK5neml26OptionINS_10TensorNameEEneERKNS_10OptionBaseE
FNDA:0,_ZNK5neml26OptionINS_13EnumSelectionEEneERKNS_10OptionBaseE
FNDA:0,_ZNK5neml26OptionINS_18MultiEnumSelectionEEneERKNS_10OptionBaseE
FNDA:0,_ZNK5neml26OptionINS_19LabeledAxisAccessorEEneERKNS_10OptionBaseE
FNDA:1,_ZNK5neml26OptionIPNS_11NEML2ObjectEEneERKNS_10OptionBaseE
FNDA:0,_ZNK5neml26OptionISsEneERKNS_10OptionBaseE
FNDA:0,_ZNK5neml26OptionISt6vectorIN3c1011SmallVectorIlLj8EEESaIS4_EEEneERKNS_10OptionBaseE
FNDA:0,_ZNK5neml26OptionISt6vectorINS_10TensorNameESaIS2_EEEneERKNS_10OptionBaseE
FNDA:0,_ZNK5neml26OptionISt6vectorINS_19LabeledAxisAccessorESaIS2_EEEneERKNS_10OptionBaseE
FNDA:0,_ZNK5neml26OptionISt6vectorIS1_IN3c1011SmallVectorIlLj8EEESaIS4_EESaIS6_EEEneERKNS_10OptionBaseE
FNDA:0,_ZNK5neml26OptionISt6vectorIS1_INS_10TensorNameESaIS2_EESaIS4_EEEneERKNS_10OptionBaseE
FNDA:0,_ZNK5neml26OptionISt6vectorIS1_INS_19LabeledAxisAccessorESaIS2_EESaIS4_EEEneERKNS_10OptionBaseE
FNDA:0,_ZNK5neml26OptionISt6vectorIS1_ISsSaISsEESaIS3_EEEneERKNS_10OptionBaseE
FNDA:0,_ZNK5neml26OptionISt6vectorIS1_IbSaIbEESaIS3_EEEneERKNS_10OptionBaseE
FNDA:0,_ZNK5neml26OptionISt6vectorIS1_IdSaIdEESaIS3_EEEneERKNS_10OptionBaseE
FNDA:0,_ZNK5neml26OptionISt6vectorIS1_IiSaIiEESaIS3_EEEneERKNS_10OptionBaseE
FNDA:0,_ZNK5neml26OptionISt6vectorIS1_IjSaIjEESaIS3_EEEneERKNS_10OptionBaseE
FNDA:0,_ZNK5neml26OptionISt6vectorIS1_IlSaIlEESaIS3_EEEneERKNS_10OptionBaseE
FNDA:0,_ZNK5neml26OptionISt6vectorISsSaISsEEEneERKNS_10OptionBaseE
FNDA:0,_ZNK5neml26OptionISt6vectorIbSaIbEEEneERKNS_10OptionBaseE
FNDA:0,_ZNK5neml26OptionISt6vectorIdSaIdEEEneERKNS_10OptionBaseE
FNDA:0,_ZNK5neml26OptionISt6vectorIiSaIiEEEneERKNS_10OptionBaseE
FNDA:0,_ZNK5neml26OptionISt6vectorIjSaIjEEEneERKNS_10OptionBaseE
FNDA:0,_ZNK5neml26OptionISt6vectorIlSaIlEEEneERKNS_10OptionBaseE
FNDA:0,_ZNK5neml26OptionIbEneERKNS_10OptionBaseE
FNDA:0,_ZNK5neml26OptionIdEneERKNS_10OptionBaseE
FNDA:0,_ZNK5neml26OptionIiEneERKNS_10OptionBaseE
FNDA:0,_ZNK5neml26OptionIjEneERKNS_10OptionBaseE
FNDA:0,_ZNK5neml26OptionIlEneERKNS_10OptionBaseE
FNDA:6800,_ZNK5neml26OptionIN3c1011SmallVectorIlLj8EEEE5cloneEv
FNDA:6138,_ZNK5neml26OptionINS_10TensorNameEE5cloneEv
FNDA:1494,_ZNK5neml26OptionINS_13EnumSelectionEE5cloneEv
FNDA:276,_ZNK5neml26OptionINS_18MultiEnumSelectionEE5cloneEv
FNDA:7149,_ZNK5neml26OptionINS_19LabeledAxisAccessorEE5cloneEv
FNDA:15280,_ZNK5neml26OptionIPNS_11NEML2ObjectEE5cloneEv
FNDA:5825,_ZNK5neml26OptionISsE5cloneEv
FNDA:28,_ZNK5neml26OptionISt6vectorIN3c1011SmallVectorIlLj8EEESaIS4_EEE5cloneEv
FNDA:30377,_ZNK5neml26OptionISt6vectorINS_10TensorNameESaIS2_EEE5cloneEv
FNDA:30101,_ZNK5neml26OptionISt6vectorINS_19LabeledAxisAccessorESaIS2_EEE5cloneEv
FNDA:28,_ZNK5neml26OptionISt6vectorIS1_IN3c1011SmallVectorIlLj8EEESaIS4_EESaIS6_EEE5cloneEv
FNDA:0,_ZNK5neml26OptionISt6vectorIS1_INS_10TensorNameESaIS2_EESaIS4_EEE5cloneEv
FNDA:0,_ZNK5neml26OptionISt6vectorIS1_INS_19LabeledAxisAccessorESaIS2_EESaIS4_EEE5cloneEv
FNDA:28,_ZNK5neml26OptionISt6vectorIS1_ISsSaISsEESaIS3_EEE5cloneEv
FNDA:28,_ZNK5neml26OptionISt6vectorIS1_IbSaIbEESaIS3_EEE5cloneEv
FNDA:28,_ZNK5neml26OptionISt6vectorIS1_IdSaIdEESaIS3_EEE5cloneEv
FNDA:28,_ZNK5neml26OptionISt6vectorIS1_IiSaIiEESaIS3_EEE5cloneEv
FNDA:28,_ZNK5neml26OptionISt6vectorIS1_IjSaIjEESaIS3_EEE5cloneEv
FNDA:0,_ZNK5neml26OptionISt6vectorIS1_IlSaIlEESaIS3_EEE5cloneEv
FNDA:1396,_ZNK5neml26OptionISt6vectorISsSaISsEEE5cloneEv
FNDA:514,_ZNK5neml26OptionISt6vectorIbSaIbEEE5cloneEv
FNDA:690,_ZNK5neml26OptionISt6vectorIdSaIdEEE5cloneEv
FNDA:28,_ZNK5neml26OptionISt6vectorIiSaIiEEE5cloneEv
FNDA:28,_ZNK5neml26OptionISt6vectorIjSaIjEEE5cloneEv
FNDA:475,_ZNK5neml26OptionISt6vectorIlSaIlEEE5cloneEv
FNDA:35528,_ZNK5neml26OptionIbE5cloneEv
FNDA:15255,_ZNK5neml26OptionIdE5cloneEv
FNDA:1224,_ZNK5neml26OptionIiE5cloneEv
FNDA:4646,_ZNK5neml26OptionIjE5cloneEv
FNDA:3179,_ZNK5neml26OptionIlE5cloneEv
FNF:123
FNH:56
DA:38,176886
DA:39,176886
DA:41,176886
DA:42,176886
DA:43,176886
DA:47,1
DA:49,1
DA:50,1
DA:51,0
DA:53,1
DA:58,1
DA:60,1
DA:74,166599
DA:76,166599
DA:77,166599
DA:78,166599
DA:79,333198
DA:80,166599
DA:127,0
DA:129,0
DA:130,0
DA:134,0
DA:136,0
DA:137,0
DA:141,0
DA:143,0
DA:144,0
DA:145,0
LF:28
LH:17
end_of_record
TN:
SF:/home/runner/work/neml2/neml2/src/neml2/base/OptionCollection.cxx
FN:32,35,_ZN5neml216OptionCollectionC2Ev
FN:38,41,_ZN5neml216OptionCollectionixERKSs
FN:44,47,_ZNK5neml216OptionCollectionixERKSs
FNDA:613,_ZN5neml216OptionCollectionC2Ev
FNDA:4640,_ZN5neml216OptionCollectionixERKSs
FNDA:1,_ZNK5neml216OptionCollectionixERKSs
FNF:3
FNH:3
DA:32,613
DA:33,613
DA:35,613
DA:38,4640
DA:40,4640
DA:44,1
DA:46,1
LF:7
LH:7
end_of_record
TN:
SF:/home/runner/work/neml2/neml2/src/neml2/base/OptionSet.cxx
FN:108,114,_ZN5neml29OptionSetaSEOS0_
FN:117,121,_ZN5neml29OptionSetpLERKS0_
FN:124,128,_ZN5neml29OptionSetpLEOS0_
FN:178,181,_ZN5neml29OptionSet5beginEv
FN:184,187,_ZNK5neml29OptionSet5beginEv
FN:190,193,_ZN5neml29OptionSet3endEv
FN:196,199,_ZNK5neml29OptionSet3endEv
FN:34,44,_ZN5neml218options_compatibleERKNS_9OptionSetES2_
FN:47,50,_ZNK5neml29OptionSet8containsERKSs
FN:53,62,_ZNK5neml29OptionSet3getERKSs
FN:65,74,_ZN5neml29OptionSet3setERKSs
FN:77,80,_ZN5neml29OptionSet9set_inputERKSs
FN:83,86,_ZN5neml29OptionSet10set_outputERKSs
FN:89,92,_ZN5neml29OptionSet5clearEv
FN:94,94,_ZN5neml29OptionSetC2ERKS0_
FN:96,96,_ZN5neml29OptionSetC2EOS0_
FN:99,105,_ZN5neml29OptionSetaSERKS0_
FNDA:1458,_ZN5neml29OptionSetaSEOS0_
FNDA:16989,_ZN5neml29OptionSetpLERKS0_
FNDA:149,_ZN5neml29OptionSetpLEOS0_
FNDA:6780,_ZN5neml29OptionSet5beginEv
FNDA:1,_ZNK5neml29OptionSet5beginEv
FNDA:6780,_ZN5neml29OptionSet3endEv
FNDA:1,_ZNK5neml29OptionSet3endEv
FNDA:1,_ZN5neml218options_compatibleERKNS_9OptionSetES2_
FNDA:9513,_ZNK5neml29OptionSet8containsERKSs
FNDA:15,_ZNK5neml29OptionSet3getERKSs
FNDA:9492,_ZN5neml29OptionSet3setERKSs
FNDA:167,_ZN5neml29OptionSet9set_inputERKSs
FNDA:80,_ZN5neml29OptionSet10set_outputERKSs
FNDA:15628,_ZN5neml29OptionSet5clearEv
FNDA:10312,_ZN5neml29OptionSetC2ERKS0_
FNDA:1160,_ZN5neml29OptionSetC2EOS0_
FNDA:14170,_ZN5neml29OptionSetaSERKS0_
FNF:17
FNH:17
DA:34,1
DA:36,2
DA:38,1
DA:39,0
DA:40,1
DA:41,0
DA:43,1
DA:47,9513
DA:49,9513
DA:53,15
DA:55,15
DA:61,15
DA:65,9492
DA:67,9492
DA:73,9492
DA:77,167
DA:79,167
DA:83,80
DA:85,80
DA:89,15628
DA:91,15628
DA:92,15628
DA:94,10312
DA:96,1160
DA:99,14170
DA:101,14170
DA:102,14170
DA:103,14170
DA:104,14170
DA:108,1458
DA:110,1458
DA:111,1458
DA:112,1458
DA:113,1458
DA:117,16989
DA:119,183141
DA:120,166152
DA:121,16989
DA:124,149
DA:126,596
DA:127,447
DA:128,149
DA:178,6780
DA:180,6780
DA:184,1
DA:186,1
DA:190,6780
DA:192,6780
DA:196,1
DA:198,1
LF:50
LH:48
end_of_record
TN:
SF:/home/runner/work/neml2/neml2/src/neml2/base/Parser.cxx
FN:38,47,_ZN5neml25utils6parse_IbEEvRT_RKSs
FN:51,57,_ZN5neml25utils13parse_vector_IbEEvRSt6vectorIT_SaIS3_EERKSs
FN:61,65,_ZN5neml25utils6parse_INS_19LabeledAxisAccessorEEEvRT_RKSs
FN:69,81,_ZN5neml25utils6parse_IN3c1011SmallVectorIlLj8EEEEEvRT_RKSs
FNDA:196,_ZN5neml25utils6parse_IbEEvRT_RKSs
FNDA:42,_ZN5neml25utils13parse_vector_IbEEvRSt6vectorIT_SaIS3_EERKSs
FNDA:751,_ZN5neml25utils6parse_INS_19LabeledAxisAccessorEEEvRT_RKSs
FNDA:1534,_ZN5neml25utils6parse_IN3c1011SmallVectorIlLj8EEEEEvRT_RKSs
FNF:4
FNH:4
DA:38,196
DA:40,196
DA:41,196
DA:42,107
DA:43,89
DA:44,88
DA:46,3
DA:47,196
DA:51,42
DA:53,42
DA:54,42
DA:55,156
DA:56,114
DA:57,42
DA:61,751
DA:63,751
DA:64,751
DA:65,751
DA:69,1534
DA:71,1534
DA:72,2
DA:73,3
DA:75,3066
DA:76,1533
DA:78,1533
DA:79,4517
DA:80,2984
DA:81,1533
LF:28
LH:28
end_of_record
TN:
SF:/home/runner/work/neml2/neml2/src/neml2/base/Registry.cxx
FN:33,37,_ZN5neml28Registry3getEv
FN:40,44,_ZN5neml28Registry16expected_optionsEv
FN:47,55,_ZN5neml28Registry16expected_optionsERKSs
FN:58,62,_ZN5neml28Registry11syntax_typeERKSs
FN:65,73,_ZN5neml28Registry7builderERKSs
FN:76,90,_ZN5neml28Registry9add_innerERKSsS2_RKNS_9OptionSetEPFSt10shared_ptrINS_11NEML2ObjectEES5_E
FNDA:4920,_ZN5neml28Registry3getEv
FNDA:0,_ZN5neml28Registry16expected_optionsEv
FNDA:3210,_ZN5neml28Registry16expected_optionsERKSs
FNDA:0,_ZN5neml28Registry11syntax_typeERKSs
FNDA:1361,_ZN5neml28Registry7builderERKSs
FNDA:349,_ZN5neml28Registry9add_innerERKSsS2_RKNS_9OptionSetEPFSt10shared_ptrINS_11NEML2ObjectEES5_E
FNF:6
FNH:4
DA:33,4920
DA:35,4920
DA:36,4920
DA:40,0
DA:42,0
DA:43,0
DA:47,3210
DA:49,3210
DA:50,3210
DA:51,3210
DA:54,3210
DA:58,0
DA:60,0
DA:61,0
DA:65,1361
DA:67,1361
DA:68,1361
DA:69,1361
DA:72,1361
DA:76,349
DA:81,349
DA:82,349
DA:87,349
DA:88,349
DA:89,349
DA:90,349
LF:26
LH:20
end_of_record
TN:
SF:/home/runner/work/neml2/neml2/src/neml2/base/Settings.cxx
FN:100,132,_ZN5neml28SettingsC2ERKNS_9OptionSetE
FN:35,98,_ZN5neml28Settings16expected_optionsEv
FNDA:301,_ZN5neml28SettingsC2ERKNS_9OptionSetE
FNDA:613,_ZN5neml28Settings16expected_optionsEv
FNF:2
FNH:2
DA:35,613
DA:37,613
DA:38,613
DA:39,613
DA:41,1226
DA:46,3678
DA:47,613
DA:48,1226
DA:49,1839
DA:56,3678
DA:57,613
DA:58,1226
DA:59,1839
DA:61,1226
DA:62,1839
DA:67,613
DA:69,1226
DA:70,1839
DA:71,613
DA:73,1226
DA:74,1226
DA:76,1226
DA:77,1226
DA:79,1226
DA:80,1839
DA:81,613
DA:83,1226
DA:84,1839
DA:85,613
DA:87,1226
DA:88,2452
DA:90,613
DA:92,1226
DA:93,1226
DA:95,613
DA:97,1226
DA:98,613
DA:100,301
DA:103,301
DA:104,301
DA:107,602
DA:110,602
DA:113,602
DA:116,602
DA:117,602
DA:120,301
DA:121,301
DA:122,0
DA:125,301
DA:126,301
DA:127,0
DA:130,602
DA:131,301
DA:132,301
LF:54
LH:52
end_of_record
TN:
SF:/home/runner/work/neml2/neml2/src/neml2/base/TensorName.cxx
FN:32,44,_ZNK5neml210TensorNamecvN2at6TensorEEv
FN:46,58,_ZNK5neml210TensorNamecvNS_6TensorEEv
FN:73,73,_ZNK5neml210TensorNamecvNS_10QuaternionEEv
FN:73,73,_ZNK5neml210TensorNamecvNS_11MillerIndexEEv
FN:73,73,_ZNK5neml210TensorNamecvNS_2R2EEv
FN:73,73,_ZNK5neml210TensorNamecvNS_2R3EEv
FN:73,73,_ZNK5neml210TensorNamecvNS_2R4EEv
FN:73,73,_ZNK5neml210TensorNamecvNS_2R5EEv
FN:73,73,_ZNK5neml210TensorNamecvNS_2R8EEv
FN:73,73,_ZNK5neml210TensorNamecvNS_3RotEEv
FN:73,73,_ZNK5neml210TensorNamecvNS_3SR2EEv
FN:73,73,_ZNK5neml210TensorNamecvNS_3VecEEv
FN:73,73,_ZNK5neml210TensorNamecvNS_3WR2EEv
FN:73,73,_ZNK5neml210TensorNamecvNS_4SFR3EEv
FN:73,73,_ZNK5neml210TensorNamecvNS_4SFR4EEv
FN:73,73,_ZNK5neml210TensorNamecvNS_4SSR4EEv
FN:73,73,_ZNK5neml210TensorNamecvNS_4SWR4EEv
FN:73,73,_ZNK5neml210TensorNamecvNS_4WFR4EEv
FN:73,73,_ZNK5neml210TensorNamecvNS_4WSR4EEv
FN:73,73,_ZNK5neml210TensorNamecvNS_4WWR4EEv
FN:73,73,_ZNK5neml210TensorNamecvNS_5SFFR4EEv
FN:73,73,_ZNK5neml210TensorNamecvNS_5SSFR5EEv
FN:73,73,_ZNK5neml210TensorNamecvNS_6SSSSR8EEv
FN:73,73,_ZNK5neml210TensorNamecvNS_6ScalarEEv
FN:76,80,_ZN5neml210TensorNameaSERKSs
FN:83,87,_ZN5neml2lsERSoRKNS_10TensorNameE
FN:90,94,_ZN5neml2rsERSt18basic_stringstreamIcSt11char_traitsIcESaIcEERNS_10TensorNameE
FNDA:1,_ZNK5neml210TensorNamecvN2at6TensorEEv
FNDA:24,_ZNK5neml210TensorNamecvNS_6TensorEEv
FNDA:0,_ZNK5neml210TensorNamecvNS_10QuaternionEEv
FNDA:140,_ZNK5neml210TensorNamecvNS_11MillerIndexEEv
FNDA:31,_ZNK5neml210TensorNamecvNS_2R2EEv
FNDA:4,_ZNK5neml210TensorNamecvNS_2R3EEv
FNDA:4,_ZNK5neml210TensorNamecvNS_2R4EEv
FNDA:4,_ZNK5neml210TensorNamecvNS_2R5EEv
FNDA:0,_ZNK5neml210TensorNamecvNS_2R8EEv
FNDA:20,_ZNK5neml210TensorNamecvNS_3RotEEv
FNDA:145,_ZNK5neml210TensorNamecvNS_3SR2EEv
FNDA:28,_ZNK5neml210TensorNamecvNS_3VecEEv
FNDA:11,_ZNK5neml210TensorNamecvNS_3WR2EEv
FNDA:4,_ZNK5neml210TensorNamecvNS_4SFR3EEv
FNDA:4,_ZNK5neml210TensorNamecvNS_4SFR4EEv
FNDA:15,_ZNK5neml210TensorNamecvNS_4SSR4EEv
FNDA:0,_ZNK5neml210TensorNamecvNS_4SWR4EEv
FNDA:4,_ZNK5neml210TensorNamecvNS_4WFR4EEv
FNDA:0,_ZNK5neml210TensorNamecvNS_4WSR4EEv
FNDA:0,_ZNK5neml210TensorNamecvNS_4WWR4EEv
FNDA:0,_ZNK5neml210TensorNamecvNS_5SFFR4EEv
FNDA:4,_ZNK5neml210TensorNamecvNS_5SSFR5EEv
FNDA:0,_ZNK5neml210TensorNamecvNS_6SSSSR8EEv
FNDA:1385,_ZNK5neml210TensorNamecvNS_6ScalarEEv
FNDA:4,_ZN5neml210TensorNameaSERKSs
FNDA:0,_ZN5neml2lsERSoRKNS_10TensorNameE
FNDA:2329,_ZN5neml2rsERSt18basic_stringstreamIcSt11char_traitsIcESaIcEERNS_10TensorNameE
FNF:27
FNH:19
DA:32,1
DA:37,1
DA:39,0
DA:42,0
DA:43,0
DA:46,24
DA:51,24
DA:53,13
DA:56,39
DA:57,13
DA:73,3159
DA:76,4
DA:78,4
DA:79,4
DA:83,0
DA:85,0
DA:86,0
DA:90,2329
DA:92,2329
DA:93,2329
LF:20
LH:14
end_of_record
TN:
SF:/home/runner/work/neml2/neml2/src/neml2/drivers/Driver.cxx
FN:31,34,_ZN5neml210get_driverERKSs
FN:37,46,_ZN5neml26Driver16expected_optionsEv
FN:48,53,_ZN5neml26DriverC2ERKNS_9OptionSetE
FNDA:126,_ZN5neml210get_driverERKSs
FNDA:6,_ZN5neml26Driver16expected_optionsEv
FNDA:126,_ZN5neml26DriverC2ERKNS_9OptionSetE
FNF:3
FNH:3
DA:31,126
DA:33,378
DA:37,6
DA:39,6
DA:40,6
DA:42,12
DA:43,6
DA:45,6
DA:46,0
DA:48,126
DA:51,252
DA:53,126
LF:12
LH:11
end_of_record
TN:
SF:/home/runner/work/neml2/neml2/src/neml2/drivers/TransientDriver.cxx
FN:115,132,_ZN5neml215TransientDriverC2ERKNS_9OptionSetE
FN:135,154,_ZNK5neml215TransientDriver8diagnoseEv
FN:157,177,_ZN5neml215TransientDriver3runEv
FN:180,211,_ZN5neml215TransientDriver5solveEv
FN:214,231,_ZN5neml215TransientDriver12advance_stepEv
FN:234,238,_ZN5neml215TransientDriver13update_forcesEv
FN:241,252,_ZN5neml215TransientDriver8apply_icEv
FN:255,288,_ZN5neml215TransientDriver15apply_predictorEv
FN:291,294,_ZN5neml215TransientDriver10solve_stepEv
FN:297,300,_ZN5neml215TransientDriver11store_inputEv
FN:303,306,_ZNK5neml215TransientDriver12save_as_pathEv
FN:309,337,_ZNK5neml215TransientDriver6resultEv
FN:340,361,_ZNK5neml215TransientDriver6outputEv
FN:364,367,_ZNK5neml215TransientDriver9output_ptERKNSt10filesystem4pathE
FN:38,63,_ZN5neml26set_icINS_10QuaternionEEEvRSt3mapINS_19LabeledAxisAccessorENS_6TensorESt4lessIS3_ESaISt4pairIKS3_S4_EEERKNS_9OptionSetERKSsSH_RKN3c106DeviceE
FN:38,63,_ZN5neml26set_icINS_11MillerIndexEEEvRSt3mapINS_19LabeledAxisAccessorENS_6TensorESt4lessIS3_ESaISt4pairIKS3_S4_EEERKNS_9OptionSetERKSsSH_RKN3c106DeviceE
FN:38,63,_ZN5neml26set_icINS_2R2EEEvRSt3mapINS_19LabeledAxisAccessorENS_6TensorESt4lessIS3_ESaISt4pairIKS3_S4_EEERKNS_9OptionSetERKSsSH_RKN3c106DeviceE
FN:38,63,_ZN5neml26set_icINS_2R3EEEvRSt3mapINS_19LabeledAxisAccessorENS_6TensorESt4lessIS3_ESaISt4pairIKS3_S4_EEERKNS_9OptionSetERKSsSH_RKN3c106DeviceE
FN:38,63,_ZN5neml26set_icINS_2R4EEEvRSt3mapINS_19LabeledAxisAccessorENS_6TensorESt4lessIS3_ESaISt4pairIKS3_S4_EEERKNS_9OptionSetERKSsSH_RKN3c106DeviceE
FN:38,63,_ZN5neml26set_icINS_2R5EEEvRSt3mapINS_19LabeledAxisAccessorENS_6TensorESt4lessIS3_ESaISt4pairIKS3_S4_EEERKNS_9OptionSetERKSsSH_RKN3c106DeviceE
FN:38,63,_ZN5neml26set_icINS_2R8EEEvRSt3mapINS_19LabeledAxisAccessorENS_6TensorESt4lessIS3_ESaISt4pairIKS3_S4_EEERKNS_9OptionSetERKSsSH_RKN3c106DeviceE
FN:38,63,_ZN5neml26set_icINS_3RotEEEvRSt3mapINS_19LabeledAxisAccessorENS_6TensorESt4lessIS3_ESaISt4pairIKS3_S4_EEERKNS_9OptionSetERKSsSH_RKN3c106DeviceE
FN:38,63,_ZN5neml26set_icINS_3SR2EEEvRSt3mapINS_19LabeledAxisAccessorENS_6TensorESt4lessIS3_ESaISt4pairIKS3_S4_EEERKNS_9OptionSetERKSsSH_RKN3c106DeviceE
FN:38,63,_ZN5neml26set_icINS_3VecEEEvRSt3mapINS_19LabeledAxisAccessorENS_6TensorESt4lessIS3_ESaISt4pairIKS3_S4_EEERKNS_9OptionSetERKSsSH_RKN3c106DeviceE
FN:38,63,_ZN5neml26set_icINS_3WR2EEEvRSt3mapINS_19LabeledAxisAccessorENS_6TensorESt4lessIS3_ESaISt4pairIKS3_S4_EEERKNS_9OptionSetERKSsSH_RKN3c106DeviceE
FN:38,63,_ZN5neml26set_icINS_4SFR3EEEvRSt3mapINS_19LabeledAxisAccessorENS_6TensorESt4lessIS3_ESaISt4pairIKS3_S4_EEERKNS_9OptionSetERKSsSH_RKN3c106DeviceE
FN:38,63,_ZN5neml26set_icINS_4SFR4EEEvRSt3mapINS_19LabeledAxisAccessorENS_6TensorESt4lessIS3_ESaISt4pairIKS3_S4_EEERKNS_9OptionSetERKSsSH_RKN3c106DeviceE
FN:38,63,_ZN5neml26set_icINS_4SSR4EEEvRSt3mapINS_19LabeledAxisAccessorENS_6TensorESt4lessIS3_ESaISt4pairIKS3_S4_EEERKNS_9OptionSetERKSsSH_RKN3c106DeviceE
FN:38,63,_ZN5neml26set_icINS_4SWR4EEEvRSt3mapINS_19LabeledAxisAccessorENS_6TensorESt4lessIS3_ESaISt4pairIKS3_S4_EEERKNS_9OptionSetERKSsSH_RKN3c106DeviceE
FN:38,63,_ZN5neml26set_icINS_4WFR4EEEvRSt3mapINS_19LabeledAxisAccessorENS_6TensorESt4lessIS3_ESaISt4pairIKS3_S4_EEERKNS_9OptionSetERKSsSH_RKN3c106DeviceE
FN:38,63,_ZN5neml26set_icINS_4WSR4EEEvRSt3mapINS_19LabeledAxisAccessorENS_6TensorESt4lessIS3_ESaISt4pairIKS3_S4_EEERKNS_9OptionSetERKSsSH_RKN3c106DeviceE
FN:38,63,_ZN5neml26set_icINS_4WWR4EEEvRSt3mapINS_19LabeledAxisAccessorENS_6TensorESt4lessIS3_ESaISt4pairIKS3_S4_EEERKNS_9OptionSetERKSsSH_RKN3c106DeviceE
FN:38,63,_ZN5neml26set_icINS_5SFFR4EEEvRSt3mapINS_19LabeledAxisAccessorENS_6TensorESt4lessIS3_ESaISt4pairIKS3_S4_EEERKNS_9OptionSetERKSsSH_RKN3c106DeviceE
FN:38,63,_ZN5neml26set_icINS_5SSFR5EEEvRSt3mapINS_19LabeledAxisAccessorENS_6TensorESt4lessIS3_ESaISt4pairIKS3_S4_EEERKNS_9OptionSetERKSsSH_RKN3c106DeviceE
FN:38,63,_ZN5neml26set_icINS_6SSSSR8EEEvRSt3mapINS_19LabeledAxisAccessorENS_6TensorESt4lessIS3_ESaISt4pairIKS3_S4_EEERKNS_9OptionSetERKSsSH_RKN3c106DeviceE
FN:38,63,_ZN5neml26set_icINS_6ScalarEEEvRSt3mapINS_19LabeledAxisAccessorENS_6TensorESt4lessIS3_ESaISt4pairIKS3_S4_EEERKNS_9OptionSetERKSsSH_RKN3c106DeviceE
FN:38,63,_ZN5neml26set_icINS_6TensorEEEvRSt3mapINS_19LabeledAxisAccessorES1_St4lessIS3_ESaISt4pairIKS3_S1_EEERKNS_9OptionSetERKSsSG_RKN3c106DeviceE
FN:66,113,_ZN5neml215TransientDriver16expected_optionsEv
FNDA:7,_ZN5neml215TransientDriverC2ERKNS_9OptionSetE
FNDA:7,_ZNK5neml215TransientDriver8diagnoseEv
FNDA:7,_ZN5neml215TransientDriver3runEv
FNDA:7,_ZN5neml215TransientDriver5solveEv
FNDA:63,_ZN5neml215TransientDriver12advance_stepEv
FNDA:70,_ZN5neml215TransientDriver13update_forcesEv
FNDA:7,_ZN5neml215TransientDriver8apply_icEv
FNDA:63,_ZN5neml215TransientDriver15apply_predictorEv
FNDA:63,_ZN5neml215TransientDriver10solve_stepEv
FNDA:70,_ZN5neml215TransientDriver11store_inputEv
FNDA:12,_ZNK5neml215TransientDriver12save_as_pathEv
FNDA:5,_ZNK5neml215TransientDriver6resultEv
FNDA:5,_ZNK5neml215TransientDriver6outputEv
FNDA:5,_ZNK5neml215TransientDriver9output_ptERKNSt10filesystem4pathE
FNDA:7,_ZN5neml26set_icINS_10QuaternionEEEvRSt3mapINS_19LabeledAxisAccessorENS_6TensorESt4lessIS3_ESaISt4pairIKS3_S4_EEERKNS_9OptionSetERKSsSH_RKN3c106DeviceE
FNDA:7,_ZN5neml26set_icINS_11MillerIndexEEEvRSt3mapINS_19LabeledAxisAccessorENS_6TensorESt4lessIS3_ESaISt4pairIKS3_S4_EEERKNS_9OptionSetERKSsSH_RKN3c106DeviceE
FNDA:7,_ZN5neml26set_icINS_2R2EEEvRSt3mapINS_19LabeledAxisAccessorENS_6TensorESt4lessIS3_ESaISt4pairIKS3_S4_EEERKNS_9OptionSetERKSsSH_RKN3c106DeviceE
FNDA:7,_ZN5neml26set_icINS_2R3EEEvRSt3mapINS_19LabeledAxisAccessorENS_6TensorESt4lessIS3_ESaISt4pairIKS3_S4_EEERKNS_9OptionSetERKSsSH_RKN3c106DeviceE
FNDA:7,_ZN5neml26set_icINS_2R4EEEvRSt3mapINS_19LabeledAxisAccessorENS_6TensorESt4lessIS3_ESaISt4pairIKS3_S4_EEERKNS_9OptionSetERKSsSH_RKN3c106DeviceE
FNDA:7,_ZN5neml26set_icINS_2R5EEEvRSt3mapINS_19LabeledAxisAccessorENS_6TensorESt4lessIS3_ESaISt4pairIKS3_S4_EEERKNS_9OptionSetERKSsSH_RKN3c106DeviceE
FNDA:7,_ZN5neml26set_icINS_2R8EEEvRSt3mapINS_19LabeledAxisAccessorENS_6TensorESt4lessIS3_ESaISt4pairIKS3_S4_EEERKNS_9OptionSetERKSsSH_RKN3c106DeviceE
FNDA:7,_ZN5neml26set_icINS_3RotEEEvRSt3mapINS_19LabeledAxisAccessorENS_6TensorESt4lessIS3_ESaISt4pairIKS3_S4_EEERKNS_9OptionSetERKSsSH_RKN3c106DeviceE
FNDA:7,_ZN5neml26set_icINS_3SR2EEEvRSt3mapINS_19LabeledAxisAccessorENS_6TensorESt4lessIS3_ESaISt4pairIKS3_S4_EEERKNS_9OptionSetERKSsSH_RKN3c106DeviceE
FNDA:7,_ZN5neml26set_icINS_3VecEEEvRSt3mapINS_19LabeledAxisAccessorENS_6TensorESt4lessIS3_ESaISt4pairIKS3_S4_EEERKNS_9OptionSetERKSsSH_RKN3c106DeviceE
FNDA:7,_ZN5neml26set_icINS_3WR2EEEvRSt3mapINS_19LabeledAxisAccessorENS_6TensorESt4lessIS3_ESaISt4pairIKS3_S4_EEERKNS_9OptionSetERKSsSH_RKN3c106DeviceE
FNDA:7,_ZN5neml26set_icINS_4SFR3EEEvRSt3mapINS_19LabeledAxisAccessorENS_6TensorESt4lessIS3_ESaISt4pairIKS3_S4_EEERKNS_9OptionSetERKSsSH_RKN3c106DeviceE
FNDA:7,_ZN5neml26set_icINS_4SFR4EEEvRSt3mapINS_19LabeledAxisAccessorENS_6TensorESt4lessIS3_ESaISt4pairIKS3_S4_EEERKNS_9OptionSetERKSsSH_RKN3c106DeviceE
FNDA:7,_ZN5neml26set_icINS_4SSR4EEEvRSt3mapINS_19LabeledAxisAccessorENS_6TensorESt4lessIS3_ESaISt4pairIKS3_S4_EEERKNS_9OptionSetERKSsSH_RKN3c106DeviceE
FNDA:7,_ZN5neml26set_icINS_4SWR4EEEvRSt3mapINS_19LabeledAxisAccessorENS_6TensorESt4lessIS3_ESaISt4pairIKS3_S4_EEERKNS_9OptionSetERKSsSH_RKN3c106DeviceE
FNDA:7,_ZN5neml26set_icINS_4WFR4EEEvRSt3mapINS_19LabeledAxisAccessorENS_6TensorESt4lessIS3_ESaISt4pairIKS3_S4_EEERKNS_9OptionSetERKSsSH_RKN3c106DeviceE
FNDA:7,_ZN5neml26set_icINS_4WSR4EEEvRSt3mapINS_19LabeledAxisAccessorENS_6TensorESt4lessIS3_ESaISt4pairIKS3_S4_EEERKNS_9OptionSetERKSsSH_RKN3c106DeviceE
FNDA:7,_ZN5neml26set_icINS_4WWR4EEEvRSt3mapINS_19LabeledAxisAccessorENS_6TensorESt4lessIS3_ESaISt4pairIKS3_S4_EEERKNS_9OptionSetERKSsSH_RKN3c106DeviceE
FNDA:7,_ZN5neml26set_icINS_5SFFR4EEEvRSt3mapINS_19LabeledAxisAccessorENS_6TensorESt4lessIS3_ESaISt4pairIKS3_S4_EEERKNS_9OptionSetERKSsSH_RKN3c106DeviceE
FNDA:7,_ZN5neml26set_icINS_5SSFR5EEEvRSt3mapINS_19LabeledAxisAccessorENS_6TensorESt4lessIS3_ESaISt4pairIKS3_S4_EEERKNS_9OptionSetERKSsSH_RKN3c106DeviceE
FNDA:7,_ZN5neml26set_icINS_6SSSSR8EEEvRSt3mapINS_19LabeledAxisAccessorENS_6TensorESt4lessIS3_ESaISt4pairIKS3_S4_EEERKNS_9OptionSetERKSsSH_RKN3c106DeviceE
FNDA:7,_ZN5neml26set_icINS_6ScalarEEEvRSt3mapINS_19LabeledAxisAccessorENS_6TensorESt4lessIS3_ESaISt4pairIKS3_S4_EEERKNS_9OptionSetERKSsSH_RKN3c106DeviceE
FNDA:7,_ZN5neml26set_icINS_6TensorEEEvRSt3mapINS_19LabeledAxisAccessorES1_St4lessIS3_ESaISt4pairIKS3_S1_EEERKNS_9OptionSetERKSsSG_RKN3c106DeviceE
FNDA:3,_ZN5neml215TransientDriver16expected_optionsEv
FNF:38
FNH:38
DA:38,161
DA:44,161
DA:45,161
DA:46,161
DA:52,161
DA:54,161
DA:56,162
DA:58,1
DA:61,1
DA:63,161
DA:66,3
DA:68,3
DA:70,6
DA:71,3
DA:73,9
DA:74,6
DA:75,6
DA:76,9
DA:78,3
DA:80,12
DA:81,3
DA:82,6
DA:83,6
DA:84,9
DA:86,6
DA:87,9
DA:88,3
DA:90,6
DA:91,6
DA:92,6
DA:93,6
DA:94,6
DA:95,6
DA:97,6
DA:98,9
DA:103,3
DA:110,549
DA:112,6
DA:113,3
DA:115,7
DA:117,7
DA:118,14
DA:119,21
DA:120,7
DA:121,7
DA:122,7
DA:123,14
DA:124,21
DA:125,14
DA:126,14
DA:127,7
DA:128,14
DA:129,28
DA:131,7
DA:132,7
DA:135,7
DA:137,7
DA:138,7
DA:140,7
DA:141,7
DA:143,7
DA:146,7
DA:147,7
DA:148,7
DA:149,20
DA:150,13
DA:154,7
DA:157,7
DA:171,7
DA:173,7
DA:174,5
DA:176,7
DA:180,7
DA:182,77
DA:184,70
DA:189,70
DA:190,63
DA:191,70
DA:192,70
DA:194,7
DA:195,7
DA:199,63
DA:200,63
DA:201,63
DA:204,70
DA:210,7
DA:214,63
DA:217,63
DA:219,63
DA:220,180
DA:221,117
DA:222,63
DA:225,63
DA:227,63
DA:228,171
DA:229,108
DA:230,63
DA:231,63
DA:234,70
DA:236,70
DA:237,140
DA:238,140
DA:241,7
DA:245,644
DA:248,22
DA:249,15
DA:250,14
DA:251,28
DA:252,7
DA:255,63
DA:257,63
DA:258,27
DA:260,36
DA:261,117
DA:262,81
DA:264,162
DA:265,72
DA:266,18
DA:269,9
DA:270,1
DA:274,8
DA:275,8
DA:276,8
DA:277,8
DA:278,8
DA:280,8
DA:281,8
DA:282,8
DA:283,8
DA:286,0
DA:288,36
DA:291,63
DA:293,63
DA:294,63
DA:297,70
DA:299,70
DA:300,70
DA:303,12
DA:305,12
DA:309,5
DA:312,5
DA:313,55
DA:316,50
DA:317,414
DA:318,364
DA:319,50
DA:320,50
DA:323,5
DA:324,55
DA:327,50
DA:328,180
DA:329,130
DA:330,50
DA:331,50
DA:334,5
DA:335,25
DA:336,10
DA:337,10
DA:340,5
DA:342,5
DA:347,5
DA:348,5
DA:350,5
DA:351,5
DA:357,5
DA:361,5
DA:364,5
DA:366,5
DA:367,5
LF:169
LH:168
end_of_record
TN:
SF:/home/runner/work/neml2/neml2/src/neml2/drivers/solid_mechanics/LDISolidMechanicsDriver.cxx
FN:104,109,_ZN5neml223LDISolidMechanicsDriver22init_vorticity_controlERKNS_9OptionSetE
FN:112,138,_ZNK5neml223LDISolidMechanicsDriver8diagnoseEv
FN:141,145,_ZN5neml223LDISolidMechanicsDriver13update_forcesEv
FN:148,159,_ZN5neml223LDISolidMechanicsDriver15apply_predictorEv
FN:34,69,_ZN5neml223LDISolidMechanicsDriver16expected_optionsEv
FN:71,78,_ZN5neml223LDISolidMechanicsDriverC2ERKNS_9OptionSetE
FN:81,85,_ZN5neml223LDISolidMechanicsDriver5setupEv
FN:88,93,_ZN5neml223LDISolidMechanicsDriver19init_strain_controlERKNS_9OptionSetE
FN:96,101,_ZN5neml223LDISolidMechanicsDriver19init_stress_controlERKNS_9OptionSetE
FNDA:1,_ZN5neml223LDISolidMechanicsDriver22init_vorticity_controlERKNS_9OptionSetE
FNDA:1,_ZNK5neml223LDISolidMechanicsDriver8diagnoseEv
FNDA:10,_ZN5neml223LDISolidMechanicsDriver13update_forcesEv
FNDA:9,_ZN5neml223LDISolidMechanicsDriver15apply_predictorEv
FNDA:1,_ZN5neml223LDISolidMechanicsDriver16expected_optionsEv
FNDA:1,_ZN5neml223LDISolidMechanicsDriverC2ERKNS_9OptionSetE
FNDA:1,_ZN5neml223LDISolidMechanicsDriver5setupEv
FNDA:1,_ZN5neml223LDISolidMechanicsDriver19init_strain_controlERKNS_9OptionSetE
FNDA:0,_ZN5neml223LDISolidMechanicsDriver19init_stress_controlERKNS_9OptionSetE
FNF:9
FNH:8
DA:34,1
DA:36,1
DA:37,1
DA:38,1
DA:40,3
DA:41,2
DA:42,2
DA:43,2
DA:44,1
DA:46,3
DA:47,2
DA:48,2
DA:49,2
DA:50,1
DA:52,3
DA:53,2
DA:54,2
DA:55,2
DA:57,2
DA:58,3
DA:60,1
DA:61,2
DA:62,2
DA:63,1
DA:64,3
DA:65,2
DA:66,1
DA:68,1
DA:69,0
DA:71,1
DA:73,1
DA:74,2
DA:75,1
DA:76,4
DA:78,1
DA:81,1
DA:83,1
DA:84,1
DA:85,1
DA:88,2
DA:90,2
DA:91,1
DA:92,1
DA:93,1
DA:96,0
DA:98,0
DA:99,0
DA:100,0
DA:101,0
DA:104,1
DA:106,2
DA:107,1
DA:108,1
DA:109,1
DA:112,1
DA:114,1
DA:116,1
DA:118,1
DA:121,1
DA:122,1
DA:124,1
DA:126,2
DA:130,1
DA:132,1
DA:133,1
DA:135,1
DA:138,1
DA:141,10
DA:143,10
DA:144,20
DA:145,20
DA:148,9
DA:150,9
DA:152,9
DA:154,1
DA:155,1
DA:156,1
DA:157,1
DA:158,1
DA:159,9
LF:80
LH:74
end_of_record
TN:
SF:/home/runner/work/neml2/neml2/src/neml2/drivers/solid_mechanics/SDTSolidMechanicsDriver.cxx
FN:32,49,_ZN5neml223SDTSolidMechanicsDriver16expected_optionsEv
FN:51,54,_ZN5neml223SDTSolidMechanicsDriverC2ERKNS_9OptionSetE
FN:57,62,_ZN5neml223SDTSolidMechanicsDriver19init_strain_controlERKNS_9OptionSetE
FN:65,70,_ZN5neml223SDTSolidMechanicsDriver19init_stress_controlERKNS_9OptionSetE
FNDA:1,_ZN5neml223SDTSolidMechanicsDriver16expected_optionsEv
FNDA:6,_ZN5neml223SDTSolidMechanicsDriverC2ERKNS_9OptionSetE
FNDA:4,_ZN5neml223SDTSolidMechanicsDriver19init_strain_controlERKNS_9OptionSetE
FNDA:1,_ZN5neml223SDTSolidMechanicsDriver19init_stress_controlERKNS_9OptionSetE
FNF:4
FNH:4
DA:32,1
DA:34,1
DA:35,1
DA:36,1
DA:38,3
DA:39,2
DA:40,2
DA:41,1
DA:43,3
DA:44,2
DA:45,2
DA:46,1
DA:48,1
DA:49,0
DA:51,6
DA:52,6
DA:54,6
DA:57,4
DA:59,8
DA:60,4
DA:61,4
DA:62,4
DA:65,1
DA:67,2
DA:68,1
DA:69,1
DA:70,1
LF:27
LH:26
end_of_record
TN:
SF:/home/runner/work/neml2/neml2/src/neml2/drivers/solid_mechanics/SolidMechanicsDriver.cxx
FN:106,111,_ZN5neml220SolidMechanicsDriver24init_temperature_controlERKNS_9OptionSetE
FN:114,159,_ZNK5neml220SolidMechanicsDriver8diagnoseEv
FN:162,173,_ZN5neml220SolidMechanicsDriver13update_forcesEv
FN:31,64,_ZN5neml220SolidMechanicsDriver16expected_optionsEv
FN:66,71,_ZN5neml220SolidMechanicsDriverC2ERKNS_9OptionSetE
FN:74,91,_ZN5neml220SolidMechanicsDriver5setupEv
FN:94,103,_ZN5neml220SolidMechanicsDriver18init_mixed_controlERKNS_9OptionSetE
FNDA:1,_ZN5neml220SolidMechanicsDriver24init_temperature_controlERKNS_9OptionSetE
FNDA:7,_ZNK5neml220SolidMechanicsDriver8diagnoseEv
FNDA:70,_ZN5neml220SolidMechanicsDriver13update_forcesEv
FNDA:2,_ZN5neml220SolidMechanicsDriver16expected_optionsEv
FNDA:7,_ZN5neml220SolidMechanicsDriverC2ERKNS_9OptionSetE
FNDA:7,_ZN5neml220SolidMechanicsDriver5setupEv
FNDA:1,_ZN5neml220SolidMechanicsDriver18init_mixed_controlERKNS_9OptionSetE
FNF:7
FNH:7
DA:31,2
DA:33,2
DA:34,2
DA:36,8
DA:37,2
DA:38,4
DA:39,6
DA:41,6
DA:42,4
DA:43,4
DA:44,4
DA:45,2
DA:47,6
DA:48,4
DA:49,4
DA:50,4
DA:53,2
DA:55,6
DA:56,6
DA:57,2
DA:58,4
DA:59,4
DA:61,2
DA:63,4
DA:64,2
DA:66,7
DA:68,7
DA:69,28
DA:71,7
DA:74,7
DA:76,7
DA:78,14
DA:79,5
DA:80,4
DA:81,1
DA:82,2
DA:83,1
DA:89,7
DA:90,1
DA:91,7
DA:94,1
DA:96,2
DA:97,1
DA:98,1
DA:100,2
DA:101,1
DA:102,1
DA:103,1
DA:106,1
DA:108,2
DA:109,1
DA:110,1
DA:111,1
DA:114,7
DA:116,7
DA:118,7
DA:121,7
DA:123,7
DA:126,14
DA:128,14
DA:131,7
DA:133,1
DA:136,1
DA:138,1
DA:139,1
DA:141,2
DA:143,2
DA:147,14
DA:149,1
DA:152,1
DA:153,1
DA:154,1
DA:156,2
DA:159,7
DA:162,70
DA:164,70
DA:166,140
DA:168,70
DA:169,20
DA:171,140
DA:172,20
DA:173,160
LF:82
LH:82
end_of_record
TN:
SF:/home/runner/work/neml2/neml2/src/neml2/jit/TraceableSize.cxx
FN:33,36,_ZNK5neml213TraceableSize9traceableEv
FN:39,49,_ZNK5neml213TraceableSize8concreteEv
FN:52,58,_ZNK5neml213TraceableSize9as_tensorEv
FN:61,64,_ZN5neml2eqERKNS_13TraceableSizeES2_
FN:67,70,_ZN5neml2neERKNS_13TraceableSizeES2_
FN:73,77,_ZN5neml2lsERSoRKNS_13TraceableSizeE
FNDA:3264501,_ZNK5neml213TraceableSize9traceableEv
FNDA:3249628,_ZNK5neml213TraceableSize8concreteEv
FNDA:3800,_ZNK5neml213TraceableSize9as_tensorEv
FNDA:10,_ZN5neml2eqERKNS_13TraceableSizeES2_
FNDA:0,_ZN5neml2neERKNS_13TraceableSizeES2_
FNDA:0,_ZN5neml2lsERSoRKNS_13TraceableSizeE
FNF:6
FNH:4
DA:33,3264501
DA:35,3264501
DA:39,3249628
DA:41,3249628
DA:43,1532296
DA:44,1532296
DA:45,1532296
DA:48,1717332
DA:52,3800
DA:54,3800
DA:55,584
DA:57,3216
DA:61,10
DA:63,10
DA:67,0
DA:69,0
DA:73,0
DA:75,0
DA:76,0
LF:19
LH:14
end_of_record
TN:
SF:/home/runner/work/neml2/neml2/src/neml2/jit/TraceableTensorShape.cxx
FN:105,108,_ZN5neml2neERKNS_20TraceableTensorShapeES2_
FN:32,36,_ZN5neml220TraceableTensorShapeC2ERKN3c1011SmallVectorIlLj8EEE
FN:38,42,_ZN5neml220TraceableTensorShapeC2EN3c108ArrayRefIlEE
FN:44,47,_ZN5neml220TraceableTensorShapeC2El
FN:49,56,_ZN5neml220TraceableTensorShapeC2ERKN2at6TensorE
FN:59,67,_ZNK5neml220TraceableTensorShape5sliceEll
FN:70,75,_ZNK5neml220TraceableTensorShape5sliceEl
FN:78,84,_ZNK5neml220TraceableTensorShape8concreteEv
FN:87,96,_ZNK5neml220TraceableTensorShape9as_tensorEv
FN:99,102,_ZN5neml2eqERKNS_20TraceableTensorShapeES2_
FNDA:93751,_ZN5neml2neERKNS_20TraceableTensorShapeES2_
FNDA:94773,_ZN5neml220TraceableTensorShapeC2ERKN3c1011SmallVectorIlLj8EEE
FNDA:174069,_ZN5neml220TraceableTensorShapeC2EN3c108ArrayRefIlEE
FNDA:0,_ZN5neml220TraceableTensorShapeC2El
FNDA:1269,_ZN5neml220TraceableTensorShapeC2ERKN2at6TensorE
FNDA:1155919,_ZNK5neml220TraceableTensorShape5sliceEll
FNDA:0,_ZNK5neml220TraceableTensorShape5sliceEl
FNDA:10865386,_ZNK5neml220TraceableTensorShape8concreteEv
FNDA:19905,_ZNK5neml220TraceableTensorShape9as_tensorEv
FNDA:5378099,_ZN5neml2eqERKNS_20TraceableTensorShapeES2_
FNF:10
FNH:8
DA:32,94773
DA:34,145107
DA:35,50334
DA:36,94773
DA:38,174069
DA:40,240521
DA:41,66452
DA:42,174069
DA:44,0
DA:45,0
DA:47,0
DA:49,1269
DA:51,1269
DA:52,1269
DA:54,2579
DA:55,1310
DA:56,1269
DA:59,1155919
DA:61,1155919
DA:62,0
DA:63,1155919
DA:64,73
DA:66,1155919
DA:70,0
DA:72,0
DA:73,0
DA:74,0
DA:78,10865386
DA:80,10865386
DA:81,14111743
DA:82,3246357
DA:83,10865386
DA:84,0
DA:87,19905
DA:89,19905
DA:90,16153
DA:92,3752
DA:93,7552
DA:94,3800
DA:95,3752
DA:96,3752
DA:99,5378099
DA:101,5378099
DA:105,93751
DA:107,93751
LF:45
LH:36
end_of_record
TN:
SF:/home/runner/work/neml2/neml2/src/neml2/jit/utils.cxx
FN:32,35,_ZN5neml219neml_assert_tracingEv
FN:38,41,_ZN5neml223neml_assert_not_tracingEv
FN:44,49,_ZN5neml223neml_assert_tracing_dbgEv
FN:52,57,_ZN5neml227neml_assert_not_tracing_dbgEv
FN:62,75,_ZN5neml25utils19extract_batch_sizesERKN2at6TensorEl
FNDA:0,_ZN5neml219neml_assert_tracingEv
FNDA:0,_ZN5neml223neml_assert_not_tracingEv
FNDA:0,_ZN5neml223neml_assert_tracing_dbgEv
FNDA:0,_ZN5neml227neml_assert_not_tracing_dbgEv
FNDA:60082,_ZN5neml25utils19extract_batch_sizesERKN2at6TensorEl
FNF:5
FNH:1
DA:32,0
DA:34,0
DA:35,0
DA:38,0
DA:40,0
DA:41,0
DA:44,0
DA:47,0
DA:49,0
DA:52,0
DA:55,0
DA:57,0
DA:62,60082
DA:66,60082
DA:68,8477
DA:69,12012
DA:70,3535
DA:71,8477
DA:72,8477
DA:74,51605
LF:20
LH:8
end_of_record
TN:
SF:/home/runner/work/neml2/neml2/src/neml2/misc/defaults.cxx
FN:32,37,_ZN5neml222default_tensor_optionsEv
FN:40,45,_ZN5neml230default_integer_tensor_optionsEv
FN:48,52,_ZN5neml213default_dtypeEv
FN:55,59,_ZN5neml221default_integer_dtypeEv
FN:62,66,_ZN5neml214default_deviceEv
FN:69,73,_ZN5neml217machine_precisionEv
FN:76,80,_ZN5neml29toleranceEv
FN:83,87,_ZN5neml217tighter_toleranceEv
FN:90,94,_ZN5neml221buffer_name_separatorEv
FN:97,101,_ZN5neml224parameter_name_separatorEv
FNDA:3421,_ZN5neml222default_tensor_optionsEv
FNDA:160,_ZN5neml230default_integer_tensor_optionsEv
FNDA:605,_ZN5neml213default_dtypeEv
FNDA:910,_ZN5neml221default_integer_dtypeEv
FNDA:305,_ZN5neml214default_deviceEv
FNDA:396,_ZN5neml217machine_precisionEv
FNDA:303,_ZN5neml29toleranceEv
FNDA:303,_ZN5neml217tighter_toleranceEv
FNDA:464,_ZN5neml221buffer_name_separatorEv
FNDA:374,_ZN5neml224parameter_name_separatorEv
FNF:10
FNH:10
DA:32,3421
DA:35,3421
DA:36,3421
DA:40,160
DA:43,160
DA:44,160
DA:48,605
DA:51,605
DA:55,910
DA:58,910
DA:62,305
DA:64,305
DA:65,305
DA:69,396
DA:72,396
DA:76,303
DA:79,303
DA:83,303
DA:86,303
DA:90,464
DA:92,466
DA:93,464
DA:97,374
DA:99,376
DA:100,374
LF:25
LH:25
end_of_record
TN:
SF:/home/runner/work/neml2/neml2/src/neml2/misc/errors.cxx
FN:30,33,_ZNK5neml213NEMLException4whatEv
FN:36,39,_ZNK5neml215ParserException4whatEv
FNDA:18,_ZNK5neml213NEMLException4whatEv
FNDA:4,_ZNK5neml215ParserException4whatEv
FNF:2
FNH:2
DA:30,18
DA:32,18
DA:36,4
DA:38,4
LF:4
LH:4
end_of_record
TN:
SF:/home/runner/work/neml2/neml2/src/neml2/misc/string_utils.cxx
FN:32,36,_ZN5neml25utils8demangleEPKc
FN:39,49,_ZN5neml25utils4joinERKSt6vectorISsSaISsEERKSs
FN:52,70,_ZN5neml25utils5splitERKSsS2_
FN:73,80,_ZN5neml25utils4trimERKSsS2_
FN:83,86,_ZN5neml25utils10start_withESt17basic_string_viewIcSt11char_traitsIcEES4_
FN:89,93,_ZN5neml25utils8end_withESt17basic_string_viewIcSt11char_traitsIcEES4_
FNDA:292359,_ZN5neml25utils8demangleEPKc
FNDA:0,_ZN5neml25utils4joinERKSt6vectorISsSaISsEERKSs
FNDA:3656,_ZN5neml25utils5splitERKSsS2_
FNDA:14104,_ZN5neml25utils4trimERKSsS2_
FNDA:16411,_ZN5neml25utils10start_withESt17basic_string_viewIcSt11char_traitsIcEES4_
FNDA:1835,_ZN5neml25utils8end_withESt17basic_string_viewIcSt11char_traitsIcEES4_
FNF:6
FNH:5
DA:32,292359
DA:35,292359
DA:39,0
DA:41,0
DA:42,0
DA:44,0
DA:45,0
DA:46,0
DA:48,0
DA:49,0
DA:52,3656
DA:54,3656
DA:56,3656
DA:57,3656
DA:59,9363
DA:61,9347
DA:63,9347
DA:64,9347
DA:65,3640
DA:66,5707
DA:69,3656
DA:70,0
DA:73,14104
DA:75,14104
DA:76,14104
DA:77,34
DA:78,14087
DA:79,14087
DA:83,16411
DA:85,16411
DA:89,1835
DA:91,3670
DA:92,3670
LF:33
LH:24
end_of_record
TN:
SF:/home/runner/work/neml2/neml2/src/neml2/misc/types.cxx
FN:32,48,_ZN5neml2lsERSoNS_5FTypeE
FNDA:0,_ZN5neml2lsERSoNS_5FTypeE
FNF:1
FNH:0
DA:32,0
DA:34,0
DA:35,0
DA:36,0
DA:37,0
DA:38,0
DA:39,0
DA:40,0
DA:41,0
DA:42,0
DA:43,0
DA:45,0
DA:47,0
LF:13
LH:0
end_of_record
TN:
SF:/home/runner/work/neml2/neml2/src/neml2/models/ArrheniusParameter.cxx
FN:34,57,_ZN5neml218ArrheniusParameter16expected_optionsEv
FN:59,66,_ZN5neml218ArrheniusParameterC2ERKNS_9OptionSetE
FN:69,87,_ZN5neml218ArrheniusParameter9set_valueEbbb
FNDA:1,_ZN5neml218ArrheniusParameter16expected_optionsEv
FNDA:2,_ZN5neml218ArrheniusParameterC2ERKNS_9OptionSetE
FNDA:5,_ZN5neml218ArrheniusParameter9set_valueEbbb
FNF:3
FNH:3
DA:34,1
DA:36,1
DA:37,1
DA:40,1
DA:42,2
DA:44,2
DA:45,2
DA:47,2
DA:48,2
DA:50,2
DA:51,1
DA:53,3
DA:54,1
DA:56,1
DA:57,0
DA:59,2
DA:61,6
DA:62,10
DA:63,2
DA:64,4
DA:66,2
DA:69,5
DA:71,5
DA:73,5
DA:74,3
DA:76,5
DA:77,5
DA:79,2
DA:81,2
DA:82,1
DA:84,2
DA:85,1
DA:86,2
DA:87,5
LF:34
LH:33
end_of_record
TN:
SF:/home/runner/work/neml2/neml2/src/neml2/models/Assembler.cxx
FN:107,183,_ZNK5neml215MatrixAssembler20assemble_by_variableERKSt3mapINS_19LabeledAxisAccessorES1_IS2_NS_6TensorESt4lessIS2_ESaISt4pairIKS2_S3_EEES5_SaIS6_IS7_SA_EEE
FN:186,203,_ZNK5neml215MatrixAssembler17split_by_variableERKNS_6TensorE
FN:206,223,_ZNK5neml215MatrixAssembler16split_by_subaxisERKNS_6TensorE
FN:32,76,_ZNK5neml215VectorAssembler20assemble_by_variableERKSt3mapINS_19LabeledAxisAccessorENS_6TensorESt4lessIS2_ESaISt4pairIKS2_S3_EEE
FN:79,90,_ZNK5neml215VectorAssembler17split_by_variableERKNS_6TensorE
FN:93,104,_ZNK5neml215VectorAssembler16split_by_subaxisERKNS_6TensorE
FNDA:1247,_ZNK5neml215MatrixAssembler20assemble_by_variableERKSt3mapINS_19LabeledAxisAccessorES1_IS2_NS_6TensorESt4lessIS2_ESaISt4pairIKS2_S3_EEES5_SaIS6_IS7_SA_EEE
FNDA:9,_ZNK5neml215MatrixAssembler17split_by_variableERKNS_6TensorE
FNDA:3,_ZNK5neml215MatrixAssembler16split_by_subaxisERKNS_6TensorE
FNDA:1755,_ZNK5neml215VectorAssembler20assemble_by_variableERKSt3mapINS_19LabeledAxisAccessorENS_6TensorESt4lessIS2_ESaISt4pairIKS2_S3_EEE
FNDA:1590,_ZNK5neml215VectorAssembler17split_by_variableERKNS_6TensorE
FNDA:1,_ZNK5neml215VectorAssembler16split_by_subaxisERKNS_6TensorE
FNF:6
FNH:6
DA:32,1755
DA:34,1755
DA:37,1755
DA:38,1755
DA:43,1755
DA:44,6844
DA:46,5089
DA:47,5089
DA:49,5086
DA:50,5086
DA:52,5086
DA:54,5086
DA:56,5086
DA:57,5086
DA:59,1755
DA:60,1755
DA:65,1755
DA:68,1755
DA:69,6844
DA:70,5089
DA:71,5086
DA:73,3
DA:75,3510
DA:76,1755
DA:79,1590
DA:81,1590
DA:83,1590
DA:84,1590
DA:86,6231
DA:87,4641
DA:89,3180
DA:90,1590
DA:93,1
DA:95,1
DA:97,1
DA:98,1
DA:100,3
DA:101,2
DA:103,2
DA:104,1
DA:107,1247
DA:109,1247
DA:110,1247
DA:113,1247
DA:114,1247
DA:117,1247
DA:118,4905
DA:120,3658
DA:121,3658
DA:122,0
DA:127,3658
DA:128,14831
DA:130,11173
DA:131,11173
DA:133,11161
DA:134,11161
DA:136,11161
DA:138,11161
DA:140,11161
DA:142,22322
DA:143,11161
DA:145,11161
DA:147,11161
DA:149,22322
DA:151,11161
DA:152,11161
DA:154,1247
DA:155,1247
DA:160,3658
DA:163,3658
DA:164,14831
DA:165,11173
DA:166,11161
DA:168,24
DA:169,24
DA:171,3658
DA:172,3658
DA:175,1247
DA:176,4905
DA:177,3658
DA:178,3658
DA:180,0
DA:182,2494
DA:183,1247
DA:186,9
DA:188,9
DA:190,9
DA:191,9
DA:193,9
DA:194,30
DA:196,21
DA:197,60
DA:198,78
DA:199,117
DA:200,21
DA:202,18
DA:203,9
DA:206,3
DA:208,3
DA:210,3
DA:211,3
DA:213,3
DA:214,6
DA:216,3
DA:217,15
DA:218,24
DA:219,36
DA:220,3
DA:222,6
DA:223,3
LF:110
LH:108
end_of_record
TN:
SF:/home/runner/work/neml2/neml2/src/neml2/models/BackwardEulerTimeIntegration.cxx
FN:31,52,_ZN5neml228BackwardEulerTimeIntegrationINS_3SR2EE16expected_optionsEv
FN:31,52,_ZN5neml228BackwardEulerTimeIntegrationINS_3VecEE16expected_optionsEv
FN:31,52,_ZN5neml228BackwardEulerTimeIntegrationINS_6ScalarEE16expected_optionsEv
FN:55,66,_ZN5neml228BackwardEulerTimeIntegrationINS_3SR2EEC2ERKNS_9OptionSetE
FN:55,66,_ZN5neml228BackwardEulerTimeIntegrationINS_3VecEEC2ERKNS_9OptionSetE
FN:55,66,_ZN5neml228BackwardEulerTimeIntegrationINS_6ScalarEEC2ERKNS_9OptionSetE
FN:70,76,_ZNK5neml228BackwardEulerTimeIntegrationINS_3SR2EE8diagnoseEv
FN:70,76,_ZNK5neml228BackwardEulerTimeIntegrationINS_3VecEE8diagnoseEv
FN:70,76,_ZNK5neml228BackwardEulerTimeIntegrationINS_6ScalarEE8diagnoseEv
FN:80,99,_ZN5neml228BackwardEulerTimeIntegrationINS_3SR2EE9set_valueEbbb
FN:80,99,_ZN5neml228BackwardEulerTimeIntegrationINS_3VecEE9set_valueEbbb
FN:80,99,_ZN5neml228BackwardEulerTimeIntegrationINS_6ScalarEE9set_valueEbbb
FNDA:1,_ZN5neml228BackwardEulerTimeIntegrationINS_3SR2EE16expected_optionsEv
FNDA:1,_ZN5neml228BackwardEulerTimeIntegrationINS_3VecEE16expected_optionsEv
FNDA:1,_ZN5neml228BackwardEulerTimeIntegrationINS_6ScalarEE16expected_optionsEv
FNDA:9,_ZN5neml228BackwardEulerTimeIntegrationINS_3SR2EEC2ERKNS_9OptionSetE
FNDA:0,_ZN5neml228BackwardEulerTimeIntegrationINS_3VecEEC2ERKNS_9OptionSetE
FNDA:16,_ZN5neml228BackwardEulerTimeIntegrationINS_6ScalarEEC2ERKNS_9OptionSetE
FNDA:6,_ZNK5neml228BackwardEulerTimeIntegrationINS_3SR2EE8diagnoseEv
FNDA:0,_ZNK5neml228BackwardEulerTimeIntegrationINS_3VecEE8diagnoseEv
FNDA:3,_ZNK5neml228BackwardEulerTimeIntegrationINS_6ScalarEE8diagnoseEv
FNDA:40,_ZN5neml228BackwardEulerTimeIntegrationINS_3SR2EE9set_valueEbbb
FNDA:0,_ZN5neml228BackwardEulerTimeIntegrationINS_3VecEE9set_valueEbbb
FNDA:37,_ZN5neml228BackwardEulerTimeIntegrationINS_6ScalarEE9set_valueEbbb
FNF:12
FNH:9
DA:31,3
DA:33,3
DA:34,3
DA:40,3
DA:42,6
DA:43,6
DA:45,6
DA:46,3
DA:48,9
DA:49,3
DA:51,3
DA:52,0
DA:55,25
DA:57,25
DA:58,25
DA:59,25
DA:60,98
DA:61,25
DA:62,25
DA:63,25
DA:64,50
DA:66,25
DA:70,9
DA:72,9
DA:73,9
DA:74,9
DA:75,9
DA:76,9
DA:80,77
DA:82,77
DA:83,76
DA:85,77
DA:87,42
DA:89,42
DA:90,42
DA:92,42
DA:93,29
DA:95,13
DA:96,13
DA:97,13
DA:98,42
LF:41
LH:40
end_of_record
TN:
SF:/home/runner/work/neml2/neml2/src/neml2/models/BufferStore.cxx
FN:119,140,_ZN5neml211BufferStore19assign_buffer_stackERSt6vectorIN3c106IValueESaIS3_EE
FN:143,151,_ZNK5neml211BufferStore20collect_buffer_stackEv
FN:34,38,_ZN5neml211BufferStoreC2ENS_9OptionSetEPNS_11NEML2ObjectE
FN:41,46,_ZN5neml211BufferStore13named_buffersEv
FN:49,54,_ZN5neml211BufferStore10get_bufferERKSs
FN:57,61,_ZN5neml211BufferStore15send_buffers_toERKN3c1013TensorOptionsE
FN:65,86,_ZN5neml211BufferStore14declare_bufferINS_10QuaternionEvEERKT_RKSsS5_
FN:65,86,_ZN5neml211BufferStore14declare_bufferINS_11MillerIndexEvEERKT_RKSsS5_
FN:65,86,_ZN5neml211BufferStore14declare_bufferINS_2R2EvEERKT_RKSsS5_
FN:65,86,_ZN5neml211BufferStore14declare_bufferINS_2R3EvEERKT_RKSsS5_
FN:65,86,_ZN5neml211BufferStore14declare_bufferINS_2R4EvEERKT_RKSsS5_
FN:65,86,_ZN5neml211BufferStore14declare_bufferINS_2R5EvEERKT_RKSsS5_
FN:65,86,_ZN5neml211BufferStore14declare_bufferINS_2R8EvEERKT_RKSsS5_
FN:65,86,_ZN5neml211BufferStore14declare_bufferINS_3RotEvEERKT_RKSsS5_
FN:65,86,_ZN5neml211BufferStore14declare_bufferINS_3SR2EvEERKT_RKSsS5_
FN:65,86,_ZN5neml211BufferStore14declare_bufferINS_3VecEvEERKT_RKSsS5_
FN:65,86,_ZN5neml211BufferStore14declare_bufferINS_3WR2EvEERKT_RKSsS5_
FN:65,86,_ZN5neml211BufferStore14declare_bufferINS_4SFR3EvEERKT_RKSsS5_
FN:65,86,_ZN5neml211BufferStore14declare_bufferINS_4SFR4EvEERKT_RKSsS5_
FN:65,86,_ZN5neml211BufferStore14declare_bufferINS_4SSR4EvEERKT_RKSsS5_
FN:65,86,_ZN5neml211BufferStore14declare_bufferINS_4SWR4EvEERKT_RKSsS5_
FN:65,86,_ZN5neml211BufferStore14declare_bufferINS_4WFR4EvEERKT_RKSsS5_
FN:65,86,_ZN5neml211BufferStore14declare_bufferINS_4WSR4EvEERKT_RKSsS5_
FN:65,86,_ZN5neml211BufferStore14declare_bufferINS_4WWR4EvEERKT_RKSsS5_
FN:65,86,_ZN5neml211BufferStore14declare_bufferINS_5SFFR4EvEERKT_RKSsS5_
FN:65,86,_ZN5neml211BufferStore14declare_bufferINS_5SSFR5EvEERKT_RKSsS5_
FN:65,86,_ZN5neml211BufferStore14declare_bufferINS_6SSSSR8EvEERKT_RKSsS5_
FN:65,86,_ZN5neml211BufferStore14declare_bufferINS_6ScalarEvEERKT_RKSsS5_
FN:65,86,_ZN5neml211BufferStore14declare_bufferINS_6TensorEvEERKT_RKSsS5_
FN:90,93,_ZN5neml211BufferStore14declare_bufferINS_10QuaternionEvEERKT_RKSsRKNS_10TensorNameE
FN:90,93,_ZN5neml211BufferStore14declare_bufferINS_11MillerIndexEvEERKT_RKSsRKNS_10TensorNameE
FN:90,93,_ZN5neml211BufferStore14declare_bufferINS_2R2EvEERKT_RKSsRKNS_10TensorNameE
FN:90,93,_ZN5neml211BufferStore14declare_bufferINS_2R3EvEERKT_RKSsRKNS_10TensorNameE
FN:90,93,_ZN5neml211BufferStore14declare_bufferINS_2R4EvEERKT_RKSsRKNS_10TensorNameE
FN:90,93,_ZN5neml211BufferStore14declare_bufferINS_2R5EvEERKT_RKSsRKNS_10TensorNameE
FN:90,93,_ZN5neml211BufferStore14declare_bufferINS_2R8EvEERKT_RKSsRKNS_10TensorNameE
FN:90,93,_ZN5neml211BufferStore14declare_bufferINS_3RotEvEERKT_RKSsRKNS_10TensorNameE
FN:90,93,_ZN5neml211BufferStore14declare_bufferINS_3SR2EvEERKT_RKSsRKNS_10TensorNameE
FN:90,93,_ZN5neml211BufferStore14declare_bufferINS_3VecEvEERKT_RKSsRKNS_10TensorNameE
FN:90,93,_ZN5neml211BufferStore14declare_bufferINS_3WR2EvEERKT_RKSsRKNS_10TensorNameE
FN:90,93,_ZN5neml211BufferStore14declare_bufferINS_4SFR3EvEERKT_RKSsRKNS_10TensorNameE
FN:90,93,_ZN5neml211BufferStore14declare_bufferINS_4SFR4EvEERKT_RKSsRKNS_10TensorNameE
FN:90,93,_ZN5neml211BufferStore14declare_bufferINS_4SSR4EvEERKT_RKSsRKNS_10TensorNameE
FN:90,93,_ZN5neml211BufferStore14declare_bufferINS_4SWR4EvEERKT_RKSsRKNS_10TensorNameE
FN:90,93,_ZN5neml211BufferStore14declare_bufferINS_4WFR4EvEERKT_RKSsRKNS_10TensorNameE
FN:90,93,_ZN5neml211BufferStore14declare_bufferINS_4WSR4EvEERKT_RKSsRKNS_10TensorNameE
FN:90,93,_ZN5neml211BufferStore14declare_bufferINS_4WWR4EvEERKT_RKSsRKNS_10TensorNameE
FN:90,93,_ZN5neml211BufferStore14declare_bufferINS_5SFFR4EvEERKT_RKSsRKNS_10TensorNameE
FN:90,93,_ZN5neml211BufferStore14declare_bufferINS_5SSFR5EvEERKT_RKSsRKNS_10TensorNameE
FN:90,93,_ZN5neml211BufferStore14declare_bufferINS_6SSSSR8EvEERKT_RKSsRKNS_10TensorNameE
FN:90,93,_ZN5neml211BufferStore14declare_bufferINS_6ScalarEvEERKT_RKSsRKNS_10TensorNameE
FN:90,93,_ZN5neml211BufferStore14declare_bufferINS_6TensorEvEERKT_RKSsRKNS_10TensorNameE
FN:97,110,_ZN5neml211BufferStore14declare_bufferINS_10QuaternionEvEERKT_RKSsS7_
FN:97,110,_ZN5neml211BufferStore14declare_bufferINS_11MillerIndexEvEERKT_RKSsS7_
FN:97,110,_ZN5neml211BufferStore14declare_bufferINS_2R2EvEERKT_RKSsS7_
FN:97,110,_ZN5neml211BufferStore14declare_bufferINS_2R3EvEERKT_RKSsS7_
FN:97,110,_ZN5neml211BufferStore14declare_bufferINS_2R4EvEERKT_RKSsS7_
FN:97,110,_ZN5neml211BufferStore14declare_bufferINS_2R5EvEERKT_RKSsS7_
FN:97,110,_ZN5neml211BufferStore14declare_bufferINS_2R8EvEERKT_RKSsS7_
FN:97,110,_ZN5neml211BufferStore14declare_bufferINS_3RotEvEERKT_RKSsS7_
FN:97,110,_ZN5neml211BufferStore14declare_bufferINS_3SR2EvEERKT_RKSsS7_
FN:97,110,_ZN5neml211BufferStore14declare_bufferINS_3VecEvEERKT_RKSsS7_
FN:97,110,_ZN5neml211BufferStore14declare_bufferINS_3WR2EvEERKT_RKSsS7_
FN:97,110,_ZN5neml211BufferStore14declare_bufferINS_4SFR3EvEERKT_RKSsS7_
FN:97,110,_ZN5neml211BufferStore14declare_bufferINS_4SFR4EvEERKT_RKSsS7_
FN:97,110,_ZN5neml211BufferStore14declare_bufferINS_4SSR4EvEERKT_RKSsS7_
FN:97,110,_ZN5neml211BufferStore14declare_bufferINS_4SWR4EvEERKT_RKSsS7_
FN:97,110,_ZN5neml211BufferStore14declare_bufferINS_4WFR4EvEERKT_RKSsS7_
FN:97,110,_ZN5neml211BufferStore14declare_bufferINS_4WSR4EvEERKT_RKSsS7_
FN:97,110,_ZN5neml211BufferStore14declare_bufferINS_4WWR4EvEERKT_RKSsS7_
FN:97,110,_ZN5neml211BufferStore14declare_bufferINS_5SFFR4EvEERKT_RKSsS7_
FN:97,110,_ZN5neml211BufferStore14declare_bufferINS_5SSFR5EvEERKT_RKSsS7_
FN:97,110,_ZN5neml211BufferStore14declare_bufferINS_6SSSSR8EvEERKT_RKSsS7_
FN:97,110,_ZN5neml211BufferStore14declare_bufferINS_6ScalarEvEERKT_RKSsS7_
FN:97,110,_ZN5neml211BufferStore14declare_bufferINS_6TensorEvEERKT_RKSsS7_
FNDA:0,_ZN5neml211BufferStore19assign_buffer_stackERSt6vectorIN3c106IValueESaIS3_EE
FNDA:0,_ZNK5neml211BufferStore20collect_buffer_stackEv
FNDA:410,_ZN5neml211BufferStoreC2ENS_9OptionSetEPNS_11NEML2ObjectE
FNDA:278933,_ZN5neml211BufferStore13named_buffersEv
FNDA:52,_ZN5neml211BufferStore10get_bufferERKSs
FNDA:0,_ZN5neml211BufferStore15send_buffers_toERKN3c1013TensorOptionsE
FNDA:0,_ZN5neml211BufferStore14declare_bufferINS_10QuaternionEvEERKT_RKSsS5_
FNDA:96,_ZN5neml211BufferStore14declare_bufferINS_11MillerIndexEvEERKT_RKSsS5_
FNDA:48,_ZN5neml211BufferStore14declare_bufferINS_2R2EvEERKT_RKSsS5_
FNDA:0,_ZN5neml211BufferStore14declare_bufferINS_2R3EvEERKT_RKSsS5_
FNDA:0,_ZN5neml211BufferStore14declare_bufferINS_2R4EvEERKT_RKSsS5_
FNDA:0,_ZN5neml211BufferStore14declare_bufferINS_2R5EvEERKT_RKSsS5_
FNDA:0,_ZN5neml211BufferStore14declare_bufferINS_2R8EvEERKT_RKSsS5_
FNDA:0,_ZN5neml211BufferStore14declare_bufferINS_3RotEvEERKT_RKSsS5_
FNDA:48,_ZN5neml211BufferStore14declare_bufferINS_3SR2EvEERKT_RKSsS5_
FNDA:192,_ZN5neml211BufferStore14declare_bufferINS_3VecEvEERKT_RKSsS5_
FNDA:48,_ZN5neml211BufferStore14declare_bufferINS_3WR2EvEERKT_RKSsS5_
FNDA:0,_ZN5neml211BufferStore14declare_bufferINS_4SFR3EvEERKT_RKSsS5_
FNDA:0,_ZN5neml211BufferStore14declare_bufferINS_4SFR4EvEERKT_RKSsS5_
FNDA:0,_ZN5neml211BufferStore14declare_bufferINS_4SSR4EvEERKT_RKSsS5_
FNDA:0,_ZN5neml211BufferStore14declare_bufferINS_4SWR4EvEERKT_RKSsS5_
FNDA:0,_ZN5neml211BufferStore14declare_bufferINS_4WFR4EvEERKT_RKSsS5_
FNDA:0,_ZN5neml211BufferStore14declare_bufferINS_4WSR4EvEERKT_RKSsS5_
FNDA:0,_ZN5neml211BufferStore14declare_bufferINS_4WWR4EvEERKT_RKSsS5_
FNDA:0,_ZN5neml211BufferStore14declare_bufferINS_5SFFR4EvEERKT_RKSsS5_
FNDA:0,_ZN5neml211BufferStore14declare_bufferINS_5SSFR5EvEERKT_RKSsS5_
FNDA:0,_ZN5neml211BufferStore14declare_bufferINS_6SSSSR8EvEERKT_RKSsS5_
FNDA:117,_ZN5neml211BufferStore14declare_bufferINS_6ScalarEvEERKT_RKSsS5_
FNDA:0,_ZN5neml211BufferStore14declare_bufferINS_6TensorEvEERKT_RKSsS5_
FNDA:0,_ZN5neml211BufferStore14declare_bufferINS_10QuaternionEvEERKT_RKSsRKNS_10TensorNameE
FNDA:0,_ZN5neml211BufferStore14declare_bufferINS_11MillerIndexEvEERKT_RKSsRKNS_10TensorNameE
FNDA:0,_ZN5neml211BufferStore14declare_bufferINS_2R2EvEERKT_RKSsRKNS_10TensorNameE
FNDA:0,_ZN5neml211BufferStore14declare_bufferINS_2R3EvEERKT_RKSsRKNS_10TensorNameE
FNDA:0,_ZN5neml211BufferStore14declare_bufferINS_2R4EvEERKT_RKSsRKNS_10TensorNameE
FNDA:0,_ZN5neml211BufferStore14declare_bufferINS_2R5EvEERKT_RKSsRKNS_10TensorNameE
FNDA:0,_ZN5neml211BufferStore14declare_bufferINS_2R8EvEERKT_RKSsRKNS_10TensorNameE
FNDA:0,_ZN5neml211BufferStore14declare_bufferINS_3RotEvEERKT_RKSsRKNS_10TensorNameE
FNDA:0,_ZN5neml211BufferStore14declare_bufferINS_3SR2EvEERKT_RKSsRKNS_10TensorNameE
FNDA:0,_ZN5neml211BufferStore14declare_bufferINS_3VecEvEERKT_RKSsRKNS_10TensorNameE
FNDA:0,_ZN5neml211BufferStore14declare_bufferINS_3WR2EvEERKT_RKSsRKNS_10TensorNameE
FNDA:0,_ZN5neml211BufferStore14declare_bufferINS_4SFR3EvEERKT_RKSsRKNS_10TensorNameE
FNDA:0,_ZN5neml211BufferStore14declare_bufferINS_4SFR4EvEERKT_RKSsRKNS_10TensorNameE
FNDA:0,_ZN5neml211BufferStore14declare_bufferINS_4SSR4EvEERKT_RKSsRKNS_10TensorNameE
FNDA:0,_ZN5neml211BufferStore14declare_bufferINS_4SWR4EvEERKT_RKSsRKNS_10TensorNameE
FNDA:0,_ZN5neml211BufferStore14declare_bufferINS_4WFR4EvEERKT_RKSsRKNS_10TensorNameE
FNDA:0,_ZN5neml211BufferStore14declare_bufferINS_4WSR4EvEERKT_RKSsRKNS_10TensorNameE
FNDA:0,_ZN5neml211BufferStore14declare_bufferINS_4WWR4EvEERKT_RKSsRKNS_10TensorNameE
FNDA:0,_ZN5neml211BufferStore14declare_bufferINS_5SFFR4EvEERKT_RKSsRKNS_10TensorNameE
FNDA:0,_ZN5neml211BufferStore14declare_bufferINS_5SSFR5EvEERKT_RKSsRKNS_10TensorNameE
FNDA:0,_ZN5neml211BufferStore14declare_bufferINS_6SSSSR8EvEERKT_RKSsRKNS_10TensorNameE
FNDA:36,_ZN5neml211BufferStore14declare_bufferINS_6ScalarEvEERKT_RKSsRKNS_10TensorNameE
FNDA:0,_ZN5neml211BufferStore14declare_bufferINS_6TensorEvEERKT_RKSsRKNS_10TensorNameE
FNDA:0,_ZN5neml211BufferStore14declare_bufferINS_10QuaternionEvEERKT_RKSsS7_
FNDA:70,_ZN5neml211BufferStore14declare_bufferINS_11MillerIndexEvEERKT_RKSsS7_
FNDA:0,_ZN5neml211BufferStore14declare_bufferINS_2R2EvEERKT_RKSsS7_
FNDA:0,_ZN5neml211BufferStore14declare_bufferINS_2R3EvEERKT_RKSsS7_
FNDA:0,_ZN5neml211BufferStore14declare_bufferINS_2R4EvEERKT_RKSsS7_
FNDA:0,_ZN5neml211BufferStore14declare_bufferINS_2R5EvEERKT_RKSsS7_
FNDA:0,_ZN5neml211BufferStore14declare_bufferINS_2R8EvEERKT_RKSsS7_
FNDA:0,_ZN5neml211BufferStore14declare_bufferINS_3RotEvEERKT_RKSsS7_
FNDA:0,_ZN5neml211BufferStore14declare_bufferINS_3SR2EvEERKT_RKSsS7_
FNDA:0,_ZN5neml211BufferStore14declare_bufferINS_3VecEvEERKT_RKSsS7_
FNDA:0,_ZN5neml211BufferStore14declare_bufferINS_3WR2EvEERKT_RKSsS7_
FNDA:0,_ZN5neml211BufferStore14declare_bufferINS_4SFR3EvEERKT_RKSsS7_
FNDA:0,_ZN5neml211BufferStore14declare_bufferINS_4SFR4EvEERKT_RKSsS7_
FNDA:0,_ZN5neml211BufferStore14declare_bufferINS_4SSR4EvEERKT_RKSsS7_
FNDA:0,_ZN5neml211BufferStore14declare_bufferINS_4SWR4EvEERKT_RKSsS7_
FNDA:0,_ZN5neml211BufferStore14declare_bufferINS_4WFR4EvEERKT_RKSsS7_
FNDA:0,_ZN5neml211BufferStore14declare_bufferINS_4WSR4EvEERKT_RKSsS7_
FNDA:0,_ZN5neml211BufferStore14declare_bufferINS_4WWR4EvEERKT_RKSsS7_
FNDA:0,_ZN5neml211BufferStore14declare_bufferINS_5SFFR4EvEERKT_RKSsS7_
FNDA:0,_ZN5neml211BufferStore14declare_bufferINS_5SSFR5EvEERKT_RKSsS7_
FNDA:0,_ZN5neml211BufferStore14declare_bufferINS_6SSSSR8EvEERKT_RKSsS7_
FNDA:2,_ZN5neml211BufferStore14declare_bufferINS_6ScalarEvEERKT_RKSsS7_
FNDA:0,_ZN5neml211BufferStore14declare_bufferINS_6TensorEvEERKT_RKSsS7_
FNF:75
FNH:12
DA:34,410
DA:35,410
DA:36,410
DA:38,410
DA:41,278933
DA:43,278933
DA:45,278933
DA:49,52
DA:51,52
DA:52,52
DA:53,52
DA:57,0
DA:59,0
DA:60,0
DA:61,0
DA:65,549
DA:67,549
DA:68,483
DA:69,322
DA:71,388
DA:74,388
DA:75,52
DA:78,336
DA:79,336
DA:80,336
DA:81,336
DA:83,388
DA:84,388
DA:85,388
DA:90,36
DA:92,36
DA:97,72
DA:99,72
DA:100,0
DA:102,72
DA:103,72
DA:105,0
DA:119,0
DA:121,0
DA:123,0
DA:125,0
DA:127,0
DA:131,0
DA:132,0
DA:134,0
DA:135,0
DA:136,0
DA:139,0
DA:140,0
DA:143,0
DA:145,0
DA:146,0
DA:147,0
DA:148,0
DA:149,0
DA:150,0
DA:151,0
LF:57
LH:31
end_of_record
TN:
SF:/home/runner/work/neml2/neml2/src/neml2/models/ComposedModel.cxx
FN:177,180,_ZNK5neml213ComposedModel26named_nonlinear_parametersEb
FN:183,186,_ZNK5neml213ComposedModel32named_nonlinear_parameter_modelsEb
FN:189,201,_ZN5neml213ComposedModel20link_input_variablesEPNS_5ModelE
FN:204,209,_ZN5neml213ComposedModel21link_output_variablesEPNS_5ModelE
FN:212,233,_ZN5neml213ComposedModel9set_valueEbbb
FN:32,60,_ZN5neml213ComposedModel16expected_optionsEv
FN:62,174,_ZN5neml213ComposedModelC2ERKNS_9OptionSetE
FNDA:10,_ZNK5neml213ComposedModel26named_nonlinear_parametersEb
FNDA:20,_ZNK5neml213ComposedModel32named_nonlinear_parameter_modelsEb
FNDA:226,_ZN5neml213ComposedModel20link_input_variablesEPNS_5ModelE
FNDA:226,_ZN5neml213ComposedModel21link_output_variablesEPNS_5ModelE
FNDA:202,_ZN5neml213ComposedModel9set_valueEbbb
FNDA:1,_ZN5neml213ComposedModel16expected_optionsEv
FNDA:62,_ZN5neml213ComposedModelC2ERKNS_9OptionSetE
FNF:7
FNH:7
DA:32,1
DA:34,1
DA:35,1
DA:38,1
DA:40,1
DA:42,2
DA:43,2
DA:45,2
DA:46,3
DA:48,1
DA:50,2
DA:51,3
DA:53,1
DA:55,2
DA:56,2
DA:57,1
DA:59,1
DA:60,0
DA:62,62
DA:64,124
DA:65,186
DA:70,288
DA:71,164
DA:81,62
DA:82,62
DA:83,226
DA:84,226
DA:85,226
DA:88,288
DA:89,226
DA:90,64
DA:91,2
DA:94,62
DA:95,62
DA:96,62
DA:97,0
DA:100,62
DA:101,62
DA:102,62
DA:105,62
DA:108,406
DA:109,344
DA:110,274
DA:113,148
DA:114,86
DA:117,226
DA:119,226
DA:120,62
DA:121,164
DA:122,226
DA:123,62
DA:124,164
DA:128,62
DA:129,288
DA:130,226
DA:132,0
DA:133,0
DA:134,0
DA:135,0
DA:139,62
DA:141,62
DA:142,288
DA:143,226
DA:145,0
DA:146,0
DA:147,0
DA:152,62
DA:154,62
DA:155,155
DA:156,136
DA:158,43
DA:159,43
DA:164,62
DA:167,62
DA:168,278
DA:169,220
DA:171,4
DA:172,4
DA:174,62
DA:177,10
DA:179,10
DA:183,20
DA:185,20
DA:189,226
DA:191,2127
DA:192,1901
DA:193,344
DA:195,1612
DA:196,1386
DA:198,178
DA:199,178
DA:201,226
DA:204,226
DA:206,597
DA:207,371
DA:208,86
DA:209,226
DA:212,202
DA:214,1017
DA:216,815
DA:217,440
DA:218,375
DA:219,313
DA:220,62
DA:221,62
DA:223,0
DA:226,202
DA:227,173
DA:228,97
DA:230,202
DA:231,44
DA:232,22
DA:233,202
LF:113
LH:103
end_of_record
TN:
SF:/home/runner/work/neml2/neml2/src/neml2/models/ConstantParameter.cxx
FN:32,41,_ZN5neml217ConstantParameterINS_10QuaternionEE16expected_optionsEv
FN:32,41,_ZN5neml217ConstantParameterINS_11MillerIndexEE16expected_optionsEv
FN:32,41,_ZN5neml217ConstantParameterINS_2R2EE16expected_optionsEv
FN:32,41,_ZN5neml217ConstantParameterINS_2R3EE16expected_optionsEv
FN:32,41,_ZN5neml217ConstantParameterINS_2R4EE16expected_optionsEv
FN:32,41,_ZN5neml217ConstantParameterINS_2R5EE16expected_optionsEv
FN:32,41,_ZN5neml217ConstantParameterINS_2R8EE16expected_optionsEv
FN:32,41,_ZN5neml217ConstantParameterINS_3RotEE16expected_optionsEv
FN:32,41,_ZN5neml217ConstantParameterINS_3SR2EE16expected_optionsEv
FN:32,41,_ZN5neml217ConstantParameterINS_3VecEE16expected_optionsEv
FN:32,41,_ZN5neml217ConstantParameterINS_3WR2EE16expected_optionsEv
FN:32,41,_ZN5neml217ConstantParameterINS_4SFR3EE16expected_optionsEv
FN:32,41,_ZN5neml217ConstantParameterINS_4SFR4EE16expected_optionsEv
FN:32,41,_ZN5neml217ConstantParameterINS_4SSR4EE16expected_optionsEv
FN:32,41,_ZN5neml217ConstantParameterINS_4SWR4EE16expected_optionsEv
FN:32,41,_ZN5neml217ConstantParameterINS_4WFR4EE16expected_optionsEv
FN:32,41,_ZN5neml217ConstantParameterINS_4WSR4EE16expected_optionsEv
FN:32,41,_ZN5neml217ConstantParameterINS_4WWR4EE16expected_optionsEv
FN:32,41,_ZN5neml217ConstantParameterINS_5SFFR4EE16expected_optionsEv
FN:32,41,_ZN5neml217ConstantParameterINS_5SSFR5EE16expected_optionsEv
FN:32,41,_ZN5neml217ConstantParameterINS_6SSSSR8EE16expected_optionsEv
FN:32,41,_ZN5neml217ConstantParameterINS_6ScalarEE16expected_optionsEv
FN:44,48,_ZN5neml217ConstantParameterINS_10QuaternionEEC2ERKNS_9OptionSetE
FN:44,48,_ZN5neml217ConstantParameterINS_11MillerIndexEEC2ERKNS_9OptionSetE
FN:44,48,_ZN5neml217ConstantParameterINS_2R2EEC2ERKNS_9OptionSetE
FN:44,48,_ZN5neml217ConstantParameterINS_2R3EEC2ERKNS_9OptionSetE
FN:44,48,_ZN5neml217ConstantParameterINS_2R4EEC2ERKNS_9OptionSetE
FN:44,48,_ZN5neml217ConstantParameterINS_2R5EEC2ERKNS_9OptionSetE
FN:44,48,_ZN5neml217ConstantParameterINS_2R8EEC2ERKNS_9OptionSetE
FN:44,48,_ZN5neml217ConstantParameterINS_3RotEEC2ERKNS_9OptionSetE
FN:44,48,_ZN5neml217ConstantParameterINS_3SR2EEC2ERKNS_9OptionSetE
FN:44,48,_ZN5neml217ConstantParameterINS_3VecEEC2ERKNS_9OptionSetE
FN:44,48,_ZN5neml217ConstantParameterINS_3WR2EEC2ERKNS_9OptionSetE
FN:44,48,_ZN5neml217ConstantParameterINS_4SFR3EEC2ERKNS_9OptionSetE
FN:44,48,_ZN5neml217ConstantParameterINS_4SFR4EEC2ERKNS_9OptionSetE
FN:44,48,_ZN5neml217ConstantParameterINS_4SSR4EEC2ERKNS_9OptionSetE
FN:44,48,_ZN5neml217ConstantParameterINS_4SWR4EEC2ERKNS_9OptionSetE
FN:44,48,_ZN5neml217ConstantParameterINS_4WFR4EEC2ERKNS_9OptionSetE
FN:44,48,_ZN5neml217ConstantParameterINS_4WSR4EEC2ERKNS_9OptionSetE
FN:44,48,_ZN5neml217ConstantParameterINS_4WWR4EEC2ERKNS_9OptionSetE
FN:44,48,_ZN5neml217ConstantParameterINS_5SFFR4EEC2ERKNS_9OptionSetE
FN:44,48,_ZN5neml217ConstantParameterINS_5SSFR5EEC2ERKNS_9OptionSetE
FN:44,48,_ZN5neml217ConstantParameterINS_6SSSSR8EEC2ERKNS_9OptionSetE
FN:44,48,_ZN5neml217ConstantParameterINS_6ScalarEEC2ERKNS_9OptionSetE
FN:52,63,_ZN5neml217ConstantParameterINS_10QuaternionEE9set_valueEbbb
FN:52,63,_ZN5neml217ConstantParameterINS_11MillerIndexEE9set_valueEbbb
FN:52,63,_ZN5neml217ConstantParameterINS_2R2EE9set_valueEbbb
FN:52,63,_ZN5neml217ConstantParameterINS_2R3EE9set_valueEbbb
FN:52,63,_ZN5neml217ConstantParameterINS_2R4EE9set_valueEbbb
FN:52,63,_ZN5neml217ConstantParameterINS_2R5EE9set_valueEbbb
FN:52,63,_ZN5neml217ConstantParameterINS_2R8EE9set_valueEbbb
FN:52,63,_ZN5neml217ConstantParameterINS_3RotEE9set_valueEbbb
FN:52,63,_ZN5neml217ConstantParameterINS_3SR2EE9set_valueEbbb
FN:52,63,_ZN5neml217ConstantParameterINS_3VecEE9set_valueEbbb
FN:52,63,_ZN5neml217ConstantParameterINS_3WR2EE9set_valueEbbb
FN:52,63,_ZN5neml217ConstantParameterINS_4SFR3EE9set_valueEbbb
FN:52,63,_ZN5neml217ConstantParameterINS_4SFR4EE9set_valueEbbb
FN:52,63,_ZN5neml217ConstantParameterINS_4SSR4EE9set_valueEbbb
FN:52,63,_ZN5neml217ConstantParameterINS_4SWR4EE9set_valueEbbb
FN:52,63,_ZN5neml217ConstantParameterINS_4WFR4EE9set_valueEbbb
FN:52,63,_ZN5neml217ConstantParameterINS_4WSR4EE9set_valueEbbb
FN:52,63,_ZN5neml217ConstantParameterINS_4WWR4EE9set_valueEbbb
FN:52,63,_ZN5neml217ConstantParameterINS_5SFFR4EE9set_valueEbbb
FN:52,63,_ZN5neml217ConstantParameterINS_5SSFR5EE9set_valueEbbb
FN:52,63,_ZN5neml217ConstantParameterINS_6SSSSR8EE9set_valueEbbb
FN:52,63,_ZN5neml217ConstantParameterINS_6ScalarEE9set_valueEbbb
FNDA:1,_ZN5neml217ConstantParameterINS_10QuaternionEE16expected_optionsEv
FNDA:1,_ZN5neml217ConstantParameterINS_11MillerIndexEE16expected_optionsEv
FNDA:1,_ZN5neml217ConstantParameterINS_2R2EE16expected_optionsEv
FNDA:1,_ZN5neml217ConstantParameterINS_2R3EE16expected_optionsEv
FNDA:1,_ZN5neml217ConstantParameterINS_2R4EE16expected_optionsEv
FNDA:1,_ZN5neml217ConstantParameterINS_2R5EE16expected_optionsEv
FNDA:1,_ZN5neml217ConstantParameterINS_2R8EE16expected_optionsEv
FNDA:1,_ZN5neml217ConstantParameterINS_3RotEE16expected_optionsEv
FNDA:1,_ZN5neml217ConstantParameterINS_3SR2EE16expected_optionsEv
FNDA:1,_ZN5neml217ConstantParameterINS_3VecEE16expected_optionsEv
FNDA:1,_ZN5neml217ConstantParameterINS_3WR2EE16expected_optionsEv
FNDA:1,_ZN5neml217ConstantParameterINS_4SFR3EE16expected_optionsEv
FNDA:1,_ZN5neml217ConstantParameterINS_4SFR4EE16expected_optionsEv
FNDA:1,_ZN5neml217ConstantParameterINS_4SSR4EE16expected_optionsEv
FNDA:1,_ZN5neml217ConstantParameterINS_4SWR4EE16expected_optionsEv
FNDA:1,_ZN5neml217ConstantParameterINS_4WFR4EE16expected_optionsEv
FNDA:1,_ZN5neml217ConstantParameterINS_4WSR4EE16expected_optionsEv
FNDA:1,_ZN5neml217ConstantParameterINS_4WWR4EE16expected_optionsEv
FNDA:1,_ZN5neml217ConstantParameterINS_5SFFR4EE16expected_optionsEv
FNDA:1,_ZN5neml217ConstantParameterINS_5SSFR5EE16expected_optionsEv
FNDA:1,_ZN5neml217ConstantParameterINS_6SSSSR8EE16expected_optionsEv
FNDA:1,_ZN5neml217ConstantParameterINS_6ScalarEE16expected_optionsEv
FNDA:0,_ZN5neml217ConstantParameterINS_10QuaternionEEC2ERKNS_9OptionSetE
FNDA:0,_ZN5neml217ConstantParameterINS_11MillerIndexEEC2ERKNS_9OptionSetE
FNDA:0,_ZN5neml217ConstantParameterINS_2R2EEC2ERKNS_9OptionSetE
FNDA:0,_ZN5neml217ConstantParameterINS_2R3EEC2ERKNS_9OptionSetE
FNDA:0,_ZN5neml217ConstantParameterINS_2R4EEC2ERKNS_9OptionSetE
FNDA:0,_ZN5neml217ConstantParameterINS_2R5EEC2ERKNS_9OptionSetE
FNDA:0,_ZN5neml217ConstantParameterINS_2R8EEC2ERKNS_9OptionSetE
FNDA:0,_ZN5neml217ConstantParameterINS_3RotEEC2ERKNS_9OptionSetE
FNDA:1,_ZN5neml217ConstantParameterINS_3SR2EEC2ERKNS_9OptionSetE
FNDA:0,_ZN5neml217ConstantParameterINS_3VecEEC2ERKNS_9OptionSetE
FNDA:0,_ZN5neml217ConstantParameterINS_3WR2EEC2ERKNS_9OptionSetE
FNDA:0,_ZN5neml217ConstantParameterINS_4SFR3EEC2ERKNS_9OptionSetE
FNDA:0,_ZN5neml217ConstantParameterINS_4SFR4EEC2ERKNS_9OptionSetE
FNDA:0,_ZN5neml217ConstantParameterINS_4SSR4EEC2ERKNS_9OptionSetE
FNDA:0,_ZN5neml217ConstantParameterINS_4SWR4EEC2ERKNS_9OptionSetE
FNDA:0,_ZN5neml217ConstantParameterINS_4WFR4EEC2ERKNS_9OptionSetE
FNDA:0,_ZN5neml217ConstantParameterINS_4WSR4EEC2ERKNS_9OptionSetE
FNDA:0,_ZN5neml217ConstantParameterINS_4WWR4EEC2ERKNS_9OptionSetE
FNDA:0,_ZN5neml217ConstantParameterINS_5SFFR4EEC2ERKNS_9OptionSetE
FNDA:0,_ZN5neml217ConstantParameterINS_5SSFR5EEC2ERKNS_9OptionSetE
FNDA:0,_ZN5neml217ConstantParameterINS_6SSSSR8EEC2ERKNS_9OptionSetE
FNDA:4,_ZN5neml217ConstantParameterINS_6ScalarEEC2ERKNS_9OptionSetE
FNDA:0,_ZN5neml217ConstantParameterINS_10QuaternionEE9set_valueEbbb
FNDA:0,_ZN5neml217ConstantParameterINS_11MillerIndexEE9set_valueEbbb
FNDA:0,_ZN5neml217ConstantParameterINS_2R2EE9set_valueEbbb
FNDA:0,_ZN5neml217ConstantParameterINS_2R3EE9set_valueEbbb
FNDA:0,_ZN5neml217ConstantParameterINS_2R4EE9set_valueEbbb
FNDA:0,_ZN5neml217ConstantParameterINS_2R5EE9set_valueEbbb
FNDA:0,_ZN5neml217ConstantParameterINS_2R8EE9set_valueEbbb
FNDA:0,_ZN5neml217ConstantParameterINS_3RotEE9set_valueEbbb
FNDA:2,_ZN5neml217ConstantParameterINS_3SR2EE9set_valueEbbb
FNDA:0,_ZN5neml217ConstantParameterINS_3VecEE9set_valueEbbb
FNDA:0,_ZN5neml217ConstantParameterINS_3WR2EE9set_valueEbbb
FNDA:0,_ZN5neml217ConstantParameterINS_4SFR3EE9set_valueEbbb
FNDA:0,_ZN5neml217ConstantParameterINS_4SFR4EE9set_valueEbbb
FNDA:0,_ZN5neml217ConstantParameterINS_4SSR4EE9set_valueEbbb
FNDA:0,_ZN5neml217ConstantParameterINS_4SWR4EE9set_valueEbbb
FNDA:0,_ZN5neml217ConstantParameterINS_4WFR4EE9set_valueEbbb
FNDA:0,_ZN5neml217ConstantParameterINS_4WSR4EE9set_valueEbbb
FNDA:0,_ZN5neml217ConstantParameterINS_4WWR4EE9set_valueEbbb
FNDA:0,_ZN5neml217ConstantParameterINS_5SFFR4EE9set_valueEbbb
FNDA:0,_ZN5neml217ConstantParameterINS_5SSFR5EE9set_valueEbbb
FNDA:0,_ZN5neml217ConstantParameterINS_6SSSSR8EE9set_valueEbbb
FNDA:2,_ZN5neml217ConstantParameterINS_6ScalarEE9set_valueEbbb
FNF:66
FNH:26
DA:32,22
DA:34,22
DA:35,22
DA:38,44
DA:39,22
DA:40,22
DA:41,0
DA:44,5
DA:46,20
DA:48,5
DA:52,4
DA:54,4
DA:55,2
DA:57,4
DA:58,6
DA:59,0
DA:63,4
LF:17
LH:15
end_of_record
TN:
SF:/home/runner/work/neml2/neml2/src/neml2/models/CopyVariable.cxx
FN:32,44,_ZN5neml212CopyVariableINS_10QuaternionEE16expected_optionsEv
FN:32,44,_ZN5neml212CopyVariableINS_11MillerIndexEE16expected_optionsEv
FN:32,44,_ZN5neml212CopyVariableINS_2R2EE16expected_optionsEv
FN:32,44,_ZN5neml212CopyVariableINS_2R3EE16expected_optionsEv
FN:32,44,_ZN5neml212CopyVariableINS_2R4EE16expected_optionsEv
FN:32,44,_ZN5neml212CopyVariableINS_2R5EE16expected_optionsEv
FN:32,44,_ZN5neml212CopyVariableINS_2R8EE16expected_optionsEv
FN:32,44,_ZN5neml212CopyVariableINS_3RotEE16expected_optionsEv
FN:32,44,_ZN5neml212CopyVariableINS_3SR2EE16expected_optionsEv
FN:32,44,_ZN5neml212CopyVariableINS_3VecEE16expected_optionsEv
FN:32,44,_ZN5neml212CopyVariableINS_3WR2EE16expected_optionsEv
FN:32,44,_ZN5neml212CopyVariableINS_4SFR3EE16expected_optionsEv
FN:32,44,_ZN5neml212CopyVariableINS_4SFR4EE16expected_optionsEv
FN:32,44,_ZN5neml212CopyVariableINS_4SSR4EE16expected_optionsEv
FN:32,44,_ZN5neml212CopyVariableINS_4SWR4EE16expected_optionsEv
FN:32,44,_ZN5neml212CopyVariableINS_4WFR4EE16expected_optionsEv
FN:32,44,_ZN5neml212CopyVariableINS_4WSR4EE16expected_optionsEv
FN:32,44,_ZN5neml212CopyVariableINS_4WWR4EE16expected_optionsEv
FN:32,44,_ZN5neml212CopyVariableINS_5SFFR4EE16expected_optionsEv
FN:32,44,_ZN5neml212CopyVariableINS_5SSFR5EE16expected_optionsEv
FN:32,44,_ZN5neml212CopyVariableINS_6SSSSR8EE16expected_optionsEv
FN:32,44,_ZN5neml212CopyVariableINS_6ScalarEE16expected_optionsEv
FN:47,52,_ZN5neml212CopyVariableINS_10QuaternionEEC2ERKNS_9OptionSetE
FN:47,52,_ZN5neml212CopyVariableINS_11MillerIndexEEC2ERKNS_9OptionSetE
FN:47,52,_ZN5neml212CopyVariableINS_2R2EEC2ERKNS_9OptionSetE
FN:47,52,_ZN5neml212CopyVariableINS_2R3EEC2ERKNS_9OptionSetE
FN:47,52,_ZN5neml212CopyVariableINS_2R4EEC2ERKNS_9OptionSetE
FN:47,52,_ZN5neml212CopyVariableINS_2R5EEC2ERKNS_9OptionSetE
FN:47,52,_ZN5neml212CopyVariableINS_2R8EEC2ERKNS_9OptionSetE
FN:47,52,_ZN5neml212CopyVariableINS_3RotEEC2ERKNS_9OptionSetE
FN:47,52,_ZN5neml212CopyVariableINS_3SR2EEC2ERKNS_9OptionSetE
FN:47,52,_ZN5neml212CopyVariableINS_3VecEEC2ERKNS_9OptionSetE
FN:47,52,_ZN5neml212CopyVariableINS_3WR2EEC2ERKNS_9OptionSetE
FN:47,52,_ZN5neml212CopyVariableINS_4SFR3EEC2ERKNS_9OptionSetE
FN:47,52,_ZN5neml212CopyVariableINS_4SFR4EEC2ERKNS_9OptionSetE
FN:47,52,_ZN5neml212CopyVariableINS_4SSR4EEC2ERKNS_9OptionSetE
FN:47,52,_ZN5neml212CopyVariableINS_4SWR4EEC2ERKNS_9OptionSetE
FN:47,52,_ZN5neml212CopyVariableINS_4WFR4EEC2ERKNS_9OptionSetE
FN:47,52,_ZN5neml212CopyVariableINS_4WSR4EEC2ERKNS_9OptionSetE
FN:47,52,_ZN5neml212CopyVariableINS_4WWR4EEC2ERKNS_9OptionSetE
FN:47,52,_ZN5neml212CopyVariableINS_5SFFR4EEC2ERKNS_9OptionSetE
FN:47,52,_ZN5neml212CopyVariableINS_5SSFR5EEC2ERKNS_9OptionSetE
FN:47,52,_ZN5neml212CopyVariableINS_6SSSSR8EEC2ERKNS_9OptionSetE
FN:47,52,_ZN5neml212CopyVariableINS_6ScalarEEC2ERKNS_9OptionSetE
FN:56,69,_ZN5neml212CopyVariableINS_10QuaternionEE9set_valueEbbb
FN:56,69,_ZN5neml212CopyVariableINS_11MillerIndexEE9set_valueEbbb
FN:56,69,_ZN5neml212CopyVariableINS_2R2EE9set_valueEbbb
FN:56,69,_ZN5neml212CopyVariableINS_2R3EE9set_valueEbbb
FN:56,69,_ZN5neml212CopyVariableINS_2R4EE9set_valueEbbb
FN:56,69,_ZN5neml212CopyVariableINS_2R5EE9set_valueEbbb
FN:56,69,_ZN5neml212CopyVariableINS_2R8EE9set_valueEbbb
FN:56,69,_ZN5neml212CopyVariableINS_3RotEE9set_valueEbbb
FN:56,69,_ZN5neml212CopyVariableINS_3SR2EE9set_valueEbbb
FN:56,69,_ZN5neml212CopyVariableINS_3VecEE9set_valueEbbb
FN:56,69,_ZN5neml212CopyVariableINS_3WR2EE9set_valueEbbb
FN:56,69,_ZN5neml212CopyVariableINS_4SFR3EE9set_valueEbbb
FN:56,69,_ZN5neml212CopyVariableINS_4SFR4EE9set_valueEbbb
FN:56,69,_ZN5neml212CopyVariableINS_4SSR4EE9set_valueEbbb
FN:56,69,_ZN5neml212CopyVariableINS_4SWR4EE9set_valueEbbb
FN:56,69,_ZN5neml212CopyVariableINS_4WFR4EE9set_valueEbbb
FN:56,69,_ZN5neml212CopyVariableINS_4WSR4EE9set_valueEbbb
FN:56,69,_ZN5neml212CopyVariableINS_4WWR4EE9set_valueEbbb
FN:56,69,_ZN5neml212CopyVariableINS_5SFFR4EE9set_valueEbbb
FN:56,69,_ZN5neml212CopyVariableINS_5SSFR5EE9set_valueEbbb
FN:56,69,_ZN5neml212CopyVariableINS_6SSSSR8EE9set_valueEbbb
FN:56,69,_ZN5neml212CopyVariableINS_6ScalarEE9set_valueEbbb
FNDA:1,_ZN5neml212CopyVariableINS_10QuaternionEE16expected_optionsEv
FNDA:1,_ZN5neml212CopyVariableINS_11MillerIndexEE16expected_optionsEv
FNDA:1,_ZN5neml212CopyVariableINS_2R2EE16expected_optionsEv
FNDA:1,_ZN5neml212CopyVariableINS_2R3EE16expected_optionsEv
FNDA:1,_ZN5neml212CopyVariableINS_2R4EE16expected_optionsEv
FNDA:1,_ZN5neml212CopyVariableINS_2R5EE16expected_optionsEv
FNDA:1,_ZN5neml212CopyVariableINS_2R8EE16expected_optionsEv
FNDA:1,_ZN5neml212CopyVariableINS_3RotEE16expected_optionsEv
FNDA:1,_ZN5neml212CopyVariableINS_3SR2EE16expected_optionsEv
FNDA:1,_ZN5neml212CopyVariableINS_3VecEE16expected_optionsEv
FNDA:1,_ZN5neml212CopyVariableINS_3WR2EE16expected_optionsEv
FNDA:1,_ZN5neml212CopyVariableINS_4SFR3EE16expected_optionsEv
FNDA:1,_ZN5neml212CopyVariableINS_4SFR4EE16expected_optionsEv
FNDA:1,_ZN5neml212CopyVariableINS_4SSR4EE16expected_optionsEv
FNDA:1,_ZN5neml212CopyVariableINS_4SWR4EE16expected_optionsEv
FNDA:1,_ZN5neml212CopyVariableINS_4WFR4EE16expected_optionsEv
FNDA:1,_ZN5neml212CopyVariableINS_4WSR4EE16expected_optionsEv
FNDA:1,_ZN5neml212CopyVariableINS_4WWR4EE16expected_optionsEv
FNDA:1,_ZN5neml212CopyVariableINS_5SFFR4EE16expected_optionsEv
FNDA:1,_ZN5neml212CopyVariableINS_5SSFR5EE16expected_optionsEv
FNDA:1,_ZN5neml212CopyVariableINS_6SSSSR8EE16expected_optionsEv
FNDA:1,_ZN5neml212CopyVariableINS_6ScalarEE16expected_optionsEv
FNDA:0,_ZN5neml212CopyVariableINS_10QuaternionEEC2ERKNS_9OptionSetE
FNDA:0,_ZN5neml212CopyVariableINS_11MillerIndexEEC2ERKNS_9OptionSetE
FNDA:0,_ZN5neml212CopyVariableINS_2R2EEC2ERKNS_9OptionSetE
FNDA:0,_ZN5neml212CopyVariableINS_2R3EEC2ERKNS_9OptionSetE
FNDA:0,_ZN5neml212CopyVariableINS_2R4EEC2ERKNS_9OptionSetE
FNDA:0,_ZN5neml212CopyVariableINS_2R5EEC2ERKNS_9OptionSetE
FNDA:0,_ZN5neml212CopyVariableINS_2R8EEC2ERKNS_9OptionSetE
FNDA:0,_ZN5neml212CopyVariableINS_3RotEEC2ERKNS_9OptionSetE
FNDA:1,_ZN5neml212CopyVariableINS_3SR2EEC2ERKNS_9OptionSetE
FNDA:0,_ZN5neml212CopyVariableINS_3VecEEC2ERKNS_9OptionSetE
FNDA:0,_ZN5neml212CopyVariableINS_3WR2EEC2ERKNS_9OptionSetE
FNDA:0,_ZN5neml212CopyVariableINS_4SFR3EEC2ERKNS_9OptionSetE
FNDA:0,_ZN5neml212CopyVariableINS_4SFR4EEC2ERKNS_9OptionSetE
FNDA:0,_ZN5neml212CopyVariableINS_4SSR4EEC2ERKNS_9OptionSetE
FNDA:0,_ZN5neml212CopyVariableINS_4SWR4EEC2ERKNS_9OptionSetE
FNDA:0,_ZN5neml212CopyVariableINS_4WFR4EEC2ERKNS_9OptionSetE
FNDA:0,_ZN5neml212CopyVariableINS_4WSR4EEC2ERKNS_9OptionSetE
FNDA:0,_ZN5neml212CopyVariableINS_4WWR4EEC2ERKNS_9OptionSetE
FNDA:0,_ZN5neml212CopyVariableINS_5SFFR4EEC2ERKNS_9OptionSetE
FNDA:0,_ZN5neml212CopyVariableINS_5SSFR5EEC2ERKNS_9OptionSetE
FNDA:0,_ZN5neml212CopyVariableINS_6SSSSR8EEC2ERKNS_9OptionSetE
FNDA:4,_ZN5neml212CopyVariableINS_6ScalarEEC2ERKNS_9OptionSetE
FNDA:0,_ZN5neml212CopyVariableINS_10QuaternionEE9set_valueEbbb
FNDA:0,_ZN5neml212CopyVariableINS_11MillerIndexEE9set_valueEbbb
FNDA:0,_ZN5neml212CopyVariableINS_2R2EE9set_valueEbbb
FNDA:0,_ZN5neml212CopyVariableINS_2R3EE9set_valueEbbb
FNDA:0,_ZN5neml212CopyVariableINS_2R4EE9set_valueEbbb
FNDA:0,_ZN5neml212CopyVariableINS_2R5EE9set_valueEbbb
FNDA:0,_ZN5neml212CopyVariableINS_2R8EE9set_valueEbbb
FNDA:0,_ZN5neml212CopyVariableINS_3RotEE9set_valueEbbb
FNDA:6,_ZN5neml212CopyVariableINS_3SR2EE9set_valueEbbb
FNDA:0,_ZN5neml212CopyVariableINS_3VecEE9set_valueEbbb
FNDA:0,_ZN5neml212CopyVariableINS_3WR2EE9set_valueEbbb
FNDA:0,_ZN5neml212CopyVariableINS_4SFR3EE9set_valueEbbb
FNDA:0,_ZN5neml212CopyVariableINS_4SFR4EE9set_valueEbbb
FNDA:0,_ZN5neml212CopyVariableINS_4SSR4EE9set_valueEbbb
FNDA:0,_ZN5neml212CopyVariableINS_4SWR4EE9set_valueEbbb
FNDA:0,_ZN5neml212CopyVariableINS_4WFR4EE9set_valueEbbb
FNDA:0,_ZN5neml212CopyVariableINS_4WSR4EE9set_valueEbbb
FNDA:0,_ZN5neml212CopyVariableINS_4WWR4EE9set_valueEbbb
FNDA:0,_ZN5neml212CopyVariableINS_5SFFR4EE9set_valueEbbb
FNDA:0,_ZN5neml212CopyVariableINS_5SSFR5EE9set_valueEbbb
FNDA:0,_ZN5neml212CopyVariableINS_6SSSSR8EE9set_valueEbbb
FNDA:3,_ZN5neml212CopyVariableINS_6ScalarEE9set_valueEbbb
FNF:66
FNH:26
DA:32,22
DA:34,22
DA:35,22
DA:37,44
DA:38,44
DA:40,44
DA:41,22
DA:43,22
DA:44,0
DA:47,5
DA:49,5
DA:50,10
DA:52,5
DA:56,9
DA:58,9
DA:59,9
DA:61,9
DA:62,9
DA:63,5
DA:69,9
LF:20
LH:19
end_of_record
TN:
SF:/home/runner/work/neml2/neml2/src/neml2/models/Data.cxx
FN:30,35,_ZN5neml24Data16expected_optionsEv
FN:37,41,_ZN5neml24DataC2ERKNS_9OptionSetE
FNDA:151,_ZN5neml24Data16expected_optionsEv
FNDA:410,_ZN5neml24DataC2ERKNS_9OptionSetE
FNF:2
FNH:2
DA:30,151
DA:32,151
DA:33,151
DA:34,151
DA:35,0
DA:37,410
DA:39,410
DA:41,410
LF:8
LH:7
end_of_record
TN:
SF:/home/runner/work/neml2/neml2/src/neml2/models/ForwardEulerTimeIntegration.cxx
FN:35,54,_ZN5neml227ForwardEulerTimeIntegrationINS_3SR2EE16expected_optionsEv
FN:35,54,_ZN5neml227ForwardEulerTimeIntegrationINS_3VecEE16expected_optionsEv
FN:35,54,_ZN5neml227ForwardEulerTimeIntegrationINS_6ScalarEE16expected_optionsEv
FN:57,67,_ZN5neml227ForwardEulerTimeIntegrationINS_3SR2EEC2ERKNS_9OptionSetE
FN:57,67,_ZN5neml227ForwardEulerTimeIntegrationINS_3VecEEC2ERKNS_9OptionSetE
FN:57,67,_ZN5neml227ForwardEulerTimeIntegrationINS_6ScalarEEC2ERKNS_9OptionSetE
FN:71,77,_ZNK5neml227ForwardEulerTimeIntegrationINS_3SR2EE8diagnoseEv
FN:71,77,_ZNK5neml227ForwardEulerTimeIntegrationINS_3VecEE8diagnoseEv
FN:71,77,_ZNK5neml227ForwardEulerTimeIntegrationINS_6ScalarEE8diagnoseEv
FN:81,99,_ZN5neml227ForwardEulerTimeIntegrationINS_3SR2EE9set_valueEbbb
FN:81,99,_ZN5neml227ForwardEulerTimeIntegrationINS_3VecEE9set_valueEbbb
FN:81,99,_ZN5neml227ForwardEulerTimeIntegrationINS_6ScalarEE9set_valueEbbb
FNDA:1,_ZN5neml227ForwardEulerTimeIntegrationINS_3SR2EE16expected_optionsEv
FNDA:1,_ZN5neml227ForwardEulerTimeIntegrationINS_3VecEE16expected_optionsEv
FNDA:1,_ZN5neml227ForwardEulerTimeIntegrationINS_6ScalarEE16expected_optionsEv
FNDA:3,_ZN5neml227ForwardEulerTimeIntegrationINS_3SR2EEC2ERKNS_9OptionSetE
FNDA:0,_ZN5neml227ForwardEulerTimeIntegrationINS_3VecEEC2ERKNS_9OptionSetE
FNDA:1,_ZN5neml227ForwardEulerTimeIntegrationINS_6ScalarEEC2ERKNS_9OptionSetE
FNDA:3,_ZNK5neml227ForwardEulerTimeIntegrationINS_3SR2EE8diagnoseEv
FNDA:0,_ZNK5neml227ForwardEulerTimeIntegrationINS_3VecEE8diagnoseEv
FNDA:0,_ZNK5neml227ForwardEulerTimeIntegrationINS_6ScalarEE8diagnoseEv
FNDA:6,_ZN5neml227ForwardEulerTimeIntegrationINS_3SR2EE9set_valueEbbb
FNDA:0,_ZN5neml227ForwardEulerTimeIntegrationINS_3VecEE9set_valueEbbb
FNDA:2,_ZN5neml227ForwardEulerTimeIntegrationINS_6ScalarEE9set_valueEbbb
FNF:12
FNH:8
DA:35,3
DA:37,3
DA:38,3
DA:44,6
DA:45,6
DA:47,6
DA:48,3
DA:50,9
DA:51,3
DA:53,3
DA:54,0
DA:57,4
DA:59,4
DA:60,4
DA:61,4
DA:62,16
DA:63,4
DA:64,4
DA:65,8
DA:67,4
DA:71,3
DA:73,3
DA:74,3
DA:75,3
DA:76,3
DA:77,3
DA:81,8
DA:83,8
DA:84,7
DA:86,8
DA:88,1
DA:90,1
DA:92,1
DA:93,0
DA:95,1
DA:96,1
DA:97,1
DA:98,1
LF:38
LH:36
end_of_record
TN:
SF:/home/runner/work/neml2/neml2/src/neml2/models/ImplicitUpdate.cxx
FN:101,106,_ZN5neml214ImplicitUpdate21link_output_variablesEv
FN:109,168,_ZN5neml214ImplicitUpdate9set_valueEbbb
FN:37,55,_ZN5neml214ImplicitUpdate16expected_optionsEv
FN:57,76,_ZN5neml214ImplicitUpdateC2ERKNS_9OptionSetE
FN:79,98,_ZNK5neml214ImplicitUpdate8diagnoseEv
FNDA:9,_ZN5neml214ImplicitUpdate21link_output_variablesEv
FNDA:189,_ZN5neml214ImplicitUpdate9set_valueEbbb
FNDA:1,_ZN5neml214ImplicitUpdate16expected_optionsEv
FNDA:9,_ZN5neml214ImplicitUpdateC2ERKNS_9OptionSetE
FNDA:5,_ZNK5neml214ImplicitUpdate8diagnoseEv
FNF:5
FNH:5
DA:37,1
DA:39,1
DA:40,1
DA:41,1
DA:43,2
DA:44,3
DA:45,1
DA:47,2
DA:48,2
DA:51,2
DA:52,1
DA:54,1
DA:55,0
DA:57,9
DA:59,9
DA:61,54
DA:63,9
DA:65,9
DA:67,9
DA:74,29
DA:75,20
DA:76,9
DA:79,5
DA:81,5
DA:82,5
DA:84,5
DA:85,5
DA:87,5
DA:88,5
DA:90,5
DA:91,15
DA:92,5
DA:95,5
DA:97,5
DA:98,5
DA:101,9
DA:103,9
DA:104,29
DA:105,20
DA:106,9
DA:109,189
DA:112,189
DA:113,189
DA:118,189
DA:121,189
DA:123,189
DA:124,189
DA:125,189
DA:126,189
DA:128,189
DA:140,187
DA:141,26
DA:145,189
DA:148,3
DA:149,3
DA:150,3
DA:151,3
DA:152,3
DA:155,3
DA:158,15
DA:160,12
DA:161,3
DA:163,9
DA:164,9
DA:165,18
DA:167,3
DA:168,189
LF:67
LH:66
end_of_record
TN:
SF:/home/runner/work/neml2/neml2/src/neml2/models/IncrementToRate.cxx
FN:37,55,_ZN5neml215IncrementToRateINS_2R2EE16expected_optionsEv
FN:37,55,_ZN5neml215IncrementToRateINS_3SR2EE16expected_optionsEv
FN:37,55,_ZN5neml215IncrementToRateINS_3VecEE16expected_optionsEv
FN:37,55,_ZN5neml215IncrementToRateINS_6ScalarEE16expected_optionsEv
FN:58,67,_ZN5neml215IncrementToRateINS_2R2EEC2ERKNS_9OptionSetE
FN:58,67,_ZN5neml215IncrementToRateINS_3SR2EEC2ERKNS_9OptionSetE
FN:58,67,_ZN5neml215IncrementToRateINS_3VecEEC2ERKNS_9OptionSetE
FN:58,67,_ZN5neml215IncrementToRateINS_6ScalarEEC2ERKNS_9OptionSetE
FN:71,87,_ZN5neml215IncrementToRateINS_2R2EE9set_valueEbbb
FN:71,87,_ZN5neml215IncrementToRateINS_3SR2EE9set_valueEbbb
FN:71,87,_ZN5neml215IncrementToRateINS_3VecEE9set_valueEbbb
FN:71,87,_ZN5neml215IncrementToRateINS_6ScalarEE9set_valueEbbb
FNDA:1,_ZN5neml215IncrementToRateINS_2R2EE16expected_optionsEv
FNDA:1,_ZN5neml215IncrementToRateINS_3SR2EE16expected_optionsEv
FNDA:1,_ZN5neml215IncrementToRateINS_3VecEE16expected_optionsEv
FNDA:1,_ZN5neml215IncrementToRateINS_6ScalarEE16expected_optionsEv
FNDA:1,_ZN5neml215IncrementToRateINS_2R2EEC2ERKNS_9OptionSetE
FNDA:1,_ZN5neml215IncrementToRateINS_3SR2EEC2ERKNS_9OptionSetE
FNDA:1,_ZN5neml215IncrementToRateINS_3VecEEC2ERKNS_9OptionSetE
FNDA:1,_ZN5neml215IncrementToRateINS_6ScalarEEC2ERKNS_9OptionSetE
FNDA:2,_ZN5neml215IncrementToRateINS_2R2EE9set_valueEbbb
FNDA:2,_ZN5neml215IncrementToRateINS_3SR2EE9set_valueEbbb
FNDA:2,_ZN5neml215IncrementToRateINS_3VecEE9set_valueEbbb
FNDA:2,_ZN5neml215IncrementToRateINS_6ScalarEE9set_valueEbbb
FNF:12
FNH:12
DA:37,4
DA:39,4
DA:40,4
DA:45,8
DA:46,8
DA:48,8
DA:49,4
DA:51,12
DA:52,4
DA:54,4
DA:55,0
DA:58,4
DA:60,4
DA:61,4
DA:62,4
DA:63,4
DA:64,8
DA:65,8
DA:67,4
DA:71,8
DA:73,8
DA:75,8
DA:76,4
DA:78,8
DA:80,4
DA:81,4
DA:82,4
DA:83,4
DA:84,4
DA:85,4
DA:87,8
LF:31
LH:30
end_of_record
TN:
SF:/home/runner/work/neml2/neml2/src/neml2/models/InputParameter.cxx
FN:33,44,_ZN5neml214InputParameterINS_10QuaternionEE16expected_optionsEv
FN:33,44,_ZN5neml214InputParameterINS_11MillerIndexEE16expected_optionsEv
FN:33,44,_ZN5neml214InputParameterINS_2R2EE16expected_optionsEv
FN:33,44,_ZN5neml214InputParameterINS_2R3EE16expected_optionsEv
FN:33,44,_ZN5neml214InputParameterINS_2R4EE16expected_optionsEv
FN:33,44,_ZN5neml214InputParameterINS_2R5EE16expected_optionsEv
FN:33,44,_ZN5neml214InputParameterINS_2R8EE16expected_optionsEv
FN:33,44,_ZN5neml214InputParameterINS_3RotEE16expected_optionsEv
FN:33,44,_ZN5neml214InputParameterINS_3SR2EE16expected_optionsEv
FN:33,44,_ZN5neml214InputParameterINS_3VecEE16expected_optionsEv
FN:33,44,_ZN5neml214InputParameterINS_3WR2EE16expected_optionsEv
FN:33,44,_ZN5neml214InputParameterINS_4SFR3EE16expected_optionsEv
FN:33,44,_ZN5neml214InputParameterINS_4SFR4EE16expected_optionsEv
FN:33,44,_ZN5neml214InputParameterINS_4SSR4EE16expected_optionsEv
FN:33,44,_ZN5neml214InputParameterINS_4SWR4EE16expected_optionsEv
FN:33,44,_ZN5neml214InputParameterINS_4WFR4EE16expected_optionsEv
FN:33,44,_ZN5neml214InputParameterINS_4WSR4EE16expected_optionsEv
FN:33,44,_ZN5neml214InputParameterINS_4WWR4EE16expected_optionsEv
FN:33,44,_ZN5neml214InputParameterINS_5SFFR4EE16expected_optionsEv
FN:33,44,_ZN5neml214InputParameterINS_5SSFR5EE16expected_optionsEv
FN:33,44,_ZN5neml214InputParameterINS_6SSSSR8EE16expected_optionsEv
FN:33,44,_ZN5neml214InputParameterINS_6ScalarEE16expected_optionsEv
FN:47,56,_ZN5neml214InputParameterINS_10QuaternionEEC2ERKNS_9OptionSetE
FN:47,56,_ZN5neml214InputParameterINS_11MillerIndexEEC2ERKNS_9OptionSetE
FN:47,56,_ZN5neml214InputParameterINS_2R2EEC2ERKNS_9OptionSetE
FN:47,56,_ZN5neml214InputParameterINS_2R3EEC2ERKNS_9OptionSetE
FN:47,56,_ZN5neml214InputParameterINS_2R4EEC2ERKNS_9OptionSetE
FN:47,56,_ZN5neml214InputParameterINS_2R5EEC2ERKNS_9OptionSetE
FN:47,56,_ZN5neml214InputParameterINS_2R8EEC2ERKNS_9OptionSetE
FN:47,56,_ZN5neml214InputParameterINS_3RotEEC2ERKNS_9OptionSetE
FN:47,56,_ZN5neml214InputParameterINS_3SR2EEC2ERKNS_9OptionSetE
FN:47,56,_ZN5neml214InputParameterINS_3VecEEC2ERKNS_9OptionSetE
FN:47,56,_ZN5neml214InputParameterINS_3WR2EEC2ERKNS_9OptionSetE
FN:47,56,_ZN5neml214InputParameterINS_4SFR3EEC2ERKNS_9OptionSetE
FN:47,56,_ZN5neml214InputParameterINS_4SFR4EEC2ERKNS_9OptionSetE
FN:47,56,_ZN5neml214InputParameterINS_4SSR4EEC2ERKNS_9OptionSetE
FN:47,56,_ZN5neml214InputParameterINS_4SWR4EEC2ERKNS_9OptionSetE
FN:47,56,_ZN5neml214InputParameterINS_4WFR4EEC2ERKNS_9OptionSetE
FN:47,56,_ZN5neml214InputParameterINS_4WSR4EEC2ERKNS_9OptionSetE
FN:47,56,_ZN5neml214InputParameterINS_4WWR4EEC2ERKNS_9OptionSetE
FN:47,56,_ZN5neml214InputParameterINS_5SFFR4EEC2ERKNS_9OptionSetE
FN:47,56,_ZN5neml214InputParameterINS_5SSFR5EEC2ERKNS_9OptionSetE
FN:47,56,_ZN5neml214InputParameterINS_6SSSSR8EEC2ERKNS_9OptionSetE
FN:47,56,_ZN5neml214InputParameterINS_6ScalarEEC2ERKNS_9OptionSetE
FN:60,68,_ZN5neml214InputParameterINS_10QuaternionEE9set_valueEbbb
FN:60,68,_ZN5neml214InputParameterINS_11MillerIndexEE9set_valueEbbb
FN:60,68,_ZN5neml214InputParameterINS_2R2EE9set_valueEbbb
FN:60,68,_ZN5neml214InputParameterINS_2R3EE9set_valueEbbb
FN:60,68,_ZN5neml214InputParameterINS_2R4EE9set_valueEbbb
FN:60,68,_ZN5neml214InputParameterINS_2R5EE9set_valueEbbb
FN:60,68,_ZN5neml214InputParameterINS_2R8EE9set_valueEbbb
FN:60,68,_ZN5neml214InputParameterINS_3RotEE9set_valueEbbb
FN:60,68,_ZN5neml214InputParameterINS_3SR2EE9set_valueEbbb
FN:60,68,_ZN5neml214InputParameterINS_3VecEE9set_valueEbbb
FN:60,68,_ZN5neml214InputParameterINS_3WR2EE9set_valueEbbb
FN:60,68,_ZN5neml214InputParameterINS_4SFR3EE9set_valueEbbb
FN:60,68,_ZN5neml214InputParameterINS_4SFR4EE9set_valueEbbb
FN:60,68,_ZN5neml214InputParameterINS_4SSR4EE9set_valueEbbb
FN:60,68,_ZN5neml214InputParameterINS_4SWR4EE9set_valueEbbb
FN:60,68,_ZN5neml214InputParameterINS_4WFR4EE9set_valueEbbb
FN:60,68,_ZN5neml214InputParameterINS_4WSR4EE9set_valueEbbb
FN:60,68,_ZN5neml214InputParameterINS_4WWR4EE9set_valueEbbb
FN:60,68,_ZN5neml214InputParameterINS_5SFFR4EE9set_valueEbbb
FN:60,68,_ZN5neml214InputParameterINS_5SSFR5EE9set_valueEbbb
FN:60,68,_ZN5neml214InputParameterINS_6SSSSR8EE9set_valueEbbb
FN:60,68,_ZN5neml214InputParameterINS_6ScalarEE9set_valueEbbb
FNDA:1,_ZN5neml214InputParameterINS_10QuaternionEE16expected_optionsEv
FNDA:1,_ZN5neml214InputParameterINS_11MillerIndexEE16expected_optionsEv
FNDA:1,_ZN5neml214InputParameterINS_2R2EE16expected_optionsEv
FNDA:1,_ZN5neml214InputParameterINS_2R3EE16expected_optionsEv
FNDA:1,_ZN5neml214InputParameterINS_2R4EE16expected_optionsEv
FNDA:1,_ZN5neml214InputParameterINS_2R5EE16expected_optionsEv
FNDA:1,_ZN5neml214InputParameterINS_2R8EE16expected_optionsEv
FNDA:1,_ZN5neml214InputParameterINS_3RotEE16expected_optionsEv
FNDA:1,_ZN5neml214InputParameterINS_3SR2EE16expected_optionsEv
FNDA:1,_ZN5neml214InputParameterINS_3VecEE16expected_optionsEv
FNDA:1,_ZN5neml214InputParameterINS_3WR2EE16expected_optionsEv
FNDA:1,_ZN5neml214InputParameterINS_4SFR3EE16expected_optionsEv
FNDA:1,_ZN5neml214InputParameterINS_4SFR4EE16expected_optionsEv
FNDA:1,_ZN5neml214InputParameterINS_4SSR4EE16expected_optionsEv
FNDA:1,_ZN5neml214InputParameterINS_4SWR4EE16expected_optionsEv
FNDA:1,_ZN5neml214InputParameterINS_4WFR4EE16expected_optionsEv
FNDA:1,_ZN5neml214InputParameterINS_4WSR4EE16expected_optionsEv
FNDA:1,_ZN5neml214InputParameterINS_4WWR4EE16expected_optionsEv
FNDA:1,_ZN5neml214InputParameterINS_5SFFR4EE16expected_optionsEv
FNDA:1,_ZN5neml214InputParameterINS_5SSFR5EE16expected_optionsEv
FNDA:1,_ZN5neml214InputParameterINS_6SSSSR8EE16expected_optionsEv
FNDA:1,_ZN5neml214InputParameterINS_6ScalarEE16expected_optionsEv
FNDA:0,_ZN5neml214InputParameterINS_10QuaternionEEC2ERKNS_9OptionSetE
FNDA:0,_ZN5neml214InputParameterINS_11MillerIndexEEC2ERKNS_9OptionSetE
FNDA:0,_ZN5neml214InputParameterINS_2R2EEC2ERKNS_9OptionSetE
FNDA:0,_ZN5neml214InputParameterINS_2R3EEC2ERKNS_9OptionSetE
FNDA:0,_ZN5neml214InputParameterINS_2R4EEC2ERKNS_9OptionSetE
FNDA:0,_ZN5neml214InputParameterINS_2R5EEC2ERKNS_9OptionSetE
FNDA:0,_ZN5neml214InputParameterINS_2R8EEC2ERKNS_9OptionSetE
FNDA:0,_ZN5neml214InputParameterINS_3RotEEC2ERKNS_9OptionSetE
FNDA:0,_ZN5neml214InputParameterINS_3SR2EEC2ERKNS_9OptionSetE
FNDA:0,_ZN5neml214InputParameterINS_3VecEEC2ERKNS_9OptionSetE
FNDA:0,_ZN5neml214InputParameterINS_3WR2EEC2ERKNS_9OptionSetE
FNDA:0,_ZN5neml214InputParameterINS_4SFR3EEC2ERKNS_9OptionSetE
FNDA:0,_ZN5neml214InputParameterINS_4SFR4EEC2ERKNS_9OptionSetE
FNDA:2,_ZN5neml214InputParameterINS_4SSR4EEC2ERKNS_9OptionSetE
FNDA:0,_ZN5neml214InputParameterINS_4SWR4EEC2ERKNS_9OptionSetE
FNDA:0,_ZN5neml214InputParameterINS_4WFR4EEC2ERKNS_9OptionSetE
FNDA:0,_ZN5neml214InputParameterINS_4WSR4EEC2ERKNS_9OptionSetE
FNDA:0,_ZN5neml214InputParameterINS_4WWR4EEC2ERKNS_9OptionSetE
FNDA:0,_ZN5neml214InputParameterINS_5SFFR4EEC2ERKNS_9OptionSetE
FNDA:0,_ZN5neml214InputParameterINS_5SSFR5EEC2ERKNS_9OptionSetE
FNDA:0,_ZN5neml214InputParameterINS_6SSSSR8EEC2ERKNS_9OptionSetE
FNDA:54,_ZN5neml214InputParameterINS_6ScalarEEC2ERKNS_9OptionSetE
FNDA:0,_ZN5neml214InputParameterINS_10QuaternionEE9set_valueEbbb
FNDA:0,_ZN5neml214InputParameterINS_11MillerIndexEE9set_valueEbbb
FNDA:0,_ZN5neml214InputParameterINS_2R2EE9set_valueEbbb
FNDA:0,_ZN5neml214InputParameterINS_2R3EE9set_valueEbbb
FNDA:0,_ZN5neml214InputParameterINS_2R4EE9set_valueEbbb
FNDA:0,_ZN5neml214InputParameterINS_2R5EE9set_valueEbbb
FNDA:0,_ZN5neml214InputParameterINS_2R8EE9set_valueEbbb
FNDA:0,_ZN5neml214InputParameterINS_3RotEE9set_valueEbbb
FNDA:0,_ZN5neml214InputParameterINS_3SR2EE9set_valueEbbb
FNDA:0,_ZN5neml214InputParameterINS_3VecEE9set_valueEbbb
FNDA:0,_ZN5neml214InputParameterINS_3WR2EE9set_valueEbbb
FNDA:0,_ZN5neml214InputParameterINS_4SFR3EE9set_valueEbbb
FNDA:0,_ZN5neml214InputParameterINS_4SFR4EE9set_valueEbbb
FNDA:4,_ZN5neml214InputParameterINS_4SSR4EE9set_valueEbbb
FNDA:0,_ZN5neml214InputParameterINS_4SWR4EE9set_valueEbbb
FNDA:0,_ZN5neml214InputParameterINS_4WFR4EE9set_valueEbbb
FNDA:0,_ZN5neml214InputParameterINS_4WSR4EE9set_valueEbbb
FNDA:0,_ZN5neml214InputParameterINS_4WWR4EE9set_valueEbbb
FNDA:0,_ZN5neml214InputParameterINS_5SFFR4EE9set_valueEbbb
FNDA:0,_ZN5neml214InputParameterINS_5SSFR5EE9set_valueEbbb
FNDA:0,_ZN5neml214InputParameterINS_6SSSSR8EE9set_valueEbbb
FNDA:123,_ZN5neml214InputParameterINS_6ScalarEE9set_valueEbbb
FNF:66
FNH:26
DA:33,22
DA:35,22
DA:36,22
DA:39,44
DA:41,44
DA:42,22
DA:43,22
DA:44,0
DA:47,56
DA:49,56
DA:51,56
DA:54,56
DA:56,56
DA:60,127
DA:62,127
DA:63,127
DA:65,127
DA:66,71
DA:67,71
DA:68,127
LF:20
LH:19
end_of_record
TN:
SF:/home/runner/work/neml2/neml2/src/neml2/models/Interpolation.cxx
FN:33,54,_ZN5neml213InterpolationINS_10QuaternionEE16expected_optionsEv
FN:33,54,_ZN5neml213InterpolationINS_11MillerIndexEE16expected_optionsEv
FN:33,54,_ZN5neml213InterpolationINS_2R2EE16expected_optionsEv
FN:33,54,_ZN5neml213InterpolationINS_2R3EE16expected_optionsEv
FN:33,54,_ZN5neml213InterpolationINS_2R4EE16expected_optionsEv
FN:33,54,_ZN5neml213InterpolationINS_2R5EE16expected_optionsEv
FN:33,54,_ZN5neml213InterpolationINS_2R8EE16expected_optionsEv
FN:33,54,_ZN5neml213InterpolationINS_3RotEE16expected_optionsEv
FN:33,54,_ZN5neml213InterpolationINS_3SR2EE16expected_optionsEv
FN:33,54,_ZN5neml213InterpolationINS_3VecEE16expected_optionsEv
FN:33,54,_ZN5neml213InterpolationINS_3WR2EE16expected_optionsEv
FN:33,54,_ZN5neml213InterpolationINS_4SFR3EE16expected_optionsEv
FN:33,54,_ZN5neml213InterpolationINS_4SFR4EE16expected_optionsEv
FN:33,54,_ZN5neml213InterpolationINS_4SSR4EE16expected_optionsEv
FN:33,54,_ZN5neml213InterpolationINS_4SWR4EE16expected_optionsEv
FN:33,54,_ZN5neml213InterpolationINS_4WFR4EE16expected_optionsEv
FN:33,54,_ZN5neml213InterpolationINS_4WSR4EE16expected_optionsEv
FN:33,54,_ZN5neml213InterpolationINS_4WWR4EE16expected_optionsEv
FN:33,54,_ZN5neml213InterpolationINS_5SFFR4EE16expected_optionsEv
FN:33,54,_ZN5neml213InterpolationINS_5SSFR5EE16expected_optionsEv
FN:33,54,_ZN5neml213InterpolationINS_6SSSSR8EE16expected_optionsEv
FN:33,54,_ZN5neml213InterpolationINS_6ScalarEE16expected_optionsEv
FN:57,63,_ZN5neml213InterpolationINS_10QuaternionEEC2ERKNS_9OptionSetE
FN:57,63,_ZN5neml213InterpolationINS_11MillerIndexEEC2ERKNS_9OptionSetE
FN:57,63,_ZN5neml213InterpolationINS_2R2EEC2ERKNS_9OptionSetE
FN:57,63,_ZN5neml213InterpolationINS_2R3EEC2ERKNS_9OptionSetE
FN:57,63,_ZN5neml213InterpolationINS_2R4EEC2ERKNS_9OptionSetE
FN:57,63,_ZN5neml213InterpolationINS_2R5EEC2ERKNS_9OptionSetE
FN:57,63,_ZN5neml213InterpolationINS_2R8EEC2ERKNS_9OptionSetE
FN:57,63,_ZN5neml213InterpolationINS_3RotEEC2ERKNS_9OptionSetE
FN:57,63,_ZN5neml213InterpolationINS_3SR2EEC2ERKNS_9OptionSetE
FN:57,63,_ZN5neml213InterpolationINS_3VecEEC2ERKNS_9OptionSetE
FN:57,63,_ZN5neml213InterpolationINS_3WR2EEC2ERKNS_9OptionSetE
FN:57,63,_ZN5neml213InterpolationINS_4SFR3EEC2ERKNS_9OptionSetE
FN:57,63,_ZN5neml213InterpolationINS_4SFR4EEC2ERKNS_9OptionSetE
FN:57,63,_ZN5neml213InterpolationINS_4SSR4EEC2ERKNS_9OptionSetE
FN:57,63,_ZN5neml213InterpolationINS_4SWR4EEC2ERKNS_9OptionSetE
FN:57,63,_ZN5neml213InterpolationINS_4WFR4EEC2ERKNS_9OptionSetE
FN:57,63,_ZN5neml213InterpolationINS_4WSR4EEC2ERKNS_9OptionSetE
FN:57,63,_ZN5neml213InterpolationINS_4WWR4EEC2ERKNS_9OptionSetE
FN:57,63,_ZN5neml213InterpolationINS_5SFFR4EEC2ERKNS_9OptionSetE
FN:57,63,_ZN5neml213InterpolationINS_5SSFR5EEC2ERKNS_9OptionSetE
FN:57,63,_ZN5neml213InterpolationINS_6SSSSR8EEC2ERKNS_9OptionSetE
FN:57,63,_ZN5neml213InterpolationINS_6ScalarEEC2ERKNS_9OptionSetE
FNDA:0,_ZN5neml213InterpolationINS_10QuaternionEE16expected_optionsEv
FNDA:0,_ZN5neml213InterpolationINS_11MillerIndexEE16expected_optionsEv
FNDA:0,_ZN5neml213InterpolationINS_2R2EE16expected_optionsEv
FNDA:0,_ZN5neml213InterpolationINS_2R3EE16expected_optionsEv
FNDA:0,_ZN5neml213InterpolationINS_2R4EE16expected_optionsEv
FNDA:0,_ZN5neml213InterpolationINS_2R5EE16expected_optionsEv
FNDA:0,_ZN5neml213InterpolationINS_2R8EE16expected_optionsEv
FNDA:0,_ZN5neml213InterpolationINS_3RotEE16expected_optionsEv
FNDA:1,_ZN5neml213InterpolationINS_3SR2EE16expected_optionsEv
FNDA:1,_ZN5neml213InterpolationINS_3VecEE16expected_optionsEv
FNDA:0,_ZN5neml213InterpolationINS_3WR2EE16expected_optionsEv
FNDA:0,_ZN5neml213InterpolationINS_4SFR3EE16expected_optionsEv
FNDA:0,_ZN5neml213InterpolationINS_4SFR4EE16expected_optionsEv
FNDA:0,_ZN5neml213InterpolationINS_4SSR4EE16expected_optionsEv
FNDA:0,_ZN5neml213InterpolationINS_4SWR4EE16expected_optionsEv
FNDA:0,_ZN5neml213InterpolationINS_4WFR4EE16expected_optionsEv
FNDA:0,_ZN5neml213InterpolationINS_4WSR4EE16expected_optionsEv
FNDA:0,_ZN5neml213InterpolationINS_4WWR4EE16expected_optionsEv
FNDA:0,_ZN5neml213InterpolationINS_5SFFR4EE16expected_optionsEv
FNDA:0,_ZN5neml213InterpolationINS_5SSFR5EE16expected_optionsEv
FNDA:0,_ZN5neml213InterpolationINS_6SSSSR8EE16expected_optionsEv
FNDA:1,_ZN5neml213InterpolationINS_6ScalarEE16expected_optionsEv
FNDA:0,_ZN5neml213InterpolationINS_10QuaternionEEC2ERKNS_9OptionSetE
FNDA:0,_ZN5neml213InterpolationINS_11MillerIndexEEC2ERKNS_9OptionSetE
FNDA:0,_ZN5neml213InterpolationINS_2R2EEC2ERKNS_9OptionSetE
FNDA:0,_ZN5neml213InterpolationINS_2R3EEC2ERKNS_9OptionSetE
FNDA:0,_ZN5neml213InterpolationINS_2R4EEC2ERKNS_9OptionSetE
FNDA:0,_ZN5neml213InterpolationINS_2R5EEC2ERKNS_9OptionSetE
FNDA:0,_ZN5neml213InterpolationINS_2R8EEC2ERKNS_9OptionSetE
FNDA:0,_ZN5neml213InterpolationINS_3RotEEC2ERKNS_9OptionSetE
FNDA:4,_ZN5neml213InterpolationINS_3SR2EEC2ERKNS_9OptionSetE
FNDA:0,_ZN5neml213InterpolationINS_3VecEEC2ERKNS_9OptionSetE
FNDA:0,_ZN5neml213InterpolationINS_3WR2EEC2ERKNS_9OptionSetE
FNDA:0,_ZN5neml213InterpolationINS_4SFR3EEC2ERKNS_9OptionSetE
FNDA:0,_ZN5neml213InterpolationINS_4SFR4EEC2ERKNS_9OptionSetE
FNDA:0,_ZN5neml213InterpolationINS_4SSR4EEC2ERKNS_9OptionSetE
FNDA:0,_ZN5neml213InterpolationINS_4SWR4EEC2ERKNS_9OptionSetE
FNDA:0,_ZN5neml213InterpolationINS_4WFR4EEC2ERKNS_9OptionSetE
FNDA:0,_ZN5neml213InterpolationINS_4WSR4EEC2ERKNS_9OptionSetE
FNDA:0,_ZN5neml213InterpolationINS_4WWR4EEC2ERKNS_9OptionSetE
FNDA:0,_ZN5neml213InterpolationINS_5SFFR4EEC2ERKNS_9OptionSetE
FNDA:0,_ZN5neml213InterpolationINS_5SSFR5EEC2ERKNS_9OptionSetE
FNDA:0,_ZN5neml213InterpolationINS_6SSSSR8EEC2ERKNS_9OptionSetE
FNDA:5,_ZN5neml213InterpolationINS_6ScalarEEC2ERKNS_9OptionSetE
FNF:44
FNH:5
DA:33,3
DA:37,3
DA:39,3
DA:40,3
DA:44,6
DA:45,6
DA:47,6
DA:48,6
DA:50,3
DA:51,9
DA:53,6
DA:54,3
DA:57,9
DA:59,27
DA:60,36
DA:61,18
DA:63,9
LF:17
LH:17
end_of_record
TN:
SF:/home/runner/work/neml2/neml2/src/neml2/models/LinearCombination.cxx
FN:113,140,_ZN5neml217LinearCombinationINS_3SR2EE9set_valueEbbb
FN:113,140,_ZN5neml217LinearCombinationINS_3VecEE9set_valueEbbb
FN:113,140,_ZN5neml217LinearCombinationINS_6ScalarEE9set_valueEbbb
FN:36,68,_ZN5neml217LinearCombinationINS_3SR2EE16expected_optionsEv
FN:36,68,_ZN5neml217LinearCombinationINS_3VecEE16expected_optionsEv
FN:36,68,_ZN5neml217LinearCombinationINS_6ScalarEE16expected_optionsEv
FN:71,109,_ZN5neml217LinearCombinationINS_3SR2EEC2ERKNS_9OptionSetE
FN:71,109,_ZN5neml217LinearCombinationINS_3VecEEC2ERKNS_9OptionSetE
FN:71,109,_ZN5neml217LinearCombinationINS_6ScalarEEC2ERKNS_9OptionSetE
FNDA:48,_ZN5neml217LinearCombinationINS_3SR2EE9set_valueEbbb
FNDA:0,_ZN5neml217LinearCombinationINS_3VecEE9set_valueEbbb
FNDA:12,_ZN5neml217LinearCombinationINS_6ScalarEE9set_valueEbbb
FNDA:1,_ZN5neml217LinearCombinationINS_3SR2EE16expected_optionsEv
FNDA:1,_ZN5neml217LinearCombinationINS_3VecEE16expected_optionsEv
FNDA:3,_ZN5neml217LinearCombinationINS_6ScalarEE16expected_optionsEv
FNDA:11,_ZN5neml217LinearCombinationINS_3SR2EEC2ERKNS_9OptionSetE
FNDA:0,_ZN5neml217LinearCombinationINS_3VecEEC2ERKNS_9OptionSetE
FNDA:8,_ZN5neml217LinearCombinationINS_6ScalarEEC2ERKNS_9OptionSetE
FNF:9
FNH:7
DA:36,5
DA:40,5
DA:42,5
DA:43,5
DA:47,10
DA:49,5
DA:50,15
DA:52,10
DA:53,5
DA:55,15
DA:56,5
DA:61,15
DA:62,5
DA:67,10
DA:68,25
DA:71,19
DA:73,19
DA:75,78
DA:76,40
DA:78,19
DA:79,19
DA:81,19
DA:83,19
DA:87,19
DA:88,17
DA:90,19
DA:91,19
DA:93,19
DA:95,19
DA:99,19
DA:100,59
DA:102,40
DA:103,40
DA:104,8
DA:105,4
DA:107,36
DA:109,19
DA:113,60
DA:115,60
DA:117,58
DA:118,118
DA:119,60
DA:120,58
DA:121,58
DA:123,60
DA:125,35
DA:126,106
DA:128,71
DA:129,65
DA:131,71
DA:132,4
DA:134,35
DA:140,60
LF:53
LH:53
end_of_record
TN:
SF:/home/runner/work/neml2/neml2/src/neml2/models/LinearInterpolation.cxx
FN:35,41,_ZN5neml219LinearInterpolationINS_3SR2EE16expected_optionsEv
FN:35,41,_ZN5neml219LinearInterpolationINS_3VecEE16expected_optionsEv
FN:35,41,_ZN5neml219LinearInterpolationINS_6ScalarEE16expected_optionsEv
FN:44,47,_ZN5neml219LinearInterpolationINS_3SR2EEC2ERKNS_9OptionSetE
FN:44,47,_ZN5neml219LinearInterpolationINS_3VecEEC2ERKNS_9OptionSetE
FN:44,47,_ZN5neml219LinearInterpolationINS_6ScalarEEC2ERKNS_9OptionSetE
FN:51,82,_ZN5neml219LinearInterpolationINS_3SR2EE9set_valueEbbb
FN:51,82,_ZN5neml219LinearInterpolationINS_3VecEE9set_valueEbbb
FN:51,82,_ZN5neml219LinearInterpolationINS_6ScalarEE9set_valueEbbb
FNDA:1,_ZN5neml219LinearInterpolationINS_3SR2EE16expected_optionsEv
FNDA:1,_ZN5neml219LinearInterpolationINS_3VecEE16expected_optionsEv
FNDA:1,_ZN5neml219LinearInterpolationINS_6ScalarEE16expected_optionsEv
FNDA:4,_ZN5neml219LinearInterpolationINS_3SR2EEC2ERKNS_9OptionSetE
FNDA:0,_ZN5neml219LinearInterpolationINS_3VecEEC2ERKNS_9OptionSetE
FNDA:5,_ZN5neml219LinearInterpolationINS_6ScalarEEC2ERKNS_9OptionSetE
FNDA:12,_ZN5neml219LinearInterpolationINS_3SR2EE9set_valueEbbb
FNDA:0,_ZN5neml219LinearInterpolationINS_3VecEE9set_valueEbbb
FNDA:15,_ZN5neml219LinearInterpolationINS_6ScalarEE9set_valueEbbb
FNF:9
FNH:7
DA:35,3
DA:37,3
DA:38,3
DA:39,3
DA:40,3
DA:41,0
DA:44,9
DA:45,9
DA:47,9
DA:51,27
DA:53,27
DA:54,27
DA:55,108
DA:57,108
DA:59,108
DA:62,27
DA:63,27
DA:65,27
DA:67,27
DA:69,11
DA:70,11
DA:71,11
DA:72,11
DA:74,27
DA:75,10
DA:76,10
DA:82,189
LF:27
LH:26
end_of_record
TN:
SF:/home/runner/work/neml2/neml2/src/neml2/models/Model.cxx
FN:109,122,_ZN5neml25ModelC2ERKNS_9OptionSetE
FN:125,133,_ZN5neml25Model2toERKN3c1013TensorOptionsE
FN:136,147,_ZN5neml25Model5setupEv
FN:150,163,_ZNK5neml25Model8diagnoseEv
FN:166,187,_ZNK5neml25Model15diagnose_nl_sysEv
FN:190,193,_ZNK5neml25Model23diagnostic_assert_stateERKNS_12VariableBaseE
FN:196,200,_ZNK5neml25Model27diagnostic_assert_old_stateERKNS_12VariableBaseE
FN:203,206,_ZNK5neml25Model23diagnostic_assert_forceERKNS_12VariableBaseE
FN:209,213,_ZNK5neml25Model27diagnostic_assert_old_forceERKNS_12VariableBaseE
FN:216,220,_ZNK5neml25Model26diagnostic_assert_residualERKNS_12VariableBaseE
FN:223,242,_ZNK5neml25Model31diagnostic_check_input_variableERKNS_12VariableBaseE
FN:245,259,_ZNK5neml25Model32diagnostic_check_output_variableERKNS_12VariableBaseE
FN:262,269,_ZN5neml25Model20link_input_variablesEv
FN:272,276,_ZN5neml25Model20link_input_variablesEPS0_
FN:279,286,_ZN5neml25Model21link_output_variablesEv
FN:289,291,_ZN5neml25Model21link_output_variablesEPS0_
FN:294,305,_ZN5neml25Model10request_ADERNS_12VariableBaseERKS1_
FN:308,319,_ZN5neml25Model10request_ADERNS_12VariableBaseERKS1_S4_
FN:322,327,_ZN5neml25Model11clear_inputEv
FN:330,335,_ZN5neml25Model12clear_outputEv
FN:338,343,_ZN5neml25Model10zero_inputEv
FN:346,351,_ZN5neml25Model11zero_outputEv
FN:354,365,_ZNK5neml25Model20compute_trace_schemaEv
FN:368,371,_ZNK5neml25Model22forward_operator_indexEbbb
FN:374,400,_ZN5neml25Model7forwardEbbb
FN:40,44,_ZN5neml29get_modelERKSsb
FN:403,449,_ZN5neml25Model17forward_maybe_jitEbbb
FN:428,433,_ZZN5neml25Model17forward_maybe_jitEbbbENKUlSt6vectorIN3c106IValueESaIS3_EEE_clES5_
FN:437,437,_ZZN5neml25Model17forward_maybe_jitEbbbENKUlRKN2at6TensorEE_clES4_
FN:452,479,_ZN5neml25Model20variable_name_lookupERKN2at6TensorE
FN:47,51,_ZN5neml210load_modelERKNSt10filesystem4pathERKSs
FN:482,493,_ZN5neml25Model5valueERKSt3mapINS_19LabeledAxisAccessorENS_6TensorESt4lessIS2_ESaISt4pairIKS2_S3_EEE
FN:496,508,_ZN5neml25Model16value_and_dvalueERKSt3mapINS_19LabeledAxisAccessorENS_6TensorESt4lessIS2_ESaISt4pairIKS2_S3_EEE
FN:511,522,_ZN5neml25Model6dvalueERKSt3mapINS_19LabeledAxisAccessorENS_6TensorESt4lessIS2_ESaISt4pairIKS2_S3_EEE
FN:525,538,_ZN5neml25Model28value_and_dvalue_and_d2valueERKSt3mapINS_19LabeledAxisAccessorENS_6TensorESt4lessIS2_ESaISt4pairIKS2_S3_EEE
FN:54,58,_ZN5neml212reload_modelERKNSt10filesystem4pathERKSs
FN:541,553,_ZN5neml25Model18dvalue_and_d2valueERKSt3mapINS_19LabeledAxisAccessorENS_6TensorESt4lessIS2_ESaISt4pairIKS2_S3_EEE
FN:556,567,_ZN5neml25Model7d2valueERKSt3mapINS_19LabeledAxisAccessorENS_6TensorESt4lessIS2_ESaISt4pairIKS2_S3_EEE
FN:570,578,_ZNK5neml25Model16registered_modelERKSs
FN:581,585,_ZNK5neml25Model14consumed_itemsEv
FN:588,592,_ZNK5neml25Model14provided_itemsEv
FN:595,610,_ZN5neml25Model18assign_input_stackERSt6vectorIN3c106IValueESaIS3_EE
FN:61,64,_ZNK5neml25Model11TraceSchemaeqERKS1_
FN:613,623,_ZNK5neml25Model19collect_input_stackEv
FN:626,630,_ZN5neml25Model9set_guessERKNS_15NonlinearSystem3SolILb0EEE
FN:633,648,_ZN5neml25Model8assembleEPNS_15NonlinearSystem3ResILb0EEEPNS1_3JacILb0EEE
FN:651,664,_ZNK5neml25Model13AD_need_valueEbb
FN:667,671,_ZN5neml25Model9enable_ADEv
FN:67,72,_ZNK5neml25Model11TraceSchemaltERKS1_
FN:674,748,_ZN5neml25Model22extract_AD_derivativesEbb
FN:75,107,_ZN5neml25Model16expected_optionsEv
FNDA:375,_ZN5neml25ModelC2ERKNS_9OptionSetE
FNDA:0,_ZN5neml25Model2toERKN3c1013TensorOptionsE
FNDA:375,_ZN5neml25Model5setupEv
FNDA:96,_ZNK5neml25Model8diagnoseEv
FNDA:72,_ZNK5neml25Model15diagnose_nl_sysEv
FNDA:26,_ZNK5neml25Model23diagnostic_assert_stateERKNS_12VariableBaseE
FNDA:0,_ZNK5neml25Model27diagnostic_assert_old_stateERKNS_12VariableBaseE
FNDA:19,_ZNK5neml25Model23diagnostic_assert_forceERKNS_12VariableBaseE
FNDA:0,_ZNK5neml25Model27diagnostic_assert_old_forceERKNS_12VariableBaseE
FNDA:0,_ZNK5neml25Model26diagnostic_assert_residualERKNS_12VariableBaseE
FNDA:295,_ZNK5neml25Model31diagnostic_check_input_variableERKNS_12VariableBaseE
FNDA:117,_ZNK5neml25Model32diagnostic_check_output_variableERKNS_12VariableBaseE
FNDA:376,_ZN5neml25Model20link_input_variablesEv
FNDA:13,_ZN5neml25Model20link_input_variablesEPS0_
FNDA:376,_ZN5neml25Model21link_output_variablesEv
FNDA:13,_ZN5neml25Model21link_output_variablesEPS0_
FNDA:14,_ZN5neml25Model10request_ADERNS_12VariableBaseERKS1_
FNDA:48,_ZN5neml25Model10request_ADERNS_12VariableBaseERKS1_S4_
FNDA:7630,_ZN5neml25Model11clear_inputEv
FNDA:7630,_ZN5neml25Model12clear_outputEv
FNDA:7630,_ZN5neml25Model10zero_inputEv
FNDA:7630,_ZN5neml25Model11zero_outputEv
FNDA:5583,_ZNK5neml25Model20compute_trace_schemaEv
FNDA:5583,_ZNK5neml25Model22forward_operator_indexEbbb
FNDA:1246,_ZN5neml25Model7forwardEbbb
FNDA:136,_ZN5neml29get_modelERKSsb
FNDA:6522,_ZN5neml25Model17forward_maybe_jitEbbb
FNDA:307,_ZZN5neml25Model17forward_maybe_jitEbbbENKUlSt6vectorIN3c106IValueESaIS3_EEE_clES5_
FNDA:33398,_ZZN5neml25Model17forward_maybe_jitEbbbENKUlRKN2at6TensorEE_clES4_
FNDA:281567,_ZN5neml25Model20variable_name_lookupERKN2at6TensorE
FNDA:10,_ZN5neml210load_modelERKNSt10filesystem4pathERKSs
FNDA:1930,_ZN5neml25Model5valueERKSt3mapINS_19LabeledAxisAccessorENS_6TensorESt4lessIS2_ESaISt4pairIKS2_S3_EEE
FNDA:0,_ZN5neml25Model16value_and_dvalueERKSt3mapINS_19LabeledAxisAccessorENS_6TensorESt4lessIS2_ESaISt4pairIKS2_S3_EEE
FNDA:606,_ZN5neml25Model6dvalueERKSt3mapINS_19LabeledAxisAccessorENS_6TensorESt4lessIS2_ESaISt4pairIKS2_S3_EEE
FNDA:0,_ZN5neml25Model28value_and_dvalue_and_d2valueERKSt3mapINS_19LabeledAxisAccessorENS_6TensorESt4lessIS2_ESaISt4pairIKS2_S3_EEE
FNDA:10,_ZN5neml212reload_modelERKNSt10filesystem4pathERKSs
FNDA:0,_ZN5neml25Model18dvalue_and_d2valueERKSt3mapINS_19LabeledAxisAccessorENS_6TensorESt4lessIS2_ESaISt4pairIKS2_S3_EEE
FNDA:34,_ZN5neml25Model7d2valueERKSt3mapINS_19LabeledAxisAccessorENS_6TensorESt4lessIS2_ESaISt4pairIKS2_S3_EEE
FNDA:0,_ZNK5neml25Model16registered_modelERKSs
FNDA:226,_ZNK5neml25Model14consumed_itemsEv
FNDA:226,_ZNK5neml25Model14provided_itemsEv
FNDA:307,_ZN5neml25Model18assign_input_stackERSt6vectorIN3c106IValueESaIS3_EE
FNDA:0,_ZNK5neml25Model11TraceSchemaeqERKS1_
FNDA:5583,_ZNK5neml25Model19collect_input_stackEv
FNDA:1563,_ZN5neml25Model9set_guessERKNS_15NonlinearSystem3SolILb0EEE
FNDA:2807,_ZN5neml25Model8assembleEPNS_15NonlinearSystem3ResILb0EEEPNS1_3JacILb0EEE
FNDA:190,_ZNK5neml25Model13AD_need_valueEbb
FNDA:565,_ZN5neml25Model9enable_ADEv
FNDA:11123,_ZNK5neml25Model11TraceSchemaltERKS1_
FNDA:565,_ZN5neml25Model22extract_AD_derivativesEbb
FNDA:149,_ZN5neml25Model16expected_optionsEv
FNF:51
FNH:42
DA:40,136
DA:42,136
DA:43,408
DA:44,136
DA:47,10
DA:49,10
DA:50,10
DA:54,10
DA:56,10
DA:57,10
DA:61,0
DA:63,0
DA:67,11123
DA:69,11123
DA:70,0
DA:71,11123
DA:75,149
DA:77,149
DA:78,149
DA:79,149
DA:81,149
DA:84,298
DA:85,298
DA:86,298
DA:87,298
DA:88,447
DA:89,298
DA:94,298
DA:95,298
DA:97,298
DA:98,298
DA:100,298
DA:101,298
DA:104,149
DA:106,149
DA:107,0
DA:109,375
DA:115,750
DA:116,750
DA:117,750
DA:118,375
DA:119,750
DA:120,1500
DA:122,375
DA:125,0
DA:127,0
DA:128,0
DA:129,0
DA:131,0
DA:132,0
DA:133,0
DA:136,375
DA:138,375
DA:140,375
DA:142,137
DA:143,137
DA:146,375
DA:147,375
DA:150,96
DA:152,182
DA:153,86
DA:156,391
DA:157,295
DA:158,213
DA:159,117
DA:161,96
DA:162,5
DA:163,96
DA:166,72
DA:168,139
DA:169,67
DA:172,72
DA:173,253
DA:174,181
DA:175,109
DA:178,72
DA:179,145
DA:180,76
DA:181,76
DA:187,72
DA:190,26
DA:192,26
DA:193,26
DA:196,0
DA:198,0
DA:199,0
DA:200,0
DA:203,19
DA:205,19
DA:206,19
DA:209,0
DA:211,0
DA:212,0
DA:213,0
DA:216,0
DA:218,0
DA:219,0
DA:220,0
DA:223,295
DA:225,753
DA:226,458
DA:228,295
DA:242,295
DA:245,117
DA:247,117
DA:249,117
DA:259,117
DA:262,376
DA:264,615
DA:266,239
DA:267,239
DA:269,376
DA:272,13
DA:274,88
DA:275,75
DA:276,13
DA:279,376
DA:281,615
DA:283,239
DA:284,239
DA:286,376
DA:289,13
DA:291,13
DA:294,14
DA:296,14
DA:298,14
DA:301,14
DA:302,14
DA:304,14
DA:305,14
DA:308,48
DA:310,48
DA:312,48
DA:315,48
DA:316,48
DA:318,48
DA:319,48
DA:322,7630
DA:324,7630
DA:325,12690
DA:326,5060
DA:327,7630
DA:330,7630
DA:332,7630
DA:333,12690
DA:334,5060
DA:335,7630
DA:338,7630
DA:340,7630
DA:341,12690
DA:342,5060
DA:343,7630
DA:346,7630
DA:348,7630
DA:349,12690
DA:350,5060
DA:351,7630
DA:354,5583
DA:356,5583
DA:357,39505
DA:358,33922
DA:359,20508
DA:360,14925
DA:362,5583
DA:364,11166
DA:365,5583
DA:368,5583
DA:370,5583
DA:374,1246
DA:376,1246
DA:378,1246
DA:380,1246
DA:382,1246
DA:384,1246
DA:386,1246
DA:389,1246
DA:391,1246
DA:392,565
DA:394,1246
DA:396,1246
DA:397,565
DA:399,2492
DA:400,1246
DA:403,6522
DA:405,6522
DA:407,939
DA:408,939
DA:412,5583
DA:414,5583
DA:415,5583
DA:416,5583
DA:418,5583
DA:420,5276
DA:421,5276
DA:422,5276
DA:423,5276
DA:424,5276
DA:425,5276
DA:428,307
DA:430,307
DA:431,307
DA:432,307
DA:433,307
DA:434,1535
DA:435,614
DA:437,34012
DA:439,307
DA:440,614
DA:441,307
DA:442,0
DA:443,614
DA:444,307
DA:447,307
DA:448,307
DA:449,5583
DA:452,281567
DA:455,1043874
DA:456,763674
DA:457,1367
DA:458,594483
DA:459,314946
DA:460,663
DA:463,2694904
DA:464,2415971
DA:465,604
DA:466,1760807
DA:467,1482126
DA:468,252
DA:471,526035
DA:473,248169
DA:474,248169
DA:475,815
DA:476,248169
DA:478,555732
DA:482,1930
DA:484,1930
DA:485,1930
DA:486,1930
DA:487,1930
DA:489,1930
DA:490,1930
DA:491,1930
DA:492,1930
DA:493,0
DA:496,0
DA:498,0
DA:499,0
DA:500,0
DA:501,0
DA:503,0
DA:504,0
DA:505,0
DA:506,0
DA:507,0
DA:508,0
DA:511,606
DA:513,606
DA:514,606
DA:515,606
DA:516,606
DA:518,606
DA:519,606
DA:520,606
DA:521,606
DA:522,0
DA:525,0
DA:527,0
DA:528,0
DA:529,0
DA:530,0
DA:532,0
DA:533,0
DA:534,0
DA:535,0
DA:536,0
DA:537,0
DA:538,0
DA:541,0
DA:543,0
DA:544,0
DA:545,0
DA:546,0
DA:548,0
DA:549,0
DA:550,0
DA:551,0
DA:552,0
DA:553,0
DA:556,34
DA:558,34
DA:559,34
DA:560,34
DA:561,34
DA:563,34
DA:564,34
DA:565,34
DA:566,34
DA:567,0
DA:570,0
DA:572,0
DA:573,0
DA:574,0
DA:576,0
DA:577,0
DA:581,226
DA:583,226
DA:584,452
DA:585,226
DA:588,226
DA:590,226
DA:591,452
DA:592,226
DA:595,307
DA:598,307
DA:599,307
DA:600,307
DA:602,307
DA:608,307
DA:609,307
DA:610,307
DA:613,5583
DA:615,5583
DA:616,5583
DA:621,5583
DA:622,11166
DA:623,5583
DA:626,1563
DA:628,1563
DA:629,1563
DA:630,1563
DA:633,2807
DA:635,2807
DA:637,2807
DA:639,1563
DA:640,1563
DA:642,2807
DA:645,1244
DA:646,1244
DA:648,2807
DA:651,190
DA:653,190
DA:654,155
DA:655,2
DA:657,188
DA:658,44
DA:659,0
DA:660,0
DA:661,0
DA:663,188
DA:667,565
DA:669,571
DA:670,6
DA:671,565
DA:674,565
DA:676,565
DA:678,569
DA:680,4
DA:681,0
DA:682,0
DA:685,4
DA:686,18
DA:687,14
DA:688,14
DA:691,4
DA:692,18
DA:693,14
DA:694,14
DA:695,0
DA:696,0
DA:698,4
DA:702,4
DA:704,4
DA:705,18
DA:706,14
DA:708,14
DA:709,14
DA:710,14
DA:712,4
DA:714,565
DA:716,106
DA:717,0
DA:719,0
DA:720,0
DA:722,0
DA:724,0
DA:725,0
DA:727,0
DA:728,0
DA:729,0
DA:730,0
DA:736,0
DA:738,0
DA:739,0
DA:740,0
DA:742,0
DA:743,0
DA:744,0
DA:746,0
DA:748,565
LF:399
LH:307
end_of_record
TN:
SF:/home/runner/work/neml2/neml2/src/neml2/models/NonlinearParameter.cxx
FN:32,36,_ZN5neml218NonlinearParameterINS_10QuaternionEE16expected_optionsEv
FN:32,36,_ZN5neml218NonlinearParameterINS_11MillerIndexEE16expected_optionsEv
FN:32,36,_ZN5neml218NonlinearParameterINS_2R2EE16expected_optionsEv
FN:32,36,_ZN5neml218NonlinearParameterINS_2R3EE16expected_optionsEv
FN:32,36,_ZN5neml218NonlinearParameterINS_2R4EE16expected_optionsEv
FN:32,36,_ZN5neml218NonlinearParameterINS_2R5EE16expected_optionsEv
FN:32,36,_ZN5neml218NonlinearParameterINS_2R8EE16expected_optionsEv
FN:32,36,_ZN5neml218NonlinearParameterINS_3RotEE16expected_optionsEv
FN:32,36,_ZN5neml218NonlinearParameterINS_3SR2EE16expected_optionsEv
FN:32,36,_ZN5neml218NonlinearParameterINS_3VecEE16expected_optionsEv
FN:32,36,_ZN5neml218NonlinearParameterINS_3WR2EE16expected_optionsEv
FN:32,36,_ZN5neml218NonlinearParameterINS_4SFR3EE16expected_optionsEv
FN:32,36,_ZN5neml218NonlinearParameterINS_4SFR4EE16expected_optionsEv
FN:32,36,_ZN5neml218NonlinearParameterINS_4SSR4EE16expected_optionsEv
FN:32,36,_ZN5neml218NonlinearParameterINS_4SWR4EE16expected_optionsEv
FN:32,36,_ZN5neml218NonlinearParameterINS_4WFR4EE16expected_optionsEv
FN:32,36,_ZN5neml218NonlinearParameterINS_4WSR4EE16expected_optionsEv
FN:32,36,_ZN5neml218NonlinearParameterINS_4WWR4EE16expected_optionsEv
FN:32,36,_ZN5neml218NonlinearParameterINS_5SFFR4EE16expected_optionsEv
FN:32,36,_ZN5neml218NonlinearParameterINS_5SSFR5EE16expected_optionsEv
FN:32,36,_ZN5neml218NonlinearParameterINS_6SSSSR8EE16expected_optionsEv
FN:32,36,_ZN5neml218NonlinearParameterINS_6ScalarEE16expected_optionsEv
FN:39,43,_ZN5neml218NonlinearParameterINS_10QuaternionEEC2ERKNS_9OptionSetE
FN:39,43,_ZN5neml218NonlinearParameterINS_11MillerIndexEEC2ERKNS_9OptionSetE
FN:39,43,_ZN5neml218NonlinearParameterINS_2R2EEC2ERKNS_9OptionSetE
FN:39,43,_ZN5neml218NonlinearParameterINS_2R3EEC2ERKNS_9OptionSetE
FN:39,43,_ZN5neml218NonlinearParameterINS_2R4EEC2ERKNS_9OptionSetE
FN:39,43,_ZN5neml218NonlinearParameterINS_2R5EEC2ERKNS_9OptionSetE
FN:39,43,_ZN5neml218NonlinearParameterINS_2R8EEC2ERKNS_9OptionSetE
FN:39,43,_ZN5neml218NonlinearParameterINS_3RotEEC2ERKNS_9OptionSetE
FN:39,43,_ZN5neml218NonlinearParameterINS_3SR2EEC2ERKNS_9OptionSetE
FN:39,43,_ZN5neml218NonlinearParameterINS_3VecEEC2ERKNS_9OptionSetE
FN:39,43,_ZN5neml218NonlinearParameterINS_3WR2EEC2ERKNS_9OptionSetE
FN:39,43,_ZN5neml218NonlinearParameterINS_4SFR3EEC2ERKNS_9OptionSetE
FN:39,43,_ZN5neml218NonlinearParameterINS_4SFR4EEC2ERKNS_9OptionSetE
FN:39,43,_ZN5neml218NonlinearParameterINS_4SSR4EEC2ERKNS_9OptionSetE
FN:39,43,_ZN5neml218NonlinearParameterINS_4SWR4EEC2ERKNS_9OptionSetE
FN:39,43,_ZN5neml218NonlinearParameterINS_4WFR4EEC2ERKNS_9OptionSetE
FN:39,43,_ZN5neml218NonlinearParameterINS_4WSR4EEC2ERKNS_9OptionSetE
FN:39,43,_ZN5neml218NonlinearParameterINS_4WWR4EEC2ERKNS_9OptionSetE
FN:39,43,_ZN5neml218NonlinearParameterINS_5SFFR4EEC2ERKNS_9OptionSetE
FN:39,43,_ZN5neml218NonlinearParameterINS_5SSFR5EEC2ERKNS_9OptionSetE
FN:39,43,_ZN5neml218NonlinearParameterINS_6SSSSR8EEC2ERKNS_9OptionSetE
FN:39,43,_ZN5neml218NonlinearParameterINS_6ScalarEEC2ERKNS_9OptionSetE
FNDA:2,_ZN5neml218NonlinearParameterINS_10QuaternionEE16expected_optionsEv
FNDA:2,_ZN5neml218NonlinearParameterINS_11MillerIndexEE16expected_optionsEv
FNDA:2,_ZN5neml218NonlinearParameterINS_2R2EE16expected_optionsEv
FNDA:2,_ZN5neml218NonlinearParameterINS_2R3EE16expected_optionsEv
FNDA:2,_ZN5neml218NonlinearParameterINS_2R4EE16expected_optionsEv
FNDA:2,_ZN5neml218NonlinearParameterINS_2R5EE16expected_optionsEv
FNDA:2,_ZN5neml218NonlinearParameterINS_2R8EE16expected_optionsEv
FNDA:2,_ZN5neml218NonlinearParameterINS_3RotEE16expected_optionsEv
FNDA:3,_ZN5neml218NonlinearParameterINS_3SR2EE16expected_optionsEv
FNDA:3,_ZN5neml218NonlinearParameterINS_3VecEE16expected_optionsEv
FNDA:2,_ZN5neml218NonlinearParameterINS_3WR2EE16expected_optionsEv
FNDA:2,_ZN5neml218NonlinearParameterINS_4SFR3EE16expected_optionsEv
FNDA:2,_ZN5neml218NonlinearParameterINS_4SFR4EE16expected_optionsEv
FNDA:4,_ZN5neml218NonlinearParameterINS_4SSR4EE16expected_optionsEv
FNDA:2,_ZN5neml218NonlinearParameterINS_4SWR4EE16expected_optionsEv
FNDA:2,_ZN5neml218NonlinearParameterINS_4WFR4EE16expected_optionsEv
FNDA:2,_ZN5neml218NonlinearParameterINS_4WSR4EE16expected_optionsEv
FNDA:2,_ZN5neml218NonlinearParameterINS_4WWR4EE16expected_optionsEv
FNDA:2,_ZN5neml218NonlinearParameterINS_5SFFR4EE16expected_optionsEv
FNDA:2,_ZN5neml218NonlinearParameterINS_5SSFR5EE16expected_optionsEv
FNDA:2,_ZN5neml218NonlinearParameterINS_6SSSSR8EE16expected_optionsEv
FNDA:8,_ZN5neml218NonlinearParameterINS_6ScalarEE16expected_optionsEv
FNDA:0,_ZN5neml218NonlinearParameterINS_10QuaternionEEC2ERKNS_9OptionSetE
FNDA:0,_ZN5neml218NonlinearParameterINS_11MillerIndexEEC2ERKNS_9OptionSetE
FNDA:0,_ZN5neml218NonlinearParameterINS_2R2EEC2ERKNS_9OptionSetE
FNDA:0,_ZN5neml218NonlinearParameterINS_2R3EEC2ERKNS_9OptionSetE
FNDA:0,_ZN5neml218NonlinearParameterINS_2R4EEC2ERKNS_9OptionSetE
FNDA:0,_ZN5neml218NonlinearParameterINS_2R5EEC2ERKNS_9OptionSetE
FNDA:0,_ZN5neml218NonlinearParameterINS_2R8EEC2ERKNS_9OptionSetE
FNDA:0,_ZN5neml218NonlinearParameterINS_3RotEEC2ERKNS_9OptionSetE
FNDA:5,_ZN5neml218NonlinearParameterINS_3SR2EEC2ERKNS_9OptionSetE
FNDA:0,_ZN5neml218NonlinearParameterINS_3VecEEC2ERKNS_9OptionSetE
FNDA:0,_ZN5neml218NonlinearParameterINS_3WR2EEC2ERKNS_9OptionSetE
FNDA:0,_ZN5neml218NonlinearParameterINS_4SFR3EEC2ERKNS_9OptionSetE
FNDA:0,_ZN5neml218NonlinearParameterINS_4SFR4EEC2ERKNS_9OptionSetE
FNDA:6,_ZN5neml218NonlinearParameterINS_4SSR4EEC2ERKNS_9OptionSetE
FNDA:0,_ZN5neml218NonlinearParameterINS_4SWR4EEC2ERKNS_9OptionSetE
FNDA:0,_ZN5neml218NonlinearParameterINS_4WFR4EEC2ERKNS_9OptionSetE
FNDA:0,_ZN5neml218NonlinearParameterINS_4WSR4EEC2ERKNS_9OptionSetE
FNDA:0,_ZN5neml218NonlinearParameterINS_4WWR4EEC2ERKNS_9OptionSetE
FNDA:0,_ZN5neml218NonlinearParameterINS_5SFFR4EEC2ERKNS_9OptionSetE
FNDA:0,_ZN5neml218NonlinearParameterINS_5SSFR5EEC2ERKNS_9OptionSetE
FNDA:0,_ZN5neml218NonlinearParameterINS_6SSSSR8EEC2ERKNS_9OptionSetE
FNDA:73,_ZN5neml218NonlinearParameterINS_6ScalarEEC2ERKNS_9OptionSetE
FNF:44
FNH:25
DA:32,54
DA:34,54
DA:35,54
DA:39,84
DA:41,84
DA:43,84
LF:6
LH:6
end_of_record
TN:
SF:/home/runner/work/neml2/neml2/src/neml2/models/ParameterStore.cxx
FN:110,130,_ZNK5neml214ParameterStore32named_nonlinear_parameter_modelsEb
FN:134,156,_ZN5neml214ParameterStore17declare_parameterINS_10QuaternionEvEERKT_RKSsS5_
FN:134,156,_ZN5neml214ParameterStore17declare_parameterINS_11MillerIndexEvEERKT_RKSsS5_
FN:134,156,_ZN5neml214ParameterStore17declare_parameterINS_2R2EvEERKT_RKSsS5_
FN:134,156,_ZN5neml214ParameterStore17declare_parameterINS_2R3EvEERKT_RKSsS5_
FN:134,156,_ZN5neml214ParameterStore17declare_parameterINS_2R4EvEERKT_RKSsS5_
FN:134,156,_ZN5neml214ParameterStore17declare_parameterINS_2R5EvEERKT_RKSsS5_
FN:134,156,_ZN5neml214ParameterStore17declare_parameterINS_2R8EvEERKT_RKSsS5_
FN:134,156,_ZN5neml214ParameterStore17declare_parameterINS_3RotEvEERKT_RKSsS5_
FN:134,156,_ZN5neml214ParameterStore17declare_parameterINS_3SR2EvEERKT_RKSsS5_
FN:134,156,_ZN5neml214ParameterStore17declare_parameterINS_3VecEvEERKT_RKSsS5_
FN:134,156,_ZN5neml214ParameterStore17declare_parameterINS_3WR2EvEERKT_RKSsS5_
FN:134,156,_ZN5neml214ParameterStore17declare_parameterINS_4SFR3EvEERKT_RKSsS5_
FN:134,156,_ZN5neml214ParameterStore17declare_parameterINS_4SFR4EvEERKT_RKSsS5_
FN:134,156,_ZN5neml214ParameterStore17declare_parameterINS_4SSR4EvEERKT_RKSsS5_
FN:134,156,_ZN5neml214ParameterStore17declare_parameterINS_4SWR4EvEERKT_RKSsS5_
FN:134,156,_ZN5neml214ParameterStore17declare_parameterINS_4WFR4EvEERKT_RKSsS5_
FN:134,156,_ZN5neml214ParameterStore17declare_parameterINS_4WSR4EvEERKT_RKSsS5_
FN:134,156,_ZN5neml214ParameterStore17declare_parameterINS_4WWR4EvEERKT_RKSsS5_
FN:134,156,_ZN5neml214ParameterStore17declare_parameterINS_5SFFR4EvEERKT_RKSsS5_
FN:134,156,_ZN5neml214ParameterStore17declare_parameterINS_5SSFR5EvEERKT_RKSsS5_
FN:134,156,_ZN5neml214ParameterStore17declare_parameterINS_6SSSSR8EvEERKT_RKSsS5_
FN:134,156,_ZN5neml214ParameterStore17declare_parameterINS_6ScalarEvEERKT_RKSsS5_
FN:134,156,_ZN5neml214ParameterStore17declare_parameterINS_6TensorEvEERKT_RKSsS5_
FN:160,219,_ZN5neml214ParameterStore17declare_parameterINS_10QuaternionEvEERKT_RKSsRKNS_10TensorNameEb
FN:160,219,_ZN5neml214ParameterStore17declare_parameterINS_11MillerIndexEvEERKT_RKSsRKNS_10TensorNameEb
FN:160,219,_ZN5neml214ParameterStore17declare_parameterINS_2R2EvEERKT_RKSsRKNS_10TensorNameEb
FN:160,219,_ZN5neml214ParameterStore17declare_parameterINS_2R3EvEERKT_RKSsRKNS_10TensorNameEb
FN:160,219,_ZN5neml214ParameterStore17declare_parameterINS_2R4EvEERKT_RKSsRKNS_10TensorNameEb
FN:160,219,_ZN5neml214ParameterStore17declare_parameterINS_2R5EvEERKT_RKSsRKNS_10TensorNameEb
FN:160,219,_ZN5neml214ParameterStore17declare_parameterINS_2R8EvEERKT_RKSsRKNS_10TensorNameEb
FN:160,219,_ZN5neml214ParameterStore17declare_parameterINS_3RotEvEERKT_RKSsRKNS_10TensorNameEb
FN:160,219,_ZN5neml214ParameterStore17declare_parameterINS_3SR2EvEERKT_RKSsRKNS_10TensorNameEb
FN:160,219,_ZN5neml214ParameterStore17declare_parameterINS_3VecEvEERKT_RKSsRKNS_10TensorNameEb
FN:160,219,_ZN5neml214ParameterStore17declare_parameterINS_3WR2EvEERKT_RKSsRKNS_10TensorNameEb
FN:160,219,_ZN5neml214ParameterStore17declare_parameterINS_4SFR3EvEERKT_RKSsRKNS_10TensorNameEb
FN:160,219,_ZN5neml214ParameterStore17declare_parameterINS_4SFR4EvEERKT_RKSsRKNS_10TensorNameEb
FN:160,219,_ZN5neml214ParameterStore17declare_parameterINS_4SSR4EvEERKT_RKSsRKNS_10TensorNameEb
FN:160,219,_ZN5neml214ParameterStore17declare_parameterINS_4SWR4EvEERKT_RKSsRKNS_10TensorNameEb
FN:160,219,_ZN5neml214ParameterStore17declare_parameterINS_4WFR4EvEERKT_RKSsRKNS_10TensorNameEb
FN:160,219,_ZN5neml214ParameterStore17declare_parameterINS_4WSR4EvEERKT_RKSsRKNS_10TensorNameEb
FN:160,219,_ZN5neml214ParameterStore17declare_parameterINS_4WWR4EvEERKT_RKSsRKNS_10TensorNameEb
FN:160,219,_ZN5neml214ParameterStore17declare_parameterINS_5SFFR4EvEERKT_RKSsRKNS_10TensorNameEb
FN:160,219,_ZN5neml214ParameterStore17declare_parameterINS_5SSFR5EvEERKT_RKSsRKNS_10TensorNameEb
FN:160,219,_ZN5neml214ParameterStore17declare_parameterINS_6SSSSR8EvEERKT_RKSsRKNS_10TensorNameEb
FN:160,219,_ZN5neml214ParameterStore17declare_parameterINS_6ScalarEvEERKT_RKSsRKNS_10TensorNameEb
FN:223,239,_ZN5neml214ParameterStore17declare_parameterINS_10QuaternionEvEERKT_RKSsS7_b
FN:223,239,_ZN5neml214ParameterStore17declare_parameterINS_11MillerIndexEvEERKT_RKSsS7_b
FN:223,239,_ZN5neml214ParameterStore17declare_parameterINS_2R2EvEERKT_RKSsS7_b
FN:223,239,_ZN5neml214ParameterStore17declare_parameterINS_2R3EvEERKT_RKSsS7_b
FN:223,239,_ZN5neml214ParameterStore17declare_parameterINS_2R4EvEERKT_RKSsS7_b
FN:223,239,_ZN5neml214ParameterStore17declare_parameterINS_2R5EvEERKT_RKSsS7_b
FN:223,239,_ZN5neml214ParameterStore17declare_parameterINS_2R8EvEERKT_RKSsS7_b
FN:223,239,_ZN5neml214ParameterStore17declare_parameterINS_3RotEvEERKT_RKSsS7_b
FN:223,239,_ZN5neml214ParameterStore17declare_parameterINS_3SR2EvEERKT_RKSsS7_b
FN:223,239,_ZN5neml214ParameterStore17declare_parameterINS_3VecEvEERKT_RKSsS7_b
FN:223,239,_ZN5neml214ParameterStore17declare_parameterINS_3WR2EvEERKT_RKSsS7_b
FN:223,239,_ZN5neml214ParameterStore17declare_parameterINS_4SFR3EvEERKT_RKSsS7_b
FN:223,239,_ZN5neml214ParameterStore17declare_parameterINS_4SFR4EvEERKT_RKSsS7_b
FN:223,239,_ZN5neml214ParameterStore17declare_parameterINS_4SSR4EvEERKT_RKSsS7_b
FN:223,239,_ZN5neml214ParameterStore17declare_parameterINS_4SWR4EvEERKT_RKSsS7_b
FN:223,239,_ZN5neml214ParameterStore17declare_parameterINS_4WFR4EvEERKT_RKSsS7_b
FN:223,239,_ZN5neml214ParameterStore17declare_parameterINS_4WSR4EvEERKT_RKSsS7_b
FN:223,239,_ZN5neml214ParameterStore17declare_parameterINS_4WWR4EvEERKT_RKSsS7_b
FN:223,239,_ZN5neml214ParameterStore17declare_parameterINS_5SFFR4EvEERKT_RKSsS7_b
FN:223,239,_ZN5neml214ParameterStore17declare_parameterINS_5SSFR5EvEERKT_RKSsS7_b
FN:223,239,_ZN5neml214ParameterStore17declare_parameterINS_6SSSSR8EvEERKT_RKSsS7_b
FN:223,239,_ZN5neml214ParameterStore17declare_parameterINS_6ScalarEvEERKT_RKSsS7_b
FN:253,274,_ZN5neml214ParameterStore22assign_parameter_stackERSt6vectorIN3c106IValueESaIS3_EE
FN:277,285,_ZNK5neml214ParameterStore23collect_parameter_stackEv
FN:36,40,_ZN5neml214ParameterStoreC2ENS_9OptionSetEPNS_11NEML2ObjectE
FN:43,47,_ZN5neml214ParameterStore18send_parameters_toERKN3c1013TensorOptionsE
FN:50,55,_ZN5neml214ParameterStore13set_parameterERKSsRKNS_6TensorE
FN:58,63,_ZN5neml214ParameterStore13get_parameterERKSs
FN:66,70,_ZN5neml214ParameterStore14set_parametersERKSt3mapISsNS_6TensorESt4lessISsESaISt4pairIKSsS2_EEE
FN:73,76,_ZNK5neml214ParameterStore8nl_paramERKSs
FN:79,84,_ZN5neml214ParameterStore16named_parametersEv
FN:87,107,_ZNK5neml214ParameterStore26named_nonlinear_parametersEb
FNDA:446,_ZNK5neml214ParameterStore32named_nonlinear_parameter_modelsEb
FNDA:0,_ZN5neml214ParameterStore17declare_parameterINS_10QuaternionEvEERKT_RKSsS5_
FNDA:0,_ZN5neml214ParameterStore17declare_parameterINS_11MillerIndexEvEERKT_RKSsS5_
FNDA:0,_ZN5neml214ParameterStore17declare_parameterINS_2R2EvEERKT_RKSsS5_
FNDA:0,_ZN5neml214ParameterStore17declare_parameterINS_2R3EvEERKT_RKSsS5_
FNDA:0,_ZN5neml214ParameterStore17declare_parameterINS_2R4EvEERKT_RKSsS5_
FNDA:0,_ZN5neml214ParameterStore17declare_parameterINS_2R5EvEERKT_RKSsS5_
FNDA:0,_ZN5neml214ParameterStore17declare_parameterINS_2R8EvEERKT_RKSsS5_
FNDA:0,_ZN5neml214ParameterStore17declare_parameterINS_3RotEvEERKT_RKSsS5_
FNDA:5,_ZN5neml214ParameterStore17declare_parameterINS_3SR2EvEERKT_RKSsS5_
FNDA:0,_ZN5neml214ParameterStore17declare_parameterINS_3VecEvEERKT_RKSsS5_
FNDA:0,_ZN5neml214ParameterStore17declare_parameterINS_3WR2EvEERKT_RKSsS5_
FNDA:0,_ZN5neml214ParameterStore17declare_parameterINS_4SFR3EvEERKT_RKSsS5_
FNDA:0,_ZN5neml214ParameterStore17declare_parameterINS_4SFR4EvEERKT_RKSsS5_
FNDA:3,_ZN5neml214ParameterStore17declare_parameterINS_4SSR4EvEERKT_RKSsS5_
FNDA:0,_ZN5neml214ParameterStore17declare_parameterINS_4SWR4EvEERKT_RKSsS5_
FNDA:0,_ZN5neml214ParameterStore17declare_parameterINS_4WFR4EvEERKT_RKSsS5_
FNDA:0,_ZN5neml214ParameterStore17declare_parameterINS_4WSR4EvEERKT_RKSsS5_
FNDA:0,_ZN5neml214ParameterStore17declare_parameterINS_4WWR4EvEERKT_RKSsS5_
FNDA:0,_ZN5neml214ParameterStore17declare_parameterINS_5SFFR4EvEERKT_RKSsS5_
FNDA:0,_ZN5neml214ParameterStore17declare_parameterINS_5SSFR5EvEERKT_RKSsS5_
FNDA:0,_ZN5neml214ParameterStore17declare_parameterINS_6SSSSR8EvEERKT_RKSsS5_
FNDA:233,_ZN5neml214ParameterStore17declare_parameterINS_6ScalarEvEERKT_RKSsS5_
FNDA:0,_ZN5neml214ParameterStore17declare_parameterINS_6TensorEvEERKT_RKSsS5_
FNDA:0,_ZN5neml214ParameterStore17declare_parameterINS_10QuaternionEvEERKT_RKSsRKNS_10TensorNameEb
FNDA:0,_ZN5neml214ParameterStore17declare_parameterINS_11MillerIndexEvEERKT_RKSsRKNS_10TensorNameEb
FNDA:0,_ZN5neml214ParameterStore17declare_parameterINS_2R2EvEERKT_RKSsRKNS_10TensorNameEb
FNDA:0,_ZN5neml214ParameterStore17declare_parameterINS_2R3EvEERKT_RKSsRKNS_10TensorNameEb
FNDA:0,_ZN5neml214ParameterStore17declare_parameterINS_2R4EvEERKT_RKSsRKNS_10TensorNameEb
FNDA:0,_ZN5neml214ParameterStore17declare_parameterINS_2R5EvEERKT_RKSsRKNS_10TensorNameEb
FNDA:0,_ZN5neml214ParameterStore17declare_parameterINS_2R8EvEERKT_RKSsRKNS_10TensorNameEb
FNDA:0,_ZN5neml214ParameterStore17declare_parameterINS_3RotEvEERKT_RKSsRKNS_10TensorNameEb
FNDA:5,_ZN5neml214ParameterStore17declare_parameterINS_3SR2EvEERKT_RKSsRKNS_10TensorNameEb
FNDA:0,_ZN5neml214ParameterStore17declare_parameterINS_3VecEvEERKT_RKSsRKNS_10TensorNameEb
FNDA:0,_ZN5neml214ParameterStore17declare_parameterINS_3WR2EvEERKT_RKSsRKNS_10TensorNameEb
FNDA:0,_ZN5neml214ParameterStore17declare_parameterINS_4SFR3EvEERKT_RKSsRKNS_10TensorNameEb
FNDA:0,_ZN5neml214ParameterStore17declare_parameterINS_4SFR4EvEERKT_RKSsRKNS_10TensorNameEb
FNDA:5,_ZN5neml214ParameterStore17declare_parameterINS_4SSR4EvEERKT_RKSsRKNS_10TensorNameEb
FNDA:0,_ZN5neml214ParameterStore17declare_parameterINS_4SWR4EvEERKT_RKSsRKNS_10TensorNameEb
FNDA:0,_ZN5neml214ParameterStore17declare_parameterINS_4WFR4EvEERKT_RKSsRKNS_10TensorNameEb
FNDA:0,_ZN5neml214ParameterStore17declare_parameterINS_4WSR4EvEERKT_RKSsRKNS_10TensorNameEb
FNDA:0,_ZN5neml214ParameterStore17declare_parameterINS_4WWR4EvEERKT_RKSsRKNS_10TensorNameEb
FNDA:0,_ZN5neml214ParameterStore17declare_parameterINS_5SFFR4EvEERKT_RKSsRKNS_10TensorNameEb
FNDA:0,_ZN5neml214ParameterStore17declare_parameterINS_5SSFR5EvEERKT_RKSsRKNS_10TensorNameEb
FNDA:0,_ZN5neml214ParameterStore17declare_parameterINS_6SSSSR8EvEERKT_RKSsRKNS_10TensorNameEb
FNDA:198,_ZN5neml214ParameterStore17declare_parameterINS_6ScalarEvEERKT_RKSsRKNS_10TensorNameEb
FNDA:0,_ZN5neml214ParameterStore17declare_parameterINS_10QuaternionEvEERKT_RKSsS7_b
FNDA:0,_ZN5neml214ParameterStore17declare_parameterINS_11MillerIndexEvEERKT_RKSsS7_b
FNDA:0,_ZN5neml214ParameterStore17declare_parameterINS_2R2EvEERKT_RKSsS7_b
FNDA:0,_ZN5neml214ParameterStore17declare_parameterINS_2R3EvEERKT_RKSsS7_b
FNDA:0,_ZN5neml214ParameterStore17declare_parameterINS_2R4EvEERKT_RKSsS7_b
FNDA:0,_ZN5neml214ParameterStore17declare_parameterINS_2R5EvEERKT_RKSsS7_b
FNDA:0,_ZN5neml214ParameterStore17declare_parameterINS_2R8EvEERKT_RKSsS7_b
FNDA:0,_ZN5neml214ParameterStore17declare_parameterINS_3RotEvEERKT_RKSsS7_b
FNDA:5,_ZN5neml214ParameterStore17declare_parameterINS_3SR2EvEERKT_RKSsS7_b
FNDA:0,_ZN5neml214ParameterStore17declare_parameterINS_3VecEvEERKT_RKSsS7_b
FNDA:0,_ZN5neml214ParameterStore17declare_parameterINS_3WR2EvEERKT_RKSsS7_b
FNDA:0,_ZN5neml214ParameterStore17declare_parameterINS_4SFR3EvEERKT_RKSsS7_b
FNDA:0,_ZN5neml214ParameterStore17declare_parameterINS_4SFR4EvEERKT_RKSsS7_b
FNDA:5,_ZN5neml214ParameterStore17declare_parameterINS_4SSR4EvEERKT_RKSsS7_b
FNDA:0,_ZN5neml214ParameterStore17declare_parameterINS_4SWR4EvEERKT_RKSsS7_b
FNDA:0,_ZN5neml214ParameterStore17declare_parameterINS_4WFR4EvEERKT_RKSsS7_b
FNDA:0,_ZN5neml214ParameterStore17declare_parameterINS_4WSR4EvEERKT_RKSsS7_b
FNDA:0,_ZN5neml214ParameterStore17declare_parameterINS_4WWR4EvEERKT_RKSsS7_b
FNDA:0,_ZN5neml214ParameterStore17declare_parameterINS_5SFFR4EvEERKT_RKSsS7_b
FNDA:0,_ZN5neml214ParameterStore17declare_parameterINS_5SSFR5EvEERKT_RKSsS7_b
FNDA:0,_ZN5neml214ParameterStore17declare_parameterINS_6SSSSR8EvEERKT_RKSsS7_b
FNDA:142,_ZN5neml214ParameterStore17declare_parameterINS_6ScalarEvEERKT_RKSsS7_b
FNDA:307,_ZN5neml214ParameterStore22assign_parameter_stackERSt6vectorIN3c106IValueESaIS3_EE
FNDA:5583,_ZNK5neml214ParameterStore23collect_parameter_stackEv
FNDA:375,_ZN5neml214ParameterStoreC2ENS_9OptionSetEPNS_11NEML2ObjectE
FNDA:0,_ZN5neml214ParameterStore18send_parameters_toERKN3c1013TensorOptionsE
FNDA:600,_ZN5neml214ParameterStore13set_parameterERKSsRKNS_6TensorE
FNDA:7,_ZN5neml214ParameterStore13get_parameterERKSs
FNDA:0,_ZN5neml214ParameterStore14set_parametersERKSt3mapISsNS_6TensorESt4lessISsESaISt4pairIKSsS2_EEE
FNDA:400,_ZNK5neml214ParameterStore8nl_paramERKSs
FNDA:292853,_ZN5neml214ParameterStore16named_parametersEv
FNDA:223,_ZNK5neml214ParameterStore26named_nonlinear_parametersEb
FNF:78
FNH:18
DA:36,375
DA:37,375
DA:38,375
DA:40,375
DA:43,0
DA:45,0
DA:46,0
DA:47,0
DA:50,600
DA:52,600
DA:53,600
DA:54,600
DA:55,600
DA:58,7
DA:60,7
DA:61,7
DA:62,7
DA:66,0
DA:68,0
DA:69,0
DA:70,0
DA:73,400
DA:75,400
DA:79,292853
DA:81,292853
DA:83,292853
DA:87,223
DA:89,223
DA:90,0
DA:92,223
DA:93,223
DA:95,223
DA:96,230
DA:98,7
DA:99,7
DA:100,7
DA:101,285
DA:103,62
DA:104,62
DA:105,62
DA:106,223
DA:107,223
DA:110,446
DA:112,446
DA:113,0
DA:115,446
DA:116,446
DA:118,446
DA:119,460
DA:121,14
DA:122,14
DA:123,14
DA:124,570
DA:126,124
DA:127,124
DA:128,124
DA:129,446
DA:130,446
DA:134,241
DA:136,241
DA:137,213
DA:138,142
DA:140,170
DA:143,170
DA:144,5
DA:148,165
DA:149,165
DA:150,165
DA:151,165
DA:153,170
DA:154,170
DA:155,170
DA:160,208
DA:166,208
DA:168,124
DA:174,62
DA:175,62
DA:177,62
DA:179,62
DA:187,62
DA:189,62
DA:191,62
DA:198,62
DA:199,124
DA:200,62
DA:201,62
DA:203,62
DA:204,62
DA:205,62
DA:206,62
DA:207,62
DA:208,0
DA:210,0
DA:211,0
DA:213,0
DA:214,0
DA:223,152
DA:227,152
DA:228,0
DA:230,152
DA:231,152
DA:232,152
DA:234,0
DA:253,307
DA:255,307
DA:257,307
DA:259,307
DA:261,307
DA:265,307
DA:266,789
DA:268,482
DA:269,482
DA:270,482
DA:273,307
DA:274,307
DA:277,5583
DA:279,5583
DA:280,5583
DA:281,5583
DA:282,20508
DA:283,14925
DA:284,5583
DA:285,0
LF:123
LH:105
end_of_record
TN:
SF:/home/runner/work/neml2/neml2/src/neml2/models/R2toSR2.cxx
FN:36,50,_ZN5neml27R2toSR216expected_optionsEv
FN:52,57,_ZN5neml27R2toSR2C2ERKNS_9OptionSetE
FN:60,72,_ZN5neml27R2toSR29set_valueEbbb
FNDA:1,_ZN5neml27R2toSR216expected_optionsEv
FNDA:1,_ZN5neml27R2toSR2C2ERKNS_9OptionSetE
FNDA:3,_ZN5neml27R2toSR29set_valueEbbb
FNF:3
FNH:3
DA:36,1
DA:38,1
DA:39,1
DA:41,2
DA:43,2
DA:44,2
DA:46,2
DA:47,1
DA:49,1
DA:50,0
DA:52,1
DA:54,1
DA:55,2
DA:57,1
DA:60,3
DA:62,3
DA:64,3
DA:65,1
DA:67,3
DA:68,1
DA:72,3
LF:21
LH:20
end_of_record
TN:
SF:/home/runner/work/neml2/neml2/src/neml2/models/R2toWR2.cxx
FN:35,49,_ZN5neml27R2toWR216expected_optionsEv
FN:51,56,_ZN5neml27R2toWR2C2ERKNS_9OptionSetE
FN:59,73,_ZN5neml27R2toWR29set_valueEbbb
FNDA:1,_ZN5neml27R2toWR216expected_optionsEv
FNDA:1,_ZN5neml27R2toWR2C2ERKNS_9OptionSetE
FNDA:3,_ZN5neml27R2toWR29set_valueEbbb
FNF:3
FNH:3
DA:35,1
DA:37,1
DA:38,1
DA:40,2
DA:42,2
DA:43,2
DA:45,2
DA:46,1
DA:48,1
DA:49,0
DA:51,1
DA:53,1
DA:54,2
DA:56,1
DA:59,3
DA:61,3
DA:63,3
DA:64,1
DA:66,3
DA:68,1
DA:73,3
LF:21
LH:20
end_of_record
TN:
SF:/home/runner/work/neml2/neml2/src/neml2/models/RotationMatrix.cxx
FN:35,48,_ZN5neml214RotationMatrix16expected_optionsEv
FN:50,55,_ZN5neml214RotationMatrixC2ERKNS_9OptionSetE
FN:58,66,_ZN5neml214RotationMatrix9set_valueEbbb
FNDA:1,_ZN5neml214RotationMatrix16expected_optionsEv
FNDA:4,_ZN5neml214RotationMatrixC2ERKNS_9OptionSetE
FNDA:10,_ZN5neml214RotationMatrix9set_valueEbbb
FNF:3
FNH:3
DA:35,1
DA:37,1
DA:38,1
DA:39,1
DA:41,2
DA:42,2
DA:44,2
DA:45,1
DA:47,1
DA:48,0
DA:50,4
DA:52,4
DA:53,8
DA:55,4
DA:58,10
DA:60,10
DA:61,10
DA:63,10
DA:64,5
DA:65,5
DA:66,10
LF:21
LH:20
end_of_record
TN:
SF:/home/runner/work/neml2/neml2/src/neml2/models/SR2Invariant.cxx
FN:36,61,_ZN5neml212SR2Invariant16expected_optionsEv
FN:63,69,_ZN5neml212SR2InvariantC2ERKNS_9OptionSetE
FN:72,166,_ZN5neml212SR2Invariant9set_valueEbbb
FNDA:1,_ZN5neml212SR2Invariant16expected_optionsEv
FNDA:21,_ZN5neml212SR2InvariantC2ERKNS_9OptionSetE
FNDA:76,_ZN5neml212SR2Invariant9set_valueEbbb
FNF:3
FNH:3
DA:36,1
DA:38,1
DA:39,1
DA:41,2
DA:43,2
DA:44,2
DA:46,2
DA:47,2
DA:55,6
DA:56,1
DA:57,2
DA:58,3
DA:60,2
DA:61,1
DA:63,21
DA:65,21
DA:66,21
DA:67,42
DA:69,21
DA:72,76
DA:74,76
DA:76,76
DA:78,8
DA:79,6
DA:81,8
DA:82,0
DA:84,8
DA:85,4
DA:92,68
DA:94,3
DA:95,1
DA:97,3
DA:98,0
DA:100,3
DA:102,2
DA:104,2
DA:105,1
DA:107,2
DA:109,1
DA:110,1
DA:111,1
DA:112,1
DA:113,2
DA:115,65
DA:117,62
DA:118,62
DA:120,62
DA:121,60
DA:123,62
DA:124,0
DA:126,62
DA:128,45
DA:130,45
DA:131,44
DA:133,45
DA:135,18
DA:136,18
DA:137,18
DA:138,18
DA:139,45
DA:140,62
DA:141,3
DA:143,3
DA:145,3
DA:146,1
DA:148,3
DA:149,0
DA:151,3
DA:153,2
DA:155,2
DA:156,1
DA:158,2
DA:159,2
DA:160,3
DA:161,2
DA:162,3
DA:164,0
DA:165,0
DA:166,76
LF:79
LH:73
end_of_record
TN:
SF:/home/runner/work/neml2/neml2/src/neml2/models/SR2toR2.cxx
FN:36,50,_ZN5neml27SR2toR216expected_optionsEv
FN:52,57,_ZN5neml27SR2toR2C2ERKNS_9OptionSetE
FN:60,72,_ZN5neml27SR2toR29set_valueEbbb
FNDA:1,_ZN5neml27SR2toR216expected_optionsEv
FNDA:1,_ZN5neml27SR2toR2C2ERKNS_9OptionSetE
FNDA:3,_ZN5neml27SR2toR29set_valueEbbb
FNF:3
FNH:3
DA:36,1
DA:38,1
DA:39,1
DA:41,2
DA:43,2
DA:44,2
DA:46,2
DA:47,1
DA:49,1
DA:50,0
DA:52,1
DA:54,1
DA:55,2
DA:57,1
DA:60,3
DA:62,3
DA:64,3
DA:65,1
DA:67,3
DA:68,1
DA:72,3
LF:21
LH:20
end_of_record
TN:
SF:/home/runner/work/neml2/neml2/src/neml2/models/Variable.cxx
FN:101,104,_ZNK5neml212VariableBase12is_dependentEv
FN:107,110,_ZNK5neml212VariableBase7optionsEv
FN:113,116,_ZNK5neml212VariableBase11scalar_typeEv
FN:119,122,_ZNK5neml212VariableBase6deviceEv
FN:125,128,_ZNK5neml212VariableBase3dimEv
FN:131,134,_ZNK5neml212VariableBase5sizesEv
FN:137,140,_ZNK5neml212VariableBase4sizeEl
FN:143,146,_ZNK5neml212VariableBase7batchedEv
FN:149,152,_ZNK5neml212VariableBase9batch_dimEv
FN:155,158,_ZNK5neml212VariableBase8list_dimEv
FN:161,164,_ZNK5neml212VariableBase8base_dimEv
FN:167,170,_ZNK5neml212VariableBase11batch_sizesEv
FN:173,176,_ZNK5neml212VariableBase10list_sizesEv
FN:179,182,_ZNK5neml212VariableBase10batch_sizeEl
FN:185,188,_ZNK5neml212VariableBase9base_sizeEl
FN:191,194,_ZNK5neml212VariableBase9list_sizeEl
FN:197,200,_ZNK5neml212VariableBase12base_storageEv
FN:203,206,_ZNK5neml212VariableBase16assembly_storageEv
FN:209,212,_ZNK5neml212VariableBase13requires_gradEv
FN:215,224,_ZN5neml212VariableBase1dERKS0_
FN:227,239,_ZN5neml212VariableBase1dERKS0_S2_
FN:242,245,_ZN5neml212VariableBase10request_ADERKS0_
FN:248,255,_ZN5neml212VariableBase10request_ADERKSt6vectorIPKS0_SaIS3_EE
FN:258,261,_ZN5neml212VariableBase10request_ADERKS0_S2_
FN:264,274,_ZN5neml212VariableBase10request_ADERKSt6vectorIPKS0_SaIS3_EES7_
FN:277,282,_ZN5neml212VariableBase5clearEv
FN:285,293,_ZN5neml212VariableBase16apply_chain_ruleERKNS_18DependencyResolverINS_5ModelENS_19LabeledAxisAccessorEEE
FN:296,304,_ZN5neml212VariableBase29apply_second_order_chain_ruleERKNS_18DependencyResolverINS_5ModelENS_19LabeledAxisAccessorEEE
FN:307,313,_ZN5neml213assign_or_addERNS_6TensorERKS0_
FN:316,333,_ZNK5neml212VariableBase17total_derivativesERKNS_18DependencyResolverINS_5ModelENS_19LabeledAxisAccessorEEEPS2_RKS3_
FN:336,380,_ZNK5neml212VariableBase24total_second_derivativesERKNS_18DependencyResolverINS_5ModelENS_19LabeledAxisAccessorEEEPS2_RKS3_
FN:37,42,_ZN5neml212VariableBaseC2ENS_19LabeledAxisAccessorEPNS_5ModelEN3c108ArrayRefIlEE
FN:384,387,_ZNK5neml28VariableINS_10QuaternionEE4typeEv
FN:384,387,_ZNK5neml28VariableINS_11MillerIndexEE4typeEv
FN:384,387,_ZNK5neml28VariableINS_2R2EE4typeEv
FN:384,387,_ZNK5neml28VariableINS_2R3EE4typeEv
FN:384,387,_ZNK5neml28VariableINS_2R4EE4typeEv
FN:384,387,_ZNK5neml28VariableINS_2R5EE4typeEv
FN:384,387,_ZNK5neml28VariableINS_2R8EE4typeEv
FN:384,387,_ZNK5neml28VariableINS_3RotEE4typeEv
FN:384,387,_ZNK5neml28VariableINS_3SR2EE4typeEv
FN:384,387,_ZNK5neml28VariableINS_3VecEE4typeEv
FN:384,387,_ZNK5neml28VariableINS_3WR2EE4typeEv
FN:384,387,_ZNK5neml28VariableINS_4SFR3EE4typeEv
FN:384,387,_ZNK5neml28VariableINS_4SFR4EE4typeEv
FN:384,387,_ZNK5neml28VariableINS_4SSR4EE4typeEv
FN:384,387,_ZNK5neml28VariableINS_4SWR4EE4typeEv
FN:384,387,_ZNK5neml28VariableINS_4WFR4EE4typeEv
FN:384,387,_ZNK5neml28VariableINS_4WSR4EE4typeEv
FN:384,387,_ZNK5neml28VariableINS_4WWR4EE4typeEv
FN:384,387,_ZNK5neml28VariableINS_5SFFR4EE4typeEv
FN:384,387,_ZNK5neml28VariableINS_5SSFR5EE4typeEv
FN:384,387,_ZNK5neml28VariableINS_6SSSSR8EE4typeEv
FN:384,387,_ZNK5neml28VariableINS_6ScalarEE4typeEv
FN:391,403,_ZNK5neml28VariableINS_10QuaternionEE5cloneERKNS_19LabeledAxisAccessorEPNS_5ModelE
FN:391,403,_ZNK5neml28VariableINS_11MillerIndexEE5cloneERKNS_19LabeledAxisAccessorEPNS_5ModelE
FN:391,403,_ZNK5neml28VariableINS_2R2EE5cloneERKNS_19LabeledAxisAccessorEPNS_5ModelE
FN:391,403,_ZNK5neml28VariableINS_2R3EE5cloneERKNS_19LabeledAxisAccessorEPNS_5ModelE
FN:391,403,_ZNK5neml28VariableINS_2R4EE5cloneERKNS_19LabeledAxisAccessorEPNS_5ModelE
FN:391,403,_ZNK5neml28VariableINS_2R5EE5cloneERKNS_19LabeledAxisAccessorEPNS_5ModelE
FN:391,403,_ZNK5neml28VariableINS_2R8EE5cloneERKNS_19LabeledAxisAccessorEPNS_5ModelE
FN:391,403,_ZNK5neml28VariableINS_3RotEE5cloneERKNS_19LabeledAxisAccessorEPNS_5ModelE
FN:391,403,_ZNK5neml28VariableINS_3SR2EE5cloneERKNS_19LabeledAxisAccessorEPNS_5ModelE
FN:391,403,_ZNK5neml28VariableINS_3VecEE5cloneERKNS_19LabeledAxisAccessorEPNS_5ModelE
FN:391,403,_ZNK5neml28VariableINS_3WR2EE5cloneERKNS_19LabeledAxisAccessorEPNS_5ModelE
FN:391,403,_ZNK5neml28VariableINS_4SFR3EE5cloneERKNS_19LabeledAxisAccessorEPNS_5ModelE
FN:391,403,_ZNK5neml28VariableINS_4SFR4EE5cloneERKNS_19LabeledAxisAccessorEPNS_5ModelE
FN:391,403,_ZNK5neml28VariableINS_4SSR4EE5cloneERKNS_19LabeledAxisAccessorEPNS_5ModelE
FN:391,403,_ZNK5neml28VariableINS_4SWR4EE5cloneERKNS_19LabeledAxisAccessorEPNS_5ModelE
FN:391,403,_ZNK5neml28VariableINS_4WFR4EE5cloneERKNS_19LabeledAxisAccessorEPNS_5ModelE
FN:391,403,_ZNK5neml28VariableINS_4WSR4EE5cloneERKNS_19LabeledAxisAccessorEPNS_5ModelE
FN:391,403,_ZNK5neml28VariableINS_4WWR4EE5cloneERKNS_19LabeledAxisAccessorEPNS_5ModelE
FN:391,403,_ZNK5neml28VariableINS_5SFFR4EE5cloneERKNS_19LabeledAxisAccessorEPNS_5ModelE
FN:391,403,_ZNK5neml28VariableINS_5SSFR5EE5cloneERKNS_19LabeledAxisAccessorEPNS_5ModelE
FN:391,403,_ZNK5neml28VariableINS_6SSSSR8EE5cloneERKNS_19LabeledAxisAccessorEPNS_5ModelE
FN:391,403,_ZNK5neml28VariableINS_6ScalarEE5cloneERKNS_19LabeledAxisAccessorEPNS_5ModelE
FN:407,431,_ZN5neml28VariableINS_10QuaternionEE3refERKNS_12VariableBaseEb
FN:407,431,_ZN5neml28VariableINS_11MillerIndexEE3refERKNS_12VariableBaseEb
FN:407,431,_ZN5neml28VariableINS_2R2EE3refERKNS_12VariableBaseEb
FN:407,431,_ZN5neml28VariableINS_2R3EE3refERKNS_12VariableBaseEb
FN:407,431,_ZN5neml28VariableINS_2R4EE3refERKNS_12VariableBaseEb
FN:407,431,_ZN5neml28VariableINS_2R5EE3refERKNS_12VariableBaseEb
FN:407,431,_ZN5neml28VariableINS_2R8EE3refERKNS_12VariableBaseEb
FN:407,431,_ZN5neml28VariableINS_3RotEE3refERKNS_12VariableBaseEb
FN:407,431,_ZN5neml28VariableINS_3SR2EE3refERKNS_12VariableBaseEb
FN:407,431,_ZN5neml28VariableINS_3VecEE3refERKNS_12VariableBaseEb
FN:407,431,_ZN5neml28VariableINS_3WR2EE3refERKNS_12VariableBaseEb
FN:407,431,_ZN5neml28VariableINS_4SFR3EE3refERKNS_12VariableBaseEb
FN:407,431,_ZN5neml28VariableINS_4SFR4EE3refERKNS_12VariableBaseEb
FN:407,431,_ZN5neml28VariableINS_4SSR4EE3refERKNS_12VariableBaseEb
FN:407,431,_ZN5neml28VariableINS_4SWR4EE3refERKNS_12VariableBaseEb
FN:407,431,_ZN5neml28VariableINS_4WFR4EE3refERKNS_12VariableBaseEb
FN:407,431,_ZN5neml28VariableINS_4WSR4EE3refERKNS_12VariableBaseEb
FN:407,431,_ZN5neml28VariableINS_4WWR4EE3refERKNS_12VariableBaseEb
FN:407,431,_ZN5neml28VariableINS_5SFFR4EE3refERKNS_12VariableBaseEb
FN:407,431,_ZN5neml28VariableINS_5SSFR5EE3refERKNS_12VariableBaseEb
FN:407,431,_ZN5neml28VariableINS_6SSSSR8EE3refERKNS_12VariableBaseEb
FN:407,431,_ZN5neml28VariableINS_6ScalarEE3refERKNS_12VariableBaseEb
FN:435,457,_ZN5neml28VariableINS_10QuaternionEE4zeroERKN3c1013TensorOptionsE
FN:435,457,_ZN5neml28VariableINS_11MillerIndexEE4zeroERKN3c1013TensorOptionsE
FN:435,457,_ZN5neml28VariableINS_2R2EE4zeroERKN3c1013TensorOptionsE
FN:435,457,_ZN5neml28VariableINS_2R3EE4zeroERKN3c1013TensorOptionsE
FN:435,457,_ZN5neml28VariableINS_2R4EE4zeroERKN3c1013TensorOptionsE
FN:435,457,_ZN5neml28VariableINS_2R5EE4zeroERKN3c1013TensorOptionsE
FN:435,457,_ZN5neml28VariableINS_2R8EE4zeroERKN3c1013TensorOptionsE
FN:435,457,_ZN5neml28VariableINS_3RotEE4zeroERKN3c1013TensorOptionsE
FN:435,457,_ZN5neml28VariableINS_3SR2EE4zeroERKN3c1013TensorOptionsE
FN:435,457,_ZN5neml28VariableINS_3VecEE4zeroERKN3c1013TensorOptionsE
FN:435,457,_ZN5neml28VariableINS_3WR2EE4zeroERKN3c1013TensorOptionsE
FN:435,457,_ZN5neml28VariableINS_4SFR3EE4zeroERKN3c1013TensorOptionsE
FN:435,457,_ZN5neml28VariableINS_4SFR4EE4zeroERKN3c1013TensorOptionsE
FN:435,457,_ZN5neml28VariableINS_4SSR4EE4zeroERKN3c1013TensorOptionsE
FN:435,457,_ZN5neml28VariableINS_4SWR4EE4zeroERKN3c1013TensorOptionsE
FN:435,457,_ZN5neml28VariableINS_4WFR4EE4zeroERKN3c1013TensorOptionsE
FN:435,457,_ZN5neml28VariableINS_4WSR4EE4zeroERKN3c1013TensorOptionsE
FN:435,457,_ZN5neml28VariableINS_4WWR4EE4zeroERKN3c1013TensorOptionsE
FN:435,457,_ZN5neml28VariableINS_5SFFR4EE4zeroERKN3c1013TensorOptionsE
FN:435,457,_ZN5neml28VariableINS_5SSFR5EE4zeroERKN3c1013TensorOptionsE
FN:435,457,_ZN5neml28VariableINS_6SSSSR8EE4zeroERKN3c1013TensorOptionsE
FN:435,457,_ZN5neml28VariableINS_6ScalarEE4zeroERKN3c1013TensorOptionsE
FN:45,49,_ZNK5neml212VariableBase5ownerEv
FN:461,479,_ZN5neml28VariableINS_10QuaternionEE3setERKNS_6TensorE
FN:461,479,_ZN5neml28VariableINS_11MillerIndexEE3setERKNS_6TensorE
FN:461,479,_ZN5neml28VariableINS_2R2EE3setERKNS_6TensorE
FN:461,479,_ZN5neml28VariableINS_2R3EE3setERKNS_6TensorE
FN:461,479,_ZN5neml28VariableINS_2R4EE3setERKNS_6TensorE
FN:461,479,_ZN5neml28VariableINS_2R5EE3setERKNS_6TensorE
FN:461,479,_ZN5neml28VariableINS_2R8EE3setERKNS_6TensorE
FN:461,479,_ZN5neml28VariableINS_3RotEE3setERKNS_6TensorE
FN:461,479,_ZN5neml28VariableINS_3SR2EE3setERKNS_6TensorE
FN:461,479,_ZN5neml28VariableINS_3VecEE3setERKNS_6TensorE
FN:461,479,_ZN5neml28VariableINS_3WR2EE3setERKNS_6TensorE
FN:461,479,_ZN5neml28VariableINS_4SFR3EE3setERKNS_6TensorE
FN:461,479,_ZN5neml28VariableINS_4SFR4EE3setERKNS_6TensorE
FN:461,479,_ZN5neml28VariableINS_4SSR4EE3setERKNS_6TensorE
FN:461,479,_ZN5neml28VariableINS_4SWR4EE3setERKNS_6TensorE
FN:461,479,_ZN5neml28VariableINS_4WFR4EE3setERKNS_6TensorE
FN:461,479,_ZN5neml28VariableINS_4WSR4EE3setERKNS_6TensorE
FN:461,479,_ZN5neml28VariableINS_4WWR4EE3setERKNS_6TensorE
FN:461,479,_ZN5neml28VariableINS_5SFFR4EE3setERKNS_6TensorE
FN:461,479,_ZN5neml28VariableINS_5SSFR5EE3setERKNS_6TensorE
FN:461,479,_ZN5neml28VariableINS_6SSSSR8EE3setERKNS_6TensorE
FN:461,479,_ZN5neml28VariableINS_6ScalarEE3setERKNS_6TensorE
FN:483,505,_ZN5neml28VariableINS_10QuaternionEE3setERKN2at6TensorEb
FN:483,505,_ZN5neml28VariableINS_11MillerIndexEE3setERKN2at6TensorEb
FN:483,505,_ZN5neml28VariableINS_2R2EE3setERKN2at6TensorEb
FN:483,505,_ZN5neml28VariableINS_2R3EE3setERKN2at6TensorEb
FN:483,505,_ZN5neml28VariableINS_2R4EE3setERKN2at6TensorEb
FN:483,505,_ZN5neml28VariableINS_2R5EE3setERKN2at6TensorEb
FN:483,505,_ZN5neml28VariableINS_2R8EE3setERKN2at6TensorEb
FN:483,505,_ZN5neml28VariableINS_3RotEE3setERKN2at6TensorEb
FN:483,505,_ZN5neml28VariableINS_3SR2EE3setERKN2at6TensorEb
FN:483,505,_ZN5neml28VariableINS_3VecEE3setERKN2at6TensorEb
FN:483,505,_ZN5neml28VariableINS_3WR2EE3setERKN2at6TensorEb
FN:483,505,_ZN5neml28VariableINS_4SFR3EE3setERKN2at6TensorEb
FN:483,505,_ZN5neml28VariableINS_4SFR4EE3setERKN2at6TensorEb
FN:483,505,_ZN5neml28VariableINS_4SSR4EE3setERKN2at6TensorEb
FN:483,505,_ZN5neml28VariableINS_4SWR4EE3setERKN2at6TensorEb
FN:483,505,_ZN5neml28VariableINS_4WFR4EE3setERKN2at6TensorEb
FN:483,505,_ZN5neml28VariableINS_4WSR4EE3setERKN2at6TensorEb
FN:483,505,_ZN5neml28VariableINS_4WWR4EE3setERKN2at6TensorEb
FN:483,505,_ZN5neml28VariableINS_5SFFR4EE3setERKN2at6TensorEb
FN:483,505,_ZN5neml28VariableINS_5SSFR5EE3setERKN2at6TensorEb
FN:483,505,_ZN5neml28VariableINS_6SSSSR8EE3setERKN2at6TensorEb
FN:483,505,_ZN5neml28VariableINS_6ScalarEE3setERKN2at6TensorEb
FN:509,512,_ZNK5neml28VariableINS_10QuaternionEE3getEv
FN:509,512,_ZNK5neml28VariableINS_11MillerIndexEE3getEv
FN:509,512,_ZNK5neml28VariableINS_2R2EE3getEv
FN:509,512,_ZNK5neml28VariableINS_2R3EE3getEv
FN:509,512,_ZNK5neml28VariableINS_2R4EE3getEv
FN:509,512,_ZNK5neml28VariableINS_2R5EE3getEv
FN:509,512,_ZNK5neml28VariableINS_2R8EE3getEv
FN:509,512,_ZNK5neml28VariableINS_3RotEE3getEv
FN:509,512,_ZNK5neml28VariableINS_3SR2EE3getEv
FN:509,512,_ZNK5neml28VariableINS_3VecEE3getEv
FN:509,512,_ZNK5neml28VariableINS_3WR2EE3getEv
FN:509,512,_ZNK5neml28VariableINS_4SFR3EE3getEv
FN:509,512,_ZNK5neml28VariableINS_4SFR4EE3getEv
FN:509,512,_ZNK5neml28VariableINS_4SSR4EE3getEv
FN:509,512,_ZNK5neml28VariableINS_4SWR4EE3getEv
FN:509,512,_ZNK5neml28VariableINS_4WFR4EE3getEv
FN:509,512,_ZNK5neml28VariableINS_4WSR4EE3getEv
FN:509,512,_ZNK5neml28VariableINS_4WWR4EE3getEv
FN:509,512,_ZNK5neml28VariableINS_5SFFR4EE3getEv
FN:509,512,_ZNK5neml28VariableINS_5SSFR5EE3getEv
FN:509,512,_ZNK5neml28VariableINS_6SSSSR8EE3getEv
FN:509,512,_ZNK5neml28VariableINS_6ScalarEE3getEv
FN:516,526,_ZNK5neml28VariableINS_10QuaternionEE6tensorEv
FN:516,526,_ZNK5neml28VariableINS_11MillerIndexEE6tensorEv
FN:516,526,_ZNK5neml28VariableINS_2R2EE6tensorEv
FN:516,526,_ZNK5neml28VariableINS_2R3EE6tensorEv
FN:516,526,_ZNK5neml28VariableINS_2R4EE6tensorEv
FN:516,526,_ZNK5neml28VariableINS_2R5EE6tensorEv
FN:516,526,_ZNK5neml28VariableINS_2R8EE6tensorEv
FN:516,526,_ZNK5neml28VariableINS_3RotEE6tensorEv
FN:516,526,_ZNK5neml28VariableINS_3SR2EE6tensorEv
FN:516,526,_ZNK5neml28VariableINS_3VecEE6tensorEv
FN:516,526,_ZNK5neml28VariableINS_3WR2EE6tensorEv
FN:516,526,_ZNK5neml28VariableINS_4SFR3EE6tensorEv
FN:516,526,_ZNK5neml28VariableINS_4SFR4EE6tensorEv
FN:516,526,_ZNK5neml28VariableINS_4SSR4EE6tensorEv
FN:516,526,_ZNK5neml28VariableINS_4SWR4EE6tensorEv
FN:516,526,_ZNK5neml28VariableINS_4WFR4EE6tensorEv
FN:516,526,_ZNK5neml28VariableINS_4WSR4EE6tensorEv
FN:516,526,_ZNK5neml28VariableINS_4WWR4EE6tensorEv
FN:516,526,_ZNK5neml28VariableINS_5SFFR4EE6tensorEv
FN:516,526,_ZNK5neml28VariableINS_5SSFR5EE6tensorEv
FN:516,526,_ZNK5neml28VariableINS_6SSSSR8EE6tensorEv
FN:516,526,_ZNK5neml28VariableINS_6ScalarEE6tensorEv
FN:52,56,_ZN5neml212VariableBase5ownerEv
FN:530,537,_ZN5neml28VariableINS_10QuaternionEE14requires_grad_Eb
FN:530,537,_ZN5neml28VariableINS_11MillerIndexEE14requires_grad_Eb
FN:530,537,_ZN5neml28VariableINS_2R2EE14requires_grad_Eb
FN:530,537,_ZN5neml28VariableINS_2R3EE14requires_grad_Eb
FN:530,537,_ZN5neml28VariableINS_2R4EE14requires_grad_Eb
FN:530,537,_ZN5neml28VariableINS_2R5EE14requires_grad_Eb
FN:530,537,_ZN5neml28VariableINS_2R8EE14requires_grad_Eb
FN:530,537,_ZN5neml28VariableINS_3RotEE14requires_grad_Eb
FN:530,537,_ZN5neml28VariableINS_3SR2EE14requires_grad_Eb
FN:530,537,_ZN5neml28VariableINS_3VecEE14requires_grad_Eb
FN:530,537,_ZN5neml28VariableINS_3WR2EE14requires_grad_Eb
FN:530,537,_ZN5neml28VariableINS_4SFR3EE14requires_grad_Eb
FN:530,537,_ZN5neml28VariableINS_4SFR4EE14requires_grad_Eb
FN:530,537,_ZN5neml28VariableINS_4SSR4EE14requires_grad_Eb
FN:530,537,_ZN5neml28VariableINS_4SWR4EE14requires_grad_Eb
FN:530,537,_ZN5neml28VariableINS_4WFR4EE14requires_grad_Eb
FN:530,537,_ZN5neml28VariableINS_4WSR4EE14requires_grad_Eb
FN:530,537,_ZN5neml28VariableINS_4WWR4EE14requires_grad_Eb
FN:530,537,_ZN5neml28VariableINS_5SFFR4EE14requires_grad_Eb
FN:530,537,_ZN5neml28VariableINS_5SSFR5EE14requires_grad_Eb
FN:530,537,_ZN5neml28VariableINS_6SSSSR8EE14requires_grad_Eb
FN:530,537,_ZN5neml28VariableINS_6ScalarEE14requires_grad_Eb
FN:541,558,_ZN5neml28VariableINS_10QuaternionEEaSERKNS_6TensorE
FN:541,558,_ZN5neml28VariableINS_11MillerIndexEEaSERKNS_6TensorE
FN:541,558,_ZN5neml28VariableINS_2R2EEaSERKNS_6TensorE
FN:541,558,_ZN5neml28VariableINS_2R3EEaSERKNS_6TensorE
FN:541,558,_ZN5neml28VariableINS_2R4EEaSERKNS_6TensorE
FN:541,558,_ZN5neml28VariableINS_2R5EEaSERKNS_6TensorE
FN:541,558,_ZN5neml28VariableINS_2R8EEaSERKNS_6TensorE
FN:541,558,_ZN5neml28VariableINS_3RotEEaSERKNS_6TensorE
FN:541,558,_ZN5neml28VariableINS_3SR2EEaSERKNS_6TensorE
FN:541,558,_ZN5neml28VariableINS_3VecEEaSERKNS_6TensorE
FN:541,558,_ZN5neml28VariableINS_3WR2EEaSERKNS_6TensorE
FN:541,558,_ZN5neml28VariableINS_4SFR3EEaSERKNS_6TensorE
FN:541,558,_ZN5neml28VariableINS_4SFR4EEaSERKNS_6TensorE
FN:541,558,_ZN5neml28VariableINS_4SSR4EEaSERKNS_6TensorE
FN:541,558,_ZN5neml28VariableINS_4SWR4EEaSERKNS_6TensorE
FN:541,558,_ZN5neml28VariableINS_4WFR4EEaSERKNS_6TensorE
FN:541,558,_ZN5neml28VariableINS_4WSR4EEaSERKNS_6TensorE
FN:541,558,_ZN5neml28VariableINS_4WWR4EEaSERKNS_6TensorE
FN:541,558,_ZN5neml28VariableINS_5SFFR4EEaSERKNS_6TensorE
FN:541,558,_ZN5neml28VariableINS_5SSFR5EEaSERKNS_6TensorE
FN:541,558,_ZN5neml28VariableINS_6SSSSR8EEaSERKNS_6TensorE
FN:541,558,_ZN5neml28VariableINS_6ScalarEEaSERKNS_6TensorE
FN:562,582,_ZN5neml28VariableINS_10QuaternionEE5clearEv
FN:562,582,_ZN5neml28VariableINS_11MillerIndexEE5clearEv
FN:562,582,_ZN5neml28VariableINS_2R2EE5clearEv
FN:562,582,_ZN5neml28VariableINS_2R3EE5clearEv
FN:562,582,_ZN5neml28VariableINS_2R4EE5clearEv
FN:562,582,_ZN5neml28VariableINS_2R5EE5clearEv
FN:562,582,_ZN5neml28VariableINS_2R8EE5clearEv
FN:562,582,_ZN5neml28VariableINS_3RotEE5clearEv
FN:562,582,_ZN5neml28VariableINS_3SR2EE5clearEv
FN:562,582,_ZN5neml28VariableINS_3VecEE5clearEv
FN:562,582,_ZN5neml28VariableINS_3WR2EE5clearEv
FN:562,582,_ZN5neml28VariableINS_4SFR3EE5clearEv
FN:562,582,_ZN5neml28VariableINS_4SFR4EE5clearEv
FN:562,582,_ZN5neml28VariableINS_4SSR4EE5clearEv
FN:562,582,_ZN5neml28VariableINS_4SWR4EE5clearEv
FN:562,582,_ZN5neml28VariableINS_4WFR4EE5clearEv
FN:562,582,_ZN5neml28VariableINS_4WSR4EE5clearEv
FN:562,582,_ZN5neml28VariableINS_4WWR4EE5clearEv
FN:562,582,_ZN5neml28VariableINS_5SFFR4EE5clearEv
FN:562,582,_ZN5neml28VariableINS_5SSFR5EE5clearEv
FN:562,582,_ZN5neml28VariableINS_6SSSSR8EE5clearEv
FN:562,582,_ZN5neml28VariableINS_6ScalarEE5clearEv
FN:588,592,_ZN5neml210DerivativeaSERKNS_6TensorE
FN:59,62,_ZNK5neml212VariableBase8is_stateEv
FN:65,68,_ZNK5neml212VariableBase12is_old_stateEv
FN:71,74,_ZNK5neml212VariableBase8is_forceEv
FN:77,80,_ZNK5neml212VariableBase12is_old_forceEv
FN:83,86,_ZNK5neml212VariableBase11is_residualEv
FN:89,92,_ZNK5neml212VariableBase12is_parameterEv
FN:95,98,_ZNK5neml212VariableBase18is_solve_dependentEv
FNDA:1269,_ZNK5neml212VariableBase12is_dependentEv
FNDA:372,_ZNK5neml212VariableBase7optionsEv
FNDA:0,_ZNK5neml212VariableBase11scalar_typeEv
FNDA:0,_ZNK5neml212VariableBase6deviceEv
FNDA:0,_ZNK5neml212VariableBase3dimEv
FNDA:0,_ZNK5neml212VariableBase5sizesEv
FNDA:0,_ZNK5neml212VariableBase4sizeEl
FNDA:0,_ZNK5neml212VariableBase7batchedEv
FNDA:33949,_ZNK5neml212VariableBase9batch_dimEv
FNDA:1155846,_ZNK5neml212VariableBase8list_dimEv
FNDA:0,_ZNK5neml212VariableBase8base_dimEv
FNDA:1,_ZNK5neml212VariableBase11batch_sizesEv
FNDA:1200665,_ZNK5neml212VariableBase10list_sizesEv
FNDA:0,_ZNK5neml212VariableBase10batch_sizeEl
FNDA:0,_ZNK5neml212VariableBase9base_sizeEl
FNDA:1,_ZNK5neml212VariableBase9list_sizeEl
FNDA:0,_ZNK5neml212VariableBase12base_storageEv
FNDA:2486,_ZNK5neml212VariableBase16assembly_storageEv
FNDA:0,_ZNK5neml212VariableBase13requires_gradEv
FNDA:829,_ZN5neml212VariableBase1dERKS0_
FNDA:122,_ZN5neml212VariableBase1dERKS0_S2_
FNDA:0,_ZN5neml212VariableBase10request_ADERKS0_
FNDA:4,_ZN5neml212VariableBase10request_ADERKSt6vectorIPKS0_SaIS3_EE
FNDA:0,_ZN5neml212VariableBase10request_ADERKS0_S2_
FNDA:3,_ZN5neml212VariableBase10request_ADERKSt6vectorIPKS0_SaIS3_EES7_
FNDA:15640,_ZN5neml212VariableBase5clearEv
FNDA:97,_ZN5neml212VariableBase16apply_chain_ruleERKNS_18DependencyResolverINS_5ModelENS_19LabeledAxisAccessorEEE
FNDA:22,_ZN5neml212VariableBase29apply_second_order_chain_ruleERKNS_18DependencyResolverINS_5ModelENS_19LabeledAxisAccessorEEE
FNDA:1485,_ZN5neml213assign_or_addERNS_6TensorERKS0_
FNDA:611,_ZNK5neml212VariableBase17total_derivativesERKNS_18DependencyResolverINS_5ModelENS_19LabeledAxisAccessorEEEPS2_RKS3_
FNDA:62,_ZNK5neml212VariableBase24total_second_derivativesERKNS_18DependencyResolverINS_5ModelENS_19LabeledAxisAccessorEEEPS2_RKS3_
FNDA:1416,_ZN5neml212VariableBaseC2ENS_19LabeledAxisAccessorEPNS_5ModelEN3c108ArrayRefIlEE
FNDA:0,_ZNK5neml28VariableINS_10QuaternionEE4typeEv
FNDA:0,_ZNK5neml28VariableINS_11MillerIndexEE4typeEv
FNDA:12,_ZNK5neml28VariableINS_2R2EE4typeEv
FNDA:0,_ZNK5neml28VariableINS_2R3EE4typeEv
FNDA:0,_ZNK5neml28VariableINS_2R4EE4typeEv
FNDA:0,_ZNK5neml28VariableINS_2R5EE4typeEv
FNDA:0,_ZNK5neml28VariableINS_2R8EE4typeEv
FNDA:30,_ZNK5neml28VariableINS_3RotEE4typeEv
FNDA:464,_ZNK5neml28VariableINS_3SR2EE4typeEv
FNDA:0,_ZNK5neml28VariableINS_3VecEE4typeEv
FNDA:14,_ZNK5neml28VariableINS_3WR2EE4typeEv
FNDA:0,_ZNK5neml28VariableINS_4SFR3EE4typeEv
FNDA:0,_ZNK5neml28VariableINS_4SFR4EE4typeEv
FNDA:16,_ZNK5neml28VariableINS_4SSR4EE4typeEv
FNDA:0,_ZNK5neml28VariableINS_4SWR4EE4typeEv
FNDA:0,_ZNK5neml28VariableINS_4WFR4EE4typeEv
FNDA:0,_ZNK5neml28VariableINS_4WSR4EE4typeEv
FNDA:0,_ZNK5neml28VariableINS_4WWR4EE4typeEv
FNDA:0,_ZNK5neml28VariableINS_5SFFR4EE4typeEv
FNDA:0,_ZNK5neml28VariableINS_5SSFR5EE4typeEv
FNDA:0,_ZNK5neml28VariableINS_6SSSSR8EE4typeEv
FNDA:890,_ZNK5neml28VariableINS_6ScalarEE4typeEv
FNDA:0,_ZNK5neml28VariableINS_10QuaternionEE5cloneERKNS_19LabeledAxisAccessorEPNS_5ModelE
FNDA:0,_ZNK5neml28VariableINS_11MillerIndexEE5cloneERKNS_19LabeledAxisAccessorEPNS_5ModelE
FNDA:0,_ZNK5neml28VariableINS_2R2EE5cloneERKNS_19LabeledAxisAccessorEPNS_5ModelE
FNDA:0,_ZNK5neml28VariableINS_2R3EE5cloneERKNS_19LabeledAxisAccessorEPNS_5ModelE
FNDA:0,_ZNK5neml28VariableINS_2R4EE5cloneERKNS_19LabeledAxisAccessorEPNS_5ModelE
FNDA:0,_ZNK5neml28VariableINS_2R5EE5cloneERKNS_19LabeledAxisAccessorEPNS_5ModelE
FNDA:0,_ZNK5neml28VariableINS_2R8EE5cloneERKNS_19LabeledAxisAccessorEPNS_5ModelE
FNDA:14,_ZNK5neml28VariableINS_3RotEE5cloneERKNS_19LabeledAxisAccessorEPNS_5ModelE
FNDA:164,_ZNK5neml28VariableINS_3SR2EE5cloneERKNS_19LabeledAxisAccessorEPNS_5ModelE
FNDA:0,_ZNK5neml28VariableINS_3VecEE5cloneERKNS_19LabeledAxisAccessorEPNS_5ModelE
FNDA:4,_ZNK5neml28VariableINS_3WR2EE5cloneERKNS_19LabeledAxisAccessorEPNS_5ModelE
FNDA:0,_ZNK5neml28VariableINS_4SFR3EE5cloneERKNS_19LabeledAxisAccessorEPNS_5ModelE
FNDA:0,_ZNK5neml28VariableINS_4SFR4EE5cloneERKNS_19LabeledAxisAccessorEPNS_5ModelE
FNDA:6,_ZNK5neml28VariableINS_4SSR4EE5cloneERKNS_19LabeledAxisAccessorEPNS_5ModelE
FNDA:0,_ZNK5neml28VariableINS_4SWR4EE5cloneERKNS_19LabeledAxisAccessorEPNS_5ModelE
FNDA:0,_ZNK5neml28VariableINS_4WFR4EE5cloneERKNS_19LabeledAxisAccessorEPNS_5ModelE
FNDA:0,_ZNK5neml28VariableINS_4WSR4EE5cloneERKNS_19LabeledAxisAccessorEPNS_5ModelE
FNDA:0,_ZNK5neml28VariableINS_4WWR4EE5cloneERKNS_19LabeledAxisAccessorEPNS_5ModelE
FNDA:0,_ZNK5neml28VariableINS_5SFFR4EE5cloneERKNS_19LabeledAxisAccessorEPNS_5ModelE
FNDA:0,_ZNK5neml28VariableINS_5SSFR5EE5cloneERKNS_19LabeledAxisAccessorEPNS_5ModelE
FNDA:0,_ZNK5neml28VariableINS_6SSSSR8EE5cloneERKNS_19LabeledAxisAccessorEPNS_5ModelE
FNDA:274,_ZNK5neml28VariableINS_6ScalarEE5cloneERKNS_19LabeledAxisAccessorEPNS_5ModelE
FNDA:0,_ZN5neml28VariableINS_10QuaternionEE3refERKNS_12VariableBaseEb
FNDA:0,_ZN5neml28VariableINS_11MillerIndexEE3refERKNS_12VariableBaseEb
FNDA:6,_ZN5neml28VariableINS_2R2EE3refERKNS_12VariableBaseEb
FNDA:0,_ZN5neml28VariableINS_2R3EE3refERKNS_12VariableBaseEb
FNDA:0,_ZN5neml28VariableINS_2R4EE3refERKNS_12VariableBaseEb
FNDA:0,_ZN5neml28VariableINS_2R5EE3refERKNS_12VariableBaseEb
FNDA:0,_ZN5neml28VariableINS_2R8EE3refERKNS_12VariableBaseEb
FNDA:15,_ZN5neml28VariableINS_3RotEE3refERKNS_12VariableBaseEb
FNDA:230,_ZN5neml28VariableINS_3SR2EE3refERKNS_12VariableBaseEb
FNDA:0,_ZN5neml28VariableINS_3VecEE3refERKNS_12VariableBaseEb
FNDA:7,_ZN5neml28VariableINS_3WR2EE3refERKNS_12VariableBaseEb
FNDA:0,_ZN5neml28VariableINS_4SFR3EE3refERKNS_12VariableBaseEb
FNDA:0,_ZN5neml28VariableINS_4SFR4EE3refERKNS_12VariableBaseEb
FNDA:8,_ZN5neml28VariableINS_4SSR4EE3refERKNS_12VariableBaseEb
FNDA:0,_ZN5neml28VariableINS_4SWR4EE3refERKNS_12VariableBaseEb
FNDA:0,_ZN5neml28VariableINS_4WFR4EE3refERKNS_12VariableBaseEb
FNDA:0,_ZN5neml28VariableINS_4WSR4EE3refERKNS_12VariableBaseEb
FNDA:0,_ZN5neml28VariableINS_4WWR4EE3refERKNS_12VariableBaseEb
FNDA:0,_ZN5neml28VariableINS_5SFFR4EE3refERKNS_12VariableBaseEb
FNDA:0,_ZN5neml28VariableINS_5SSFR5EE3refERKNS_12VariableBaseEb
FNDA:0,_ZN5neml28VariableINS_6SSSSR8EE3refERKNS_12VariableBaseEb
FNDA:437,_ZN5neml28VariableINS_6ScalarEE3refERKNS_12VariableBaseEb
FNDA:0,_ZN5neml28VariableINS_10QuaternionEE4zeroERKN3c1013TensorOptionsE
FNDA:0,_ZN5neml28VariableINS_11MillerIndexEE4zeroERKN3c1013TensorOptionsE
FNDA:163,_ZN5neml28VariableINS_2R2EE4zeroERKN3c1013TensorOptionsE
FNDA:0,_ZN5neml28VariableINS_2R3EE4zeroERKN3c1013TensorOptionsE
FNDA:0,_ZN5neml28VariableINS_2R4EE4zeroERKN3c1013TensorOptionsE
FNDA:0,_ZN5neml28VariableINS_2R5EE4zeroERKN3c1013TensorOptionsE
FNDA:0,_ZN5neml28VariableINS_2R8EE4zeroERKN3c1013TensorOptionsE
FNDA:437,_ZN5neml28VariableINS_3RotEE4zeroERKN3c1013TensorOptionsE
FNDA:4366,_ZN5neml28VariableINS_3SR2EE4zeroERKN3c1013TensorOptionsE
FNDA:22,_ZN5neml28VariableINS_3VecEE4zeroERKN3c1013TensorOptionsE
FNDA:208,_ZN5neml28VariableINS_3WR2EE4zeroERKN3c1013TensorOptionsE
FNDA:0,_ZN5neml28VariableINS_4SFR3EE4zeroERKN3c1013TensorOptionsE
FNDA:0,_ZN5neml28VariableINS_4SFR4EE4zeroERKN3c1013TensorOptionsE
FNDA:236,_ZN5neml28VariableINS_4SSR4EE4zeroERKN3c1013TensorOptionsE
FNDA:0,_ZN5neml28VariableINS_4SWR4EE4zeroERKN3c1013TensorOptionsE
FNDA:0,_ZN5neml28VariableINS_4WFR4EE4zeroERKN3c1013TensorOptionsE
FNDA:0,_ZN5neml28VariableINS_4WSR4EE4zeroERKN3c1013TensorOptionsE
FNDA:0,_ZN5neml28VariableINS_4WWR4EE4zeroERKN3c1013TensorOptionsE
FNDA:0,_ZN5neml28VariableINS_5SFFR4EE4zeroERKN3c1013TensorOptionsE
FNDA:0,_ZN5neml28VariableINS_5SSFR5EE4zeroERKN3c1013TensorOptionsE
FNDA:0,_ZN5neml28VariableINS_6SSSSR8EE4zeroERKN3c1013TensorOptionsE
FNDA:10208,_ZN5neml28VariableINS_6ScalarEE4zeroERKN3c1013TensorOptionsE
FNDA:10513,_ZNK5neml212VariableBase5ownerEv
FNDA:0,_ZN5neml28VariableINS_10QuaternionEE3setERKNS_6TensorE
FNDA:0,_ZN5neml28VariableINS_11MillerIndexEE3setERKNS_6TensorE
FNDA:65,_ZN5neml28VariableINS_2R2EE3setERKNS_6TensorE
FNDA:0,_ZN5neml28VariableINS_2R3EE3setERKNS_6TensorE
FNDA:0,_ZN5neml28VariableINS_2R4EE3setERKNS_6TensorE
FNDA:0,_ZN5neml28VariableINS_2R5EE3setERKNS_6TensorE
FNDA:0,_ZN5neml28VariableINS_2R8EE3setERKNS_6TensorE
FNDA:841,_ZN5neml28VariableINS_3RotEE3setERKNS_6TensorE
FNDA:5761,_ZN5neml28VariableINS_3SR2EE3setERKNS_6TensorE
FNDA:11,_ZN5neml28VariableINS_3VecEE3setERKNS_6TensorE
FNDA:121,_ZN5neml28VariableINS_3WR2EE3setERKNS_6TensorE
FNDA:0,_ZN5neml28VariableINS_4SFR3EE3setERKNS_6TensorE
FNDA:0,_ZN5neml28VariableINS_4SFR4EE3setERKNS_6TensorE
FNDA:102,_ZN5neml28VariableINS_4SSR4EE3setERKNS_6TensorE
FNDA:0,_ZN5neml28VariableINS_4SWR4EE3setERKNS_6TensorE
FNDA:0,_ZN5neml28VariableINS_4WFR4EE3setERKNS_6TensorE
FNDA:0,_ZN5neml28VariableINS_4WSR4EE3setERKNS_6TensorE
FNDA:0,_ZN5neml28VariableINS_4WWR4EE3setERKNS_6TensorE
FNDA:0,_ZN5neml28VariableINS_5SFFR4EE3setERKNS_6TensorE
FNDA:0,_ZN5neml28VariableINS_5SSFR5EE3setERKNS_6TensorE
FNDA:0,_ZN5neml28VariableINS_6SSSSR8EE3setERKNS_6TensorE
FNDA:10844,_ZN5neml28VariableINS_6ScalarEE3setERKNS_6TensorE
FNDA:0,_ZN5neml28VariableINS_10QuaternionEE3setERKN2at6TensorEb
FNDA:0,_ZN5neml28VariableINS_11MillerIndexEE3setERKN2at6TensorEb
FNDA:33,_ZN5neml28VariableINS_2R2EE3setERKN2at6TensorEb
FNDA:0,_ZN5neml28VariableINS_2R3EE3setERKN2at6TensorEb
FNDA:0,_ZN5neml28VariableINS_2R4EE3setERKN2at6TensorEb
FNDA:0,_ZN5neml28VariableINS_2R5EE3setERKN2at6TensorEb
FNDA:0,_ZN5neml28VariableINS_2R8EE3setERKN2at6TensorEb
FNDA:532,_ZN5neml28VariableINS_3RotEE3setERKN2at6TensorEb
FNDA:5211,_ZN5neml28VariableINS_3SR2EE3setERKN2at6TensorEb
FNDA:12,_ZN5neml28VariableINS_3VecEE3setERKN2at6TensorEb
FNDA:92,_ZN5neml28VariableINS_3WR2EE3setERKN2at6TensorEb
FNDA:0,_ZN5neml28VariableINS_4SFR3EE3setERKN2at6TensorEb
FNDA:0,_ZN5neml28VariableINS_4SFR4EE3setERKN2at6TensorEb
FNDA:60,_ZN5neml28VariableINS_4SSR4EE3setERKN2at6TensorEb
FNDA:0,_ZN5neml28VariableINS_4SWR4EE3setERKN2at6TensorEb
FNDA:0,_ZN5neml28VariableINS_4WFR4EE3setERKN2at6TensorEb
FNDA:0,_ZN5neml28VariableINS_4WSR4EE3setERKN2at6TensorEb
FNDA:0,_ZN5neml28VariableINS_4WWR4EE3setERKN2at6TensorEb
FNDA:0,_ZN5neml28VariableINS_5SFFR4EE3setERKN2at6TensorEb
FNDA:0,_ZN5neml28VariableINS_5SSFR5EE3setERKN2at6TensorEb
FNDA:0,_ZN5neml28VariableINS_6SSSSR8EE3setERKN2at6TensorEb
FNDA:7181,_ZN5neml28VariableINS_6ScalarEE3setERKN2at6TensorEb
FNDA:0,_ZNK5neml28VariableINS_10QuaternionEE3getEv
FNDA:0,_ZNK5neml28VariableINS_11MillerIndexEE3getEv
FNDA:0,_ZNK5neml28VariableINS_2R2EE3getEv
FNDA:0,_ZNK5neml28VariableINS_2R3EE3getEv
FNDA:0,_ZNK5neml28VariableINS_2R4EE3getEv
FNDA:0,_ZNK5neml28VariableINS_2R5EE3getEv
FNDA:0,_ZNK5neml28VariableINS_2R8EE3getEv
FNDA:0,_ZNK5neml28VariableINS_3RotEE3getEv
FNDA:0,_ZNK5neml28VariableINS_3SR2EE3getEv
FNDA:0,_ZNK5neml28VariableINS_3VecEE3getEv
FNDA:0,_ZNK5neml28VariableINS_3WR2EE3getEv
FNDA:0,_ZNK5neml28VariableINS_4SFR3EE3getEv
FNDA:0,_ZNK5neml28VariableINS_4SFR4EE3getEv
FNDA:0,_ZNK5neml28VariableINS_4SSR4EE3getEv
FNDA:0,_ZNK5neml28VariableINS_4SWR4EE3getEv
FNDA:0,_ZNK5neml28VariableINS_4WFR4EE3getEv
FNDA:0,_ZNK5neml28VariableINS_4WSR4EE3getEv
FNDA:0,_ZNK5neml28VariableINS_4WWR4EE3getEv
FNDA:0,_ZNK5neml28VariableINS_5SFFR4EE3getEv
FNDA:0,_ZNK5neml28VariableINS_5SSFR5EE3getEv
FNDA:0,_ZNK5neml28VariableINS_6SSSSR8EE3getEv
FNDA:0,_ZNK5neml28VariableINS_6ScalarEE3getEv
FNDA:0,_ZNK5neml28VariableINS_10QuaternionEE6tensorEv
FNDA:0,_ZNK5neml28VariableINS_11MillerIndexEE6tensorEv
FNDA:35350,_ZNK5neml28VariableINS_2R2EE6tensorEv
FNDA:0,_ZNK5neml28VariableINS_2R3EE6tensorEv
FNDA:0,_ZNK5neml28VariableINS_2R4EE6tensorEv
FNDA:0,_ZNK5neml28VariableINS_2R5EE6tensorEv
FNDA:0,_ZNK5neml28VariableINS_2R8EE6tensorEv
FNDA:76534,_ZNK5neml28VariableINS_3RotEE6tensorEv
FNDA:891006,_ZNK5neml28VariableINS_3SR2EE6tensorEv
FNDA:88,_ZNK5neml28VariableINS_3VecEE6tensorEv
FNDA:57166,_ZNK5neml28VariableINS_3WR2EE6tensorEv
FNDA:0,_ZNK5neml28VariableINS_4SFR3EE6tensorEv
FNDA:0,_ZNK5neml28VariableINS_4SFR4EE6tensorEv
FNDA:17726,_ZNK5neml28VariableINS_4SSR4EE6tensorEv
FNDA:0,_ZNK5neml28VariableINS_4SWR4EE6tensorEv
FNDA:0,_ZNK5neml28VariableINS_4WFR4EE6tensorEv
FNDA:0,_ZNK5neml28VariableINS_4WSR4EE6tensorEv
FNDA:0,_ZNK5neml28VariableINS_4WWR4EE6tensorEv
FNDA:0,_ZNK5neml28VariableINS_5SFFR4EE6tensorEv
FNDA:0,_ZNK5neml28VariableINS_5SSFR5EE6tensorEv
FNDA:0,_ZNK5neml28VariableINS_6SSSSR8EE6tensorEv
FNDA:901114,_ZNK5neml28VariableINS_6ScalarEE6tensorEv
FNDA:10113,_ZN5neml212VariableBase5ownerEv
FNDA:0,_ZN5neml28VariableINS_10QuaternionEE14requires_grad_Eb
FNDA:0,_ZN5neml28VariableINS_11MillerIndexEE14requires_grad_Eb
FNDA:0,_ZN5neml28VariableINS_2R2EE14requires_grad_Eb
FNDA:0,_ZN5neml28VariableINS_2R3EE14requires_grad_Eb
FNDA:0,_ZN5neml28VariableINS_2R4EE14requires_grad_Eb
FNDA:0,_ZN5neml28VariableINS_2R5EE14requires_grad_Eb
FNDA:0,_ZN5neml28VariableINS_2R8EE14requires_grad_Eb
FNDA:0,_ZN5neml28VariableINS_3RotEE14requires_grad_Eb
FNDA:1,_ZN5neml28VariableINS_3SR2EE14requires_grad_Eb
FNDA:0,_ZN5neml28VariableINS_3VecEE14requires_grad_Eb
FNDA:0,_ZN5neml28VariableINS_3WR2EE14requires_grad_Eb
FNDA:0,_ZN5neml28VariableINS_4SFR3EE14requires_grad_Eb
FNDA:0,_ZN5neml28VariableINS_4SFR4EE14requires_grad_Eb
FNDA:0,_ZN5neml28VariableINS_4SSR4EE14requires_grad_Eb
FNDA:0,_ZN5neml28VariableINS_4SWR4EE14requires_grad_Eb
FNDA:0,_ZN5neml28VariableINS_4WFR4EE14requires_grad_Eb
FNDA:0,_ZN5neml28VariableINS_4WSR4EE14requires_grad_Eb
FNDA:0,_ZN5neml28VariableINS_4WWR4EE14requires_grad_Eb
FNDA:0,_ZN5neml28VariableINS_5SFFR4EE14requires_grad_Eb
FNDA:0,_ZN5neml28VariableINS_5SSFR5EE14requires_grad_Eb
FNDA:0,_ZN5neml28VariableINS_6SSSSR8EE14requires_grad_Eb
FNDA:5,_ZN5neml28VariableINS_6ScalarEE14requires_grad_Eb
FNDA:0,_ZN5neml28VariableINS_10QuaternionEEaSERKNS_6TensorE
FNDA:0,_ZN5neml28VariableINS_11MillerIndexEEaSERKNS_6TensorE
FNDA:12,_ZN5neml28VariableINS_2R2EEaSERKNS_6TensorE
FNDA:0,_ZN5neml28VariableINS_2R3EEaSERKNS_6TensorE
FNDA:0,_ZN5neml28VariableINS_2R4EEaSERKNS_6TensorE
FNDA:0,_ZN5neml28VariableINS_2R5EEaSERKNS_6TensorE
FNDA:0,_ZN5neml28VariableINS_2R8EEaSERKNS_6TensorE
FNDA:7,_ZN5neml28VariableINS_3RotEEaSERKNS_6TensorE
FNDA:296,_ZN5neml28VariableINS_3SR2EEaSERKNS_6TensorE
FNDA:1,_ZN5neml28VariableINS_3VecEEaSERKNS_6TensorE
FNDA:12,_ZN5neml28VariableINS_3WR2EEaSERKNS_6TensorE
FNDA:0,_ZN5neml28VariableINS_4SFR3EEaSERKNS_6TensorE
FNDA:0,_ZN5neml28VariableINS_4SFR4EEaSERKNS_6TensorE
FNDA:12,_ZN5neml28VariableINS_4SSR4EEaSERKNS_6TensorE
FNDA:0,_ZN5neml28VariableINS_4SWR4EEaSERKNS_6TensorE
FNDA:0,_ZN5neml28VariableINS_4WFR4EEaSERKNS_6TensorE
FNDA:0,_ZN5neml28VariableINS_4WSR4EEaSERKNS_6TensorE
FNDA:0,_ZN5neml28VariableINS_4WWR4EEaSERKNS_6TensorE
FNDA:0,_ZN5neml28VariableINS_5SFFR4EEaSERKNS_6TensorE
FNDA:0,_ZN5neml28VariableINS_5SSFR5EEaSERKNS_6TensorE
FNDA:0,_ZN5neml28VariableINS_6SSSSR8EEaSERKNS_6TensorE
FNDA:451,_ZN5neml28VariableINS_6ScalarEEaSERKNS_6TensorE
FNDA:0,_ZN5neml28VariableINS_10QuaternionEE5clearEv
FNDA:0,_ZN5neml28VariableINS_11MillerIndexEE5clearEv
FNDA:163,_ZN5neml28VariableINS_2R2EE5clearEv
FNDA:0,_ZN5neml28VariableINS_2R3EE5clearEv
FNDA:0,_ZN5neml28VariableINS_2R4EE5clearEv
FNDA:0,_ZN5neml28VariableINS_2R5EE5clearEv
FNDA:0,_ZN5neml28VariableINS_2R8EE5clearEv
FNDA:437,_ZN5neml28VariableINS_3RotEE5clearEv
FNDA:4366,_ZN5neml28VariableINS_3SR2EE5clearEv
FNDA:22,_ZN5neml28VariableINS_3VecEE5clearEv
FNDA:208,_ZN5neml28VariableINS_3WR2EE5clearEv
FNDA:0,_ZN5neml28VariableINS_4SFR3EE5clearEv
FNDA:0,_ZN5neml28VariableINS_4SFR4EE5clearEv
FNDA:236,_ZN5neml28VariableINS_4SSR4EE5clearEv
FNDA:0,_ZN5neml28VariableINS_4SWR4EE5clearEv
FNDA:0,_ZN5neml28VariableINS_4WFR4EE5clearEv
FNDA:0,_ZN5neml28VariableINS_4WSR4EE5clearEv
FNDA:0,_ZN5neml28VariableINS_4WWR4EE5clearEv
FNDA:0,_ZN5neml28VariableINS_5SFFR4EE5clearEv
FNDA:0,_ZN5neml28VariableINS_5SSFR5EE5clearEv
FNDA:0,_ZN5neml28VariableINS_6SSSSR8EE5clearEv
FNDA:10208,_ZN5neml28VariableINS_6ScalarEE5clearEv
FNDA:951,_ZN5neml210DerivativeaSERKNS_6TensorE
FNDA:1015,_ZNK5neml212VariableBase8is_stateEv
FNDA:163,_ZNK5neml212VariableBase12is_old_stateEv
FNDA:167,_ZNK5neml212VariableBase8is_forceEv
FNDA:47,_ZNK5neml212VariableBase12is_old_forceEv
FNDA:157,_ZNK5neml212VariableBase11is_residualEv
FNDA:107,_ZNK5neml212VariableBase12is_parameterEv
FNDA:577,_ZNK5neml212VariableBase18is_solve_dependentEv
FNF:284
FNH:90
DA:37,1416
DA:38,1416
DA:39,1416
DA:40,2832
DA:42,1416
DA:45,10513
DA:47,10513
DA:48,10513
DA:52,10113
DA:54,10113
DA:55,10113
DA:59,1015
DA:61,1015
DA:65,163
DA:67,163
DA:71,167
DA:73,167
DA:77,47
DA:79,47
DA:83,157
DA:85,157
DA:89,107
DA:91,107
DA:95,577
DA:97,577
DA:101,1269
DA:103,1269
DA:107,372
DA:109,372
DA:113,0
DA:115,0
DA:119,0
DA:121,0
DA:125,0
DA:127,0
DA:131,0
DA:133,0
DA:137,0
DA:139,0
DA:143,0
DA:145,0
DA:149,33949
DA:151,33949
DA:155,1155846
DA:157,1155846
DA:161,0
DA:163,0
DA:167,1
DA:169,1
DA:173,1200665
DA:175,1200665
DA:179,0
DA:181,0
DA:185,0
DA:187,0
DA:191,1
DA:193,1
DA:197,0
DA:199,0
DA:203,2486
DA:205,2486
DA:209,0
DA:211,0
DA:215,829
DA:217,829
DA:219,829
DA:221,829
DA:223,829
DA:227,122
DA:229,122
DA:231,122
DA:233,122
DA:235,122
DA:237,488
DA:238,122
DA:242,0
DA:244,0
DA:245,0
DA:248,4
DA:250,18
DA:252,14
DA:253,14
DA:255,4
DA:258,0
DA:260,0
DA:261,0
DA:264,3
DA:267,15
DA:268,60
DA:270,48
DA:271,48
DA:272,48
DA:274,3
DA:277,15640
DA:279,15640
DA:280,15640
DA:281,15640
DA:282,15640
DA:285,97
DA:287,133
DA:288,133
DA:290,97
DA:291,97
DA:296,22
DA:298,22
DA:299,22
DA:301,22
DA:302,22
DA:307,1485
DA:309,1485
DA:310,121
DA:312,1364
DA:313,1485
DA:316,611
DA:320,611
DA:322,1575
DA:324,964
DA:325,565
DA:327,798
DA:328,1164
DA:329,1164
DA:332,611
DA:333,0
DA:336,62
DA:340,62
DA:342,103
DA:343,143
DA:345,102
DA:346,29
DA:347,73
DA:348,38
DA:349,38
DA:350,19
DA:351,95
DA:352,19
DA:353,54
DA:354,36
DA:355,36
DA:356,18
DA:357,90
DA:358,18
DA:360,72
DA:361,78
DA:362,84
DA:363,96
DA:364,54
DA:365,54
DA:366,324
DA:367,78
DA:370,156
DA:371,94
DA:372,80
DA:373,63
DA:374,58
DA:375,35
DA:376,175
DA:377,40
DA:379,62
DA:380,126
DA:384,1426
DA:386,1426
DA:391,462
DA:400,1386
DA:401,1848
DA:407,703
DA:409,703
DA:411,703
DA:413,703
DA:414,703
DA:416,703
DA:418,703
DA:419,703
DA:421,703
DA:423,703
DA:425,703
DA:427,703
DA:429,703
DA:430,703
DA:431,703
DA:435,15640
DA:437,15640
DA:442,15640
DA:446,0
DA:448,0
DA:450,0
DA:452,0
DA:455,0
DA:457,15640
DA:461,17745
DA:463,17745
DA:464,13108
DA:465,26216
DA:468,4637
DA:470,4637
DA:472,4637
DA:474,4637
DA:477,4637
DA:479,17745
DA:483,13121
DA:485,13121
DA:490,7707
DA:494,5414
DA:496,5414
DA:498,5414
DA:500,5414
DA:503,5414
DA:505,13121
DA:509,0
DA:511,0
DA:516,1978984
DA:518,1978984
DA:520,1155846
DA:521,1155846
DA:522,1155846
DA:523,1155846
DA:525,823138
DA:530,6
DA:532,6
DA:533,6
DA:536,0
DA:537,6
DA:541,791
DA:543,791
DA:544,791
DA:547,0
DA:549,0
DA:551,0
DA:553,0
DA:556,0
DA:558,791
DA:562,15640
DA:564,15640
DA:566,15640
DA:567,15640
DA:571,0
DA:573,0
DA:575,0
DA:577,0
DA:580,0
DA:582,15640
DA:588,951
DA:590,951
DA:591,951
LF:243
LH:196
end_of_record
TN:
SF:/home/runner/work/neml2/neml2/src/neml2/models/VariableRate.cxx
FN:35,52,_ZN5neml212VariableRateINS_3SR2EE16expected_optionsEv
FN:35,52,_ZN5neml212VariableRateINS_3VecEE16expected_optionsEv
FN:35,52,_ZN5neml212VariableRateINS_6ScalarEE16expected_optionsEv
FN:55,65,_ZN5neml212VariableRateINS_3SR2EEC2ERKNS_9OptionSetE
FN:55,65,_ZN5neml212VariableRateINS_3VecEEC2ERKNS_9OptionSetE
FN:55,65,_ZN5neml212VariableRateINS_6ScalarEEC2ERKNS_9OptionSetE
FN:69,73,_ZNK5neml212VariableRateINS_3SR2EE8diagnoseEv
FN:69,73,_ZNK5neml212VariableRateINS_3VecEE8diagnoseEv
FN:69,73,_ZNK5neml212VariableRateINS_6ScalarEE8diagnoseEv
FN:77,101,_ZN5neml212VariableRateINS_3SR2EE9set_valueEbbb
FN:77,101,_ZN5neml212VariableRateINS_3VecEE9set_valueEbbb
FN:77,101,_ZN5neml212VariableRateINS_6ScalarEE9set_valueEbbb
FNDA:1,_ZN5neml212VariableRateINS_3SR2EE16expected_optionsEv
FNDA:1,_ZN5neml212VariableRateINS_3VecEE16expected_optionsEv
FNDA:1,_ZN5neml212VariableRateINS_6ScalarEE16expected_optionsEv
FNDA:6,_ZN5neml212VariableRateINS_3SR2EEC2ERKNS_9OptionSetE
FNDA:0,_ZN5neml212VariableRateINS_3VecEEC2ERKNS_9OptionSetE
FNDA:2,_ZN5neml212VariableRateINS_6ScalarEEC2ERKNS_9OptionSetE
FNDA:6,_ZNK5neml212VariableRateINS_3SR2EE8diagnoseEv
FNDA:0,_ZNK5neml212VariableRateINS_3VecEE8diagnoseEv
FNDA:0,_ZNK5neml212VariableRateINS_6ScalarEE8diagnoseEv
FNDA:24,_ZN5neml212VariableRateINS_3SR2EE9set_valueEbbb
FNDA:0,_ZN5neml212VariableRateINS_3VecEE9set_valueEbbb
FNDA:4,_ZN5neml212VariableRateINS_6ScalarEE9set_valueEbbb
FNF:12
FNH:8
DA:35,3
DA:37,3
DA:38,3
DA:42,6
DA:43,6
DA:45,6
DA:46,3
DA:48,9
DA:49,3
DA:51,3
DA:52,0
DA:55,8
DA:57,8
DA:58,8
DA:59,8
DA:60,8
DA:61,8
DA:62,18
DA:63,16
DA:65,8
DA:69,6
DA:71,6
DA:72,6
DA:73,6
DA:77,28
DA:79,28
DA:80,28
DA:82,28
DA:83,26
DA:85,28
DA:87,11
DA:89,11
DA:90,5
DA:92,11
DA:93,2
DA:95,11
DA:96,9
DA:98,2
DA:99,2
DA:100,11
DA:101,37
LF:41
LH:40
end_of_record
TN:
SF:/home/runner/work/neml2/neml2/src/neml2/models/VariableStore.cxx
FN:105,113,_ZN5neml213VariableStore23declare_output_variableINS_10QuaternionEEERNS_8VariableIT_EERKNS_19LabeledAxisAccessorEN3c108ArrayRefIlEE
FN:105,113,_ZN5neml213VariableStore23declare_output_variableINS_11MillerIndexEEERNS_8VariableIT_EERKNS_19LabeledAxisAccessorEN3c108ArrayRefIlEE
FN:105,113,_ZN5neml213VariableStore23declare_output_variableINS_2R2EEERNS_8VariableIT_EERKNS_19LabeledAxisAccessorEN3c108ArrayRefIlEE
FN:105,113,_ZN5neml213VariableStore23declare_output_variableINS_2R3EEERNS_8VariableIT_EERKNS_19LabeledAxisAccessorEN3c108ArrayRefIlEE
FN:105,113,_ZN5neml213VariableStore23declare_output_variableINS_2R4EEERNS_8VariableIT_EERKNS_19LabeledAxisAccessorEN3c108ArrayRefIlEE
FN:105,113,_ZN5neml213VariableStore23declare_output_variableINS_2R5EEERNS_8VariableIT_EERKNS_19LabeledAxisAccessorEN3c108ArrayRefIlEE
FN:105,113,_ZN5neml213VariableStore23declare_output_variableINS_2R8EEERNS_8VariableIT_EERKNS_19LabeledAxisAccessorEN3c108ArrayRefIlEE
FN:105,113,_ZN5neml213VariableStore23declare_output_variableINS_3RotEEERNS_8VariableIT_EERKNS_19LabeledAxisAccessorEN3c108ArrayRefIlEE
FN:105,113,_ZN5neml213VariableStore23declare_output_variableINS_3SR2EEERNS_8VariableIT_EERKNS_19LabeledAxisAccessorEN3c108ArrayRefIlEE
FN:105,113,_ZN5neml213VariableStore23declare_output_variableINS_3VecEEERNS_8VariableIT_EERKNS_19LabeledAxisAccessorEN3c108ArrayRefIlEE
FN:105,113,_ZN5neml213VariableStore23declare_output_variableINS_3WR2EEERNS_8VariableIT_EERKNS_19LabeledAxisAccessorEN3c108ArrayRefIlEE
FN:105,113,_ZN5neml213VariableStore23declare_output_variableINS_4SFR3EEERNS_8VariableIT_EERKNS_19LabeledAxisAccessorEN3c108ArrayRefIlEE
FN:105,113,_ZN5neml213VariableStore23declare_output_variableINS_4SFR4EEERNS_8VariableIT_EERKNS_19LabeledAxisAccessorEN3c108ArrayRefIlEE
FN:105,113,_ZN5neml213VariableStore23declare_output_variableINS_4SSR4EEERNS_8VariableIT_EERKNS_19LabeledAxisAccessorEN3c108ArrayRefIlEE
FN:105,113,_ZN5neml213VariableStore23declare_output_variableINS_4SWR4EEERNS_8VariableIT_EERKNS_19LabeledAxisAccessorEN3c108ArrayRefIlEE
FN:105,113,_ZN5neml213VariableStore23declare_output_variableINS_4WFR4EEERNS_8VariableIT_EERKNS_19LabeledAxisAccessorEN3c108ArrayRefIlEE
FN:105,113,_ZN5neml213VariableStore23declare_output_variableINS_4WSR4EEERNS_8VariableIT_EERKNS_19LabeledAxisAccessorEN3c108ArrayRefIlEE
FN:105,113,_ZN5neml213VariableStore23declare_output_variableINS_4WWR4EEERNS_8VariableIT_EERKNS_19LabeledAxisAccessorEN3c108ArrayRefIlEE
FN:105,113,_ZN5neml213VariableStore23declare_output_variableINS_5SFFR4EEERNS_8VariableIT_EERKNS_19LabeledAxisAccessorEN3c108ArrayRefIlEE
FN:105,113,_ZN5neml213VariableStore23declare_output_variableINS_5SSFR5EEERNS_8VariableIT_EERKNS_19LabeledAxisAccessorEN3c108ArrayRefIlEE
FN:105,113,_ZN5neml213VariableStore23declare_output_variableINS_6SSSSR8EEERNS_8VariableIT_EERKNS_19LabeledAxisAccessorEN3c108ArrayRefIlEE
FN:105,113,_ZN5neml213VariableStore23declare_output_variableINS_6ScalarEEERNS_8VariableIT_EERKNS_19LabeledAxisAccessorEN3c108ArrayRefIlEE
FN:121,133,_ZN5neml213VariableStore20clone_input_variableERKNS_12VariableBaseERKNS_19LabeledAxisAccessorE
FN:136,148,_ZN5neml213VariableStore21clone_output_variableERKNS_12VariableBaseERKNS_19LabeledAxisAccessorE
FN:152,175,_ZN5neml213VariableStore15create_variableINS_10QuaternionEEEPNS_8VariableIT_EERSt3mapINS_19LabeledAxisAccessorESt10unique_ptrINS_12VariableBaseESt14default_deleteISA_EESt4lessIS8_ESaISt4pairIKS8_SD_EEERSH_N3c108ArrayRefIlEE
FN:152,175,_ZN5neml213VariableStore15create_variableINS_11MillerIndexEEEPNS_8VariableIT_EERSt3mapINS_19LabeledAxisAccessorESt10unique_ptrINS_12VariableBaseESt14default_deleteISA_EESt4lessIS8_ESaISt4pairIKS8_SD_EEERSH_N3c108ArrayRefIlEE
FN:152,175,_ZN5neml213VariableStore15create_variableINS_2R2EEEPNS_8VariableIT_EERSt3mapINS_19LabeledAxisAccessorESt10unique_ptrINS_12VariableBaseESt14default_deleteISA_EESt4lessIS8_ESaISt4pairIKS8_SD_EEERSH_N3c108ArrayRefIlEE
FN:152,175,_ZN5neml213VariableStore15create_variableINS_2R3EEEPNS_8VariableIT_EERSt3mapINS_19LabeledAxisAccessorESt10unique_ptrINS_12VariableBaseESt14default_deleteISA_EESt4lessIS8_ESaISt4pairIKS8_SD_EEERSH_N3c108ArrayRefIlEE
FN:152,175,_ZN5neml213VariableStore15create_variableINS_2R4EEEPNS_8VariableIT_EERSt3mapINS_19LabeledAxisAccessorESt10unique_ptrINS_12VariableBaseESt14default_deleteISA_EESt4lessIS8_ESaISt4pairIKS8_SD_EEERSH_N3c108ArrayRefIlEE
FN:152,175,_ZN5neml213VariableStore15create_variableINS_2R5EEEPNS_8VariableIT_EERSt3mapINS_19LabeledAxisAccessorESt10unique_ptrINS_12VariableBaseESt14default_deleteISA_EESt4lessIS8_ESaISt4pairIKS8_SD_EEERSH_N3c108ArrayRefIlEE
FN:152,175,_ZN5neml213VariableStore15create_variableINS_2R8EEEPNS_8VariableIT_EERSt3mapINS_19LabeledAxisAccessorESt10unique_ptrINS_12VariableBaseESt14default_deleteISA_EESt4lessIS8_ESaISt4pairIKS8_SD_EEERSH_N3c108ArrayRefIlEE
FN:152,175,_ZN5neml213VariableStore15create_variableINS_3RotEEEPNS_8VariableIT_EERSt3mapINS_19LabeledAxisAccessorESt10unique_ptrINS_12VariableBaseESt14default_deleteISA_EESt4lessIS8_ESaISt4pairIKS8_SD_EEERSH_N3c108ArrayRefIlEE
FN:152,175,_ZN5neml213VariableStore15create_variableINS_3SR2EEEPNS_8VariableIT_EERSt3mapINS_19LabeledAxisAccessorESt10unique_ptrINS_12VariableBaseESt14default_deleteISA_EESt4lessIS8_ESaISt4pairIKS8_SD_EEERSH_N3c108ArrayRefIlEE
FN:152,175,_ZN5neml213VariableStore15create_variableINS_3VecEEEPNS_8VariableIT_EERSt3mapINS_19LabeledAxisAccessorESt10unique_ptrINS_12VariableBaseESt14default_deleteISA_EESt4lessIS8_ESaISt4pairIKS8_SD_EEERSH_N3c108ArrayRefIlEE
FN:152,175,_ZN5neml213VariableStore15create_variableINS_3WR2EEEPNS_8VariableIT_EERSt3mapINS_19LabeledAxisAccessorESt10unique_ptrINS_12VariableBaseESt14default_deleteISA_EESt4lessIS8_ESaISt4pairIKS8_SD_EEERSH_N3c108ArrayRefIlEE
FN:152,175,_ZN5neml213VariableStore15create_variableINS_4SFR3EEEPNS_8VariableIT_EERSt3mapINS_19LabeledAxisAccessorESt10unique_ptrINS_12VariableBaseESt14default_deleteISA_EESt4lessIS8_ESaISt4pairIKS8_SD_EEERSH_N3c108ArrayRefIlEE
FN:152,175,_ZN5neml213VariableStore15create_variableINS_4SFR4EEEPNS_8VariableIT_EERSt3mapINS_19LabeledAxisAccessorESt10unique_ptrINS_12VariableBaseESt14default_deleteISA_EESt4lessIS8_ESaISt4pairIKS8_SD_EEERSH_N3c108ArrayRefIlEE
FN:152,175,_ZN5neml213VariableStore15create_variableINS_4SSR4EEEPNS_8VariableIT_EERSt3mapINS_19LabeledAxisAccessorESt10unique_ptrINS_12VariableBaseESt14default_deleteISA_EESt4lessIS8_ESaISt4pairIKS8_SD_EEERSH_N3c108ArrayRefIlEE
FN:152,175,_ZN5neml213VariableStore15create_variableINS_4SWR4EEEPNS_8VariableIT_EERSt3mapINS_19LabeledAxisAccessorESt10unique_ptrINS_12VariableBaseESt14default_deleteISA_EESt4lessIS8_ESaISt4pairIKS8_SD_EEERSH_N3c108ArrayRefIlEE
FN:152,175,_ZN5neml213VariableStore15create_variableINS_4WFR4EEEPNS_8VariableIT_EERSt3mapINS_19LabeledAxisAccessorESt10unique_ptrINS_12VariableBaseESt14default_deleteISA_EESt4lessIS8_ESaISt4pairIKS8_SD_EEERSH_N3c108ArrayRefIlEE
FN:152,175,_ZN5neml213VariableStore15create_variableINS_4WSR4EEEPNS_8VariableIT_EERSt3mapINS_19LabeledAxisAccessorESt10unique_ptrINS_12VariableBaseESt14default_deleteISA_EESt4lessIS8_ESaISt4pairIKS8_SD_EEERSH_N3c108ArrayRefIlEE
FN:152,175,_ZN5neml213VariableStore15create_variableINS_4WWR4EEEPNS_8VariableIT_EERSt3mapINS_19LabeledAxisAccessorESt10unique_ptrINS_12VariableBaseESt14default_deleteISA_EESt4lessIS8_ESaISt4pairIKS8_SD_EEERSH_N3c108ArrayRefIlEE
FN:152,175,_ZN5neml213VariableStore15create_variableINS_5SFFR4EEEPNS_8VariableIT_EERSt3mapINS_19LabeledAxisAccessorESt10unique_ptrINS_12VariableBaseESt14default_deleteISA_EESt4lessIS8_ESaISt4pairIKS8_SD_EEERSH_N3c108ArrayRefIlEE
FN:152,175,_ZN5neml213VariableStore15create_variableINS_5SSFR5EEEPNS_8VariableIT_EERSt3mapINS_19LabeledAxisAccessorESt10unique_ptrINS_12VariableBaseESt14default_deleteISA_EESt4lessIS8_ESaISt4pairIKS8_SD_EEERSH_N3c108ArrayRefIlEE
FN:152,175,_ZN5neml213VariableStore15create_variableINS_6SSSSR8EEEPNS_8VariableIT_EERSt3mapINS_19LabeledAxisAccessorESt10unique_ptrINS_12VariableBaseESt14default_deleteISA_EESt4lessIS8_ESaISt4pairIKS8_SD_EEERSH_N3c108ArrayRefIlEE
FN:152,175,_ZN5neml213VariableStore15create_variableINS_6ScalarEEEPNS_8VariableIT_EERSt3mapINS_19LabeledAxisAccessorESt10unique_ptrINS_12VariableBaseESt14default_deleteISA_EESt4lessIS8_ESaISt4pairIKS8_SD_EEERSH_N3c108ArrayRefIlEE
FN:182,191,_ZN5neml213VariableStore14input_variableERKNS_19LabeledAxisAccessorE
FN:194,197,_ZNK5neml213VariableStore14input_variableERKNS_19LabeledAxisAccessorE
FN:200,209,_ZN5neml213VariableStore15output_variableERKNS_19LabeledAxisAccessorE
FN:212,215,_ZNK5neml213VariableStore15output_variableERKNS_19LabeledAxisAccessorE
FN:218,221,_ZN5neml213VariableStore17send_variables_toERKN3c1013TensorOptionsE
FN:224,229,_ZN5neml213VariableStore11clear_inputEv
FN:232,237,_ZN5neml213VariableStore12clear_outputEv
FN:240,245,_ZN5neml213VariableStore10zero_inputEv
FN:248,253,_ZN5neml213VariableStore11zero_outputEv
FN:256,261,_ZN5neml213VariableStore12assign_inputERKSt3mapINS_19LabeledAxisAccessorENS_6TensorESt4lessIS2_ESaISt4pairIKS2_S3_EEE
FN:264,268,_ZN5neml213VariableStore13assign_outputERKSt3mapINS_19LabeledAxisAccessorENS_6TensorESt4lessIS2_ESaISt4pairIKS2_S3_EEE
FN:271,279,_ZN5neml213VariableStore25assign_output_derivativesERKSt3mapINS_19LabeledAxisAccessorES1_IS2_NS_6TensorESt4lessIS2_ESaISt4pairIKS2_S3_EEES5_SaIS6_IS7_SA_EEE
FN:282,298,_ZN5neml213VariableStore18assign_input_stackERSt6vectorIN3c106IValueESaIS3_EE
FN:301,387,_ZN5neml213VariableStore19assign_output_stackERSt6vectorIN3c106IValueESaIS3_EEbbb
FN:36,43,_ZN5neml213VariableStoreC2ENS_9OptionSetEPNS_5ModelE
FN:390,396,_ZNK5neml213VariableStore13collect_inputEv
FN:399,405,_ZNK5neml213VariableStore14collect_outputEv
FN:408,414,_ZNK5neml213VariableStore26collect_output_derivativesEv
FN:417,423,_ZNK5neml213VariableStore33collect_output_second_derivativesEv
FN:426,434,_ZNK5neml213VariableStore19collect_input_stackEv
FN:437,504,_ZNK5neml213VariableStore20collect_output_stackEbbb
FN:46,56,_ZN5neml213VariableStore12declare_axisERKSs
FN:59,63,_ZN5neml213VariableStore12setup_layoutEv
FN:67,73,_ZN5neml213VariableStore22declare_input_variableINS_10QuaternionEEERKNS_8VariableIT_EEPKcN3c108ArrayRefIlEE
FN:67,73,_ZN5neml213VariableStore22declare_input_variableINS_11MillerIndexEEERKNS_8VariableIT_EEPKcN3c108ArrayRefIlEE
FN:67,73,_ZN5neml213VariableStore22declare_input_variableINS_2R2EEERKNS_8VariableIT_EEPKcN3c108ArrayRefIlEE
FN:67,73,_ZN5neml213VariableStore22declare_input_variableINS_2R3EEERKNS_8VariableIT_EEPKcN3c108ArrayRefIlEE
FN:67,73,_ZN5neml213VariableStore22declare_input_variableINS_2R4EEERKNS_8VariableIT_EEPKcN3c108ArrayRefIlEE
FN:67,73,_ZN5neml213VariableStore22declare_input_variableINS_2R5EEERKNS_8VariableIT_EEPKcN3c108ArrayRefIlEE
FN:67,73,_ZN5neml213VariableStore22declare_input_variableINS_2R8EEERKNS_8VariableIT_EEPKcN3c108ArrayRefIlEE
FN:67,73,_ZN5neml213VariableStore22declare_input_variableINS_3RotEEERKNS_8VariableIT_EEPKcN3c108ArrayRefIlEE
FN:67,73,_ZN5neml213VariableStore22declare_input_variableINS_3SR2EEERKNS_8VariableIT_EEPKcN3c108ArrayRefIlEE
FN:67,73,_ZN5neml213VariableStore22declare_input_variableINS_3VecEEERKNS_8VariableIT_EEPKcN3c108ArrayRefIlEE
FN:67,73,_ZN5neml213VariableStore22declare_input_variableINS_3WR2EEERKNS_8VariableIT_EEPKcN3c108ArrayRefIlEE
FN:67,73,_ZN5neml213VariableStore22declare_input_variableINS_4SFR3EEERKNS_8VariableIT_EEPKcN3c108ArrayRefIlEE
FN:67,73,_ZN5neml213VariableStore22declare_input_variableINS_4SFR4EEERKNS_8VariableIT_EEPKcN3c108ArrayRefIlEE
FN:67,73,_ZN5neml213VariableStore22declare_input_variableINS_4SSR4EEERKNS_8VariableIT_EEPKcN3c108ArrayRefIlEE
FN:67,73,_ZN5neml213VariableStore22declare_input_variableINS_4SWR4EEERKNS_8VariableIT_EEPKcN3c108ArrayRefIlEE
FN:67,73,_ZN5neml213VariableStore22declare_input_variableINS_4WFR4EEERKNS_8VariableIT_EEPKcN3c108ArrayRefIlEE
FN:67,73,_ZN5neml213VariableStore22declare_input_variableINS_4WSR4EEERKNS_8VariableIT_EEPKcN3c108ArrayRefIlEE
FN:67,73,_ZN5neml213VariableStore22declare_input_variableINS_4WWR4EEERKNS_8VariableIT_EEPKcN3c108ArrayRefIlEE
FN:67,73,_ZN5neml213VariableStore22declare_input_variableINS_5SFFR4EEERKNS_8VariableIT_EEPKcN3c108ArrayRefIlEE
FN:67,73,_ZN5neml213VariableStore22declare_input_variableINS_5SSFR5EEERKNS_8VariableIT_EEPKcN3c108ArrayRefIlEE
FN:67,73,_ZN5neml213VariableStore22declare_input_variableINS_6SSSSR8EEERKNS_8VariableIT_EEPKcN3c108ArrayRefIlEE
FN:67,73,_ZN5neml213VariableStore22declare_input_variableINS_6ScalarEEERKNS_8VariableIT_EEPKcN3c108ArrayRefIlEE
FN:77,85,_ZN5neml213VariableStore22declare_input_variableINS_10QuaternionEEERKNS_8VariableIT_EERKNS_19LabeledAxisAccessorEN3c108ArrayRefIlEE
FN:77,85,_ZN5neml213VariableStore22declare_input_variableINS_11MillerIndexEEERKNS_8VariableIT_EERKNS_19LabeledAxisAccessorEN3c108ArrayRefIlEE
FN:77,85,_ZN5neml213VariableStore22declare_input_variableINS_2R2EEERKNS_8VariableIT_EERKNS_19LabeledAxisAccessorEN3c108ArrayRefIlEE
FN:77,85,_ZN5neml213VariableStore22declare_input_variableINS_2R3EEERKNS_8VariableIT_EERKNS_19LabeledAxisAccessorEN3c108ArrayRefIlEE
FN:77,85,_ZN5neml213VariableStore22declare_input_variableINS_2R4EEERKNS_8VariableIT_EERKNS_19LabeledAxisAccessorEN3c108ArrayRefIlEE
FN:77,85,_ZN5neml213VariableStore22declare_input_variableINS_2R5EEERKNS_8VariableIT_EERKNS_19LabeledAxisAccessorEN3c108ArrayRefIlEE
FN:77,85,_ZN5neml213VariableStore22declare_input_variableINS_2R8EEERKNS_8VariableIT_EERKNS_19LabeledAxisAccessorEN3c108ArrayRefIlEE
FN:77,85,_ZN5neml213VariableStore22declare_input_variableINS_3RotEEERKNS_8VariableIT_EERKNS_19LabeledAxisAccessorEN3c108ArrayRefIlEE
FN:77,85,_ZN5neml213VariableStore22declare_input_variableINS_3SR2EEERKNS_8VariableIT_EERKNS_19LabeledAxisAccessorEN3c108ArrayRefIlEE
FN:77,85,_ZN5neml213VariableStore22declare_input_variableINS_3VecEEERKNS_8VariableIT_EERKNS_19LabeledAxisAccessorEN3c108ArrayRefIlEE
FN:77,85,_ZN5neml213VariableStore22declare_input_variableINS_3WR2EEERKNS_8VariableIT_EERKNS_19LabeledAxisAccessorEN3c108ArrayRefIlEE
FN:77,85,_ZN5neml213VariableStore22declare_input_variableINS_4SFR3EEERKNS_8VariableIT_EERKNS_19LabeledAxisAccessorEN3c108ArrayRefIlEE
FN:77,85,_ZN5neml213VariableStore22declare_input_variableINS_4SFR4EEERKNS_8VariableIT_EERKNS_19LabeledAxisAccessorEN3c108ArrayRefIlEE
FN:77,85,_ZN5neml213VariableStore22declare_input_variableINS_4SSR4EEERKNS_8VariableIT_EERKNS_19LabeledAxisAccessorEN3c108ArrayRefIlEE
FN:77,85,_ZN5neml213VariableStore22declare_input_variableINS_4SWR4EEERKNS_8VariableIT_EERKNS_19LabeledAxisAccessorEN3c108ArrayRefIlEE
FN:77,85,_ZN5neml213VariableStore22declare_input_variableINS_4WFR4EEERKNS_8VariableIT_EERKNS_19LabeledAxisAccessorEN3c108ArrayRefIlEE
FN:77,85,_ZN5neml213VariableStore22declare_input_variableINS_4WSR4EEERKNS_8VariableIT_EERKNS_19LabeledAxisAccessorEN3c108ArrayRefIlEE
FN:77,85,_ZN5neml213VariableStore22declare_input_variableINS_4WWR4EEERKNS_8VariableIT_EERKNS_19LabeledAxisAccessorEN3c108ArrayRefIlEE
FN:77,85,_ZN5neml213VariableStore22declare_input_variableINS_5SFFR4EEERKNS_8VariableIT_EERKNS_19LabeledAxisAccessorEN3c108ArrayRefIlEE
FN:77,85,_ZN5neml213VariableStore22declare_input_variableINS_5SSFR5EEERKNS_8VariableIT_EERKNS_19LabeledAxisAccessorEN3c108ArrayRefIlEE
FN:77,85,_ZN5neml213VariableStore22declare_input_variableINS_6SSSSR8EEERKNS_8VariableIT_EERKNS_19LabeledAxisAccessorEN3c108ArrayRefIlEE
FN:77,85,_ZN5neml213VariableStore22declare_input_variableINS_6ScalarEEERKNS_8VariableIT_EERKNS_19LabeledAxisAccessorEN3c108ArrayRefIlEE
FN:95,101,_ZN5neml213VariableStore23declare_output_variableINS_10QuaternionEEERNS_8VariableIT_EEPKcN3c108ArrayRefIlEE
FN:95,101,_ZN5neml213VariableStore23declare_output_variableINS_11MillerIndexEEERNS_8VariableIT_EEPKcN3c108ArrayRefIlEE
FN:95,101,_ZN5neml213VariableStore23declare_output_variableINS_2R2EEERNS_8VariableIT_EEPKcN3c108ArrayRefIlEE
FN:95,101,_ZN5neml213VariableStore23declare_output_variableINS_2R3EEERNS_8VariableIT_EEPKcN3c108ArrayRefIlEE
FN:95,101,_ZN5neml213VariableStore23declare_output_variableINS_2R4EEERNS_8VariableIT_EEPKcN3c108ArrayRefIlEE
FN:95,101,_ZN5neml213VariableStore23declare_output_variableINS_2R5EEERNS_8VariableIT_EEPKcN3c108ArrayRefIlEE
FN:95,101,_ZN5neml213VariableStore23declare_output_variableINS_2R8EEERNS_8VariableIT_EEPKcN3c108ArrayRefIlEE
FN:95,101,_ZN5neml213VariableStore23declare_output_variableINS_3RotEEERNS_8VariableIT_EEPKcN3c108ArrayRefIlEE
FN:95,101,_ZN5neml213VariableStore23declare_output_variableINS_3SR2EEERNS_8VariableIT_EEPKcN3c108ArrayRefIlEE
FN:95,101,_ZN5neml213VariableStore23declare_output_variableINS_3VecEEERNS_8VariableIT_EEPKcN3c108ArrayRefIlEE
FN:95,101,_ZN5neml213VariableStore23declare_output_variableINS_3WR2EEERNS_8VariableIT_EEPKcN3c108ArrayRefIlEE
FN:95,101,_ZN5neml213VariableStore23declare_output_variableINS_4SFR3EEERNS_8VariableIT_EEPKcN3c108ArrayRefIlEE
FN:95,101,_ZN5neml213VariableStore23declare_output_variableINS_4SFR4EEERNS_8VariableIT_EEPKcN3c108ArrayRefIlEE
FN:95,101,_ZN5neml213VariableStore23declare_output_variableINS_4SSR4EEERNS_8VariableIT_EEPKcN3c108ArrayRefIlEE
FN:95,101,_ZN5neml213VariableStore23declare_output_variableINS_4SWR4EEERNS_8VariableIT_EEPKcN3c108ArrayRefIlEE
FN:95,101,_ZN5neml213VariableStore23declare_output_variableINS_4WFR4EEERNS_8VariableIT_EEPKcN3c108ArrayRefIlEE
FN:95,101,_ZN5neml213VariableStore23declare_output_variableINS_4WSR4EEERNS_8VariableIT_EEPKcN3c108ArrayRefIlEE
FN:95,101,_ZN5neml213VariableStore23declare_output_variableINS_4WWR4EEERNS_8VariableIT_EEPKcN3c108ArrayRefIlEE
FN:95,101,_ZN5neml213VariableStore23declare_output_variableINS_5SFFR4EEERNS_8VariableIT_EEPKcN3c108ArrayRefIlEE
FN:95,101,_ZN5neml213VariableStore23declare_output_variableINS_5SSFR5EEERNS_8VariableIT_EEPKcN3c108ArrayRefIlEE
FN:95,101,_ZN5neml213VariableStore23declare_output_variableINS_6SSSSR8EEERNS_8VariableIT_EEPKcN3c108ArrayRefIlEE
FN:95,101,_ZN5neml213VariableStore23declare_output_variableINS_6ScalarEEERNS_8VariableIT_EEPKcN3c108ArrayRefIlEE
FNDA:0,_ZN5neml213VariableStore23declare_output_variableINS_10QuaternionEEERNS_8VariableIT_EERKNS_19LabeledAxisAccessorEN3c108ArrayRefIlEE
FNDA:0,_ZN5neml213VariableStore23declare_output_variableINS_11MillerIndexEEERNS_8VariableIT_EERKNS_19LabeledAxisAccessorEN3c108ArrayRefIlEE
FNDA:6,_ZN5neml213VariableStore23declare_output_variableINS_2R2EEERNS_8VariableIT_EERKNS_19LabeledAxisAccessorEN3c108ArrayRefIlEE
FNDA:0,_ZN5neml213VariableStore23declare_output_variableINS_2R3EEERNS_8VariableIT_EERKNS_19LabeledAxisAccessorEN3c108ArrayRefIlEE
FNDA:0,_ZN5neml213VariableStore23declare_output_variableINS_2R4EEERNS_8VariableIT_EERKNS_19LabeledAxisAccessorEN3c108ArrayRefIlEE
FNDA:0,_ZN5neml213VariableStore23declare_output_variableINS_2R5EEERNS_8VariableIT_EERKNS_19LabeledAxisAccessorEN3c108ArrayRefIlEE
FNDA:0,_ZN5neml213VariableStore23declare_output_variableINS_2R8EEERNS_8VariableIT_EERKNS_19LabeledAxisAccessorEN3c108ArrayRefIlEE
FNDA:4,_ZN5neml213VariableStore23declare_output_variableINS_3RotEEERNS_8VariableIT_EERKNS_19LabeledAxisAccessorEN3c108ArrayRefIlEE
FNDA:102,_ZN5neml213VariableStore23declare_output_variableINS_3SR2EEERNS_8VariableIT_EERKNS_19LabeledAxisAccessorEN3c108ArrayRefIlEE
FNDA:1,_ZN5neml213VariableStore23declare_output_variableINS_3VecEEERNS_8VariableIT_EERKNS_19LabeledAxisAccessorEN3c108ArrayRefIlEE
FNDA:5,_ZN5neml213VariableStore23declare_output_variableINS_3WR2EEERNS_8VariableIT_EERKNS_19LabeledAxisAccessorEN3c108ArrayRefIlEE
FNDA:0,_ZN5neml213VariableStore23declare_output_variableINS_4SFR3EEERNS_8VariableIT_EERKNS_19LabeledAxisAccessorEN3c108ArrayRefIlEE
FNDA:0,_ZN5neml213VariableStore23declare_output_variableINS_4SFR4EEERNS_8VariableIT_EERKNS_19LabeledAxisAccessorEN3c108ArrayRefIlEE
FNDA:6,_ZN5neml213VariableStore23declare_output_variableINS_4SSR4EEERNS_8VariableIT_EERKNS_19LabeledAxisAccessorEN3c108ArrayRefIlEE
FNDA:0,_ZN5neml213VariableStore23declare_output_variableINS_4SWR4EEERNS_8VariableIT_EERKNS_19LabeledAxisAccessorEN3c108ArrayRefIlEE
FNDA:0,_ZN5neml213VariableStore23declare_output_variableINS_4WFR4EEERNS_8VariableIT_EERKNS_19LabeledAxisAccessorEN3c108ArrayRefIlEE
FNDA:0,_ZN5neml213VariableStore23declare_output_variableINS_4WSR4EEERNS_8VariableIT_EERKNS_19LabeledAxisAccessorEN3c108ArrayRefIlEE
FNDA:0,_ZN5neml213VariableStore23declare_output_variableINS_4WWR4EEERNS_8VariableIT_EERKNS_19LabeledAxisAccessorEN3c108ArrayRefIlEE
FNDA:0,_ZN5neml213VariableStore23declare_output_variableINS_5SFFR4EEERNS_8VariableIT_EERKNS_19LabeledAxisAccessorEN3c108ArrayRefIlEE
FNDA:0,_ZN5neml213VariableStore23declare_output_variableINS_5SSFR5EEERNS_8VariableIT_EERKNS_19LabeledAxisAccessorEN3c108ArrayRefIlEE
FNDA:0,_ZN5neml213VariableStore23declare_output_variableINS_6SSSSR8EEERNS_8VariableIT_EERKNS_19LabeledAxisAccessorEN3c108ArrayRefIlEE
FNDA:195,_ZN5neml213VariableStore23declare_output_variableINS_6ScalarEEERNS_8VariableIT_EERKNS_19LabeledAxisAccessorEN3c108ArrayRefIlEE
FNDA:349,_ZN5neml213VariableStore20clone_input_variableERKNS_12VariableBaseERKNS_19LabeledAxisAccessorE
FNDA:113,_ZN5neml213VariableStore21clone_output_variableERKNS_12VariableBaseERKNS_19LabeledAxisAccessorE
FNDA:0,_ZN5neml213VariableStore15create_variableINS_10QuaternionEEEPNS_8VariableIT_EERSt3mapINS_19LabeledAxisAccessorESt10unique_ptrINS_12VariableBaseESt14default_deleteISA_EESt4lessIS8_ESaISt4pairIKS8_SD_EEERSH_N3c108ArrayRefIlEE
FNDA:0,_ZN5neml213VariableStore15create_variableINS_11MillerIndexEEEPNS_8VariableIT_EERSt3mapINS_19LabeledAxisAccessorESt10unique_ptrINS_12VariableBaseESt14default_deleteISA_EESt4lessIS8_ESaISt4pairIKS8_SD_EEERSH_N3c108ArrayRefIlEE
FNDA:15,_ZN5neml213VariableStore15create_variableINS_2R2EEEPNS_8VariableIT_EERSt3mapINS_19LabeledAxisAccessorESt10unique_ptrINS_12VariableBaseESt14default_deleteISA_EESt4lessIS8_ESaISt4pairIKS8_SD_EEERSH_N3c108ArrayRefIlEE
FNDA:0,_ZN5neml213VariableStore15create_variableINS_2R3EEEPNS_8VariableIT_EERSt3mapINS_19LabeledAxisAccessorESt10unique_ptrINS_12VariableBaseESt14default_deleteISA_EESt4lessIS8_ESaISt4pairIKS8_SD_EEERSH_N3c108ArrayRefIlEE
FNDA:0,_ZN5neml213VariableStore15create_variableINS_2R4EEEPNS_8VariableIT_EERSt3mapINS_19LabeledAxisAccessorESt10unique_ptrINS_12VariableBaseESt14default_deleteISA_EESt4lessIS8_ESaISt4pairIKS8_SD_EEERSH_N3c108ArrayRefIlEE
FNDA:0,_ZN5neml213VariableStore15create_variableINS_2R5EEEPNS_8VariableIT_EERSt3mapINS_19LabeledAxisAccessorESt10unique_ptrINS_12VariableBaseESt14default_deleteISA_EESt4lessIS8_ESaISt4pairIKS8_SD_EEERSH_N3c108ArrayRefIlEE
FNDA:0,_ZN5neml213VariableStore15create_variableINS_2R8EEEPNS_8VariableIT_EERSt3mapINS_19LabeledAxisAccessorESt10unique_ptrINS_12VariableBaseESt14default_deleteISA_EESt4lessIS8_ESaISt4pairIKS8_SD_EEERSH_N3c108ArrayRefIlEE
FNDA:19,_ZN5neml213VariableStore15create_variableINS_3RotEEEPNS_8VariableIT_EERSt3mapINS_19LabeledAxisAccessorESt10unique_ptrINS_12VariableBaseESt14default_deleteISA_EESt4lessIS8_ESaISt4pairIKS8_SD_EEERSH_N3c108ArrayRefIlEE
FNDA:275,_ZN5neml213VariableStore15create_variableINS_3SR2EEEPNS_8VariableIT_EERSt3mapINS_19LabeledAxisAccessorESt10unique_ptrINS_12VariableBaseESt14default_deleteISA_EESt4lessIS8_ESaISt4pairIKS8_SD_EEERSH_N3c108ArrayRefIlEE
FNDA:2,_ZN5neml213VariableStore15create_variableINS_3VecEEEPNS_8VariableIT_EERSt3mapINS_19LabeledAxisAccessorESt10unique_ptrINS_12VariableBaseESt14default_deleteISA_EESt4lessIS8_ESaISt4pairIKS8_SD_EEERSH_N3c108ArrayRefIlEE
FNDA:14,_ZN5neml213VariableStore15create_variableINS_3WR2EEEPNS_8VariableIT_EERSt3mapINS_19LabeledAxisAccessorESt10unique_ptrINS_12VariableBaseESt14default_deleteISA_EESt4lessIS8_ESaISt4pairIKS8_SD_EEERSH_N3c108ArrayRefIlEE
FNDA:0,_ZN5neml213VariableStore15create_variableINS_4SFR3EEEPNS_8VariableIT_EERSt3mapINS_19LabeledAxisAccessorESt10unique_ptrINS_12VariableBaseESt14default_deleteISA_EESt4lessIS8_ESaISt4pairIKS8_SD_EEERSH_N3c108ArrayRefIlEE
FNDA:0,_ZN5neml213VariableStore15create_variableINS_4SFR4EEEPNS_8VariableIT_EERSt3mapINS_19LabeledAxisAccessorESt10unique_ptrINS_12VariableBaseESt14default_deleteISA_EESt4lessIS8_ESaISt4pairIKS8_SD_EEERSH_N3c108ArrayRefIlEE
FNDA:10,_ZN5neml213VariableStore15create_variableINS_4SSR4EEEPNS_8VariableIT_EERSt3mapINS_19LabeledAxisAccessorESt10unique_ptrINS_12VariableBaseESt14default_deleteISA_EESt4lessIS8_ESaISt4pairIKS8_SD_EEERSH_N3c108ArrayRefIlEE
FNDA:0,_ZN5neml213VariableStore15create_variableINS_4SWR4EEEPNS_8VariableIT_EERSt3mapINS_19LabeledAxisAccessorESt10unique_ptrINS_12VariableBaseESt14default_deleteISA_EESt4lessIS8_ESaISt4pairIKS8_SD_EEERSH_N3c108ArrayRefIlEE
FNDA:0,_ZN5neml213VariableStore15create_variableINS_4WFR4EEEPNS_8VariableIT_EERSt3mapINS_19LabeledAxisAccessorESt10unique_ptrINS_12VariableBaseESt14default_deleteISA_EESt4lessIS8_ESaISt4pairIKS8_SD_EEERSH_N3c108ArrayRefIlEE
FNDA:0,_ZN5neml213VariableStore15create_variableINS_4WSR4EEEPNS_8VariableIT_EERSt3mapINS_19LabeledAxisAccessorESt10unique_ptrINS_12VariableBaseESt14default_deleteISA_EESt4lessIS8_ESaISt4pairIKS8_SD_EEERSH_N3c108ArrayRefIlEE
FNDA:0,_ZN5neml213VariableStore15create_variableINS_4WWR4EEEPNS_8VariableIT_EERSt3mapINS_19LabeledAxisAccessorESt10unique_ptrINS_12VariableBaseESt14default_deleteISA_EESt4lessIS8_ESaISt4pairIKS8_SD_EEERSH_N3c108ArrayRefIlEE
FNDA:0,_ZN5neml213VariableStore15create_variableINS_5SFFR4EEEPNS_8VariableIT_EERSt3mapINS_19LabeledAxisAccessorESt10unique_ptrINS_12VariableBaseESt14default_deleteISA_EESt4lessIS8_ESaISt4pairIKS8_SD_EEERSH_N3c108ArrayRefIlEE
FNDA:0,_ZN5neml213VariableStore15create_variableINS_5SSFR5EEEPNS_8VariableIT_EERSt3mapINS_19LabeledAxisAccessorESt10unique_ptrINS_12VariableBaseESt14default_deleteISA_EESt4lessIS8_ESaISt4pairIKS8_SD_EEERSH_N3c108ArrayRefIlEE
FNDA:0,_ZN5neml213VariableStore15create_variableINS_6SSSSR8EEEPNS_8VariableIT_EERSt3mapINS_19LabeledAxisAccessorESt10unique_ptrINS_12VariableBaseESt14default_deleteISA_EESt4lessIS8_ESaISt4pairIKS8_SD_EEERSH_N3c108ArrayRefIlEE
FNDA:619,_ZN5neml213VariableStore15create_variableINS_6ScalarEEEPNS_8VariableIT_EERSt3mapINS_19LabeledAxisAccessorESt10unique_ptrINS_12VariableBaseESt14default_deleteISA_EESt4lessIS8_ESaISt4pairIKS8_SD_EEERSH_N3c108ArrayRefIlEE
FNDA:49721,_ZN5neml213VariableStore14input_variableERKNS_19LabeledAxisAccessorE
FNDA:34514,_ZNK5neml213VariableStore14input_variableERKNS_19LabeledAxisAccessorE
FNDA:12747,_ZN5neml213VariableStore15output_variableERKNS_19LabeledAxisAccessorE
FNDA:362,_ZNK5neml213VariableStore15output_variableERKNS_19LabeledAxisAccessorE
FNDA:0,_ZN5neml213VariableStore17send_variables_toERKN3c1013TensorOptionsE
FNDA:7630,_ZN5neml213VariableStore11clear_inputEv
FNDA:7630,_ZN5neml213VariableStore12clear_outputEv
FNDA:7630,_ZN5neml213VariableStore10zero_inputEv
FNDA:7630,_ZN5neml213VariableStore11zero_outputEv
FNDA:4133,_ZN5neml213VariableStore12assign_inputERKSt3mapINS_19LabeledAxisAccessorENS_6TensorESt4lessIS2_ESaISt4pairIKS2_S3_EEE
FNDA:26,_ZN5neml213VariableStore13assign_outputERKSt3mapINS_19LabeledAxisAccessorENS_6TensorESt4lessIS2_ESaISt4pairIKS2_S3_EEE
FNDA:9,_ZN5neml213VariableStore25assign_output_derivativesERKSt3mapINS_19LabeledAxisAccessorES1_IS2_NS_6TensorESt4lessIS2_ESaISt4pairIKS2_S3_EEES5_SaIS6_IS7_SA_EEE
FNDA:307,_ZN5neml213VariableStore18assign_input_stackERSt6vectorIN3c106IValueESaIS3_EE
FNDA:5276,_ZN5neml213VariableStore19assign_output_stackERSt6vectorIN3c106IValueESaIS3_EEbbb
FNDA:375,_ZN5neml213VariableStoreC2ENS_9OptionSetEPNS_5ModelE
FNDA:189,_ZNK5neml213VariableStore13collect_inputEv
FNDA:3493,_ZNK5neml213VariableStore14collect_outputEv
FNDA:1853,_ZNK5neml213VariableStore26collect_output_derivativesEv
FNDA:34,_ZNK5neml213VariableStore33collect_output_second_derivativesEv
FNDA:5583,_ZNK5neml213VariableStore19collect_input_stackEv
FNDA:307,_ZNK5neml213VariableStore20collect_output_stackEbbb
FNDA:750,_ZN5neml213VariableStore12declare_axisERKSs
FNDA:375,_ZN5neml213VariableStore12setup_layoutEv
FNDA:0,_ZN5neml213VariableStore22declare_input_variableINS_10QuaternionEEERKNS_8VariableIT_EEPKcN3c108ArrayRefIlEE
FNDA:0,_ZN5neml213VariableStore22declare_input_variableINS_11MillerIndexEEERKNS_8VariableIT_EEPKcN3c108ArrayRefIlEE
FNDA:9,_ZN5neml213VariableStore22declare_input_variableINS_2R2EEERKNS_8VariableIT_EEPKcN3c108ArrayRefIlEE
FNDA:0,_ZN5neml213VariableStore22declare_input_variableINS_2R3EEERKNS_8VariableIT_EEPKcN3c108ArrayRefIlEE
FNDA:0,_ZN5neml213VariableStore22declare_input_variableINS_2R4EEERKNS_8VariableIT_EEPKcN3c108ArrayRefIlEE
FNDA:0,_ZN5neml213VariableStore22declare_input_variableINS_2R5EEERKNS_8VariableIT_EEPKcN3c108ArrayRefIlEE
FNDA:0,_ZN5neml213VariableStore22declare_input_variableINS_2R8EEERKNS_8VariableIT_EEPKcN3c108ArrayRefIlEE
FNDA:12,_ZN5neml213VariableStore22declare_input_variableINS_3RotEEERKNS_8VariableIT_EEPKcN3c108ArrayRefIlEE
FNDA:88,_ZN5neml213VariableStore22declare_input_variableINS_3SR2EEERKNS_8VariableIT_EEPKcN3c108ArrayRefIlEE
FNDA:1,_ZN5neml213VariableStore22declare_input_variableINS_3VecEEERKNS_8VariableIT_EEPKcN3c108ArrayRefIlEE
FNDA:6,_ZN5neml213VariableStore22declare_input_variableINS_3WR2EEERKNS_8VariableIT_EEPKcN3c108ArrayRefIlEE
FNDA:0,_ZN5neml213VariableStore22declare_input_variableINS_4SFR3EEERKNS_8VariableIT_EEPKcN3c108ArrayRefIlEE
FNDA:0,_ZN5neml213VariableStore22declare_input_variableINS_4SFR4EEERKNS_8VariableIT_EEPKcN3c108ArrayRefIlEE
FNDA:2,_ZN5neml213VariableStore22declare_input_variableINS_4SSR4EEERKNS_8VariableIT_EEPKcN3c108ArrayRefIlEE
FNDA:0,_ZN5neml213VariableStore22declare_input_variableINS_4SWR4EEERKNS_8VariableIT_EEPKcN3c108ArrayRefIlEE
FNDA:0,_ZN5neml213VariableStore22declare_input_variableINS_4WFR4EEERKNS_8VariableIT_EEPKcN3c108ArrayRefIlEE
FNDA:0,_ZN5neml213VariableStore22declare_input_variableINS_4WSR4EEERKNS_8VariableIT_EEPKcN3c108ArrayRefIlEE
FNDA:0,_ZN5neml213VariableStore22declare_input_variableINS_4WWR4EEERKNS_8VariableIT_EEPKcN3c108ArrayRefIlEE
FNDA:0,_ZN5neml213VariableStore22declare_input_variableINS_5SFFR4EEERKNS_8VariableIT_EEPKcN3c108ArrayRefIlEE
FNDA:0,_ZN5neml213VariableStore22declare_input_variableINS_5SSFR5EEERKNS_8VariableIT_EEPKcN3c108ArrayRefIlEE
FNDA:0,_ZN5neml213VariableStore22declare_input_variableINS_6SSSSR8EEERKNS_8VariableIT_EEPKcN3c108ArrayRefIlEE
FNDA:242,_ZN5neml213VariableStore22declare_input_variableINS_6ScalarEEERKNS_8VariableIT_EEPKcN3c108ArrayRefIlEE
FNDA:0,_ZN5neml213VariableStore22declare_input_variableINS_10QuaternionEEERKNS_8VariableIT_EERKNS_19LabeledAxisAccessorEN3c108ArrayRefIlEE
FNDA:0,_ZN5neml213VariableStore22declare_input_variableINS_11MillerIndexEEERKNS_8VariableIT_EERKNS_19LabeledAxisAccessorEN3c108ArrayRefIlEE
FNDA:9,_ZN5neml213VariableStore22declare_input_variableINS_2R2EEERKNS_8VariableIT_EERKNS_19LabeledAxisAccessorEN3c108ArrayRefIlEE
FNDA:0,_ZN5neml213VariableStore22declare_input_variableINS_2R3EEERKNS_8VariableIT_EERKNS_19LabeledAxisAccessorEN3c108ArrayRefIlEE
FNDA:0,_ZN5neml213VariableStore22declare_input_variableINS_2R4EEERKNS_8VariableIT_EERKNS_19LabeledAxisAccessorEN3c108ArrayRefIlEE
FNDA:0,_ZN5neml213VariableStore22declare_input_variableINS_2R5EEERKNS_8VariableIT_EERKNS_19LabeledAxisAccessorEN3c108ArrayRefIlEE
FNDA:0,_ZN5neml213VariableStore22declare_input_variableINS_2R8EEERKNS_8VariableIT_EERKNS_19LabeledAxisAccessorEN3c108ArrayRefIlEE
FNDA:15,_ZN5neml213VariableStore22declare_input_variableINS_3RotEEERKNS_8VariableIT_EERKNS_19LabeledAxisAccessorEN3c108ArrayRefIlEE
FNDA:173,_ZN5neml213VariableStore22declare_input_variableINS_3SR2EEERKNS_8VariableIT_EERKNS_19LabeledAxisAccessorEN3c108ArrayRefIlEE
FNDA:1,_ZN5neml213VariableStore22declare_input_variableINS_3VecEEERKNS_8VariableIT_EERKNS_19LabeledAxisAccessorEN3c108ArrayRefIlEE
FNDA:9,_ZN5neml213VariableStore22declare_input_variableINS_3WR2EEERKNS_8VariableIT_EERKNS_19LabeledAxisAccessorEN3c108ArrayRefIlEE
FNDA:0,_ZN5neml213VariableStore22declare_input_variableINS_4SFR3EEERKNS_8VariableIT_EERKNS_19LabeledAxisAccessorEN3c108ArrayRefIlEE
FNDA:0,_ZN5neml213VariableStore22declare_input_variableINS_4SFR4EEERKNS_8VariableIT_EERKNS_19LabeledAxisAccessorEN3c108ArrayRefIlEE
FNDA:4,_ZN5neml213VariableStore22declare_input_variableINS_4SSR4EEERKNS_8VariableIT_EERKNS_19LabeledAxisAccessorEN3c108ArrayRefIlEE
FNDA:0,_ZN5neml213VariableStore22declare_input_variableINS_4SWR4EEERKNS_8VariableIT_EERKNS_19LabeledAxisAccessorEN3c108ArrayRefIlEE
FNDA:0,_ZN5neml213VariableStore22declare_input_variableINS_4WFR4EEERKNS_8VariableIT_EERKNS_19LabeledAxisAccessorEN3c108ArrayRefIlEE
FNDA:0,_ZN5neml213VariableStore22declare_input_variableINS_4WSR4EEERKNS_8VariableIT_EERKNS_19LabeledAxisAccessorEN3c108ArrayRefIlEE
FNDA:0,_ZN5neml213VariableStore22declare_input_variableINS_4WWR4EEERKNS_8VariableIT_EERKNS_19LabeledAxisAccessorEN3c108ArrayRefIlEE
FNDA:0,_ZN5neml213VariableStore22declare_input_variableINS_5SFFR4EEERKNS_8VariableIT_EERKNS_19LabeledAxisAccessorEN3c108ArrayRefIlEE
FNDA:0,_ZN5neml213VariableStore22declare_input_variableINS_5SSFR5EEERKNS_8VariableIT_EERKNS_19LabeledAxisAccessorEN3c108ArrayRefIlEE
FNDA:0,_ZN5neml213VariableStore22declare_input_variableINS_6SSSSR8EEERKNS_8VariableIT_EERKNS_19LabeledAxisAccessorEN3c108ArrayRefIlEE
FNDA:424,_ZN5neml213VariableStore22declare_input_variableINS_6ScalarEEERKNS_8VariableIT_EERKNS_19LabeledAxisAccessorEN3c108ArrayRefIlEE
FNDA:0,_ZN5neml213VariableStore23declare_output_variableINS_10QuaternionEEERNS_8VariableIT_EEPKcN3c108ArrayRefIlEE
FNDA:0,_ZN5neml213VariableStore23declare_output_variableINS_11MillerIndexEEERNS_8VariableIT_EEPKcN3c108ArrayRefIlEE
FNDA:6,_ZN5neml213VariableStore23declare_output_variableINS_2R2EEERNS_8VariableIT_EEPKcN3c108ArrayRefIlEE
FNDA:0,_ZN5neml213VariableStore23declare_output_variableINS_2R3EEERNS_8VariableIT_EEPKcN3c108ArrayRefIlEE
FNDA:0,_ZN5neml213VariableStore23declare_output_variableINS_2R4EEERNS_8VariableIT_EEPKcN3c108ArrayRefIlEE
FNDA:0,_ZN5neml213VariableStore23declare_output_variableINS_2R5EEERNS_8VariableIT_EEPKcN3c108ArrayRefIlEE
FNDA:0,_ZN5neml213VariableStore23declare_output_variableINS_2R8EEERNS_8VariableIT_EEPKcN3c108ArrayRefIlEE
FNDA:2,_ZN5neml213VariableStore23declare_output_variableINS_3RotEEERNS_8VariableIT_EEPKcN3c108ArrayRefIlEE
FNDA:47,_ZN5neml213VariableStore23declare_output_variableINS_3SR2EEERNS_8VariableIT_EEPKcN3c108ArrayRefIlEE
FNDA:1,_ZN5neml213VariableStore23declare_output_variableINS_3VecEEERNS_8VariableIT_EEPKcN3c108ArrayRefIlEE
FNDA:5,_ZN5neml213VariableStore23declare_output_variableINS_3WR2EEERNS_8VariableIT_EEPKcN3c108ArrayRefIlEE
FNDA:0,_ZN5neml213VariableStore23declare_output_variableINS_4SFR3EEERNS_8VariableIT_EEPKcN3c108ArrayRefIlEE
FNDA:0,_ZN5neml213VariableStore23declare_output_variableINS_4SFR4EEERNS_8VariableIT_EEPKcN3c108ArrayRefIlEE
FNDA:0,_ZN5neml213VariableStore23declare_output_variableINS_4SSR4EEERNS_8VariableIT_EEPKcN3c108ArrayRefIlEE
FNDA:0,_ZN5neml213VariableStore23declare_output_variableINS_4SWR4EEERNS_8VariableIT_EEPKcN3c108ArrayRefIlEE
FNDA:0,_ZN5neml213VariableStore23declare_output_variableINS_4WFR4EEERNS_8VariableIT_EEPKcN3c108ArrayRefIlEE
FNDA:0,_ZN5neml213VariableStore23declare_output_variableINS_4WSR4EEERNS_8VariableIT_EEPKcN3c108ArrayRefIlEE
FNDA:0,_ZN5neml213VariableStore23declare_output_variableINS_4WWR4EEERNS_8VariableIT_EEPKcN3c108ArrayRefIlEE
FNDA:0,_ZN5neml213VariableStore23declare_output_variableINS_5SFFR4EEERNS_8VariableIT_EEPKcN3c108ArrayRefIlEE
FNDA:0,_ZN5neml213VariableStore23declare_output_variableINS_5SSFR5EEERNS_8VariableIT_EEPKcN3c108ArrayRefIlEE
FNDA:0,_ZN5neml213VariableStore23declare_output_variableINS_6SSSSR8EEERNS_8VariableIT_EEPKcN3c108ArrayRefIlEE
FNDA:84,_ZN5neml213VariableStore23declare_output_variableINS_6ScalarEEERNS_8VariableIT_EEPKcN3c108ArrayRefIlEE
FNF:135
FNH:58
DA:36,375
DA:37,375
DA:38,375
DA:39,750
DA:40,375
DA:41,1125
DA:43,375
DA:46,750
DA:48,750
DA:53,750
DA:54,750
DA:55,1500
DA:56,750
DA:59,375
DA:61,375
DA:62,375
DA:63,375
DA:67,360
DA:69,1080
DA:70,1080
DA:72,0
DA:77,635
DA:79,635
DA:80,635
DA:81,635
DA:83,635
DA:84,635
DA:95,145
DA:97,435
DA:98,435
DA:100,0
DA:105,319
DA:107,319
DA:108,319
DA:109,319
DA:111,319
DA:112,319
DA:121,349
DA:123,349
DA:125,349
DA:126,349
DA:127,349
DA:128,349
DA:130,349
DA:131,349
DA:132,698
DA:133,349
DA:136,113
DA:138,113
DA:140,113
DA:141,113
DA:142,113
DA:143,113
DA:145,113
DA:146,113
DA:147,226
DA:148,113
DA:152,954
DA:157,954
DA:163,954
DA:164,954
DA:165,954
DA:166,954
DA:169,954
DA:170,954
DA:171,0
DA:174,954
DA:175,954
DA:182,49721
DA:184,49721
DA:185,49721
DA:189,49721
DA:190,99442
DA:194,34514
DA:196,34514
DA:200,12747
DA:202,12747
DA:203,12747
DA:207,12747
DA:208,25494
DA:212,362
DA:214,362
DA:218,0
DA:220,0
DA:221,0
DA:224,7630
DA:226,30205
DA:227,22575
DA:228,8853
DA:229,7630
DA:232,7630
DA:234,16700
DA:235,9070
DA:236,6787
DA:237,7630
DA:240,7630
DA:242,30205
DA:243,22575
DA:244,8853
DA:245,7630
DA:248,7630
DA:250,16700
DA:251,9070
DA:252,6787
DA:253,7630
DA:256,4133
DA:258,17163
DA:259,13030
DA:260,13030
DA:261,4133
DA:264,26
DA:266,104
DA:267,78
DA:268,26
DA:271,9
DA:273,30
DA:275,21
DA:276,60
DA:277,39
DA:279,9
DA:282,307
DA:284,307
DA:285,307
DA:287,307
DA:289,307
DA:293,1224
DA:294,917
DA:297,307
DA:298,307
DA:301,5276
DA:303,5276
DA:306,5276
DA:307,5276
DA:310,5276
DA:311,5276
DA:313,10552
DA:315,10552
DA:317,5276
DA:318,5276
DA:320,5276
DA:321,5276
DA:323,5276
DA:324,5276
DA:326,5276
DA:328,10183
DA:330,6790
DA:331,6790
DA:335,5276
DA:337,6120
DA:339,4269
DA:340,40610
DA:342,36341
DA:344,13358
DA:345,13358
DA:347,13358
DA:349,13358
DA:351,13358
DA:353,13358
DA:359,5276
DA:361,68
DA:363,34
DA:364,93
DA:365,232
DA:367,173
DA:369,114
DA:370,114
DA:372,114
DA:374,114
DA:376,114
DA:378,114
DA:380,114
DA:386,5276
DA:387,5276
DA:390,189
DA:392,189
DA:393,1826
DA:394,1637
DA:395,189
DA:396,0
DA:399,3493
DA:401,3493
DA:402,10654
DA:403,7161
DA:404,3493
DA:405,0
DA:408,1853
DA:410,1853
DA:411,6126
DA:412,4273
DA:413,1853
DA:414,0
DA:417,34
DA:419,34
DA:420,68
DA:421,34
DA:422,34
DA:423,0
DA:426,5583
DA:428,5583
DA:429,5583
DA:430,5583
DA:431,39505
DA:432,33922
DA:433,5583
DA:434,0
DA:437,307
DA:439,307
DA:442,307
DA:443,307
DA:445,307
DA:446,307
DA:448,307
DA:450,141
DA:451,307
DA:452,166
DA:455,307
DA:457,296
DA:459,162
DA:460,838
DA:462,676
DA:463,676
DA:464,676
DA:465,435
DA:470,307
DA:472,68
DA:474,34
DA:475,93
DA:477,59
DA:478,59
DA:479,195
DA:481,152
DA:482,0
DA:483,152
DA:485,152
DA:486,114
DA:489,16
DA:494,307
DA:495,307
DA:496,307
DA:500,307
DA:501,307
DA:503,1228
DA:504,614
LF:243
LH:231
end_of_record
TN:
SF:/home/runner/work/neml2/neml2/src/neml2/models/WR2ExplicitExponentialTimeIntegration.cxx
FN:36,53,_ZN5neml237WR2ExplicitExponentialTimeIntegration16expected_optionsEv
FN:55,66,_ZN5neml237WR2ExplicitExponentialTimeIntegrationC2ERKNS_9OptionSetE
FN:69,75,_ZNK5neml237WR2ExplicitExponentialTimeIntegration8diagnoseEv
FN:78,100,_ZN5neml237WR2ExplicitExponentialTimeIntegration9set_valueEbbb
FNDA:1,_ZN5neml237WR2ExplicitExponentialTimeIntegration16expected_optionsEv
FNDA:1,_ZN5neml237WR2ExplicitExponentialTimeIntegrationC2ERKNS_9OptionSetE
FNDA:0,_ZNK5neml237WR2ExplicitExponentialTimeIntegration8diagnoseEv
FNDA:2,_ZN5neml237WR2ExplicitExponentialTimeIntegration9set_valueEbbb
FNF:4
FNH:3
DA:36,1
DA:38,1
DA:39,1
DA:41,1
DA:43,2
DA:44,2
DA:46,2
DA:47,1
DA:49,3
DA:50,1
DA:52,1
DA:53,0
DA:55,1
DA:56,1
DA:58,1
DA:59,1
DA:60,1
DA:61,4
DA:62,1
DA:63,1
DA:64,2
DA:66,1
DA:69,0
DA:71,0
DA:72,0
DA:73,0
DA:74,0
DA:75,0
DA:78,2
DA:80,2
DA:83,2
DA:85,2
DA:86,1
DA:88,2
DA:90,1
DA:91,1
DA:93,1
DA:94,0
DA:96,1
DA:97,1
DA:98,1
DA:99,1
DA:100,2
LF:43
LH:35
end_of_record
TN:
SF:/home/runner/work/neml2/neml2/src/neml2/models/WR2ImplicitExponentialTimeIntegration.cxx
FN:38,58,_ZN5neml237WR2ImplicitExponentialTimeIntegration16expected_optionsEv
FN:60,72,_ZN5neml237WR2ImplicitExponentialTimeIntegrationC2ERKNS_9OptionSetE
FN:75,81,_ZNK5neml237WR2ImplicitExponentialTimeIntegration8diagnoseEv
FN:84,105,_ZN5neml237WR2ImplicitExponentialTimeIntegration9set_valueEbbb
FNDA:1,_ZN5neml237WR2ImplicitExponentialTimeIntegration16expected_optionsEv
FNDA:2,_ZN5neml237WR2ImplicitExponentialTimeIntegrationC2ERKNS_9OptionSetE
FNDA:1,_ZNK5neml237WR2ImplicitExponentialTimeIntegration8diagnoseEv
FNDA:6,_ZN5neml237WR2ImplicitExponentialTimeIntegration9set_valueEbbb
FNF:4
FNH:4
DA:38,1
DA:40,1
DA:41,1
DA:44,1
DA:46,1
DA:48,2
DA:49,2
DA:51,2
DA:52,1
DA:54,3
DA:55,1
DA:57,1
DA:58,0
DA:60,2
DA:61,2
DA:63,2
DA:64,2
DA:65,2
DA:66,8
DA:67,2
DA:68,2
DA:69,2
DA:70,4
DA:72,2
DA:75,1
DA:77,1
DA:78,1
DA:79,1
DA:80,1
DA:81,1
DA:84,6
DA:86,6
DA:87,6
DA:89,6
DA:90,5
DA:92,6
DA:94,3
DA:95,3
DA:96,3
DA:98,3
DA:99,2
DA:101,1
DA:102,1
DA:103,1
DA:104,3
DA:105,8
LF:46
LH:45
end_of_record
TN:
SF:/home/runner/work/neml2/neml2/src/neml2/models/crystallography/CrystalGeometry.cxx
FN:102,105,_ZNK5neml215crystallography15CrystalGeometry2a3Ev
FN:108,111,_ZNK5neml215crystallography15CrystalGeometry2b1Ev
FN:114,117,_ZNK5neml215crystallography15CrystalGeometry2b2Ev
FN:120,123,_ZNK5neml215crystallography15CrystalGeometry2b3Ev
FN:126,129,_ZNK5neml215crystallography15CrystalGeometry5nslipEv
FN:132,136,_ZNK5neml215crystallography15CrystalGeometry12nslip_groupsEv
FN:139,143,_ZNK5neml215crystallography15CrystalGeometry14nslip_in_groupEl
FN:145,167,_ZN5neml215crystallography15CrystalGeometryC2ERKNS_9OptionSetERKNS_2R2ERKNS_3VecESt5tupleIJS8_S8_NS_6ScalarESt6vectorIlSaIlEEEE
FN:170,181,_ZN5neml215crystallography15CrystalGeometry23make_reciprocal_latticeERKNS_3VecE
FN:184,188,_ZN5neml215crystallography15CrystalGeometry19miller_to_cartesianERKNS_3VecERKNS_11MillerIndexE
FN:191,249,_ZN5neml215crystallography15CrystalGeometry20setup_schmid_tensorsERKNS_3VecERKNS_2R2ERKNS_11MillerIndexESA_
FN:42,63,_ZN5neml215crystallography15CrystalGeometry16expected_optionsEv
FN:65,74,_ZN5neml215crystallography15CrystalGeometryC2ERKNS_9OptionSetE
FN:76,87,_ZN5neml215crystallography15CrystalGeometryC2ERKNS_9OptionSetERKNS_2R2ERKNS_3VecE
FN:90,93,_ZNK5neml215crystallography15CrystalGeometry2a1Ev
FN:96,99,_ZNK5neml215crystallography15CrystalGeometry2a2Ev
FNDA:2,_ZNK5neml215crystallography15CrystalGeometry2a3Ev
FNDA:2,_ZNK5neml215crystallography15CrystalGeometry2b1Ev
FNDA:2,_ZNK5neml215crystallography15CrystalGeometry2b2Ev
FNDA:2,_ZNK5neml215crystallography15CrystalGeometry2b3Ev
FNDA:27,_ZNK5neml215crystallography15CrystalGeometry5nslipEv
FNDA:6,_ZNK5neml215crystallography15CrystalGeometry12nslip_groupsEv
FNDA:2,_ZNK5neml215crystallography15CrystalGeometry14nslip_in_groupEl
FNDA:35,_ZN5neml215crystallography15CrystalGeometryC2ERKNS_9OptionSetERKNS_2R2ERKNS_3VecESt5tupleIJS8_S8_NS_6ScalarESt6vectorIlSaIlEEEE
FNDA:70,_ZN5neml215crystallography15CrystalGeometry23make_reciprocal_latticeERKNS_3VecE
FNDA:70,_ZN5neml215crystallography15CrystalGeometry19miller_to_cartesianERKNS_3VecERKNS_11MillerIndexE
FNDA:35,_ZN5neml215crystallography15CrystalGeometry20setup_schmid_tensorsERKNS_3VecERKNS_2R2ERKNS_11MillerIndexESA_
FNDA:2,_ZN5neml215crystallography15CrystalGeometry16expected_optionsEv
FNDA:11,_ZN5neml215crystallography15CrystalGeometryC2ERKNS_9OptionSetE
FNDA:24,_ZN5neml215crystallography15CrystalGeometryC2ERKNS_9OptionSetERKNS_2R2ERKNS_3VecE
FNDA:2,_ZNK5neml215crystallography15CrystalGeometry2a1Ev
FNDA:2,_ZNK5neml215crystallography15CrystalGeometry2a2Ev
FNF:16
FNH:16
DA:42,2
DA:44,2
DA:46,2
DA:47,2
DA:49,4
DA:50,4
DA:52,4
DA:53,6
DA:54,2
DA:56,4
DA:57,4
DA:59,4
DA:60,2
DA:62,2
DA:63,0
DA:65,11
DA:67,22
DA:68,22
DA:69,22
DA:70,22
DA:71,22
DA:72,33
DA:74,11
DA:76,24
DA:78,24
DA:82,48
DA:84,48
DA:85,72
DA:87,24
DA:90,2
DA:92,6
DA:93,2
DA:96,2
DA:98,6
DA:99,2
DA:102,2
DA:104,6
DA:105,2
DA:108,2
DA:110,6
DA:111,2
DA:114,2
DA:116,6
DA:117,2
DA:120,2
DA:122,6
DA:123,2
DA:126,27
DA:128,27
DA:132,6
DA:135,6
DA:139,2
DA:141,2
DA:142,2
DA:145,35
DA:148,35
DA:150,35
DA:151,35
DA:152,35
DA:153,70
DA:154,140
DA:155,140
DA:156,35
DA:157,70
DA:158,70
DA:159,70
DA:160,35
DA:161,35
DA:162,70
DA:163,70
DA:164,105
DA:165,140
DA:167,35
DA:170,70
DA:172,140
DA:173,140
DA:174,140
DA:176,490
DA:177,140
DA:178,210
DA:180,140
DA:181,560
DA:184,70
DA:187,70
DA:191,35
DA:197,35
DA:200,35
DA:201,0
DA:203,35
DA:204,35
DA:207,35
DA:208,35
DA:209,35
DA:210,70
DA:212,70
DA:215,105
DA:216,105
DA:219,35
DA:220,35
DA:225,35
DA:226,245
DA:228,630
DA:229,210
DA:230,210
DA:232,630
DA:234,840
DA:235,1260
DA:236,420
DA:237,420
DA:238,420
DA:239,420
DA:240,420
DA:241,210
DA:242,35
DA:243,35
DA:245,70
DA:246,70
DA:247,70
DA:248,70
DA:249,1155
LF:120
LH:118
end_of_record
TN:
SF:/home/runner/work/neml2/neml2/src/neml2/models/crystallography/CubicCrystal.cxx
FN:36,49,_ZN5neml215crystallography12CubicCrystal16expected_optionsEv
FN:51,56,_ZN5neml215crystallography12CubicCrystalC2ERKNS_9OptionSetE
FNDA:1,_ZN5neml215crystallography12CubicCrystal16expected_optionsEv
FNDA:24,_ZN5neml215crystallography12CubicCrystalC2ERKNS_9OptionSetE
FNF:2
FNH:2
DA:36,1
DA:38,1
DA:39,1
DA:40,1
DA:42,2
DA:43,2
DA:45,2
DA:46,1
DA:48,1
DA:49,0
DA:51,24
DA:53,72
DA:54,96
DA:56,24
LF:14
LH:13
end_of_record
TN:
SF:/home/runner/work/neml2/neml2/src/neml2/models/solid_mechanics/AssociativeIsotropicPlasticHardening.cxx
FN:33,50,_ZN5neml236AssociativeIsotropicPlasticHardening16expected_optionsEv
FN:52,58,_ZN5neml236AssociativeIsotropicPlasticHardeningC2ERKNS_9OptionSetE
FN:61,78,_ZN5neml236AssociativeIsotropicPlasticHardening9set_valueEbbb
FNDA:1,_ZN5neml236AssociativeIsotropicPlasticHardening16expected_optionsEv
FNDA:2,_ZN5neml236AssociativeIsotropicPlasticHardeningC2ERKNS_9OptionSetE
FNDA:8,_ZN5neml236AssociativeIsotropicPlasticHardening9set_valueEbbb
FNF:3
FNH:3
DA:33,1
DA:35,1
DA:36,1
DA:40,1
DA:42,3
DA:43,2
DA:44,1
DA:46,3
DA:47,1
DA:49,1
DA:50,0
DA:52,2
DA:53,2
DA:55,2
DA:56,4
DA:58,2
DA:61,8
DA:67,8
DA:68,7
DA:70,8
DA:72,4
DA:73,4
DA:75,4
DA:76,4
DA:78,8
LF:25
LH:24
end_of_record
TN:
SF:/home/runner/work/neml2/neml2/src/neml2/models/solid_mechanics/AssociativeJ2FlowDirection.cxx
FN:35,47,_ZN5neml226AssociativeJ2FlowDirection16expected_optionsEv
FN:49,54,_ZN5neml226AssociativeJ2FlowDirectionC2ERKNS_9OptionSetE
FN:57,76,_ZN5neml226AssociativeJ2FlowDirection9set_valueEbbb
FNDA:1,_ZN5neml226AssociativeJ2FlowDirection16expected_optionsEv
FNDA:1,_ZN5neml226AssociativeJ2FlowDirectionC2ERKNS_9OptionSetE
FNDA:2,_ZN5neml226AssociativeJ2FlowDirection9set_valueEbbb
FNF:3
FNH:3
DA:35,1
DA:37,1
DA:38,1
DA:40,3
DA:41,1
DA:43,3
DA:44,1
DA:46,1
DA:47,0
DA:49,1
DA:51,1
DA:52,2
DA:54,1
DA:57,2
DA:59,2
DA:60,2
DA:61,2
DA:63,2
DA:65,1
DA:68,2
DA:69,1
DA:71,1
DA:72,1
DA:74,1
DA:75,1
DA:76,2
LF:26
LH:25
end_of_record
TN:
SF:/home/runner/work/neml2/neml2/src/neml2/models/solid_mechanics/AssociativeKinematicPlasticHardening.cxx
FN:35,53,_ZN5neml236AssociativeKinematicPlasticHardening16expected_optionsEv
FN:55,61,_ZN5neml236AssociativeKinematicPlasticHardeningC2ERKNS_9OptionSetE
FN:64,83,_ZN5neml236AssociativeKinematicPlasticHardening9set_valueEbbb
FNDA:1,_ZN5neml236AssociativeKinematicPlasticHardening16expected_optionsEv
FNDA:1,_ZN5neml236AssociativeKinematicPlasticHardeningC2ERKNS_9OptionSetE
FNDA:2,_ZN5neml236AssociativeKinematicPlasticHardening9set_valueEbbb
FNF:3
FNH:3
DA:35,1
DA:37,1
DA:38,1
DA:43,1
DA:45,3
DA:46,2
DA:47,1
DA:49,3
DA:50,1
DA:52,1
DA:53,0
DA:55,1
DA:56,1
DA:58,1
DA:59,2
DA:61,1
DA:64,2
DA:70,2
DA:71,1
DA:73,2
DA:75,1
DA:77,1
DA:78,1
DA:80,1
DA:81,1
DA:82,1
DA:83,2
LF:27
LH:26
end_of_record
TN:
SF:/home/runner/work/neml2/neml2/src/neml2/models/solid_mechanics/AssociativePlasticFlow.cxx
FN:35,52,_ZN5neml222AssociativePlasticFlow16expected_optionsEv
FN:54,59,_ZN5neml222AssociativePlasticFlowC2ERKNS_9OptionSetE
FN:62,81,_ZN5neml222AssociativePlasticFlow9set_valueEbbb
FNDA:1,_ZN5neml222AssociativePlasticFlow16expected_optionsEv
FNDA:4,_ZN5neml222AssociativePlasticFlowC2ERKNS_9OptionSetE
FNDA:20,_ZN5neml222AssociativePlasticFlow9set_valueEbbb
FNF:3
FNH:3
DA:35,1
DA:37,1
DA:38,1
DA:43,1
DA:45,3
DA:46,1
DA:48,3
DA:49,1
DA:51,1
DA:52,0
DA:54,4
DA:56,4
DA:57,8
DA:59,4
DA:62,20
DA:68,20
DA:69,19
DA:71,20
DA:73,10
DA:75,10
DA:76,10
DA:78,10
DA:79,10
DA:80,10
DA:81,20
LF:25
LH:24
end_of_record
TN:
SF:/home/runner/work/neml2/neml2/src/neml2/models/solid_mechanics/ChabochePlasticHardening.cxx
FN:37,53,_ZN5neml224ChabochePlasticHardening16expected_optionsEv
FN:55,60,_ZN5neml224ChabochePlasticHardeningC2ERKNS_9OptionSetE
FN:63,101,_ZN5neml224ChabochePlasticHardening9set_valueEbbb
FNDA:1,_ZN5neml224ChabochePlasticHardening16expected_optionsEv
FNDA:4,_ZN5neml224ChabochePlasticHardeningC2ERKNS_9OptionSetE
FNDA:16,_ZN5neml224ChabochePlasticHardening9set_valueEbbb
FNF:3
FNH:3
DA:37,1
DA:39,1
DA:40,1
DA:44,1
DA:46,2
DA:47,2
DA:49,2
DA:50,1
DA:52,1
DA:53,0
DA:55,4
DA:57,12
DA:58,20
DA:60,4
DA:63,16
DA:66,16
DA:68,16
DA:70,16
DA:72,16
DA:73,15
DA:75,16
DA:77,8
DA:79,8
DA:80,8
DA:82,8
DA:83,8
DA:85,8
DA:86,32
DA:87,40
DA:89,24
DA:90,1
DA:92,24
DA:93,1
DA:95,24
DA:96,1
DA:98,24
DA:99,1
DA:100,8
DA:101,16
LF:39
LH:38
end_of_record
TN:
SF:/home/runner/work/neml2/neml2/src/neml2/models/solid_mechanics/Eigenstrain.cxx
FN:31,39,_ZN5neml211Eigenstrain16expected_optionsEv
FN:41,45,_ZN5neml211EigenstrainC2ERKNS_9OptionSetE
FNDA:1,_ZN5neml211Eigenstrain16expected_optionsEv
FNDA:2,_ZN5neml211EigenstrainC2ERKNS_9OptionSetE
FNF:2
FNH:2
DA:31,1
DA:33,1
DA:35,3
DA:36,1
DA:38,1
DA:39,0
DA:41,2
DA:43,2
DA:45,2
LF:9
LH:8
end_of_record
TN:
SF:/home/runner/work/neml2/neml2/src/neml2/models/solid_mechanics/FlowRule.cxx
FN:31,41,_ZN5neml28FlowRule16expected_optionsEv
FN:43,47,_ZN5neml28FlowRuleC2ERKNS_9OptionSetE
FNDA:6,_ZN5neml28FlowRule16expected_optionsEv
FNDA:17,_ZN5neml28FlowRuleC2ERKNS_9OptionSetE
FNF:2
FNH:2
DA:31,6
DA:33,6
DA:34,6
DA:35,6
DA:37,18
DA:38,6
DA:40,6
DA:41,0
DA:43,17
DA:45,17
DA:47,17
LF:11
LH:10
end_of_record
TN:
SF:/home/runner/work/neml2/neml2/src/neml2/models/solid_mechanics/FredrickArmstrongPlasticHardening.cxx
FN:35,63,_ZN5neml233FredrickArmstrongPlasticHardening16expected_optionsEv
FN:65,75,_ZN5neml233FredrickArmstrongPlasticHardeningC2ERKNS_9OptionSetE
FN:78,107,_ZN5neml233FredrickArmstrongPlasticHardening9set_valueEbbb
FNDA:2,_ZN5neml233FredrickArmstrongPlasticHardening16expected_optionsEv
FNDA:6,_ZN5neml233FredrickArmstrongPlasticHardeningC2ERKNS_9OptionSetE
FNDA:4,_ZN5neml233FredrickArmstrongPlasticHardening9set_valueEbbb
FNF:3
FNH:3
DA:35,2
DA:37,2
DA:38,2
DA:45,2
DA:47,6
DA:48,4
DA:50,4
DA:51,2
DA:53,6
DA:54,4
DA:56,4
DA:57,4
DA:59,4
DA:60,2
DA:62,2
DA:63,0
DA:65,6
DA:67,6
DA:68,6
DA:69,18
DA:70,24
DA:72,24
DA:73,30
DA:75,6
DA:78,4
DA:81,4
DA:83,4
DA:85,4
DA:86,3
DA:88,4
DA:90,2
DA:92,2
DA:93,2
DA:95,2
DA:96,2
DA:98,2
DA:99,2
DA:101,6
DA:102,1
DA:104,6
DA:105,1
DA:106,2
DA:107,4
LF:43
LH:42
end_of_record
TN:
SF:/home/runner/work/neml2/neml2/src/neml2/models/solid_mechanics/GTNYieldFunction.cxx
FN:36,80,_ZN5neml216GTNYieldFunction16expected_optionsEv
FN:82,96,_ZN5neml216GTNYieldFunctionC2ERKNS_9OptionSetE
FN:99,406,_ZN5neml216GTNYieldFunction9set_valueEbbb
FNDA:1,_ZN5neml216GTNYieldFunction16expected_optionsEv
FNDA:3,_ZN5neml216GTNYieldFunctionC2ERKNS_9OptionSetE
FNDA:9,_ZN5neml216GTNYieldFunction9set_valueEbbb
FNF:3
FNH:3
DA:36,1
DA:38,1
DA:39,1
DA:47,1
DA:49,2
DA:51,2
DA:52,2
DA:54,2
DA:55,3
DA:56,1
DA:58,2
DA:59,2
DA:61,2
DA:62,1
DA:64,3
DA:65,1
DA:67,3
DA:68,2
DA:70,2
DA:71,1
DA:73,3
DA:74,1
DA:76,3
DA:77,1
DA:79,1
DA:80,0
DA:82,3
DA:84,3
DA:85,3
DA:86,3
DA:87,3
DA:88,3
DA:89,3
DA:90,3
DA:91,12
DA:92,12
DA:93,12
DA:94,15
DA:96,3
DA:99,9
DA:102,9
DA:104,9
DA:105,14
DA:106,21
DA:108,9
DA:110,5
DA:111,5
DA:113,5
DA:114,5
DA:116,5
DA:117,5
DA:119,5
DA:120,20
DA:121,25
DA:124,15
DA:125,8
DA:126,10
DA:128,15
DA:129,2
DA:131,15
DA:132,2
DA:134,15
DA:135,2
DA:138,9
DA:140,6
DA:141,6
DA:142,6
DA:143,6
DA:174,3
DA:176,3
DA:178,3
DA:179,3
DA:181,3
DA:182,1
DA:192,3
DA:194,6
DA:195,9
DA:197,3
DA:198,3
DA:200,3
DA:201,6
DA:202,6
DA:203,12
DA:204,15
DA:205,3
DA:206,2
DA:207,2
DA:208,4
DA:209,5
DA:211,3
DA:212,1
DA:214,3
DA:215,2
DA:216,2
DA:217,4
DA:218,5
DA:228,3
DA:230,3
DA:231,3
DA:233,3
DA:235,3
DA:236,3
DA:238,3
DA:239,1
DA:241,3
DA:242,1
DA:244,3
DA:245,1
DA:247,3
DA:248,1
DA:258,3
DA:260,3
DA:261,3
DA:263,3
DA:264,6
DA:265,6
DA:266,12
DA:267,15
DA:269,3
DA:270,3
DA:272,12
DA:273,6
DA:274,12
DA:275,15
DA:277,3
DA:278,2
DA:279,2
DA:280,2
DA:281,4
DA:282,5
DA:284,3
DA:285,1
DA:287,3
DA:288,2
DA:289,2
DA:290,4
DA:291,5
DA:301,3
DA:303,1
DA:304,1
DA:306,1
DA:307,1
DA:309,1
DA:310,2
DA:311,2
DA:312,2
DA:313,4
DA:314,5
DA:316,4
DA:317,2
DA:318,4
DA:319,5
DA:321,1
DA:322,1
DA:324,1
DA:325,2
DA:326,2
DA:327,4
DA:328,5
DA:338,3
DA:340,1
DA:341,1
DA:343,1
DA:344,1
DA:346,1
DA:347,1
DA:349,1
DA:350,1
DA:352,1
DA:353,1
DA:363,3
DA:365,1
DA:366,2
DA:367,2
DA:368,4
DA:369,5
DA:371,1
DA:372,1
DA:374,1
DA:375,2
DA:376,2
DA:377,4
DA:378,5
DA:380,1
DA:381,2
DA:382,2
DA:383,4
DA:384,5
DA:386,1
DA:387,1
DA:389,2
DA:390,3
DA:400,3
DA:402,1
DA:403,1
DA:406,9
LF:196
LH:195
end_of_record
TN:
SF:/home/runner/work/neml2/neml2/src/neml2/models/solid_mechanics/GursonCavitation.cxx
FN:35,51,_ZN5neml216GursonCavitation16expected_optionsEv
FN:53,59,_ZN5neml216GursonCavitationC2ERKNS_9OptionSetE
FN:62,79,_ZN5neml216GursonCavitation9set_valueEbbb
FNDA:1,_ZN5neml216GursonCavitation16expected_optionsEv
FNDA:1,_ZN5neml216GursonCavitationC2ERKNS_9OptionSetE
FNDA:2,_ZN5neml216GursonCavitation9set_valueEbbb
FNF:3
FNH:3
DA:35,1
DA:37,1
DA:38,1
DA:39,1
DA:41,3
DA:42,1
DA:44,3
DA:45,1
DA:47,3
DA:48,1
DA:50,1
DA:51,0
DA:53,1
DA:55,1
DA:56,1
DA:57,2
DA:59,1
DA:62,2
DA:64,2
DA:66,2
DA:67,1
DA:69,2
DA:71,1
DA:73,1
DA:74,1
DA:76,1
DA:77,1
DA:78,1
DA:79,2
LF:29
LH:28
end_of_record
TN:
SF:/home/runner/work/neml2/neml2/src/neml2/models/solid_mechanics/IsotropicHardening.cxx
FN:31,43,_ZN5neml218IsotropicHardening16expected_optionsEv
FN:45,50,_ZN5neml218IsotropicHardeningC2ERKNS_9OptionSetE
FNDA:2,_ZN5neml218IsotropicHardening16expected_optionsEv
FNDA:4,_ZN5neml218IsotropicHardeningC2ERKNS_9OptionSetE
FNF:2
FNH:2
DA:31,2
DA:33,2
DA:34,2
DA:36,6
DA:37,2
DA:39,6
DA:40,2
DA:42,2
DA:43,0
DA:45,4
DA:47,4
DA:48,8
DA:50,4
LF:13
LH:12
end_of_record
TN:
SF:/home/runner/work/neml2/neml2/src/neml2/models/solid_mechanics/IsotropicHardeningStaticRecovery.cxx
FN:31,44,_ZN5neml232IsotropicHardeningStaticRecovery16expected_optionsEv
FN:46,54,_ZN5neml232IsotropicHardeningStaticRecoveryC2ERKNS_9OptionSetE
FNDA:1,_ZN5neml232IsotropicHardeningStaticRecovery16expected_optionsEv
FNDA:1,_ZN5neml232IsotropicHardeningStaticRecoveryC2ERKNS_9OptionSetE
FNF:2
FNH:2
DA:31,1
DA:33,1
DA:34,1
DA:36,3
DA:37,2
DA:39,2
DA:40,2
DA:41,1
DA:43,1
DA:44,0
DA:46,1
DA:48,1
DA:49,2
DA:50,1
DA:51,4
DA:52,1
DA:54,1
LF:17
LH:16
end_of_record
TN:
SF:/home/runner/work/neml2/neml2/src/neml2/models/solid_mechanics/IsotropicMandelStress.cxx
FN:34,41,_ZN5neml221IsotropicMandelStress16expected_optionsEv
FN:44,59,_ZN5neml221IsotropicMandelStress9set_valueEbbb
FNDA:1,_ZN5neml221IsotropicMandelStress16expected_optionsEv
FNDA:20,_ZN5neml221IsotropicMandelStress9set_valueEbbb
FNF:2
FNH:2
DA:34,1
DA:36,1
DA:37,1
DA:38,1
DA:40,1
DA:41,0
DA:44,20
DA:48,20
DA:49,19
DA:51,20
DA:52,10
DA:53,10
DA:59,20
LF:13
LH:12
end_of_record
TN:
SF:/home/runner/work/neml2/neml2/src/neml2/models/solid_mechanics/KinematicHardening.cxx
FN:31,43,_ZN5neml218KinematicHardening16expected_optionsEv
FN:45,50,_ZN5neml218KinematicHardeningC2ERKNS_9OptionSetE
FNDA:1,_ZN5neml218KinematicHardening16expected_optionsEv
FNDA:1,_ZN5neml218KinematicHardeningC2ERKNS_9OptionSetE
FNF:2
FNH:2
DA:31,1
DA:33,1
DA:34,1
DA:36,3
DA:37,1
DA:39,3
DA:40,1
DA:42,1
DA:43,0
DA:45,1
DA:47,1
DA:48,2
DA:50,1
LF:13
LH:12
end_of_record
TN:
SF:/home/runner/work/neml2/neml2/src/neml2/models/solid_mechanics/KinematicHardeningStaticRecovery.cxx
FN:32,45,_ZN5neml232KinematicHardeningStaticRecovery16expected_optionsEv
FN:47,54,_ZN5neml232KinematicHardeningStaticRecoveryC2ERKNS_9OptionSetE
FNDA:1,_ZN5neml232KinematicHardeningStaticRecovery16expected_optionsEv
FNDA:1,_ZN5neml232KinematicHardeningStaticRecoveryC2ERKNS_9OptionSetE
FNF:2
FNH:2
DA:32,1
DA:34,1
DA:35,1
DA:37,3
DA:38,2
DA:40,2
DA:41,2
DA:42,1
DA:44,1
DA:45,0
DA:47,1
DA:49,1
DA:50,3
DA:51,4
DA:52,1
DA:54,1
LF:16
LH:15
end_of_record
TN:
SF:/home/runner/work/neml2/neml2/src/neml2/models/solid_mechanics/KocksMeckingActivationEnergy.cxx
FN:34,64,_ZN5neml228KocksMeckingActivationEnergy16expected_optionsEv
FN:66,76,_ZN5neml228KocksMeckingActivationEnergyC2ERKNS_9OptionSetE
FN:79,95,_ZN5neml228KocksMeckingActivationEnergy9set_valueEbbb
FNDA:1,_ZN5neml228KocksMeckingActivationEnergy16expected_optionsEv
FNDA:2,_ZN5neml228KocksMeckingActivationEnergyC2ERKNS_9OptionSetE
FNDA:4,_ZN5neml228KocksMeckingActivationEnergy9set_valueEbbb
FNF:3
FNH:3
DA:34,1
DA:36,1
DA:37,1
DA:42,1
DA:44,2
DA:45,2
DA:47,2
DA:48,2
DA:50,2
DA:51,2
DA:52,2
DA:53,1
DA:55,3
DA:56,1
DA:58,3
DA:59,1
DA:61,3
DA:62,1
DA:63,1
DA:64,0
DA:66,2
DA:68,8
DA:69,4
DA:70,4
DA:71,10
DA:72,2
DA:73,2
DA:74,4
DA:76,2
DA:79,4
DA:81,4
DA:82,3
DA:84,4
DA:86,2
DA:87,2
DA:89,2
DA:90,2
DA:92,6
DA:93,1
DA:95,4
LF:40
LH:39
end_of_record
TN:
SF:/home/runner/work/neml2/neml2/src/neml2/models/solid_mechanics/KocksMeckingFlowSwitch.cxx
FN:36,63,_ZN5neml222KocksMeckingFlowSwitch16expected_optionsEv
FN:65,74,_ZN5neml222KocksMeckingFlowSwitchC2ERKNS_9OptionSetE
FN:77,98,_ZN5neml222KocksMeckingFlowSwitch9set_valueEbbb
FNDA:1,_ZN5neml222KocksMeckingFlowSwitch16expected_optionsEv
FNDA:2,_ZN5neml222KocksMeckingFlowSwitchC2ERKNS_9OptionSetE
FNDA:4,_ZN5neml222KocksMeckingFlowSwitch9set_valueEbbb
FNF:3
FNH:3
DA:36,1
DA:38,1
DA:39,1
DA:43,1
DA:45,2
DA:46,1
DA:48,3
DA:49,2
DA:51,2
DA:52,2
DA:53,1
DA:55,3
DA:56,1
DA:57,3
DA:58,1
DA:60,3
DA:61,1
DA:62,1
DA:63,0
DA:65,2
DA:67,6
DA:68,2
DA:69,2
DA:70,2
DA:71,2
DA:72,4
DA:74,2
DA:77,4
DA:79,4
DA:81,4
DA:82,3
DA:84,4
DA:86,2
DA:87,2
DA:89,2
DA:90,2
DA:92,2
DA:93,2
DA:95,6
DA:96,1
DA:97,2
DA:98,4
LF:42
LH:41
end_of_record
TN:
SF:/home/runner/work/neml2/neml2/src/neml2/models/solid_mechanics/KocksMeckingFlowViscosity.cxx
FN:35,69,_ZN5neml225KocksMeckingFlowViscosity16expected_optionsEv
FN:71,81,_ZN5neml225KocksMeckingFlowViscosityC2ERKNS_9OptionSetE
FN:84,171,_ZN5neml225KocksMeckingFlowViscosity9set_valueEbbb
FNDA:1,_ZN5neml225KocksMeckingFlowViscosity16expected_optionsEv
FNDA:2,_ZN5neml225KocksMeckingFlowViscosityC2ERKNS_9OptionSetE
FNDA:6,_ZN5neml225KocksMeckingFlowViscosity9set_valueEbbb
FNF:3
FNH:3
DA:35,1
DA:37,1
DA:38,1
DA:46,1
DA:48,2
DA:50,2
DA:51,2
DA:52,2
DA:53,2
DA:54,2
DA:55,2
DA:57,2
DA:58,2
DA:60,2
DA:61,2
DA:62,2
DA:63,1
DA:65,3
DA:66,1
DA:68,1
DA:69,0
DA:71,2
DA:73,6
DA:74,8
DA:75,10
DA:76,4
DA:77,4
DA:78,10
DA:79,4
DA:81,2
DA:84,6
DA:86,6
DA:88,6
DA:89,4
DA:91,6
DA:93,3
DA:94,3
DA:96,9
DA:97,2
DA:99,9
DA:100,2
DA:102,9
DA:103,2
DA:106,6
DA:109,2
DA:111,2
DA:113,6
DA:114,4
DA:115,5
DA:117,6
DA:118,1
DA:120,6
DA:121,1
DA:125,6
DA:127,1
DA:128,4
DA:129,5
DA:131,1
DA:133,3
DA:134,1
DA:136,3
DA:137,1
DA:141,6
DA:143,1
DA:144,1
DA:146,3
DA:147,1
DA:149,1
DA:151,3
DA:152,1
DA:156,6
DA:158,1
DA:159,1
DA:161,3
DA:162,1
DA:164,3
DA:165,1
DA:167,2
DA:168,3
DA:171,6
LF:80
LH:79
end_of_record
TN:
SF:/home/runner/work/neml2/neml2/src/neml2/models/solid_mechanics/KocksMeckingIntercept.cxx
FN:34,52,_ZN5neml221KocksMeckingIntercept16expected_optionsEv
FN:54,60,_ZN5neml221KocksMeckingInterceptC2ERKNS_9OptionSetE
FN:63,99,_ZN5neml221KocksMeckingIntercept9set_valueEbbb
FNDA:1,_ZN5neml221KocksMeckingIntercept16expected_optionsEv
FNDA:2,_ZN5neml221KocksMeckingInterceptC2ERKNS_9OptionSetE
FNDA:6,_ZN5neml221KocksMeckingIntercept9set_valueEbbb
FNF:3
FNH:3
DA:34,1
DA:36,1
DA:37,1
DA:38,1
DA:40,2
DA:42,2
DA:43,2
DA:45,2
DA:46,2
DA:48,2
DA:49,1
DA:51,1
DA:52,0
DA:54,2
DA:56,6
DA:57,8
DA:58,10
DA:60,2
DA:63,6
DA:65,6
DA:66,4
DA:68,6
DA:70,9
DA:71,2
DA:73,9
DA:74,2
DA:76,9
DA:77,2
DA:80,6
DA:82,6
DA:84,1
DA:85,3
DA:86,1
DA:87,3
DA:88,1
DA:91,6
DA:92,3
DA:93,1
DA:95,6
DA:96,3
DA:97,1
DA:99,6
LF:42
LH:41
end_of_record
TN:
SF:/home/runner/work/neml2/neml2/src/neml2/models/solid_mechanics/KocksMeckingRateSensitivity.cxx
FN:33,57,_ZN5neml227KocksMeckingRateSensitivity16expected_optionsEv
FN:59,67,_ZN5neml227KocksMeckingRateSensitivityC2ERKNS_9OptionSetE
FN:70,123,_ZN5neml227KocksMeckingRateSensitivity9set_valueEbbb
FNDA:1,_ZN5neml227KocksMeckingRateSensitivity16expected_optionsEv
FNDA:2,_ZN5neml227KocksMeckingRateSensitivityC2ERKNS_9OptionSetE
FNDA:6,_ZN5neml227KocksMeckingRateSensitivity9set_valueEbbb
FNF:3
FNH:3
DA:33,1
DA:35,1
DA:36,1
DA:40,1
DA:42,2
DA:44,2
DA:45,2
DA:46,2
DA:47,2
DA:49,2
DA:50,2
DA:51,2
DA:52,1
DA:54,3
DA:55,1
DA:56,1
DA:57,0
DA:59,2
DA:61,6
DA:62,10
DA:63,4
DA:64,10
DA:65,4
DA:67,2
DA:70,6
DA:72,6
DA:73,4
DA:75,6
DA:77,3
DA:78,3
DA:79,9
DA:80,2
DA:81,9
DA:82,2
DA:85,6
DA:88,2
DA:89,2
DA:91,6
DA:94,1
DA:96,1
DA:98,1
DA:99,1
DA:100,1
DA:101,1
DA:104,6
DA:107,1
DA:109,1
DA:110,1
DA:111,1
DA:112,1
DA:114,3
DA:117,1
DA:118,1
DA:119,1
DA:120,1
DA:123,6
LF:56
LH:55
end_of_record
TN:
SF:/home/runner/work/neml2/neml2/src/neml2/models/solid_mechanics/KocksMeckingYieldStress.cxx
FN:34,50,_ZN5neml223KocksMeckingYieldStress16expected_optionsEv
FN:52,57,_ZN5neml223KocksMeckingYieldStressC2ERKNS_9OptionSetE
FN:60,87,_ZN5neml223KocksMeckingYieldStress9set_valueEbbb
FNDA:1,_ZN5neml223KocksMeckingYieldStress16expected_optionsEv
FNDA:2,_ZN5neml223KocksMeckingYieldStressC2ERKNS_9OptionSetE
FNDA:5,_ZN5neml223KocksMeckingYieldStress9set_valueEbbb
FNF:3
FNH:3
DA:34,1
DA:36,1
DA:38,1
DA:40,1
DA:42,2
DA:44,2
DA:45,2
DA:46,2
DA:47,1
DA:49,1
DA:50,0
DA:52,2
DA:54,6
DA:55,10
DA:57,2
DA:60,5
DA:62,5
DA:63,4
DA:65,5
DA:67,9
DA:68,2
DA:70,9
DA:71,2
DA:74,5
DA:76,3
DA:78,1
DA:80,3
DA:82,1
DA:83,1
DA:87,5
LF:30
LH:29
end_of_record
TN:
SF:/home/runner/work/neml2/neml2/src/neml2/models/solid_mechanics/LinearIsotropicElasticJ2TrialStressUpdate.cxx
FN:32,51,_ZN5neml241LinearIsotropicElasticJ2TrialStressUpdate16expected_optionsEv
FN:53,62,_ZN5neml241LinearIsotropicElasticJ2TrialStressUpdateC2ERKNS_9OptionSetE
FN:65,97,_ZN5neml241LinearIsotropicElasticJ2TrialStressUpdate9set_valueEbbb
FNDA:1,_ZN5neml241LinearIsotropicElasticJ2TrialStressUpdate16expected_optionsEv
FNDA:1,_ZN5neml241LinearIsotropicElasticJ2TrialStressUpdateC2ERKNS_9OptionSetE
FNDA:2,_ZN5neml241LinearIsotropicElasticJ2TrialStressUpdate9set_valueEbbb
FNF:3
FNH:3
DA:32,1
DA:34,1
DA:36,1
DA:37,1
DA:39,3
DA:40,1
DA:42,3
DA:43,2
DA:44,1
DA:46,3
DA:47,2
DA:48,1
DA:50,1
DA:51,0
DA:53,1
DA:54,1
DA:56,1
DA:57,1
DA:58,1
DA:59,1
DA:60,2
DA:62,1
DA:65,2
DA:67,2
DA:68,2
DA:70,2
DA:71,2
DA:72,3
DA:74,2
DA:76,1
DA:77,2
DA:78,3
DA:80,1
DA:81,1
DA:83,1
DA:84,1
DA:86,1
DA:87,0
DA:89,1
DA:90,0
DA:97,2
LF:41
LH:38
end_of_record
TN:
SF:/home/runner/work/neml2/neml2/src/neml2/models/solid_mechanics/LinearIsotropicHardening.cxx
FN:33,45,_ZN5neml224LinearIsotropicHardening16expected_optionsEv
FN:47,51,_ZN5neml224LinearIsotropicHardeningC2ERKNS_9OptionSetE
FN:54,67,_ZN5neml224LinearIsotropicHardening9set_valueEbbb
FNDA:1,_ZN5neml224LinearIsotropicHardening16expected_optionsEv
FNDA:1,_ZN5neml224LinearIsotropicHardeningC2ERKNS_9OptionSetE
FNDA:2,_ZN5neml224LinearIsotropicHardening9set_valueEbbb
FNF:3
FNH:3
DA:33,1
DA:35,1
DA:36,1
DA:37,1
DA:39,2
DA:41,2
DA:42,1
DA:44,1
DA:45,0
DA:47,1
DA:49,4
DA:51,1
DA:54,2
DA:56,2
DA:57,1
DA:59,2
DA:60,1
DA:61,1
DA:67,2
LF:19
LH:18
end_of_record
TN:
SF:/home/runner/work/neml2/neml2/src/neml2/models/solid_mechanics/LinearKinematicHardening.cxx
FN:35,47,_ZN5neml224LinearKinematicHardening16expected_optionsEv
FN:49,53,_ZN5neml224LinearKinematicHardeningC2ERKNS_9OptionSetE
FN:56,69,_ZN5neml224LinearKinematicHardening9set_valueEbbb
FNDA:1,_ZN5neml224LinearKinematicHardening16expected_optionsEv
FNDA:1,_ZN5neml224LinearKinematicHardeningC2ERKNS_9OptionSetE
FNDA:2,_ZN5neml224LinearKinematicHardening9set_valueEbbb
FNF:3
FNH:3
DA:35,1
DA:37,1
DA:38,1
DA:39,1
DA:41,2
DA:43,2
DA:44,1
DA:46,1
DA:47,0
DA:49,1
DA:51,4
DA:53,1
DA:56,2
DA:58,2
DA:59,1
DA:61,2
DA:62,1
DA:63,1
DA:69,2
LF:19
LH:18
end_of_record
TN:
SF:/home/runner/work/neml2/neml2/src/neml2/models/solid_mechanics/MandelStress.cxx
FN:31,43,_ZN5neml212MandelStress16expected_optionsEv
FN:45,50,_ZN5neml212MandelStressC2ERKNS_9OptionSetE
FNDA:1,_ZN5neml212MandelStress16expected_optionsEv
FNDA:4,_ZN5neml212MandelStressC2ERKNS_9OptionSetE
FNF:2
FNH:2
DA:31,1
DA:33,1
DA:34,1
DA:36,3
DA:37,1
DA:39,3
DA:40,1
DA:42,1
DA:43,0
DA:45,4
DA:47,4
DA:48,8
DA:50,4
LF:13
LH:12
end_of_record
TN:
SF:/home/runner/work/neml2/neml2/src/neml2/models/solid_mechanics/MixedControlSetup.cxx
FN:111,124,_ZNK5neml217MixedControlSetup14make_operatorsERKNS_3SR2E
FN:35,66,_ZN5neml217MixedControlSetup16expected_optionsEv
FN:68,77,_ZN5neml217MixedControlSetupC2ERKNS_9OptionSetE
FN:80,108,_ZN5neml217MixedControlSetup9set_valueEbbb
FNDA:9,_ZNK5neml217MixedControlSetup14make_operatorsERKNS_3SR2E
FNDA:1,_ZN5neml217MixedControlSetup16expected_optionsEv
FNDA:3,_ZN5neml217MixedControlSetupC2ERKNS_9OptionSetE
FNDA:9,_ZN5neml217MixedControlSetup9set_valueEbbb
FNF:4
FNH:4
DA:35,1
DA:37,1
DA:38,1
DA:41,1
DA:43,3
DA:44,3
DA:46,1
DA:48,4
DA:49,1
DA:51,3
DA:52,2
DA:53,1
DA:55,3
DA:56,2
DA:57,1
DA:59,3
DA:60,1
DA:62,3
DA:63,1
DA:65,1
DA:66,0
DA:68,3
DA:70,3
DA:71,3
DA:72,3
DA:73,3
DA:74,3
DA:75,6
DA:77,3
DA:80,9
DA:82,9
DA:84,9
DA:87,8
DA:88,8
DA:91,9
DA:93,4
DA:95,1
DA:96,1
DA:99,4
DA:101,4
DA:102,4
DA:108,9
DA:111,9
DA:113,9
DA:114,9
DA:117,9
DA:118,9
DA:120,9
DA:121,9
DA:123,18
DA:124,9
LF:51
LH:50
end_of_record
TN:
SF:/home/runner/work/neml2/neml2/src/neml2/models/solid_mechanics/Normality.cxx
FN:34,53,_ZN5neml29Normality16expected_optionsEv
FN:55,73,_ZN5neml29NormalityC2ERKNS_9OptionSetE
FN:76,104,_ZN5neml29Normality9set_valueEbbb
FNDA:1,_ZN5neml29Normality16expected_optionsEv
FNDA:4,_ZN5neml29NormalityC2ERKNS_9OptionSetE
FNDA:20,_ZN5neml29Normality9set_valueEbbb
FNF:3
FNH:3
DA:34,1
DA:36,1
DA:37,1
DA:38,1
DA:40,2
DA:41,2
DA:43,2
DA:44,2
DA:46,2
DA:47,2
DA:49,2
DA:50,1
DA:52,1
DA:53,0
DA:55,4
DA:57,4
DA:58,16
DA:61,8
DA:62,4
DA:63,4
DA:65,4
DA:67,4
DA:71,11
DA:72,7
DA:73,4
DA:76,20
DA:79,20
DA:83,20
DA:84,20
DA:86,20
DA:87,50
DA:89,30
DA:91,0
DA:92,0
DA:95,30
DA:96,27
DA:98,30
DA:99,48
DA:100,54
DA:101,21
DA:102,16
DA:104,20
LF:42
LH:39
end_of_record
TN:
SF:/home/runner/work/neml2/neml2/src/neml2/models/solid_mechanics/OlevskySinteringStress.cxx
FN:33,57,_ZN5neml222OlevskySinteringStress16expected_optionsEv
FN:59,66,_ZN5neml222OlevskySinteringStressC2ERKNS_9OptionSetE
FN:69,81,_ZN5neml222OlevskySinteringStress9set_valueEbbb
FNDA:1,_ZN5neml222OlevskySinteringStress16expected_optionsEv
FNDA:1,_ZN5neml222OlevskySinteringStressC2ERKNS_9OptionSetE
FNDA:3,_ZN5neml222OlevskySinteringStress9set_valueEbbb
FNF:3
FNH:3
DA:33,1
DA:35,1
DA:36,1
DA:40,1
DA:42,1
DA:44,3
DA:45,1
DA:47,3
DA:48,2
DA:50,2
DA:51,2
DA:53,2
DA:54,1
DA:56,1
DA:57,0
DA:59,1
DA:61,1
DA:62,1
DA:63,4
DA:64,5
DA:66,1
DA:69,3
DA:71,3
DA:72,1
DA:74,3
DA:75,1
DA:76,1
DA:78,3
DA:79,1
DA:80,1
DA:81,3
LF:31
LH:30
end_of_record
TN:
SF:/home/runner/work/neml2/neml2/src/neml2/models/solid_mechanics/PerzynaPlasticFlowRate.cxx
FN:37,53,_ZN5neml222PerzynaPlasticFlowRate16expected_optionsEv
FN:55,60,_ZN5neml222PerzynaPlasticFlowRateC2ERKNS_9OptionSetE
FN:63,87,_ZN5neml222PerzynaPlasticFlowRate9set_valueEbbb
FNDA:1,_ZN5neml222PerzynaPlasticFlowRate16expected_optionsEv
FNDA:5,_ZN5neml222PerzynaPlasticFlowRateC2ERKNS_9OptionSetE
FNDA:22,_ZN5neml222PerzynaPlasticFlowRate9set_valueEbbb
FNF:3
FNH:3
DA:37,1
DA:39,1
DA:40,1
DA:44,1
DA:46,2
DA:47,2
DA:49,2
DA:50,1
DA:52,1
DA:53,0
DA:55,5
DA:57,15
DA:58,25
DA:60,5
DA:63,22
DA:66,22
DA:67,22
DA:68,22
DA:69,22
DA:71,22
DA:72,21
DA:74,22
DA:76,11
DA:78,11
DA:79,11
DA:81,33
DA:82,1
DA:84,33
DA:85,1
DA:86,11
DA:87,22
LF:31
LH:30
end_of_record
TN:
SF:/home/runner/work/neml2/neml2/src/neml2/models/solid_mechanics/PlasticFlowRate.cxx
FN:31,42,_ZN5neml215PlasticFlowRate16expected_optionsEv
FN:44,49,_ZN5neml215PlasticFlowRateC2ERKNS_9OptionSetE
FNDA:1,_ZN5neml215PlasticFlowRate16expected_optionsEv
FNDA:5,_ZN5neml215PlasticFlowRateC2ERKNS_9OptionSetE
FNF:2
FNH:2
DA:31,1
DA:33,1
DA:35,3
DA:36,1
DA:38,3
DA:39,1
DA:41,1
DA:42,0
DA:44,5
DA:46,5
DA:47,10
DA:49,5
LF:12
LH:11
end_of_record
TN:
SF:/home/runner/work/neml2/neml2/src/neml2/models/solid_mechanics/PowerLawIsotropicHardeningStaticRecovery.cxx
FN:36,49,_ZN5neml240PowerLawIsotropicHardeningStaticRecovery16expected_optionsEv
FN:51,57,_ZN5neml240PowerLawIsotropicHardeningStaticRecoveryC2ERKNS_9OptionSetE
FN:60,77,_ZN5neml240PowerLawIsotropicHardeningStaticRecovery9set_valueEbbb
FNDA:1,_ZN5neml240PowerLawIsotropicHardeningStaticRecovery16expected_optionsEv
FNDA:1,_ZN5neml240PowerLawIsotropicHardeningStaticRecoveryC2ERKNS_9OptionSetE
FNDA:2,_ZN5neml240PowerLawIsotropicHardeningStaticRecovery9set_valueEbbb
FNF:3
FNH:3
DA:36,1
DA:38,1
DA:39,1
DA:41,1
DA:43,2
DA:44,2
DA:45,2
DA:46,1
DA:48,1
DA:49,0
DA:51,1
DA:52,1
DA:54,3
DA:55,5
DA:57,1
DA:60,2
DA:62,2
DA:63,2
DA:65,2
DA:67,1
DA:68,1
DA:70,3
DA:71,1
DA:73,3
DA:74,4
DA:75,5
DA:77,2
LF:27
LH:26
end_of_record
TN:
SF:/home/runner/work/neml2/neml2/src/neml2/models/solid_mechanics/PowerLawKinematicHardeningStaticRecovery.cxx
FN:37,54,_ZN5neml240PowerLawKinematicHardeningStaticRecovery16expected_optionsEv
FN:56,62,_ZN5neml240PowerLawKinematicHardeningStaticRecoveryC2ERKNS_9OptionSetE
FN:65,87,_ZN5neml240PowerLawKinematicHardeningStaticRecovery9set_valueEbbb
FNDA:1,_ZN5neml240PowerLawKinematicHardeningStaticRecovery16expected_optionsEv
FNDA:1,_ZN5neml240PowerLawKinematicHardeningStaticRecoveryC2ERKNS_9OptionSetE
FNDA:2,_ZN5neml240PowerLawKinematicHardeningStaticRecovery9set_valueEbbb
FNF:3
FNH:3
DA:37,1
DA:39,1
DA:40,1
DA:45,1
DA:47,2
DA:48,2
DA:50,2
DA:51,1
DA:53,1
DA:54,0
DA:56,1
DA:57,1
DA:59,3
DA:60,5
DA:62,1
DA:65,2
DA:68,2
DA:70,2
DA:71,2
DA:73,2
DA:75,1
DA:77,1
DA:78,2
DA:79,3
DA:81,3
DA:82,1
DA:84,3
DA:85,1
DA:86,1
DA:87,2
LF:30
LH:29
end_of_record
TN:
SF:/home/runner/work/neml2/neml2/src/neml2/models/solid_mechanics/RateIndependentPlasticFlowConstraint.cxx
FN:34,48,_ZN5neml236RateIndependentPlasticFlowConstraint16expected_optionsEv
FN:50,57,_ZN5neml236RateIndependentPlasticFlowConstraintC2ERKNS_9OptionSetE
FN:60,78,_ZN5neml236RateIndependentPlasticFlowConstraint9set_valueEbbb
FNDA:1,_ZN5neml236RateIndependentPlasticFlowConstraint16expected_optionsEv
FNDA:1,_ZN5neml236RateIndependentPlasticFlowConstraintC2ERKNS_9OptionSetE
FNDA:2,_ZN5neml236RateIndependentPlasticFlowConstraint9set_valueEbbb
FNF:3
FNH:3
DA:34,1
DA:36,1
DA:37,1
DA:39,1
DA:41,3
DA:42,1
DA:44,3
DA:45,1
DA:47,1
DA:48,0
DA:50,1
DA:51,1
DA:53,1
DA:54,1
DA:55,2
DA:57,1
DA:60,2
DA:62,2
DA:64,2
DA:65,1
DA:67,2
DA:69,1
DA:71,1
DA:72,2
DA:73,3
DA:75,1
DA:76,1
DA:77,1
DA:78,2
LF:29
LH:28
end_of_record
TN:
SF:/home/runner/work/neml2/neml2/src/neml2/models/solid_mechanics/SlopeSaturationVoceIsotropicHardening.cxx
FN:34,59,_ZN5neml237SlopeSaturationVoceIsotropicHardening16expected_optionsEv
FN:61,72,_ZN5neml237SlopeSaturationVoceIsotropicHardeningC2ERKNS_9OptionSetE
FN:75,94,_ZN5neml237SlopeSaturationVoceIsotropicHardening9set_valueEbbb
FNDA:1,_ZN5neml237SlopeSaturationVoceIsotropicHardening16expected_optionsEv
FNDA:4,_ZN5neml237SlopeSaturationVoceIsotropicHardeningC2ERKNS_9OptionSetE
FNDA:8,_ZN5neml237SlopeSaturationVoceIsotropicHardening9set_valueEbbb
FNF:3
FNH:3
DA:34,1
DA:36,1
DA:37,1
DA:44,1
DA:46,3
DA:47,2
DA:49,2
DA:50,3
DA:51,1
DA:53,2
DA:54,2
DA:55,2
DA:56,1
DA:58,1
DA:59,0
DA:61,4
DA:62,4
DA:64,4
DA:65,8
DA:66,4
DA:67,16
DA:69,16
DA:70,20
DA:72,4
DA:75,8
DA:77,8
DA:78,6
DA:80,8
DA:82,4
DA:83,4
DA:85,4
DA:86,4
DA:88,16
DA:89,2
DA:91,12
DA:92,2
DA:94,8
LF:37
LH:36
end_of_record
TN:
SF:/home/runner/work/neml2/neml2/src/neml2/models/solid_mechanics/ThermalEigenstrain.cxx
FN:34,53,_ZN5neml218ThermalEigenstrain16expected_optionsEv
FN:55,61,_ZN5neml218ThermalEigenstrainC2ERKNS_9OptionSetE
FN:64,87,_ZN5neml218ThermalEigenstrain9set_valueEbbb
FNDA:1,_ZN5neml218ThermalEigenstrain16expected_optionsEv
FNDA:2,_ZN5neml218ThermalEigenstrainC2ERKNS_9OptionSetE
FNDA:4,_ZN5neml218ThermalEigenstrain9set_valueEbbb
FNF:3
FNH:3
DA:34,1
DA:36,1
DA:37,1
DA:41,1
DA:43,3
DA:44,2
DA:46,2
DA:47,2
DA:49,2
DA:50,1
DA:52,1
DA:53,0
DA:55,2
DA:57,2
DA:58,8
DA:59,10
DA:61,2
DA:64,4
DA:66,4
DA:67,3
DA:69,4
DA:71,2
DA:72,2
DA:74,6
DA:75,1
DA:78,4
DA:80,0
DA:81,0
DA:83,0
DA:84,0
DA:87,4
LF:31
LH:26
end_of_record
TN:
SF:/home/runner/work/neml2/neml2/src/neml2/models/solid_mechanics/TwoStageThermalAnnealing.cxx
FN:43,81,_ZN5neml224TwoStageThermalAnnealingINS_3SR2EE16expected_optionsEv
FN:43,81,_ZN5neml224TwoStageThermalAnnealingINS_6ScalarEE16expected_optionsEv
FN:84,94,_ZN5neml224TwoStageThermalAnnealingINS_3SR2EEC2ERKNS_9OptionSetE
FN:84,94,_ZN5neml224TwoStageThermalAnnealingINS_6ScalarEEC2ERKNS_9OptionSetE
FN:98,118,_ZN5neml224TwoStageThermalAnnealingINS_3SR2EE9set_valueEbbb
FN:98,118,_ZN5neml224TwoStageThermalAnnealingINS_6ScalarEE9set_valueEbbb
FNDA:1,_ZN5neml224TwoStageThermalAnnealingINS_3SR2EE16expected_optionsEv
FNDA:1,_ZN5neml224TwoStageThermalAnnealingINS_6ScalarEE16expected_optionsEv
FNDA:1,_ZN5neml224TwoStageThermalAnnealingINS_3SR2EEC2ERKNS_9OptionSetE
FNDA:1,_ZN5neml224TwoStageThermalAnnealingINS_6ScalarEEC2ERKNS_9OptionSetE
FNDA:2,_ZN5neml224TwoStageThermalAnnealingINS_3SR2EE9set_valueEbbb
FNDA:2,_ZN5neml224TwoStageThermalAnnealingINS_6ScalarEE9set_valueEbbb
FNF:6
FNH:6
DA:43,2
DA:47,2
DA:49,2
DA:50,2
DA:59,4
DA:60,4
DA:62,4
DA:63,4
DA:65,4
DA:66,2
DA:68,6
DA:69,4
DA:71,4
DA:72,4
DA:74,4
DA:75,4
DA:77,4
DA:78,2
DA:80,4
DA:81,2
DA:84,2
DA:86,2
DA:87,2
DA:88,2
DA:89,2
DA:90,8
DA:91,8
DA:92,10
DA:94,2
DA:98,4
DA:100,4
DA:101,4
DA:102,4
DA:103,4
DA:105,4
DA:106,2
DA:108,4
DA:110,2
DA:112,2
DA:113,2
DA:115,2
DA:116,2
DA:117,2
DA:118,4
LF:44
LH:44
end_of_record
TN:
SF:/home/runner/work/neml2/neml2/src/neml2/models/solid_mechanics/VoceIsotropicHardening.cxx
FN:34,49,_ZN5neml222VoceIsotropicHardening16expected_optionsEv
FN:51,56,_ZN5neml222VoceIsotropicHardeningC2ERKNS_9OptionSetE
FN:59,79,_ZN5neml222VoceIsotropicHardening9set_valueEbbb
FNDA:1,_ZN5neml222VoceIsotropicHardening16expected_optionsEv
FNDA:3,_ZN5neml222VoceIsotropicHardeningC2ERKNS_9OptionSetE
FNDA:11,_ZN5neml222VoceIsotropicHardening9set_valueEbbb
FNF:3
FNH:3
DA:34,1
DA:36,1
DA:37,1
DA:39,1
DA:41,2
DA:43,2
DA:44,2
DA:45,2
DA:46,1
DA:48,1
DA:49,0
DA:51,3
DA:53,9
DA:54,15
DA:56,3
DA:59,11
DA:61,11
DA:62,9
DA:64,11
DA:66,5
DA:67,5
DA:69,15
DA:70,1
DA:72,15
DA:73,1
DA:76,11
DA:77,1
DA:78,1
DA:79,11
LF:29
LH:28
end_of_record
TN:
SF:/home/runner/work/neml2/neml2/src/neml2/models/solid_mechanics/YieldFunction.cxx
FN:33,56,_ZN5neml213YieldFunction16expected_optionsEv
FN:58,67,_ZN5neml213YieldFunctionC2ERKNS_9OptionSetE
FN:70,98,_ZN5neml213YieldFunction9set_valueEbbb
FNDA:1,_ZN5neml213YieldFunction16expected_optionsEv
FNDA:13,_ZN5neml213YieldFunctionC2ERKNS_9OptionSetE
FNDA:56,_ZN5neml213YieldFunction9set_valueEbbb
FNF:3
FNH:3
DA:33,1
DA:35,1
DA:36,1
DA:39,1
DA:41,2
DA:43,2
DA:44,1
DA:46,3
DA:47,2
DA:49,2
DA:50,1
DA:52,3
DA:53,1
DA:55,1
DA:56,0
DA:58,13
DA:60,13
DA:61,13
DA:62,13
DA:63,13
DA:64,13
DA:65,65
DA:67,13
DA:70,56
DA:72,56
DA:74,56
DA:75,20
DA:77,36
DA:80,56
DA:82,41
DA:84,41
DA:85,41
DA:87,41
DA:88,15
DA:90,123
DA:91,4
DA:92,41
DA:98,56
LF:38
LH:37
end_of_record
TN:
SF:/home/runner/work/neml2/neml2/src/neml2/models/solid_mechanics/crystal_plasticity/CrystalMean.cxx
FN:37,54,_ZN5neml211CrystalMeanINS_3SR2EE16expected_optionsEv
FN:57,64,_ZN5neml211CrystalMeanINS_3SR2EEC2ERKNS_9OptionSetE
FN:68,81,_ZN5neml211CrystalMeanINS_3SR2EE9set_valueEbbb
FNDA:1,_ZN5neml211CrystalMeanINS_3SR2EE16expected_optionsEv
FNDA:1,_ZN5neml211CrystalMeanINS_3SR2EEC2ERKNS_9OptionSetE
FNDA:2,_ZN5neml211CrystalMeanINS_3SR2EE9set_valueEbbb
FNF:3
FNH:3
DA:37,1
DA:39,1
DA:41,1
DA:43,2
DA:44,2
DA:46,2
DA:47,2
DA:49,2
DA:50,1
DA:53,1
DA:54,0
DA:57,1
DA:59,3
DA:60,1
DA:61,1
DA:62,2
DA:64,1
DA:68,2
DA:70,2
DA:71,1
DA:73,2
DA:74,1
DA:76,3
DA:78,2
DA:79,1
DA:80,1
DA:81,2
LF:27
LH:26
end_of_record
TN:
SF:/home/runner/work/neml2/neml2/src/neml2/models/solid_mechanics/crystal_plasticity/ElasticStrainRate.cxx
FN:106,127,_ZN5neml217ElasticStrainRate9set_valueEbbb
FN:38,65,_ZN5neml217ElasticStrainRate16expected_optionsEv
FN:67,75,_ZN5neml217ElasticStrainRateC2ERKNS_9OptionSetE
FN:78,85,_ZN5neml219skew_and_sym_to_symERKNS_3SR2ERKNS_3WR2E
FN:88,94,_ZN5neml227d_skew_and_sym_to_sym_d_symERKNS_3WR2E
FN:97,103,_ZN5neml228d_skew_and_sym_to_sym_d_skewERKNS_3SR2E
FNDA:6,_ZN5neml217ElasticStrainRate9set_valueEbbb
FNDA:1,_ZN5neml217ElasticStrainRate16expected_optionsEv
FNDA:2,_ZN5neml217ElasticStrainRateC2ERKNS_9OptionSetE
FNDA:5,_ZN5neml219skew_and_sym_to_symERKNS_3SR2ERKNS_3WR2E
FNDA:3,_ZN5neml227d_skew_and_sym_to_sym_d_symERKNS_3WR2E
FNDA:1,_ZN5neml228d_skew_and_sym_to_sym_d_skewERKNS_3SR2E
FNF:6
FNH:6
DA:38,1
DA:40,1
DA:42,1
DA:46,1
DA:48,3
DA:49,1
DA:51,3
DA:52,1
DA:54,3
DA:55,1
DA:57,3
DA:58,1
DA:60,2
DA:61,3
DA:62,1
DA:64,1
DA:65,0
DA:67,2
DA:69,2
DA:70,2
DA:71,2
DA:72,2
DA:73,4
DA:75,2
DA:78,5
DA:82,5
DA:83,5
DA:84,10
DA:85,5
DA:88,3
DA:90,3
DA:91,3
DA:93,24
DA:94,9
DA:97,1
DA:99,1
DA:100,1
DA:102,8
DA:103,3
DA:106,6
DA:108,6
DA:109,5
DA:111,6
DA:113,3
DA:115,3
DA:116,3
DA:118,3
DA:119,1
DA:121,3
DA:122,1
DA:124,3
DA:125,3
DA:126,3
DA:127,6
LF:54
LH:53
end_of_record
TN:
SF:/home/runner/work/neml2/neml2/src/neml2/models/solid_mechanics/crystal_plasticity/FixOrientation.cxx
FN:35,55,_ZN5neml214FixOrientation16expected_optionsEv
FN:57,63,_ZN5neml214FixOrientationC2ERKNS_9OptionSetE
FN:66,80,_ZN5neml214FixOrientation9set_valueEbbb
FNDA:1,_ZN5neml214FixOrientation16expected_optionsEv
FNDA:1,_ZN5neml214FixOrientationC2ERKNS_9OptionSetE
FNDA:2,_ZN5neml214FixOrientation9set_valueEbbb
FNF:3
FNH:3
DA:35,1
DA:37,1
DA:39,1
DA:43,1
DA:45,3
DA:46,1
DA:48,3
DA:49,2
DA:51,2
DA:52,1
DA:54,1
DA:55,0
DA:57,1
DA:59,1
DA:60,1
DA:61,2
DA:63,1
DA:66,2
DA:68,2
DA:69,2
DA:70,3
DA:72,2
DA:73,1
DA:75,1
DA:76,4
DA:78,5
DA:79,1
DA:80,2
LF:28
LH:27
end_of_record
TN:
SF:/home/runner/work/neml2/neml2/src/neml2/models/solid_mechanics/crystal_plasticity/LinearSingleSlipHardeningRule.cxx
FN:33,45,_ZN5neml229LinearSingleSlipHardeningRule16expected_optionsEv
FN:47,51,_ZN5neml229LinearSingleSlipHardeningRuleC2ERKNS_9OptionSetE
FN:54,62,_ZN5neml229LinearSingleSlipHardeningRule9set_valueEbbb
FNDA:1,_ZN5neml229LinearSingleSlipHardeningRule16expected_optionsEv
FNDA:1,_ZN5neml229LinearSingleSlipHardeningRuleC2ERKNS_9OptionSetE
FNDA:2,_ZN5neml229LinearSingleSlipHardeningRule9set_valueEbbb
FNF:3
FNH:3
DA:33,1
DA:35,1
DA:37,1
DA:39,1
DA:41,2
DA:42,1
DA:44,1
DA:45,0
DA:47,1
DA:49,4
DA:51,1
DA:54,2
DA:56,2
DA:57,1
DA:59,2
DA:60,1
DA:61,1
DA:62,2
LF:18
LH:17
end_of_record
TN:
SF:/home/runner/work/neml2/neml2/src/neml2/models/solid_mechanics/crystal_plasticity/OrientationRate.cxx
FN:105,126,_ZN5neml215OrientationRate9set_valueEbbb
FN:38,65,_ZN5neml215OrientationRate16expected_optionsEv
FN:67,75,_ZN5neml215OrientationRateC2ERKNS_9OptionSetE
FN:78,84,_ZN5neml222multiply_and_make_skewERKNS_3SR2ES2_
FN:87,93,_ZN5neml232d_multiply_and_make_skew_d_firstERKNS_3SR2E
FN:96,102,_ZN5neml233d_multiply_and_make_skew_d_secondERKNS_3SR2E
FNDA:6,_ZN5neml215OrientationRate9set_valueEbbb
FNDA:1,_ZN5neml215OrientationRate16expected_optionsEv
FNDA:2,_ZN5neml215OrientationRateC2ERKNS_9OptionSetE
FNDA:5,_ZN5neml222multiply_and_make_skewERKNS_3SR2ES2_
FNDA:3,_ZN5neml232d_multiply_and_make_skew_d_firstERKNS_3SR2E
FNDA:3,_ZN5neml233d_multiply_and_make_skew_d_secondERKNS_3SR2E
FNF:6
FNH:6
DA:38,1
DA:40,1
DA:42,1
DA:47,1
DA:49,3
DA:50,1
DA:52,3
DA:53,1
DA:55,3
DA:56,1
DA:58,2
DA:59,3
DA:60,1
DA:62,3
DA:63,1
DA:64,1
DA:65,0
DA:67,2
DA:69,2
DA:70,2
DA:71,2
DA:72,2
DA:73,4
DA:75,2
DA:78,5
DA:80,5
DA:81,5
DA:83,10
DA:84,5
DA:87,3
DA:89,3
DA:90,3
DA:92,24
DA:93,9
DA:96,3
DA:98,3
DA:99,3
DA:101,24
DA:102,9
DA:105,6
DA:107,6
DA:108,5
DA:110,6
DA:112,3
DA:114,3
DA:115,3
DA:117,3
DA:118,1
DA:120,3
DA:121,3
DA:123,3
DA:124,3
DA:125,3
DA:126,6
LF:54
LH:53
end_of_record
TN:
SF:/home/runner/work/neml2/neml2/src/neml2/models/solid_mechanics/crystal_plasticity/PlasticDeformationRate.cxx
FN:40,65,_ZN5neml222PlasticDeformationRate16expected_optionsEv
FN:67,75,_ZN5neml222PlasticDeformationRateC2ERKNS_9OptionSetE
FN:78,96,_ZN5neml222PlasticDeformationRate9set_valueEbbb
FNDA:1,_ZN5neml222PlasticDeformationRate16expected_optionsEv
FNDA:2,_ZN5neml222PlasticDeformationRateC2ERKNS_9OptionSetE
FNDA:6,_ZN5neml222PlasticDeformationRate9set_valueEbbb
FNF:3
FNH:3
DA:40,1
DA:42,1
DA:44,1
DA:48,1
DA:50,2
DA:51,3
DA:52,1
DA:54,3
DA:55,1
DA:57,3
DA:58,2
DA:60,2
DA:61,2
DA:62,1
DA:64,1
DA:65,0
DA:67,2
DA:69,6
DA:70,2
DA:71,2
DA:72,2
DA:73,4
DA:75,2
DA:78,6
DA:80,6
DA:82,6
DA:83,6
DA:85,6
DA:87,3
DA:89,3
DA:90,3
DA:91,3
DA:93,3
DA:94,3
DA:96,6
LF:35
LH:34
end_of_record
TN:
SF:/home/runner/work/neml2/neml2/src/neml2/models/solid_mechanics/crystal_plasticity/PlasticVorticity.cxx
FN:40,64,_ZN5neml216PlasticVorticity16expected_optionsEv
FN:66,74,_ZN5neml216PlasticVorticityC2ERKNS_9OptionSetE
FN:77,96,_ZN5neml216PlasticVorticity9set_valueEbbb
FNDA:1,_ZN5neml216PlasticVorticity16expected_optionsEv
FNDA:2,_ZN5neml216PlasticVorticityC2ERKNS_9OptionSetE
FNDA:6,_ZN5neml216PlasticVorticity9set_valueEbbb
FNF:3
FNH:3
DA:40,1
DA:42,1
DA:44,1
DA:48,1
DA:50,3
DA:51,1
DA:53,3
DA:54,1
DA:56,3
DA:57,2
DA:59,2
DA:60,2
DA:61,1
DA:63,1
DA:64,0
DA:66,2
DA:68,6
DA:69,2
DA:70,2
DA:71,2
DA:72,4
DA:74,2
DA:77,6
DA:79,6
DA:81,6
DA:82,6
DA:84,6
DA:86,3
DA:88,3
DA:89,3
DA:90,3
DA:91,3
DA:93,3
DA:94,3
DA:96,6
LF:35
LH:34
end_of_record
TN:
SF:/home/runner/work/neml2/neml2/src/neml2/models/solid_mechanics/crystal_plasticity/PowerLawSlipRule.cxx
FN:37,54,_ZN5neml216PowerLawSlipRule16expected_optionsEv
FN:56,61,_ZN5neml216PowerLawSlipRuleC2ERKNS_9OptionSetE
FN:64,82,_ZN5neml216PowerLawSlipRule9set_valueEbbb
FNDA:1,_ZN5neml216PowerLawSlipRule16expected_optionsEv
FNDA:2,_ZN5neml216PowerLawSlipRuleC2ERKNS_9OptionSetE
FNDA:6,_ZN5neml216PowerLawSlipRule9set_valueEbbb
FNF:3
FNH:3
DA:37,1
DA:39,1
DA:40,1
DA:45,1
DA:47,2
DA:48,2
DA:50,2
DA:51,1
DA:53,1
DA:54,0
DA:56,2
DA:58,6
DA:59,10
DA:61,2
DA:64,6
DA:66,6
DA:68,6
DA:69,5
DA:71,6
DA:73,3
DA:74,6
DA:75,9
DA:77,3
DA:78,6
DA:79,6
DA:80,3
DA:82,6
LF:27
LH:26
end_of_record
TN:
SF:/home/runner/work/neml2/neml2/src/neml2/models/solid_mechanics/crystal_plasticity/ResolvedShear.cxx
FN:39,62,_ZN5neml213ResolvedShear16expected_optionsEv
FN:64,72,_ZN5neml213ResolvedShearC2ERKNS_9OptionSetE
FN:75,94,_ZN5neml213ResolvedShear9set_valueEbbb
FNDA:1,_ZN5neml213ResolvedShear16expected_optionsEv
FNDA:2,_ZN5neml213ResolvedShearC2ERKNS_9OptionSetE
FNDA:6,_ZN5neml213ResolvedShear9set_valueEbbb
FNF:3
FNH:3
DA:39,1
DA:41,1
DA:43,1
DA:47,1
DA:49,3
DA:50,1
DA:52,3
DA:53,1
DA:55,3
DA:56,2
DA:58,2
DA:59,2
DA:60,1
DA:61,1
DA:62,0
DA:64,2
DA:66,6
DA:67,2
DA:68,2
DA:69,2
DA:70,4
DA:72,2
DA:75,6
DA:77,6
DA:80,6
DA:81,6
DA:83,6
DA:84,6
DA:86,6
DA:88,3
DA:89,3
DA:91,3
DA:92,15
DA:94,12
LF:34
LH:33
end_of_record
TN:
SF:/home/runner/work/neml2/neml2/src/neml2/models/solid_mechanics/crystal_plasticity/SingleSlipHardeningRule.cxx
FN:33,52,_ZN5neml223SingleSlipHardeningRule16expected_optionsEv
FN:54,60,_ZN5neml223SingleSlipHardeningRuleC2ERKNS_9OptionSetE
FNDA:2,_ZN5neml223SingleSlipHardeningRule16expected_optionsEv
FNDA:3,_ZN5neml223SingleSlipHardeningRuleC2ERKNS_9OptionSetE
FNF:2
FNH:2
DA:33,2
DA:35,2
DA:37,2
DA:38,2
DA:40,4
DA:41,6
DA:42,4
DA:43,2
DA:45,6
DA:46,2
DA:48,6
DA:49,2
DA:51,2
DA:52,0
DA:54,3
DA:56,3
DA:57,3
DA:58,6
DA:60,3
LF:19
LH:18
end_of_record
TN:
SF:/home/runner/work/neml2/neml2/src/neml2/models/solid_mechanics/crystal_plasticity/SingleSlipStrengthMap.cxx
FN:33,50,_ZN5neml221SingleSlipStrengthMap16expected_optionsEv
FN:52,57,_ZN5neml221SingleSlipStrengthMapC2ERKNS_9OptionSetE
FN:60,68,_ZN5neml221SingleSlipStrengthMap9set_valueEbbb
FNDA:1,_ZN5neml221SingleSlipStrengthMap16expected_optionsEv
FNDA:2,_ZN5neml221SingleSlipStrengthMapC2ERKNS_9OptionSetE
FNDA:6,_ZN5neml221SingleSlipStrengthMap9set_valueEbbb
FNF:3
FNH:3
DA:33,1
DA:35,1
DA:37,1
DA:41,1
DA:43,3
DA:44,2
DA:46,2
DA:47,1
DA:49,1
DA:50,0
DA:52,2
DA:54,2
DA:55,10
DA:57,2
DA:60,6
DA:62,6
DA:63,5
DA:65,6
DA:66,3
DA:67,3
DA:68,6
LF:21
LH:20
end_of_record
TN:
SF:/home/runner/work/neml2/neml2/src/neml2/models/solid_mechanics/crystal_plasticity/SlipRule.cxx
FN:34,55,_ZN5neml28SlipRule16expected_optionsEv
FN:57,65,_ZN5neml28SlipRuleC2ERKNS_9OptionSetE
FNDA:1,_ZN5neml28SlipRule16expected_optionsEv
FNDA:2,_ZN5neml28SlipRuleC2ERKNS_9OptionSetE
FNF:2
FNH:2
DA:34,1
DA:36,1
DA:38,1
DA:39,1
DA:41,3
DA:42,1
DA:44,3
DA:45,1
DA:47,3
DA:48,2
DA:50,2
DA:51,2
DA:52,1
DA:54,1
DA:55,0
DA:57,2
DA:59,6
DA:60,2
DA:61,2
DA:62,2
DA:63,4
DA:65,2
LF:22
LH:21
end_of_record
TN:
SF:/home/runner/work/neml2/neml2/src/neml2/models/solid_mechanics/crystal_plasticity/SlipStrengthMap.cxx
FN:34,47,_ZN5neml215SlipStrengthMap16expected_optionsEv
FN:49,55,_ZN5neml215SlipStrengthMapC2ERKNS_9OptionSetE
FNDA:1,_ZN5neml215SlipStrengthMap16expected_optionsEv
FNDA:2,_ZN5neml215SlipStrengthMapC2ERKNS_9OptionSetE
FNF:2
FNH:2
DA:34,1
DA:36,1
DA:37,1
DA:39,3
DA:40,2
DA:42,2
DA:43,2
DA:44,1
DA:46,1
DA:47,0
DA:49,2
DA:51,6
DA:52,2
DA:53,4
DA:55,2
LF:15
LH:14
end_of_record
TN:
SF:/home/runner/work/neml2/neml2/src/neml2/models/solid_mechanics/crystal_plasticity/SumSlipRates.cxx
FN:40,57,_ZN5neml212SumSlipRates16expected_optionsEv
FN:59,66,_ZN5neml212SumSlipRatesC2ERKNS_9OptionSetE
FN:69,77,_ZN5neml212SumSlipRates9set_valueEbbb
FNDA:1,_ZN5neml212SumSlipRates16expected_optionsEv
FNDA:2,_ZN5neml212SumSlipRatesC2ERKNS_9OptionSetE
FNDA:6,_ZN5neml212SumSlipRates9set_valueEbbb
FNF:3
FNH:3
DA:40,1
DA:42,1
DA:43,1
DA:44,1
DA:46,3
DA:47,1
DA:49,3
DA:50,2
DA:52,2
DA:53,2
DA:54,1
DA:56,1
DA:57,0
DA:59,2
DA:61,6
DA:62,2
DA:63,2
DA:64,4
DA:66,2
DA:69,6
DA:71,6
DA:72,5
DA:74,6
DA:75,3
DA:76,3
DA:77,6
LF:26
LH:25
end_of_record
TN:
SF:/home/runner/work/neml2/neml2/src/neml2/models/solid_mechanics/crystal_plasticity/VoceSingleSlipHardeningRule.cxx
FN:33,49,_ZN5neml227VoceSingleSlipHardeningRule16expected_optionsEv
FN:51,56,_ZN5neml227VoceSingleSlipHardeningRuleC2ERKNS_9OptionSetE
FN:59,72,_ZN5neml227VoceSingleSlipHardeningRule9set_valueEbbb
FNDA:1,_ZN5neml227VoceSingleSlipHardeningRule16expected_optionsEv
FNDA:2,_ZN5neml227VoceSingleSlipHardeningRuleC2ERKNS_9OptionSetE
FNDA:6,_ZN5neml227VoceSingleSlipHardeningRule9set_valueEbbb
FNF:3
FNH:3
DA:33,1
DA:35,1
DA:36,1
DA:41,1
DA:43,2
DA:44,2
DA:45,2
DA:46,2
DA:47,1
DA:48,1
DA:49,0
DA:51,2
DA:53,6
DA:54,10
DA:56,2
DA:59,6
DA:61,6
DA:62,5
DA:64,6
DA:66,3
DA:67,3
DA:69,3
DA:70,3
DA:72,6
LF:24
LH:23
end_of_record
TN:
SF:/home/runner/work/neml2/neml2/src/neml2/models/solid_mechanics/elasticity/AnisotropicElasticity.cxx
FN:30,39,_ZN5neml221AnisotropicElasticity16expected_optionsEv
FN:41,45,_ZN5neml221AnisotropicElasticityC2ERKNS_9OptionSetE
FNDA:1,_ZN5neml221AnisotropicElasticity16expected_optionsEv
FNDA:5,_ZN5neml221AnisotropicElasticityC2ERKNS_9OptionSetE
FNF:2
FNH:2
DA:30,1
DA:32,1
DA:33,1
DA:35,3
DA:36,1
DA:38,1
DA:39,0
DA:41,5
DA:43,5
DA:45,5
LF:10
LH:9
end_of_record
TN:
SF:/home/runner/work/neml2/neml2/src/neml2/models/solid_mechanics/elasticity/CubicElasticityConverter.cxx
FN:39,53,_ZN5neml224CubicElasticityConverter12G_E_nu_to_C1ERKSt5arrayINS_6ScalarELm3EERKS1_IbLm3EE
FN:56,70,_ZN5neml224CubicElasticityConverter12G_E_nu_to_C2ERKSt5arrayINS_6ScalarELm3EERKS1_IbLm3EE
FN:73,85,_ZN5neml224CubicElasticityConverter12G_E_nu_to_C3ERKSt5arrayINS_6ScalarELm3EERKS1_IbLm3EE
FNDA:4,_ZN5neml224CubicElasticityConverter12G_E_nu_to_C1ERKSt5arrayINS_6ScalarELm3EERKS1_IbLm3EE
FNDA:4,_ZN5neml224CubicElasticityConverter12G_E_nu_to_C2ERKSt5arrayINS_6ScalarELm3EERKS1_IbLm3EE
FNDA:4,_ZN5neml224CubicElasticityConverter12G_E_nu_to_C3ERKSt5arrayINS_6ScalarELm3EERKS1_IbLm3EE
FNF:3
FNH:3
DA:39,4
DA:41,4
DA:42,4
DA:43,4
DA:45,4
DA:46,4
DA:47,4
DA:48,12
DA:49,8
DA:50,12
DA:52,8
DA:53,8
DA:56,4
DA:58,4
DA:59,4
DA:60,4
DA:62,4
DA:63,4
DA:64,4
DA:66,16
DA:67,12
DA:69,8
DA:70,8
DA:73,4
DA:75,4
DA:76,4
DA:77,4
DA:79,4
DA:80,4
DA:81,4
DA:82,4
DA:84,8
DA:85,8
LF:33
LH:33
end_of_record
TN:
SF:/home/runner/work/neml2/neml2/src/neml2/models/solid_mechanics/elasticity/CubicElasticityTensor.cxx
FN:33,40,_ZN5neml221CubicElasticityTensor16expected_optionsEv
FN:42,46,_ZN5neml221CubicElasticityTensorC2ERKNS_9OptionSetE
FN:49,74,_ZN5neml221CubicElasticityTensor9set_valueEbbb
FNDA:1,_ZN5neml221CubicElasticityTensor16expected_optionsEv
FNDA:2,_ZN5neml221CubicElasticityTensorC2ERKNS_9OptionSetE
FNDA:4,_ZN5neml221CubicElasticityTensor9set_valueEbbb
FNF:3
FNH:3
DA:33,1
DA:35,1
DA:36,1
DA:37,1
DA:39,1
DA:40,0
DA:42,2
DA:44,2
DA:46,2
DA:49,4
DA:51,4
DA:52,4
DA:53,4
DA:54,4
DA:56,4
DA:57,4
DA:58,4
DA:60,4
DA:61,4
DA:63,4
DA:65,2
DA:66,2
DA:68,2
DA:69,2
DA:71,2
DA:72,2
DA:74,4
LF:27
LH:26
end_of_record
TN:
SF:/home/runner/work/neml2/neml2/src/neml2/models/solid_mechanics/elasticity/Elasticity.cxx
FN:30,52,_ZN5neml210Elasticity16expected_optionsEv
FN:54,63,_ZN5neml210ElasticityC2ERKNS_9OptionSetE
FNDA:2,_ZN5neml210Elasticity16expected_optionsEv
FNDA:25,_ZN5neml210ElasticityC2ERKNS_9OptionSetE
FNF:2
FNH:2
DA:30,2
DA:32,2
DA:33,2
DA:35,6
DA:36,2
DA:38,6
DA:39,4
DA:41,4
DA:42,6
DA:44,2
DA:46,4
DA:47,4
DA:49,2
DA:51,2
DA:52,0
DA:54,25
DA:56,50
DA:57,50
DA:58,100
DA:59,75
DA:60,25
DA:61,50
DA:63,25
LF:23
LH:22
end_of_record
TN:
SF:/home/runner/work/neml2/neml2/src/neml2/models/solid_mechanics/elasticity/ElasticityConverter.cxx
FN:30,55,_ZN5neml24nameENS_15ElasticConstantE
FNDA:150,_ZN5neml24nameENS_15ElasticConstantE
FNF:1
FNH:1
DA:30,150
DA:32,150
DA:34,0
DA:35,0
DA:36,72
DA:37,144
DA:38,0
DA:39,0
DA:40,6
DA:41,12
DA:42,72
DA:43,144
DA:44,0
DA:45,0
DA:46,0
DA:47,0
DA:48,0
DA:49,0
DA:50,0
DA:51,0
DA:52,0
DA:53,0
LF:22
LH:8
end_of_record
TN:
SF:/home/runner/work/neml2/neml2/src/neml2/models/solid_mechanics/elasticity/GeneralElasticity.cxx
FN:34,44,_ZN5neml217GeneralElasticity16expected_optionsEv
FN:46,50,_ZN5neml217GeneralElasticityC2ERKNS_9OptionSetE
FN:53,86,_ZN5neml217GeneralElasticity9set_valueEbbb
FNDA:1,_ZN5neml217GeneralElasticity16expected_optionsEv
FNDA:5,_ZN5neml217GeneralElasticityC2ERKNS_9OptionSetE
FNDA:10,_ZN5neml217GeneralElasticity9set_valueEbbb
FNF:3
FNH:3
DA:34,1
DA:36,1
DA:37,1
DA:38,1
DA:40,2
DA:41,1
DA:43,1
DA:44,0
DA:46,5
DA:48,20
DA:50,5
DA:53,10
DA:55,10
DA:56,10
DA:58,10
DA:59,7
DA:61,10
DA:63,5
DA:64,5
DA:66,5
DA:68,5
DA:69,5
DA:70,14
DA:71,2
DA:73,12
DA:74,5
DA:76,15
DA:78,2
DA:79,2
DA:80,7
DA:81,1
DA:83,4
DA:84,2
DA:86,24
LF:34
LH:33
end_of_record
TN:
SF:/home/runner/work/neml2/neml2/src/neml2/models/solid_mechanics/elasticity/IsotropicElasticityConverter.cxx
FN:34,44,_ZN5neml228IsotropicElasticityConverter9E_nu_to_KERKSt5arrayINS_6ScalarELm2EERKS1_IbLm2EE
FN:47,57,_ZN5neml228IsotropicElasticityConverter9E_nu_to_GERKSt5arrayINS_6ScalarELm2EERKS1_IbLm2EE
FNDA:45,_ZN5neml228IsotropicElasticityConverter9E_nu_to_KERKSt5arrayINS_6ScalarELm2EERKS1_IbLm2EE
FNDA:47,_ZN5neml228IsotropicElasticityConverter9E_nu_to_GERKSt5arrayINS_6ScalarELm2EERKS1_IbLm2EE
FNF:2
FNH:2
DA:34,45
DA:36,45
DA:37,45
DA:39,45
DA:40,45
DA:41,45
DA:43,90
DA:44,90
DA:47,47
DA:49,47
DA:50,47
DA:52,47
DA:53,47
DA:54,47
DA:56,94
DA:57,94
LF:16
LH:16
end_of_record
TN:
SF:/home/runner/work/neml2/neml2/src/neml2/models/solid_mechanics/elasticity/IsotropicElasticityTensor.cxx
FN:33,40,_ZN5neml225IsotropicElasticityTensor16expected_optionsEv
FN:42,46,_ZN5neml225IsotropicElasticityTensorC2ERKNS_9OptionSetE
FN:49,69,_ZN5neml225IsotropicElasticityTensor9set_valueEbbb
FNDA:1,_ZN5neml225IsotropicElasticityTensor16expected_optionsEv
FNDA:2,_ZN5neml225IsotropicElasticityTensorC2ERKNS_9OptionSetE
FNDA:4,_ZN5neml225IsotropicElasticityTensor9set_valueEbbb
FNF:3
FNH:3
DA:33,1
DA:35,1
DA:36,1
DA:37,1
DA:39,1
DA:40,0
DA:42,2
DA:44,2
DA:46,2
DA:49,4
DA:51,4
DA:52,4
DA:53,4
DA:55,4
DA:56,4
DA:58,4
DA:59,4
DA:61,4
DA:63,2
DA:64,2
DA:66,2
DA:67,2
DA:69,4
LF:23
LH:22
end_of_record
TN:
SF:/home/runner/work/neml2/neml2/src/neml2/models/solid_mechanics/elasticity/LinearIsotropicElasticity.cxx
FN:33,42,_ZN5neml225LinearIsotropicElasticity16expected_optionsEv
FN:44,48,_ZN5neml225LinearIsotropicElasticityC2ERKNS_9OptionSetE
FN:51,81,_ZN5neml225LinearIsotropicElasticity9set_valueEbbb
FNDA:1,_ZN5neml225LinearIsotropicElasticity16expected_optionsEv
FNDA:20,_ZN5neml225LinearIsotropicElasticityC2ERKNS_9OptionSetE
FNDA:41,_ZN5neml225LinearIsotropicElasticity9set_valueEbbb
FNF:3
FNH:3
DA:33,1
DA:35,1
DA:36,1
DA:39,1
DA:41,1
DA:42,0
DA:44,20
DA:46,20
DA:48,20
DA:51,41
DA:53,41
DA:54,41
DA:55,41
DA:56,41
DA:57,41
DA:59,41
DA:60,37
DA:62,41
DA:64,17
DA:65,17
DA:67,17
DA:68,17
DA:70,17
DA:71,17
DA:72,17
DA:73,17
DA:75,17
DA:76,2
DA:78,17
DA:79,2
DA:80,17
DA:81,41
LF:32
LH:31
end_of_record
TN:
SF:/home/runner/work/neml2/neml2/src/neml2/solvers/Newton.cxx
FN:100,110,_ZNK5neml26Newton9convergedEmRKN2at6TensorES4_
FN:113,119,_ZN5neml26Newton6updateERNS_15NonlinearSystemERNS1_3SolILb1EEERKNS1_3ResILb1EEERKNS1_3JacILb1EEE
FN:122,128,_ZN5neml26Newton12final_updateERNS_15NonlinearSystemERNS1_3SolILb1EEERKNS1_3ResILb1EEERKNS1_3JacILb1EEE
FN:131,137,_ZN5neml26Newton15solve_directionERKNS_15NonlinearSystem3ResILb1EEERKNS1_3JacILb1EEE
FN:37,43,_ZN5neml26Newton16expected_optionsEv
FN:45,48,_ZN5neml26NewtonC2ERKNS_9OptionSetE
FN:51,97,_ZN5neml26Newton5solveERNS_15NonlinearSystemERKNS1_3SolILb0EEE
FNDA:1537,_ZNK5neml26Newton9convergedEmRKN2at6TensorES4_
FNDA:1224,_ZN5neml26Newton6updateERNS_15NonlinearSystemERNS1_3SolILb1EEERKNS1_3ResILb1EEERKNS1_3JacILb1EEE
FNDA:26,_ZN5neml26Newton12final_updateERNS_15NonlinearSystemERNS1_3SolILb1EEERKNS1_3ResILb1EEERKNS1_3JacILb1EEE
FNDA:1347,_ZN5neml26Newton15solve_directionERKNS_15NonlinearSystem3ResILb1EEERKNS1_3JacILb1EEE
FNDA:15,_ZN5neml26Newton16expected_optionsEv
FNDA:21,_ZN5neml26NewtonC2ERKNS_9OptionSetE
FNDA:216,_ZN5neml26Newton5solveERNS_15NonlinearSystemERKNS1_3SolILb0EEE
FNF:7
FNH:7
DA:37,15
DA:39,15
DA:40,15
DA:42,15
DA:43,0
DA:45,21
DA:46,21
DA:48,21
DA:51,216
DA:54,216
DA:57,216
DA:58,216
DA:59,216
DA:62,216
DA:65,0
DA:66,0
DA:68,0
DA:72,216
DA:78,1322
DA:80,1321
DA:81,1321
DA:82,1321
DA:83,1321
DA:86,1321
DA:89,215
DA:90,26
DA:92,215
DA:94,1321
DA:96,1
DA:97,431
DA:100,1537
DA:109,1537
DA:113,1224
DA:118,1224
DA:119,1224
DA:122,26
DA:127,26
DA:128,26
DA:131,1347
DA:133,1347
DA:134,51
DA:136,1296
LF:42
LH:38
end_of_record
TN:
SF:/home/runner/work/neml2/neml2/src/neml2/solvers/NewtonWithLineSearch.cxx
FN:36,55,_ZN5neml220NewtonWithLineSearch16expected_optionsEv
FN:57,63,_ZN5neml220NewtonWithLineSearchC2ERKNS_9OptionSetE
FN:66,74,_ZN5neml220NewtonWithLineSearch6updateERNS_15NonlinearSystemERNS1_3SolILb1EEERKNS1_3ResILb1EEERKNS1_3JacILb1EEE
FN:77,107,_ZNK5neml220NewtonWithLineSearch10linesearchERNS_15NonlinearSystemERKNS1_3SolILb1EEES6_RKNS1_3ResILb1EEE
FNDA:4,_ZN5neml220NewtonWithLineSearch16expected_optionsEv
FNDA:4,_ZN5neml220NewtonWithLineSearchC2ERKNS_9OptionSetE
FNDA:79,_ZN5neml220NewtonWithLineSearch6updateERNS_15NonlinearSystemERNS1_3SolILb1EEERKNS1_3ResILb1EEERKNS1_3JacILb1EEE
FNDA:79,_ZNK5neml220NewtonWithLineSearch10linesearchERNS_15NonlinearSystemERKNS1_3SolILb1EEES6_RKNS1_3ResILb1EEE
FNF:4
FNH:4
DA:36,4
DA:38,4
DA:39,4
DA:41,8
DA:42,12
DA:44,4
DA:46,8
DA:47,12
DA:48,4
DA:50,8
DA:51,8
DA:52,4
DA:54,4
DA:55,0
DA:57,4
DA:59,8
DA:60,8
DA:61,8
DA:63,4
DA:66,79
DA:71,79
DA:72,79
DA:73,79
DA:74,79
DA:77,79
DA:82,79
DA:83,79
DA:85,192
DA:87,173
DA:88,173
DA:89,173
DA:90,173
DA:91,173
DA:92,0
DA:93,0
DA:94,0
DA:95,0
DA:97,173
DA:99,173
DA:100,60
DA:102,226
DA:103,339
DA:104,413
DA:106,158
DA:107,305
LF:45
LH:40
end_of_record
TN:
SF:/home/runner/work/neml2/neml2/src/neml2/solvers/NewtonWithTrustRegion.cxx
FN:100,104,_ZNK5neml221NewtonWithTrustRegion18subproblem_optionsERKNS_9OptionSetE
FN:107,114,_ZNK5neml221NewtonWithTrustRegion25subproblem_solver_optionsERKNS_9OptionSetE
FN:117,121,_ZN5neml221NewtonWithTrustRegion7prepareERKNS_15NonlinearSystemERKNS1_3SolILb1EEE
FN:124,167,_ZN5neml221NewtonWithTrustRegion6updateERNS_15NonlinearSystemERNS1_3SolILb1EEERKNS1_3ResILb1EEERKNS1_3JacILb1EEE
FN:170,198,_ZN5neml221NewtonWithTrustRegion15solve_directionERKNS_15NonlinearSystem3ResILb1EEERKNS1_3JacILb1EEE
FN:201,207,_ZNK5neml221NewtonWithTrustRegion24merit_function_reductionERKNS_15NonlinearSystem3ResILb1EEERKNS1_3JacILb1EEERKNS1_3SolILb1EEE
FN:39,83,_ZN5neml221NewtonWithTrustRegion16expected_optionsEv
FN:85,97,_ZN5neml221NewtonWithTrustRegionC2ERKNS_9OptionSetE
FNDA:3,_ZNK5neml221NewtonWithTrustRegion18subproblem_optionsERKNS_9OptionSetE
FNDA:3,_ZNK5neml221NewtonWithTrustRegion25subproblem_solver_optionsERKNS_9OptionSetE
FNDA:3,_ZN5neml221NewtonWithTrustRegion7prepareERKNS_15NonlinearSystemERKNS1_3SolILb1EEE
FNDA:18,_ZN5neml221NewtonWithTrustRegion6updateERNS_15NonlinearSystemERNS1_3SolILb1EEERKNS1_3ResILb1EEERKNS1_3JacILb1EEE
FNDA:18,_ZN5neml221NewtonWithTrustRegion15solve_directionERKNS_15NonlinearSystem3ResILb1EEERKNS1_3JacILb1EEE
FNDA:18,_ZNK5neml221NewtonWithTrustRegion24merit_function_reductionERKNS_15NonlinearSystem3ResILb1EEERKNS1_3JacILb1EEERKNS1_3SolILb1EEE
FNDA:4,_ZN5neml221NewtonWithTrustRegion16expected_optionsEv
FNDA:3,_ZN5neml221NewtonWithTrustRegionC2ERKNS_9OptionSetE
FNF:8
FNH:8
DA:39,4
DA:41,4
DA:42,4
DA:46,4
DA:48,8
DA:49,8
DA:51,8
DA:52,8
DA:54,8
DA:55,12
DA:56,4
DA:58,8
DA:59,12
DA:60,4
DA:62,8
DA:63,8
DA:65,8
DA:66,8
DA:68,8
DA:69,12
DA:70,4
DA:72,8
DA:73,8
DA:75,8
DA:76,8
DA:78,8
DA:79,8
DA:80,4
DA:82,4
DA:83,0
DA:85,3
DA:87,3
DA:88,3
DA:89,6
DA:90,6
DA:91,6
DA:92,6
DA:93,6
DA:94,6
DA:95,9
DA:97,3
DA:100,3
DA:103,3
DA:107,3
DA:109,3
DA:110,12
DA:111,12
DA:112,9
DA:113,3
DA:114,0
DA:117,3
DA:120,3
DA:121,3
DA:124,18
DA:129,18
DA:132,18
DA:133,18
DA:136,18
DA:137,18
DA:138,18
DA:139,18
DA:142,18
DA:145,54
DA:146,72
DA:147,54
DA:148,90
DA:150,18
DA:153,18
DA:156,18
DA:158,0
DA:159,0
DA:160,0
DA:161,0
DA:162,0
DA:163,0
DA:166,18
DA:167,162
DA:170,18
DA:174,18
DA:177,18
DA:179,18
DA:182,18
DA:184,0
DA:185,0
DA:186,0
DA:189,18
DA:190,18
DA:194,18
DA:197,36
DA:198,18
DA:201,18
DA:205,18
DA:206,36
DA:207,18
LF:94
LH:83
end_of_record
TN:
SF:/home/runner/work/neml2/neml2/src/neml2/solvers/NonlinearSolver.cxx
FN:30,45,_ZN5neml215NonlinearSolver16expected_optionsEv
FN:47,53,_ZN5neml215NonlinearSolverC2ERKNS_9OptionSetE
FNDA:15,_ZN5neml215NonlinearSolver16expected_optionsEv
FNDA:21,_ZN5neml215NonlinearSolverC2ERKNS_9OptionSetE
FNF:2
FNH:2
DA:30,15
DA:32,15
DA:34,30
DA:35,30
DA:37,30
DA:38,30
DA:40,30
DA:41,30
DA:42,15
DA:44,15
DA:45,0
DA:47,21
DA:49,42
DA:50,42
DA:51,42
DA:53,21
LF:16
LH:15
end_of_record
TN:
SF:/home/runner/work/neml2/neml2/src/neml2/solvers/NonlinearSystem.cxx
FN:149,155,_ZNK5neml215NonlinearSystem39ensure_scaling_matrices_initialized_dbgEv
FN:158,165,_ZNK5neml215NonlinearSystem5scaleERKNS0_3ResILb0EEE
FN:168,175,_ZNK5neml215NonlinearSystem7unscaleERKNS0_3ResILb1EEE
FN:178,185,_ZNK5neml215NonlinearSystem5scaleERKNS0_3JacILb0EEE
FN:188,196,_ZNK5neml215NonlinearSystem7unscaleERKNS0_3JacILb1EEE
FN:199,206,_ZNK5neml215NonlinearSystem5scaleERKNS0_3SolILb0EEE
FN:209,216,_ZNK5neml215NonlinearSystem7unscaleERKNS0_3SolILb1EEE
FN:219,222,_ZN5neml215NonlinearSystem9set_guessERKNS0_3SolILb1EEE
FN:33,37,_ZN5neml234currently_solving_nonlinear_systemEv
FN:39,43,_ZN5neml222SolvingNonlinearSystemC2Eb
FN:45,48,_ZN5neml222SolvingNonlinearSystemD2Ev
FN:51,71,_ZN5neml215NonlinearSystem16expected_optionsEv
FN:74,79,_ZN5neml215NonlinearSystem25disable_automatic_scalingERNS_9OptionSetE
FN:82,87,_ZN5neml215NonlinearSystem24enable_automatic_scalingERNS_9OptionSetE
FN:89,95,_ZN5neml215NonlinearSystemC2ERKNS_9OptionSetE
FN:98,146,_ZN5neml215NonlinearSystem12init_scalingERKNS0_3SolILb0EEEb
FNDA:98,_ZNK5neml215NonlinearSystem39ensure_scaling_matrices_initialized_dbgEv
FNDA:1728,_ZNK5neml215NonlinearSystem5scaleERKNS0_3ResILb0EEE
FNDA:0,_ZNK5neml215NonlinearSystem7unscaleERKNS0_3ResILb1EEE
FNDA:1348,_ZNK5neml215NonlinearSystem5scaleERKNS0_3JacILb0EEE
FNDA:0,_ZNK5neml215NonlinearSystem7unscaleERKNS0_3JacILb1EEE
FNDA:217,_ZNK5neml215NonlinearSystem5scaleERKNS0_3SolILb0EEE
FNDA:1945,_ZNK5neml215NonlinearSystem7unscaleERKNS0_3SolILb1EEE
FNDA:1729,_ZN5neml215NonlinearSystem9set_guessERKNS0_3SolILb1EEE
FNDA:7542,_ZN5neml234currently_solving_nonlinear_systemEv
FNDA:209,_ZN5neml222SolvingNonlinearSystemC2Eb
FNDA:209,_ZN5neml222SolvingNonlinearSystemD2Ev
FNDA:162,_ZN5neml215NonlinearSystem16expected_optionsEv
FNDA:149,_ZN5neml215NonlinearSystem25disable_automatic_scalingERNS_9OptionSetE
FNDA:5,_ZN5neml215NonlinearSystem24enable_automatic_scalingERNS_9OptionSetE
FNDA:388,_ZN5neml215NonlinearSystemC2ERKNS_9OptionSetE
FNDA:193,_ZN5neml215NonlinearSystem12init_scalingERKNS0_3SolILb0EEEb
FNF:16
FNH:14
DA:33,7542
DA:36,7542
DA:39,209
DA:40,209
DA:42,209
DA:43,209
DA:45,209
DA:47,209
DA:48,209
DA:51,162
DA:53,162
DA:55,324
DA:56,486
DA:58,162
DA:60,324
DA:61,486
DA:62,162
DA:64,324
DA:65,324
DA:68,162
DA:70,162
DA:71,0
DA:74,149
DA:76,298
DA:77,298
DA:78,149
DA:79,149
DA:82,5
DA:84,10
DA:85,10
DA:86,5
DA:87,5
DA:89,388
DA:90,776
DA:91,776
DA:92,388
DA:93,776
DA:95,388
DA:98,193
DA:100,193
DA:101,189
DA:103,4
DA:104,0
DA:107,4
DA:110,4
DA:111,4
DA:112,4
DA:114,4
DA:115,0
DA:116,0
DA:118,8
DA:121,8
DA:122,8
DA:123,8
DA:124,0
DA:125,0
DA:126,8
DA:127,4
DA:130,20
DA:132,32
DA:133,64
DA:134,32
DA:135,32
DA:136,32
DA:137,64
DA:138,16
DA:141,4
DA:143,4
DA:144,0
DA:145,0
DA:146,132
DA:149,98
DA:151,98
DA:152,98
DA:153,98
DA:155,98
DA:158,1728
DA:160,1728
DA:161,1693
DA:163,35
DA:164,35
DA:168,0
DA:170,0
DA:171,0
DA:173,0
DA:174,0
DA:178,1348
DA:180,1348
DA:181,1328
DA:183,20
DA:184,20
DA:188,0
DA:190,0
DA:191,0
DA:193,0
DA:195,0
DA:199,217
DA:201,217
DA:202,213
DA:204,4
DA:205,4
DA:209,1945
DA:211,1945
DA:212,1906
DA:214,39
DA:215,39
DA:219,1729
DA:221,1729
DA:222,1729
LF:109
LH:91
end_of_record
TN:
SF:/home/runner/work/neml2/neml2/src/neml2/solvers/Solver.cxx
FN:30,39,_ZN5neml26Solver16expected_optionsEv
FN:41,45,_ZN5neml26SolverC2ERKNS_9OptionSetE
FNDA:15,_ZN5neml26Solver16expected_optionsEv
FNDA:21,_ZN5neml26SolverC2ERKNS_9OptionSetE
FNF:2
FNH:2
DA:30,15
DA:32,15
DA:33,15
DA:35,30
DA:36,15
DA:38,15
DA:39,0
DA:41,21
DA:43,42
DA:45,21
LF:10
LH:9
end_of_record
TN:
SF:/home/runner/work/neml2/neml2/src/neml2/solvers/TrustRegionSubProblem.cxx
FN:35,38,_ZN5neml221TrustRegionSubProblemC2ERKNS_9OptionSetE
FN:41,48,_ZN5neml221TrustRegionSubProblem6reinitERKNS_15NonlinearSystem3ResILb1EEERKNS1_3JacILb1EEERKNS_6ScalarE
FN:51,54,_ZN5neml221TrustRegionSubProblem9set_guessERKNS_15NonlinearSystem3SolILb0EEE
FN:57,69,_ZN5neml221TrustRegionSubProblem8assembleEPNS_15NonlinearSystem3ResILb0EEEPNS1_3JacILb0EEE
FN:72,75,_ZNK5neml221TrustRegionSubProblem20preconditioned_solveERKNS_6ScalarERKNS_6TensorE
FN:78,81,_ZNK5neml221TrustRegionSubProblem24preconditioned_directionERKNS_6ScalarE
FNDA:3,_ZN5neml221TrustRegionSubProblemC2ERKNS_9OptionSetE
FNDA:18,_ZN5neml221TrustRegionSubProblem6reinitERKNS_15NonlinearSystem3ResILb1EEERKNS1_3JacILb1EEERKNS_6ScalarE
FNDA:69,_ZN5neml221TrustRegionSubProblem9set_guessERKNS_15NonlinearSystem3SolILb0EEE
FNDA:120,_ZN5neml221TrustRegionSubProblem8assembleEPNS_15NonlinearSystem3ResILb0EEEPNS1_3JacILb0EEE
FNDA:189,_ZNK5neml221TrustRegionSubProblem20preconditioned_solveERKNS_6ScalarERKNS_6TensorE
FNDA:138,_ZNK5neml221TrustRegionSubProblem24preconditioned_directionERKNS_6ScalarE
FNF:6
FNH:6
DA:35,3
DA:36,3
DA:38,3
DA:41,18
DA:45,18
DA:46,18
DA:47,18
DA:48,18
DA:51,69
DA:53,69
DA:54,69
DA:57,120
DA:60,120
DA:61,120
DA:63,120
DA:64,69
DA:66,120
DA:68,51
DA:69,120
DA:72,189
DA:74,189
DA:78,138
DA:80,138
LF:23
LH:23
end_of_record
TN:
SF:/home/runner/work/neml2/neml2/src/neml2/tensors/ConstantTensors.cxx
FN:29,43,_ZN5neml215ConstantTensorsC2Ev
FN:46,50,_ZN5neml215ConstantTensors3getEv
FN:53,56,_ZN5neml215ConstantTensors18full_to_mandel_mapEv
FN:59,62,_ZN5neml215ConstantTensors18mandel_to_full_mapEv
FN:65,68,_ZN5neml215ConstantTensors21full_to_mandel_factorEv
FN:71,74,_ZN5neml215ConstantTensors21mandel_to_full_factorEv
FN:77,80,_ZN5neml215ConstantTensors16full_to_skew_mapEv
FN:83,86,_ZN5neml215ConstantTensors16skew_to_full_mapEv
FN:89,92,_ZN5neml215ConstantTensors19full_to_skew_factorEv
FN:95,98,_ZN5neml215ConstantTensors19skew_to_full_factorEv
FNDA:1,_ZN5neml215ConstantTensorsC2Ev
FNDA:1212,_ZN5neml215ConstantTensors3getEv
FNDA:290,_ZN5neml215ConstantTensors18full_to_mandel_mapEv
FNDA:223,_ZN5neml215ConstantTensors18mandel_to_full_mapEv
FNDA:290,_ZN5neml215ConstantTensors21full_to_mandel_factorEv
FNDA:223,_ZN5neml215ConstantTensors21mandel_to_full_factorEv
FNDA:57,_ZN5neml215ConstantTensors16full_to_skew_mapEv
FNDA:36,_ZN5neml215ConstantTensors16skew_to_full_mapEv
FNDA:57,_ZN5neml215ConstantTensors19full_to_skew_factorEv
FNDA:36,_ZN5neml215ConstantTensors19skew_to_full_factorEv
FNF:10
FNH:10
DA:29,1
DA:31,1
DA:33,7
DA:34,10
DA:35,8
DA:37,11
DA:39,4
DA:40,10
DA:41,5
DA:42,11
DA:43,9
DA:46,1212
DA:48,1212
DA:49,1212
DA:53,290
DA:55,290
DA:59,223
DA:61,223
DA:65,290
DA:67,290
DA:71,223
DA:73,223
DA:77,57
DA:79,57
DA:83,36
DA:85,36
DA:89,57
DA:91,57
DA:95,36
DA:97,36
LF:30
LH:30
end_of_record
TN:
SF:/home/runner/work/neml2/neml2/src/neml2/tensors/MillerIndex.cxx
FN:33,36,_ZNK5neml211MillerIndexclEl
FN:39,42,_ZN5neml211MillerIndex4fillElllRKN3c1013TensorOptionsE
FN:45,49,_ZNK5neml211MillerIndex6reduceEv
FN:52,55,_ZNK5neml211MillerIndex6to_vecERKN3c1013TensorOptionsE
FN:58,62,_ZNK5neml211MillerIndex17to_normalized_vecERKN3c1013TensorOptionsE
FNDA:219,_ZNK5neml211MillerIndexclEl
FNDA:10,_ZN5neml211MillerIndex4fillElllRKN3c1013TensorOptionsE
FNDA:73,_ZNK5neml211MillerIndex6reduceEv
FNDA:74,_ZNK5neml211MillerIndex6to_vecERKN3c1013TensorOptionsE
FNDA:2,_ZNK5neml211MillerIndex17to_normalized_vecERKN3c1013TensorOptionsE
FNF:5
FNH:5
DA:33,219
DA:35,876
DA:36,219
DA:39,10
DA:41,40
DA:42,10
DA:45,73
DA:47,73
DA:48,146
DA:49,73
DA:52,74
DA:54,74
DA:58,2
DA:60,2
DA:61,4
DA:62,2
LF:16
LH:16
end_of_record
TN:
SF:/home/runner/work/neml2/neml2/src/neml2/tensors/Quaternion.cxx
FN:101,105,_ZNK5neml210Quaternion4distERKS0_
FN:44,49,_ZN5neml210QuaternionC2ERKNS_3RotE
FN:52,60,_ZN5neml210Quaternion4fillERKdS2_S2_S2_RKN3c1013TensorOptionsE
FN:63,66,_ZN5neml210Quaternion4fillERKNS_6ScalarES3_S3_S3_
FN:69,72,_ZNK5neml210QuaternionclEl
FN:75,92,_ZNK5neml210Quaternion5to_R2Ev
FN:95,98,_ZNK5neml210Quaternion3dotERKS0_
FNDA:0,_ZNK5neml210Quaternion4distERKS0_
FNDA:0,_ZN5neml210QuaternionC2ERKNS_3RotE
FNDA:2,_ZN5neml210Quaternion4fillERKdS2_S2_S2_RKN3c1013TensorOptionsE
FNDA:2,_ZN5neml210Quaternion4fillERKNS_6ScalarES3_S3_S3_
FNDA:2820,_ZNK5neml210QuaternionclEl
FNDA:94,_ZNK5neml210Quaternion5to_R2Ev
FNDA:0,_ZNK5neml210Quaternion3dotERKS0_
FNF:7
FNH:4
DA:44,0
DA:45,0
DA:46,0
DA:47,0
DA:49,0
DA:52,2
DA:59,2
DA:63,2
DA:65,12
DA:66,2
DA:69,2820
DA:71,5640
DA:72,2820
DA:75,94
DA:77,94
DA:79,94
DA:80,94
DA:81,94
DA:83,188
DA:84,188
DA:85,188
DA:86,188
DA:87,188
DA:88,188
DA:89,188
DA:90,188
DA:91,376
DA:92,94
DA:95,0
DA:97,0
DA:101,0
DA:103,0
DA:104,0
DA:105,0
LF:34
LH:23
end_of_record
TN:
SF:/home/runner/work/neml2/neml2/src/neml2/tensors/R2.cxx
FN:38,41,_ZN5neml22R2C2ERKNS_3SR2E
FN:43,46,_ZN5neml22R2C2ERKNS_3WR2E
FN:48,51,_ZN5neml22R2C2ERKNS_3RotE
FN:54,57,_ZN5neml22R212identity_mapERKN3c1013TensorOptionsE
FNDA:89,_ZN5neml22R2C2ERKNS_3SR2E
FNDA:35,_ZN5neml22R2C2ERKNS_3WR2E
FNDA:7,_ZN5neml22R2C2ERKNS_3RotE
FNDA:1,_ZN5neml22R212identity_mapERKN3c1013TensorOptionsE
FNF:4
FNH:4
DA:38,89
DA:39,89
DA:41,89
DA:43,35
DA:44,35
DA:46,35
DA:48,7
DA:49,7
DA:51,7
DA:54,1
DA:56,1
LF:11
LH:11
end_of_record
TN:
SF:/home/runner/work/neml2/neml2/src/neml2/tensors/R2Base.cxx
FN:113,133,_ZN5neml26R2BaseINS_2R2EE4fillERKdS4_S4_S4_S4_S4_S4_S4_S4_RKN3c1013TensorOptionsE
FN:137,151,_ZN5neml26R2BaseINS_2R2EE4fillERKNS_6ScalarES5_S5_S5_S5_S5_S5_S5_S5_
FN:155,162,_ZN5neml26R2BaseINS_2R2EE4skewERKNS_3VecE
FN:166,169,_ZN5neml26R2BaseINS_2R2EE8identityERKN3c1013TensorOptionsE
FN:173,176,_ZNK5neml26R2BaseINS_2R2EE6rotateERKNS_3RotE
FN:180,183,_ZNK5neml26R2BaseINS_2R2EE6rotateERKS1_
FN:187,194,_ZNK5neml26R2BaseINS_2R2EE7drotateERKNS_3RotE
FN:198,203,_ZNK5neml26R2BaseINS_2R2EE7drotateERKS1_
FN:207,210,_ZNK5neml26R2BaseINS_2R2EEclEll
FN:214,217,_ZNK5neml26R2BaseINS_2R2EE7inverseEv
FN:221,224,_ZNK5neml26R2BaseINS_2R2EE9transposeEv
FN:228,232,_ZN5neml2mlINS_2R2ENS_3VecEvvEES2_RKT_RKT0_
FN:236,240,_ZN5neml2mlINS_2R2ES1_vvEES1_RKT_RKT0_
FN:41,44,_ZN5neml26R2BaseINS_2R2EE4fillERKdRKN3c1013TensorOptionsE
FN:48,55,_ZN5neml26R2BaseINS_2R2EE4fillERKNS_6ScalarE
FN:59,65,_ZN5neml26R2BaseINS_2R2EE4fillERKdS4_S4_RKN3c1013TensorOptionsE
FN:69,76,_ZN5neml26R2BaseINS_2R2EE4fillERKNS_6ScalarES5_S5_
FN:80,94,_ZN5neml26R2BaseINS_2R2EE4fillERKdS4_S4_S4_S4_S4_RKN3c1013TensorOptionsE
FN:98,109,_ZN5neml26R2BaseINS_2R2EE4fillERKNS_6ScalarES5_S5_S5_S5_S5_
FNDA:34,_ZN5neml26R2BaseINS_2R2EE4fillERKdS4_S4_S4_S4_S4_S4_S4_S4_RKN3c1013TensorOptionsE
FNDA:136,_ZN5neml26R2BaseINS_2R2EE4fillERKNS_6ScalarES5_S5_S5_S5_S5_S5_S5_S5_
FNDA:304,_ZN5neml26R2BaseINS_2R2EE4skewERKNS_3VecE
FNDA:378,_ZN5neml26R2BaseINS_2R2EE8identityERKN3c1013TensorOptionsE
FNDA:18,_ZNK5neml26R2BaseINS_2R2EE6rotateERKNS_3RotE
FNDA:46,_ZNK5neml26R2BaseINS_2R2EE6rotateERKS1_
FNDA:11,_ZNK5neml26R2BaseINS_2R2EE7drotateERKNS_3RotE
FNDA:10,_ZNK5neml26R2BaseINS_2R2EE7drotateERKS1_
FNDA:81,_ZNK5neml26R2BaseINS_2R2EEclEll
FNDA:86,_ZNK5neml26R2BaseINS_2R2EE7inverseEv
FNDA:210,_ZNK5neml26R2BaseINS_2R2EE9transposeEv
FNDA:194,_ZN5neml2mlINS_2R2ENS_3VecEvvEES2_RKT_RKT0_
FNDA:1485,_ZN5neml2mlINS_2R2ES1_vvEES1_RKT_RKT0_
FNDA:26,_ZN5neml26R2BaseINS_2R2EE4fillERKdRKN3c1013TensorOptionsE
FNDA:53,_ZN5neml26R2BaseINS_2R2EE4fillERKNS_6ScalarE
FNDA:2,_ZN5neml26R2BaseINS_2R2EE4fillERKdS4_S4_RKN3c1013TensorOptionsE
FNDA:5,_ZN5neml26R2BaseINS_2R2EE4fillERKNS_6ScalarES5_S5_
FNDA:2,_ZN5neml26R2BaseINS_2R2EE4fillERKdS4_S4_S4_S4_S4_RKN3c1013TensorOptionsE
FNDA:5,_ZN5neml26R2BaseINS_2R2EE4fillERKNS_6ScalarES5_S5_S5_S5_S5_
FNF:19
FNH:19
DA:41,26
DA:43,26
DA:48,53
DA:50,53
DA:51,318
DA:52,212
DA:53,212
DA:54,318
DA:55,795
DA:59,2
DA:64,2
DA:69,5
DA:71,5
DA:72,30
DA:73,20
DA:74,20
DA:75,30
DA:76,75
DA:80,2
DA:88,4
DA:89,4
DA:90,4
DA:91,4
DA:92,4
DA:93,6
DA:98,5
DA:105,30
DA:106,20
DA:107,20
DA:108,30
DA:109,75
DA:113,34
DA:124,68
DA:125,68
DA:126,68
DA:127,68
DA:128,68
DA:129,68
DA:130,68
DA:131,68
DA:132,102
DA:137,136
DA:147,816
DA:148,544
DA:149,544
DA:150,816
DA:151,2040
DA:155,304
DA:157,304
DA:158,1824
DA:159,1216
DA:160,1216
DA:161,1824
DA:162,4560
DA:166,378
DA:168,378
DA:173,18
DA:175,18
DA:180,46
DA:182,46
DA:187,11
DA:189,11
DA:190,11
DA:192,44
DA:193,110
DA:194,33
DA:198,10
DA:200,10
DA:201,30
DA:202,100
DA:203,50
DA:207,81
DA:209,243
DA:210,81
DA:214,86
DA:216,86
DA:221,210
DA:223,210
DA:228,194
DA:230,194
DA:231,776
DA:232,194
DA:236,1485
DA:238,1485
DA:239,5940
DA:240,1485
LF:86
LH:86
end_of_record
TN:
SF:/home/runner/work/neml2/neml2/src/neml2/tensors/R3.cxx
FN:35,41,_ZN5neml22R311levi_civitaERKN3c1013TensorOptionsE
FN:44,47,_ZNK5neml22R3clElll
FN:50,54,_ZNK5neml22R310contract_kERKNS_3VecE
FNDA:288,_ZN5neml22R311levi_civitaERKN3c1013TensorOptionsE
FNDA:54,_ZNK5neml22R3clElll
FNDA:4,_ZNK5neml22R310contract_kERKNS_3VecE
FNF:3
FNH:3
DA:35,288
DA:37,12672
DA:40,1728
DA:41,11808
DA:44,54
DA:46,216
DA:47,54
DA:50,4
DA:52,4
DA:53,20
DA:54,4
LF:11
LH:11
end_of_record
TN:
SF:/home/runner/work/neml2/neml2/src/neml2/tensors/R4.cxx
FN:102,105,_ZNK5neml22R415transpose_minorEv
FN:108,111,_ZNK5neml22R415transpose_majorEv
FN:40,43,_ZN5neml22R4C2ERKNS_4SSR4E
FN:45,48,_ZN5neml22R4C2ERKNS_4WWR4E
FN:51,58,_ZNK5neml22R46rotateERKNS_3RotE
FN:61,74,_ZNK5neml22R47drotateERKNS_3RotE
FN:77,87,_ZNK5neml22R412drotate_selfERKNS_3RotE
FN:90,93,_ZNK5neml22R4clEllll
FN:96,99,_ZNK5neml22R49transposeEll
FNDA:69,_ZNK5neml22R415transpose_minorEv
FNDA:1,_ZNK5neml22R415transpose_majorEv
FNDA:66,_ZN5neml22R4C2ERKNS_4SSR4E
FNDA:0,_ZN5neml22R4C2ERKNS_4WWR4E
FNDA:145,_ZNK5neml22R46rotateERKNS_3RotE
FNDA:13,_ZNK5neml22R47drotateERKNS_3RotE
FNDA:4,_ZNK5neml22R412drotate_selfERKNS_3RotE
FNDA:486,_ZNK5neml22R4clEllll
FNDA:143,_ZNK5neml22R49transposeEll
FNF:9
FNH:8
DA:40,66
DA:41,66
DA:43,66
DA:45,0
DA:46,0
DA:48,0
DA:51,145
DA:53,145
DA:54,145
DA:56,1015
DA:57,290
DA:58,290
DA:61,13
DA:63,13
DA:64,13
DA:65,13
DA:67,91
DA:68,91
DA:69,91
DA:70,91
DA:71,13
DA:73,26
DA:74,65
DA:77,4
DA:79,4
DA:80,4
DA:82,24
DA:84,4
DA:85,2
DA:86,2
DA:87,8
DA:90,486
DA:92,2430
DA:93,486
DA:96,143
DA:98,143
DA:102,69
DA:104,69
DA:108,1
DA:110,1
LF:40
LH:37
end_of_record
TN:
SF:/home/runner/work/neml2/neml2/src/neml2/tensors/Rot.cxx
FN:113,127,_ZN5neml23Rot11fill_matrixERKNS_2R2E
FN:130,138,_ZN5neml23Rot14fill_rodriguesERKNS_6ScalarES3_S3_
FN:141,157,_ZN5neml23Rot11fill_randomEjl
FN:160,163,_ZNK5neml23Rot7inverseEv
FN:166,174,_ZNK5neml23Rot15euler_rodriguesEv
FN:177,189,_ZNK5neml23Rot16deuler_rodriguesEv
FN:192,195,_ZNK5neml23Rot6rotateERKS0_
FN:198,211,_ZNK5neml23Rot7drotateERKS0_
FN:214,227,_ZNK5neml23Rot12drotate_selfERKS0_
FN:230,233,_ZNK5neml23Rot6shadowEv
FN:236,240,_ZNK5neml23Rot7dshadowEv
FN:243,253,_ZNK5neml23Rot4distERKS0_
FN:256,260,_ZNK5neml23Rot5gdistERKS0_
FN:263,266,_ZNK5neml23Rot2dVEv
FN:269,276,_ZN5neml2mlERKNS_3RotES2_
FN:53,56,_ZN5neml23RotC2ERKNS_3VecE
FN:59,62,_ZN5neml23Rot8identityERKN3c1013TensorOptionsE
FN:65,110,_ZN5neml23Rot17fill_euler_anglesERKNS_3VecERKSsS5_
FNDA:6,_ZN5neml23Rot11fill_matrixERKNS_2R2E
FNDA:6,_ZN5neml23Rot14fill_rodriguesERKNS_6ScalarES3_S3_
FNDA:0,_ZN5neml23Rot11fill_randomEjl
FNDA:2,_ZNK5neml23Rot7inverseEv
FNDA:250,_ZNK5neml23Rot15euler_rodriguesEv
FNDA:37,_ZNK5neml23Rot16deuler_rodriguesEv
FNDA:33,_ZNK5neml23Rot6rotateERKS0_
FNDA:12,_ZNK5neml23Rot7drotateERKS0_
FNDA:3,_ZNK5neml23Rot12drotate_selfERKS0_
FNDA:7,_ZNK5neml23Rot6shadowEv
FNDA:2,_ZNK5neml23Rot7dshadowEv
FNDA:0,_ZNK5neml23Rot4distERKS0_
FNDA:0,_ZNK5neml23Rot5gdistERKS0_
FNDA:0,_ZNK5neml23Rot2dVEv
FNDA:37,_ZN5neml2mlERKNS_3RotES2_
FNDA:37,_ZN5neml23RotC2ERKNS_3VecE
FNDA:3,_ZN5neml23Rot8identityERKN3c1013TensorOptionsE
FNDA:6,_ZN5neml23Rot17fill_euler_anglesERKNS_3VecERKSsS5_
FNF:18
FNH:14
DA:53,37
DA:54,37
DA:56,37
DA:59,3
DA:61,3
DA:65,6
DA:69,6
DA:71,6
DA:72,3
DA:74,3
DA:76,6
DA:78,8
DA:79,8
DA:80,8
DA:82,4
DA:84,8
DA:87,2
DA:90,6
DA:91,12
DA:92,12
DA:93,12
DA:94,18
DA:95,12
DA:96,18
DA:97,12
DA:98,24
DA:99,18
DA:100,12
DA:101,18
DA:102,12
DA:103,24
DA:104,24
DA:105,24
DA:106,24
DA:109,12
DA:110,94
DA:113,6
DA:116,6
DA:117,6
DA:120,6
DA:121,24
DA:122,6
DA:123,6
DA:124,6
DA:126,12
DA:127,18
DA:130,6
DA:133,6
DA:134,6
DA:137,36
DA:138,12
DA:141,0
DA:143,0
DA:144,0
DA:145,0
DA:146,0
DA:147,0
DA:149,0
DA:150,0
DA:151,0
DA:152,0
DA:154,0
DA:156,0
DA:157,0
DA:160,2
DA:162,2
DA:166,250
DA:168,250
DA:169,250
DA:170,250
DA:172,500
DA:173,1000
DA:174,250
DA:177,37
DA:179,37
DA:180,37
DA:181,37
DA:182,37
DA:184,185
DA:185,259
DA:186,148
DA:187,74
DA:188,370
DA:189,222
DA:192,33
DA:194,33
DA:198,12
DA:200,12
DA:202,12
DA:203,12
DA:204,12
DA:205,12
DA:206,12
DA:208,24
DA:209,24
DA:210,72
DA:211,12
DA:214,3
DA:216,3
DA:218,3
DA:219,3
DA:220,3
DA:221,3
DA:222,3
DA:224,6
DA:225,6
DA:226,18
DA:227,3
DA:230,7
DA:232,7
DA:236,2
DA:238,2
DA:239,4
DA:240,2
DA:243,0
DA:245,0
DA:246,0
DA:247,0
DA:248,0
DA:249,0
DA:250,0
DA:252,0
DA:253,0
DA:256,0
DA:258,0
DA:259,0
DA:263,0
DA:265,0
DA:269,37
DA:271,37
DA:272,37
DA:274,74
DA:275,148
DA:276,37
LF:134
LH:107
end_of_record
TN:
SF:/home/runner/work/neml2/neml2/src/neml2/tensors/SR2.cxx
FN:108,111,_ZN5neml23SR28identityERKN3c1013TensorOptionsE
FN:114,117,_ZN5neml23SR212identity_mapERKN3c1013TensorOptionsE
FN:120,123,_ZNK5neml23SR26rotateERKNS_3RotE
FN:126,129,_ZNK5neml23SR26rotateERKNS_2R2E
FN:132,136,_ZNK5neml23SR27drotateERKNS_3RotE
FN:139,143,_ZNK5neml23SR27drotateERKNS_2R2E
FN:146,150,_ZNK5neml23SR2clEll
FN:153,156,_ZNK5neml23SR22trEv
FN:159,162,_ZNK5neml23SR23volEv
FN:165,168,_ZNK5neml23SR23devEv
FN:171,181,_ZNK5neml23SR23detEv
FN:184,187,_ZNK5neml23SR25innerERKS0_
FN:190,193,_ZNK5neml23SR27norm_sqEv
FN:196,199,_ZNK5neml23SR24normEd
FN:202,206,_ZNK5neml23SR25outerERKS0_
FN:209,212,_ZNK5neml23SR27inverseEv
FN:215,218,_ZNK5neml23SR29transposeEv
FN:47,50,_ZN5neml23SR2C2ERKNS_2R2E
FN:53,56,_ZN5neml23SR24fillERKdRKN3c1013TensorOptionsE
FN:59,63,_ZN5neml23SR24fillERKNS_6ScalarE
FN:66,69,_ZN5neml23SR24fillERKdS2_S2_RKN3c1013TensorOptionsE
FN:72,76,_ZN5neml23SR24fillERKNS_6ScalarES3_S3_
FN:79,93,_ZN5neml23SR24fillERKdS2_S2_S2_S2_S2_RKN3c1013TensorOptionsE
FN:96,105,_ZN5neml23SR24fillERKNS_6ScalarES3_S3_S3_S3_S3_
FNDA:19,_ZN5neml23SR28identityERKN3c1013TensorOptionsE
FNDA:104,_ZN5neml23SR212identity_mapERKN3c1013TensorOptionsE
FNDA:8,_ZNK5neml23SR26rotateERKNS_3RotE
FNDA:28,_ZNK5neml23SR26rotateERKNS_2R2E
FNDA:4,_ZNK5neml23SR27drotateERKNS_3RotE
FNDA:10,_ZNK5neml23SR27drotateERKNS_2R2E
FNDA:21,_ZNK5neml23SR2clEll
FNDA:182,_ZNK5neml23SR22trEv
FNDA:151,_ZNK5neml23SR23volEv
FNDA:107,_ZNK5neml23SR23devEv
FNDA:2,_ZNK5neml23SR23detEv
FNDA:104,_ZNK5neml23SR25innerERKS0_
FNDA:93,_ZNK5neml23SR27norm_sqEv
FNDA:91,_ZNK5neml23SR24normEd
FNDA:33,_ZNK5neml23SR25outerERKS0_
FNDA:2,_ZNK5neml23SR27inverseEv
FNDA:2,_ZNK5neml23SR29transposeEv
FNDA:103,_ZN5neml23SR2C2ERKNS_2R2E
FNDA:3,_ZN5neml23SR24fillERKdRKN3c1013TensorOptionsE
FNDA:169,_ZN5neml23SR24fillERKNS_6ScalarE
FNDA:2,_ZN5neml23SR24fillERKdS2_S2_RKN3c1013TensorOptionsE
FNDA:33,_ZN5neml23SR24fillERKNS_6ScalarES3_S3_
FNDA:23,_ZN5neml23SR24fillERKdS2_S2_S2_S2_S2_RKN3c1013TensorOptionsE
FNDA:102,_ZN5neml23SR24fillERKNS_6ScalarES3_S3_S3_S3_S3_
FNF:24
FNH:24
DA:47,103
DA:48,103
DA:50,103
DA:53,3
DA:55,3
DA:59,169
DA:61,169
DA:62,1521
DA:63,338
DA:66,2
DA:68,2
DA:72,33
DA:74,33
DA:75,297
DA:76,66
DA:79,23
DA:87,46
DA:88,46
DA:89,46
DA:90,46
DA:91,46
DA:92,69
DA:96,102
DA:103,918
DA:104,510
DA:105,408
DA:108,19
DA:110,133
DA:111,19
DA:114,104
DA:116,104
DA:120,8
DA:122,8
DA:126,28
DA:128,28
DA:132,4
DA:134,4
DA:135,8
DA:136,4
DA:139,10
DA:141,10
DA:142,20
DA:143,10
DA:146,21
DA:148,21
DA:149,63
DA:150,21
DA:153,182
DA:155,910
DA:156,364
DA:159,151
DA:161,302
DA:165,107
DA:167,107
DA:171,2
DA:173,2
DA:174,2
DA:175,2
DA:176,2
DA:177,2
DA:178,2
DA:179,4
DA:180,8
DA:181,2
DA:184,104
DA:186,104
DA:190,93
DA:192,93
DA:196,91
DA:198,91
DA:202,33
DA:204,33
DA:205,165
DA:206,33
DA:209,2
DA:211,2
DA:215,2
DA:217,2
LF:78
LH:78
end_of_record
TN:
SF:/home/runner/work/neml2/neml2/src/neml2/tensors/SSR4.cxx
FN:105,108,_ZN5neml24SSR412identity_volERKN3c1013TensorOptionsE
FN:111,114,_ZN5neml24SSR412identity_devERKN3c1013TensorOptionsE
FN:117,128,_ZN5neml24SSR414isotropic_E_nuERKNS_6ScalarES3_
FN:131,134,_ZN5neml24SSR414isotropic_E_nuERKdS2_RKN3c1013TensorOptionsE
FN:137,143,_ZN5neml24SSR413fill_C1_C2_C3ERKNS_6ScalarES3_S3_
FN:146,152,_ZN5neml24SSR413fill_C1_C2_C3ERKdS2_S2_RKN3c1013TensorOptionsE
FN:155,159,_ZN5neml24SSR412identity_mapERKN3c1013TensorOptionsE
FN:162,165,_ZNK5neml24SSR46rotateERKNS_3RotE
FN:168,172,_ZNK5neml24SSR47drotateERKNS_3RotE
FN:175,184,_ZNK5neml24SSR412drotate_selfERKNS_3RotE
FN:187,192,_ZNK5neml24SSR4clEllll
FN:195,198,_ZNK5neml24SSR47inverseEv
FN:201,205,_ZNK5neml24SSR48dinverseEv
FN:208,211,_ZNK5neml24SSR415transpose_minorEv
FN:214,217,_ZNK5neml24SSR415transpose_majorEv
FN:220,223,_ZN5neml2mlERKNS_4SSR4ERKNS_3SR2E
FN:226,229,_ZN5neml2mlERKNS_3SR2ERKNS_4SSR4E
FN:232,235,_ZN5neml2mlERKNS_4SSR4ES2_
FN:42,48,_ZN5neml24SSR4C2ERKNS_2R4E
FN:51,60,_ZN5neml24SSR48identityERKN3c1013TensorOptionsE
FN:63,72,_ZN5neml24SSR411identity_C1ERKN3c1013TensorOptionsE
FN:75,84,_ZN5neml24SSR411identity_C2ERKN3c1013TensorOptionsE
FN:87,96,_ZN5neml24SSR411identity_C3ERKN3c1013TensorOptionsE
FN:99,102,_ZN5neml24SSR412identity_symERKN3c1013TensorOptionsE
FNDA:22,_ZN5neml24SSR412identity_volERKN3c1013TensorOptionsE
FNDA:41,_ZN5neml24SSR412identity_devERKN3c1013TensorOptionsE
FNDA:5,_ZN5neml24SSR414isotropic_E_nuERKNS_6ScalarES3_
FNDA:3,_ZN5neml24SSR414isotropic_E_nuERKdS2_RKN3c1013TensorOptionsE
FNDA:5,_ZN5neml24SSR413fill_C1_C2_C3ERKNS_6ScalarES3_S3_
FNDA:0,_ZN5neml24SSR413fill_C1_C2_C3ERKdS2_S2_RKN3c1013TensorOptionsE
FNDA:3,_ZN5neml24SSR412identity_mapERKN3c1013TensorOptionsE
FNDA:55,_ZNK5neml24SSR46rotateERKNS_3RotE
FNDA:9,_ZNK5neml24SSR47drotateERKNS_3RotE
FNDA:6,_ZNK5neml24SSR412drotate_selfERKNS_3RotE
FNDA:324,_ZNK5neml24SSR4clEllll
FNDA:47,_ZNK5neml24SSR47inverseEv
FNDA:5,_ZNK5neml24SSR48dinverseEv
FNDA:0,_ZNK5neml24SSR415transpose_minorEv
FNDA:4,_ZNK5neml24SSR415transpose_majorEv
FNDA:43,_ZN5neml2mlERKNS_4SSR4ERKNS_3SR2E
FNDA:4,_ZN5neml2mlERKNS_3SR2ERKNS_4SSR4E
FNDA:24,_ZN5neml2mlERKNS_4SSR4ES2_
FNDA:62,_ZN5neml24SSR4C2ERKNS_2R4E
FNDA:65,_ZN5neml24SSR48identityERKN3c1013TensorOptionsE
FNDA:9,_ZN5neml24SSR411identity_C1ERKN3c1013TensorOptionsE
FNDA:9,_ZN5neml24SSR411identity_C2ERKN3c1013TensorOptionsE
FNDA:9,_ZN5neml24SSR411identity_C3ERKN3c1013TensorOptionsE
FNDA:172,_ZN5neml24SSR412identity_symERKN3c1013TensorOptionsE
FNF:24
FNH:22
DA:42,62
DA:43,124
DA:44,124
DA:45,62
DA:46,62
DA:48,62
DA:51,65
DA:53,2860
DA:59,585
DA:60,2470
DA:63,9
DA:65,396
DA:71,81
DA:72,342
DA:75,9
DA:77,396
DA:83,81
DA:84,342
DA:87,9
DA:89,396
DA:95,81
DA:96,342
DA:99,172
DA:101,172
DA:105,22
DA:107,44
DA:111,41
DA:113,41
DA:117,5
DA:119,5
DA:121,5
DA:122,5
DA:123,5
DA:124,5
DA:125,5
DA:127,10
DA:128,5
DA:131,3
DA:133,3
DA:137,5
DA:139,5
DA:141,10
DA:142,15
DA:146,0
DA:151,0
DA:155,3
DA:157,3
DA:158,15
DA:159,6
DA:162,55
DA:164,55
DA:168,9
DA:170,9
DA:171,18
DA:172,9
DA:175,6
DA:177,6
DA:178,42
DA:179,54
DA:180,48
DA:181,48
DA:182,12
DA:183,24
DA:184,30
DA:187,324
DA:189,324
DA:190,324
DA:191,1296
DA:192,324
DA:195,47
DA:197,47
DA:201,5
DA:203,5
DA:204,25
DA:205,10
DA:208,0
DA:210,0
DA:214,4
DA:216,4
DA:220,43
DA:222,43
DA:226,4
DA:228,4
DA:232,24
DA:234,24
LF:85
LH:81
end_of_record
TN:
SF:/home/runner/work/neml2/neml2/src/neml2/tensors/SWR4.cxx
FN:32,35,_ZN5neml24SWR4C2ERKNS_2R4E
FNDA:1,_ZN5neml24SWR4C2ERKNS_2R4E
FNF:1
FNH:1
DA:32,1
DA:33,1
DA:35,1
LF:3
LH:3
end_of_record
TN:
SF:/home/runner/work/neml2/neml2/src/neml2/tensors/Scalar.cxx
FN:30,37,_ZN5neml26ScalarC2EdRKN3c1013TensorOptionsE
FN:40,43,_ZN5neml26Scalar12identity_mapERKN3c1013TensorOptionsE
FN:46,51,_ZNK5neml26Scalar17base_unsqueeze_toEl
FNDA:2010,_ZN5neml26ScalarC2EdRKN3c1013TensorOptionsE
FNDA:147,_ZN5neml26Scalar12identity_mapERKN3c1013TensorOptionsE
FNDA:7884,_ZNK5neml26Scalar17base_unsqueeze_toEl
FNF:3
FNH:3
DA:30,2010
DA:31,2010
DA:33,2010
DA:34,2010
DA:37,2010
DA:40,147
DA:42,147
DA:46,7884
DA:48,15768
DA:49,7884
DA:50,23652
DA:51,15768
LF:12
LH:12
end_of_record
TN:
SF:/home/runner/work/neml2/neml2/src/neml2/tensors/Tensor.cxx
FN:112,115,_ZN5neml26Tensor5zerosEN3c108ArrayRefIlEERKNS1_13TensorOptionsE
FN:118,130,_ZN5neml26Tensor5zerosERKNS_20TraceableTensorShapeEN3c108ArrayRefIlEERKNS4_13TensorOptionsE
FN:133,136,_ZN5neml26Tensor4onesEN3c108ArrayRefIlEERKNS1_13TensorOptionsE
FN:139,151,_ZN5neml26Tensor4onesERKNS_20TraceableTensorShapeEN3c108ArrayRefIlEERKNS4_13TensorOptionsE
FN:154,157,_ZN5neml26Tensor4fullEN3c108ArrayRefIlEEdRKNS1_13TensorOptionsE
FN:160,173,_ZN5neml26Tensor4fullERKNS_20TraceableTensorShapeEN3c108ArrayRefIlEEdRKNS4_13TensorOptionsE
FN:176,179,_ZN5neml26Tensor8identityElRKN3c1013TensorOptionsE
FN:182,185,_ZN5neml26Tensor8identityERKNS_20TraceableTensorShapeElRKN3c1013TensorOptionsE
FN:34,40,_ZN5neml25utils11pad_prependERKN2at6TensorEll
FN:43,63,_ZN5neml25utils21broadcast_batch_sizesERKSt6vectorINS_6TensorESaIS2_EE
FN:66,69,_ZN5neml26TensorC2ERKN2at6TensorEl
FN:71,74,_ZN5neml26TensorC2ERKN2at6TensorERKNS_20TraceableTensorShapeE
FN:77,80,_ZN5neml26Tensor6createEN5torch6detail19TensorDataContainerERKN3c1013TensorOptionsE
FN:83,88,_ZN5neml26Tensor6createEN5torch6detail19TensorDataContainerElRKN3c1013TensorOptionsE
FN:91,94,_ZN5neml26Tensor5emptyEN3c108ArrayRefIlEERKNS1_13TensorOptionsE
FN:97,109,_ZN5neml26Tensor5emptyERKNS_20TraceableTensorShapeEN3c108ArrayRefIlEERKNS4_13TensorOptionsE
FNDA:50,_ZN5neml26Tensor5zerosEN3c108ArrayRefIlEERKNS1_13TensorOptionsE
FNDA:15836,_ZN5neml26Tensor5zerosERKNS_20TraceableTensorShapeEN3c108ArrayRefIlEERKNS4_13TensorOptionsE
FNDA:152,_ZN5neml26Tensor4onesEN3c108ArrayRefIlEERKNS1_13TensorOptionsE
FNDA:105,_ZN5neml26Tensor4onesERKNS_20TraceableTensorShapeEN3c108ArrayRefIlEERKNS4_13TensorOptionsE
FNDA:1300,_ZN5neml26Tensor4fullEN3c108ArrayRefIlEEdRKNS1_13TensorOptionsE
FNDA:290,_ZN5neml26Tensor4fullERKNS_20TraceableTensorShapeEN3c108ArrayRefIlEEdRKNS4_13TensorOptionsE
FNDA:193,_ZN5neml26Tensor8identityElRKN3c1013TensorOptionsE
FNDA:3,_ZN5neml26Tensor8identityERKNS_20TraceableTensorShapeElRKN3c1013TensorOptionsE
FNDA:3752,_ZN5neml25utils11pad_prependERKN2at6TensorEll
FNDA:6660,_ZN5neml25utils21broadcast_batch_sizesERKSt6vectorINS_6TensorESaIS2_EE
FNDA:26487,_ZN5neml26TensorC2ERKN2at6TensorEl
FNDA:5220386,_ZN5neml26TensorC2ERKN2at6TensorERKNS_20TraceableTensorShapeE
FNDA:746,_ZN5neml26Tensor6createEN5torch6detail19TensorDataContainerERKN3c1013TensorOptionsE
FNDA:749,_ZN5neml26Tensor6createEN5torch6detail19TensorDataContainerElRKN3c1013TensorOptionsE
FNDA:2,_ZN5neml26Tensor5emptyEN3c108ArrayRefIlEERKNS1_13TensorOptionsE
FNDA:150,_ZN5neml26Tensor5emptyERKNS_20TraceableTensorShapeEN3c108ArrayRefIlEERKNS4_13TensorOptionsE
FNF:16
FNH:16
DA:34,3752
DA:36,3752
DA:37,3752
DA:38,3752
DA:39,22512
DA:40,11256
DA:43,6660
DA:45,6660
DA:46,6660
DA:47,26580
DA:48,19920
DA:50,19905
DA:51,19905
DA:52,19905
DA:53,3752
DA:54,19905
DA:55,6660
DA:56,5391
DA:58,5021
DA:59,3752
DA:61,1269
DA:62,1269
DA:63,6660
DA:66,26487
DA:67,26487
DA:69,26487
DA:71,5220386
DA:72,5220386
DA:74,5220386
DA:77,746
DA:79,746
DA:83,749
DA:85,1498
DA:86,749
DA:87,1498
DA:91,2
DA:93,2
DA:97,150
DA:102,314
DA:103,164
DA:104,0
DA:105,0
DA:107,300
DA:108,300
DA:112,50
DA:114,50
DA:118,15836
DA:123,16244
DA:124,408
DA:125,27
DA:126,9
DA:128,31672
DA:129,31672
DA:133,152
DA:135,152
DA:139,105
DA:144,240
DA:145,135
DA:146,27
DA:147,9
DA:149,210
DA:150,210
DA:154,1300
DA:156,1300
DA:160,290
DA:166,871
DA:167,581
DA:168,0
DA:169,0
DA:171,580
DA:172,580
DA:176,193
DA:178,193
DA:182,3
DA:184,3
LF:75
LH:71
end_of_record
TN:
SF:/home/runner/work/neml2/neml2/src/neml2/tensors/TensorValue.cxx
FN:32,35,_ZN5neml211TensorValueINS_10QuaternionEE3to_ERKN3c1013TensorOptionsE
FN:32,35,_ZN5neml211TensorValueINS_11MillerIndexEE3to_ERKN3c1013TensorOptionsE
FN:32,35,_ZN5neml211TensorValueINS_2R2EE3to_ERKN3c1013TensorOptionsE
FN:32,35,_ZN5neml211TensorValueINS_2R3EE3to_ERKN3c1013TensorOptionsE
FN:32,35,_ZN5neml211TensorValueINS_2R4EE3to_ERKN3c1013TensorOptionsE
FN:32,35,_ZN5neml211TensorValueINS_2R5EE3to_ERKN3c1013TensorOptionsE
FN:32,35,_ZN5neml211TensorValueINS_2R8EE3to_ERKN3c1013TensorOptionsE
FN:32,35,_ZN5neml211TensorValueINS_3RotEE3to_ERKN3c1013TensorOptionsE
FN:32,35,_ZN5neml211TensorValueINS_3SR2EE3to_ERKN3c1013TensorOptionsE
FN:32,35,_ZN5neml211TensorValueINS_3VecEE3to_ERKN3c1013TensorOptionsE
FN:32,35,_ZN5neml211TensorValueINS_3WR2EE3to_ERKN3c1013TensorOptionsE
FN:32,35,_ZN5neml211TensorValueINS_4SFR3EE3to_ERKN3c1013TensorOptionsE
FN:32,35,_ZN5neml211TensorValueINS_4SFR4EE3to_ERKN3c1013TensorOptionsE
FN:32,35,_ZN5neml211TensorValueINS_4SSR4EE3to_ERKN3c1013TensorOptionsE
FN:32,35,_ZN5neml211TensorValueINS_4SWR4EE3to_ERKN3c1013TensorOptionsE
FN:32,35,_ZN5neml211TensorValueINS_4WFR4EE3to_ERKN3c1013TensorOptionsE
FN:32,35,_ZN5neml211TensorValueINS_4WSR4EE3to_ERKN3c1013TensorOptionsE
FN:32,35,_ZN5neml211TensorValueINS_4WWR4EE3to_ERKN3c1013TensorOptionsE
FN:32,35,_ZN5neml211TensorValueINS_5SFFR4EE3to_ERKN3c1013TensorOptionsE
FN:32,35,_ZN5neml211TensorValueINS_5SSFR5EE3to_ERKN3c1013TensorOptionsE
FN:32,35,_ZN5neml211TensorValueINS_6SSSSR8EE3to_ERKN3c1013TensorOptionsE
FN:32,35,_ZN5neml211TensorValueINS_6ScalarEE3to_ERKN3c1013TensorOptionsE
FN:32,35,_ZN5neml211TensorValueINS_6TensorEE3to_ERKN3c1013TensorOptionsE
FN:39,42,_ZN5neml211TensorValueINS_10QuaternionEE14requires_grad_Eb
FN:39,42,_ZN5neml211TensorValueINS_11MillerIndexEE14requires_grad_Eb
FN:39,42,_ZN5neml211TensorValueINS_2R2EE14requires_grad_Eb
FN:39,42,_ZN5neml211TensorValueINS_2R3EE14requires_grad_Eb
FN:39,42,_ZN5neml211TensorValueINS_2R4EE14requires_grad_Eb
FN:39,42,_ZN5neml211TensorValueINS_2R5EE14requires_grad_Eb
FN:39,42,_ZN5neml211TensorValueINS_2R8EE14requires_grad_Eb
FN:39,42,_ZN5neml211TensorValueINS_3RotEE14requires_grad_Eb
FN:39,42,_ZN5neml211TensorValueINS_3SR2EE14requires_grad_Eb
FN:39,42,_ZN5neml211TensorValueINS_3VecEE14requires_grad_Eb
FN:39,42,_ZN5neml211TensorValueINS_3WR2EE14requires_grad_Eb
FN:39,42,_ZN5neml211TensorValueINS_4SFR3EE14requires_grad_Eb
FN:39,42,_ZN5neml211TensorValueINS_4SFR4EE14requires_grad_Eb
FN:39,42,_ZN5neml211TensorValueINS_4SSR4EE14requires_grad_Eb
FN:39,42,_ZN5neml211TensorValueINS_4SWR4EE14requires_grad_Eb
FN:39,42,_ZN5neml211TensorValueINS_4WFR4EE14requires_grad_Eb
FN:39,42,_ZN5neml211TensorValueINS_4WSR4EE14requires_grad_Eb
FN:39,42,_ZN5neml211TensorValueINS_4WWR4EE14requires_grad_Eb
FN:39,42,_ZN5neml211TensorValueINS_5SFFR4EE14requires_grad_Eb
FN:39,42,_ZN5neml211TensorValueINS_5SSFR5EE14requires_grad_Eb
FN:39,42,_ZN5neml211TensorValueINS_6SSSSR8EE14requires_grad_Eb
FN:39,42,_ZN5neml211TensorValueINS_6ScalarEE14requires_grad_Eb
FN:39,42,_ZN5neml211TensorValueINS_6TensorEE14requires_grad_Eb
FN:45,48,_ZNK5neml211TensorValueINS_10QuaternionEEcvNS_6TensorEEv
FN:45,48,_ZNK5neml211TensorValueINS_11MillerIndexEEcvNS_6TensorEEv
FN:45,48,_ZNK5neml211TensorValueINS_2R2EEcvNS_6TensorEEv
FN:45,48,_ZNK5neml211TensorValueINS_2R3EEcvNS_6TensorEEv
FN:45,48,_ZNK5neml211TensorValueINS_2R4EEcvNS_6TensorEEv
FN:45,48,_ZNK5neml211TensorValueINS_2R5EEcvNS_6TensorEEv
FN:45,48,_ZNK5neml211TensorValueINS_2R8EEcvNS_6TensorEEv
FN:45,48,_ZNK5neml211TensorValueINS_3RotEEcvNS_6TensorEEv
FN:45,48,_ZNK5neml211TensorValueINS_3SR2EEcvNS_6TensorEEv
FN:45,48,_ZNK5neml211TensorValueINS_3VecEEcvNS_6TensorEEv
FN:45,48,_ZNK5neml211TensorValueINS_3WR2EEcvNS_6TensorEEv
FN:45,48,_ZNK5neml211TensorValueINS_4SFR3EEcvNS_6TensorEEv
FN:45,48,_ZNK5neml211TensorValueINS_4SFR4EEcvNS_6TensorEEv
FN:45,48,_ZNK5neml211TensorValueINS_4SSR4EEcvNS_6TensorEEv
FN:45,48,_ZNK5neml211TensorValueINS_4SWR4EEcvNS_6TensorEEv
FN:45,48,_ZNK5neml211TensorValueINS_4WFR4EEcvNS_6TensorEEv
FN:45,48,_ZNK5neml211TensorValueINS_4WSR4EEcvNS_6TensorEEv
FN:45,48,_ZNK5neml211TensorValueINS_4WWR4EEcvNS_6TensorEEv
FN:45,48,_ZNK5neml211TensorValueINS_5SFFR4EEcvNS_6TensorEEv
FN:45,48,_ZNK5neml211TensorValueINS_5SSFR5EEcvNS_6TensorEEv
FN:45,48,_ZNK5neml211TensorValueINS_6SSSSR8EEcvNS_6TensorEEv
FN:45,48,_ZNK5neml211TensorValueINS_6ScalarEEcvNS_6TensorEEv
FN:45,48,_ZNK5neml211TensorValueINS_6TensorEEcvS1_Ev
FN:52,55,_ZN5neml211TensorValueINS_10QuaternionEEaSERKNS_6TensorE
FN:52,55,_ZN5neml211TensorValueINS_11MillerIndexEEaSERKNS_6TensorE
FN:52,55,_ZN5neml211TensorValueINS_2R2EEaSERKNS_6TensorE
FN:52,55,_ZN5neml211TensorValueINS_2R3EEaSERKNS_6TensorE
FN:52,55,_ZN5neml211TensorValueINS_2R4EEaSERKNS_6TensorE
FN:52,55,_ZN5neml211TensorValueINS_2R5EEaSERKNS_6TensorE
FN:52,55,_ZN5neml211TensorValueINS_2R8EEaSERKNS_6TensorE
FN:52,55,_ZN5neml211TensorValueINS_3RotEEaSERKNS_6TensorE
FN:52,55,_ZN5neml211TensorValueINS_3SR2EEaSERKNS_6TensorE
FN:52,55,_ZN5neml211TensorValueINS_3VecEEaSERKNS_6TensorE
FN:52,55,_ZN5neml211TensorValueINS_3WR2EEaSERKNS_6TensorE
FN:52,55,_ZN5neml211TensorValueINS_4SFR3EEaSERKNS_6TensorE
FN:52,55,_ZN5neml211TensorValueINS_4SFR4EEaSERKNS_6TensorE
FN:52,55,_ZN5neml211TensorValueINS_4SSR4EEaSERKNS_6TensorE
FN:52,55,_ZN5neml211TensorValueINS_4SWR4EEaSERKNS_6TensorE
FN:52,55,_ZN5neml211TensorValueINS_4WFR4EEaSERKNS_6TensorE
FN:52,55,_ZN5neml211TensorValueINS_4WSR4EEaSERKNS_6TensorE
FN:52,55,_ZN5neml211TensorValueINS_4WWR4EEaSERKNS_6TensorE
FN:52,55,_ZN5neml211TensorValueINS_5SFFR4EEaSERKNS_6TensorE
FN:52,55,_ZN5neml211TensorValueINS_5SSFR5EEaSERKNS_6TensorE
FN:52,55,_ZN5neml211TensorValueINS_6SSSSR8EEaSERKNS_6TensorE
FN:52,55,_ZN5neml211TensorValueINS_6ScalarEEaSERKNS_6TensorE
FN:52,55,_ZN5neml211TensorValueINS_6TensorEEaSERKS1_
FN:59,62,_ZNK5neml211TensorValueINS_10QuaternionEE4typeEv
FN:59,62,_ZNK5neml211TensorValueINS_11MillerIndexEE4typeEv
FN:59,62,_ZNK5neml211TensorValueINS_2R2EE4typeEv
FN:59,62,_ZNK5neml211TensorValueINS_2R3EE4typeEv
FN:59,62,_ZNK5neml211TensorValueINS_2R4EE4typeEv
FN:59,62,_ZNK5neml211TensorValueINS_2R5EE4typeEv
FN:59,62,_ZNK5neml211TensorValueINS_2R8EE4typeEv
FN:59,62,_ZNK5neml211TensorValueINS_3RotEE4typeEv
FN:59,62,_ZNK5neml211TensorValueINS_3SR2EE4typeEv
FN:59,62,_ZNK5neml211TensorValueINS_3VecEE4typeEv
FN:59,62,_ZNK5neml211TensorValueINS_3WR2EE4typeEv
FN:59,62,_ZNK5neml211TensorValueINS_4SFR3EE4typeEv
FN:59,62,_ZNK5neml211TensorValueINS_4SFR4EE4typeEv
FN:59,62,_ZNK5neml211TensorValueINS_4SSR4EE4typeEv
FN:59,62,_ZNK5neml211TensorValueINS_4SWR4EE4typeEv
FN:59,62,_ZNK5neml211TensorValueINS_4WFR4EE4typeEv
FN:59,62,_ZNK5neml211TensorValueINS_4WSR4EE4typeEv
FN:59,62,_ZNK5neml211TensorValueINS_4WWR4EE4typeEv
FN:59,62,_ZNK5neml211TensorValueINS_5SFFR4EE4typeEv
FN:59,62,_ZNK5neml211TensorValueINS_5SSFR5EE4typeEv
FN:59,62,_ZNK5neml211TensorValueINS_6SSSSR8EE4typeEv
FN:59,62,_ZNK5neml211TensorValueINS_6ScalarEE4typeEv
FN:59,62,_ZNK5neml211TensorValueINS_6TensorEE4typeEv
FNDA:0,_ZN5neml211TensorValueINS_10QuaternionEE3to_ERKN3c1013TensorOptionsE
FNDA:0,_ZN5neml211TensorValueINS_11MillerIndexEE3to_ERKN3c1013TensorOptionsE
FNDA:0,_ZN5neml211TensorValueINS_2R2EE3to_ERKN3c1013TensorOptionsE
FNDA:0,_ZN5neml211TensorValueINS_2R3EE3to_ERKN3c1013TensorOptionsE
FNDA:0,_ZN5neml211TensorValueINS_2R4EE3to_ERKN3c1013TensorOptionsE
FNDA:0,_ZN5neml211TensorValueINS_2R5EE3to_ERKN3c1013TensorOptionsE
FNDA:0,_ZN5neml211TensorValueINS_2R8EE3to_ERKN3c1013TensorOptionsE
FNDA:0,_ZN5neml211TensorValueINS_3RotEE3to_ERKN3c1013TensorOptionsE
FNDA:0,_ZN5neml211TensorValueINS_3SR2EE3to_ERKN3c1013TensorOptionsE
FNDA:0,_ZN5neml211TensorValueINS_3VecEE3to_ERKN3c1013TensorOptionsE
FNDA:0,_ZN5neml211TensorValueINS_3WR2EE3to_ERKN3c1013TensorOptionsE
FNDA:0,_ZN5neml211TensorValueINS_4SFR3EE3to_ERKN3c1013TensorOptionsE
FNDA:0,_ZN5neml211TensorValueINS_4SFR4EE3to_ERKN3c1013TensorOptionsE
FNDA:0,_ZN5neml211TensorValueINS_4SSR4EE3to_ERKN3c1013TensorOptionsE
FNDA:0,_ZN5neml211TensorValueINS_4SWR4EE3to_ERKN3c1013TensorOptionsE
FNDA:0,_ZN5neml211TensorValueINS_4WFR4EE3to_ERKN3c1013TensorOptionsE
FNDA:0,_ZN5neml211TensorValueINS_4WSR4EE3to_ERKN3c1013TensorOptionsE
FNDA:0,_ZN5neml211TensorValueINS_4WWR4EE3to_ERKN3c1013TensorOptionsE
FNDA:0,_ZN5neml211TensorValueINS_5SFFR4EE3to_ERKN3c1013TensorOptionsE
FNDA:0,_ZN5neml211TensorValueINS_5SSFR5EE3to_ERKN3c1013TensorOptionsE
FNDA:0,_ZN5neml211TensorValueINS_6SSSSR8EE3to_ERKN3c1013TensorOptionsE
FNDA:0,_ZN5neml211TensorValueINS_6ScalarEE3to_ERKN3c1013TensorOptionsE
FNDA:0,_ZN5neml211TensorValueINS_6TensorEE3to_ERKN3c1013TensorOptionsE
FNDA:0,_ZN5neml211TensorValueINS_10QuaternionEE14requires_grad_Eb
FNDA:0,_ZN5neml211TensorValueINS_11MillerIndexEE14requires_grad_Eb
FNDA:0,_ZN5neml211TensorValueINS_2R2EE14requires_grad_Eb
FNDA:0,_ZN5neml211TensorValueINS_2R3EE14requires_grad_Eb
FNDA:0,_ZN5neml211TensorValueINS_2R4EE14requires_grad_Eb
FNDA:0,_ZN5neml211TensorValueINS_2R5EE14requires_grad_Eb
FNDA:0,_ZN5neml211TensorValueINS_2R8EE14requires_grad_Eb
FNDA:0,_ZN5neml211TensorValueINS_3RotEE14requires_grad_Eb
FNDA:1,_ZN5neml211TensorValueINS_3SR2EE14requires_grad_Eb
FNDA:0,_ZN5neml211TensorValueINS_3VecEE14requires_grad_Eb
FNDA:0,_ZN5neml211TensorValueINS_3WR2EE14requires_grad_Eb
FNDA:0,_ZN5neml211TensorValueINS_4SFR3EE14requires_grad_Eb
FNDA:0,_ZN5neml211TensorValueINS_4SFR4EE14requires_grad_Eb
FNDA:3,_ZN5neml211TensorValueINS_4SSR4EE14requires_grad_Eb
FNDA:0,_ZN5neml211TensorValueINS_4SWR4EE14requires_grad_Eb
FNDA:0,_ZN5neml211TensorValueINS_4WFR4EE14requires_grad_Eb
FNDA:0,_ZN5neml211TensorValueINS_4WSR4EE14requires_grad_Eb
FNDA:0,_ZN5neml211TensorValueINS_4WWR4EE14requires_grad_Eb
FNDA:0,_ZN5neml211TensorValueINS_5SFFR4EE14requires_grad_Eb
FNDA:0,_ZN5neml211TensorValueINS_5SSFR5EE14requires_grad_Eb
FNDA:0,_ZN5neml211TensorValueINS_6SSSSR8EE14requires_grad_Eb
FNDA:73,_ZN5neml211TensorValueINS_6ScalarEE14requires_grad_Eb
FNDA:0,_ZN5neml211TensorValueINS_6TensorEE14requires_grad_Eb
FNDA:0,_ZNK5neml211TensorValueINS_10QuaternionEEcvNS_6TensorEEv
FNDA:140174,_ZNK5neml211TensorValueINS_11MillerIndexEEcvNS_6TensorEEv
FNDA:70090,_ZNK5neml211TensorValueINS_2R2EEcvNS_6TensorEEv
FNDA:0,_ZNK5neml211TensorValueINS_2R3EEcvNS_6TensorEEv
FNDA:0,_ZNK5neml211TensorValueINS_2R4EEcvNS_6TensorEEv
FNDA:0,_ZNK5neml211TensorValueINS_2R5EEcvNS_6TensorEEv
FNDA:0,_ZNK5neml211TensorValueINS_2R8EEcvNS_6TensorEEv
FNDA:0,_ZNK5neml211TensorValueINS_3RotEEcvNS_6TensorEEv
FNDA:70714,_ZNK5neml211TensorValueINS_3SR2EEcvNS_6TensorEEv
FNDA:280360,_ZNK5neml211TensorValueINS_3VecEEcvNS_6TensorEEv
FNDA:70090,_ZNK5neml211TensorValueINS_3WR2EEcvNS_6TensorEEv
FNDA:0,_ZNK5neml211TensorValueINS_4SFR3EEcvNS_6TensorEEv
FNDA:0,_ZNK5neml211TensorValueINS_4SFR4EEcvNS_6TensorEEv
FNDA:2596,_ZNK5neml211TensorValueINS_4SSR4EEcvNS_6TensorEEv
FNDA:0,_ZNK5neml211TensorValueINS_4SWR4EEcvNS_6TensorEEv
FNDA:0,_ZNK5neml211TensorValueINS_4WFR4EEcvNS_6TensorEEv
FNDA:0,_ZNK5neml211TensorValueINS_4WSR4EEcvNS_6TensorEEv
FNDA:0,_ZNK5neml211TensorValueINS_4WWR4EEcvNS_6TensorEEv
FNDA:0,_ZNK5neml211TensorValueINS_5SFFR4EEcvNS_6TensorEEv
FNDA:0,_ZNK5neml211TensorValueINS_5SSFR5EEcvNS_6TensorEEv
FNDA:0,_ZNK5neml211TensorValueINS_6SSSSR8EEcvNS_6TensorEEv
FNDA:3294901,_ZNK5neml211TensorValueINS_6ScalarEEcvNS_6TensorEEv
FNDA:0,_ZNK5neml211TensorValueINS_6TensorEEcvS1_Ev
FNDA:0,_ZN5neml211TensorValueINS_10QuaternionEEaSERKNS_6TensorE
FNDA:0,_ZN5neml211TensorValueINS_11MillerIndexEEaSERKNS_6TensorE
FNDA:0,_ZN5neml211TensorValueINS_2R2EEaSERKNS_6TensorE
FNDA:0,_ZN5neml211TensorValueINS_2R3EEaSERKNS_6TensorE
FNDA:0,_ZN5neml211TensorValueINS_2R4EEaSERKNS_6TensorE
FNDA:0,_ZN5neml211TensorValueINS_2R5EEaSERKNS_6TensorE
FNDA:0,_ZN5neml211TensorValueINS_2R8EEaSERKNS_6TensorE
FNDA:0,_ZN5neml211TensorValueINS_3RotEEaSERKNS_6TensorE
FNDA:28,_ZN5neml211TensorValueINS_3SR2EEaSERKNS_6TensorE
FNDA:0,_ZN5neml211TensorValueINS_3VecEEaSERKNS_6TensorE
FNDA:0,_ZN5neml211TensorValueINS_3WR2EEaSERKNS_6TensorE
FNDA:0,_ZN5neml211TensorValueINS_4SFR3EEaSERKNS_6TensorE
FNDA:0,_ZN5neml211TensorValueINS_4SFR4EEaSERKNS_6TensorE
FNDA:228,_ZN5neml211TensorValueINS_4SSR4EEaSERKNS_6TensorE
FNDA:0,_ZN5neml211TensorValueINS_4SWR4EEaSERKNS_6TensorE
FNDA:0,_ZN5neml211TensorValueINS_4WFR4EEaSERKNS_6TensorE
FNDA:0,_ZN5neml211TensorValueINS_4WSR4EEaSERKNS_6TensorE
FNDA:0,_ZN5neml211TensorValueINS_4WWR4EEaSERKNS_6TensorE
FNDA:0,_ZN5neml211TensorValueINS_5SFFR4EEaSERKNS_6TensorE
FNDA:0,_ZN5neml211TensorValueINS_5SSFR5EEaSERKNS_6TensorE
FNDA:0,_ZN5neml211TensorValueINS_6SSSSR8EEaSERKNS_6TensorE
FNDA:828,_ZN5neml211TensorValueINS_6ScalarEEaSERKNS_6TensorE
FNDA:0,_ZN5neml211TensorValueINS_6TensorEEaSERKS1_
FNDA:0,_ZNK5neml211TensorValueINS_10QuaternionEE4typeEv
FNDA:0,_ZNK5neml211TensorValueINS_11MillerIndexEE4typeEv
FNDA:0,_ZNK5neml211TensorValueINS_2R2EE4typeEv
FNDA:0,_ZNK5neml211TensorValueINS_2R3EE4typeEv
FNDA:0,_ZNK5neml211TensorValueINS_2R4EE4typeEv
FNDA:0,_ZNK5neml211TensorValueINS_2R5EE4typeEv
FNDA:0,_ZNK5neml211TensorValueINS_2R8EE4typeEv
FNDA:0,_ZNK5neml211TensorValueINS_3RotEE4typeEv
FNDA:0,_ZNK5neml211TensorValueINS_3SR2EE4typeEv
FNDA:0,_ZNK5neml211TensorValueINS_3VecEE4typeEv
FNDA:0,_ZNK5neml211TensorValueINS_3WR2EE4typeEv
FNDA:0,_ZNK5neml211TensorValueINS_4SFR3EE4typeEv
FNDA:0,_ZNK5neml211TensorValueINS_4SFR4EE4typeEv
FNDA:0,_ZNK5neml211TensorValueINS_4SSR4EE4typeEv
FNDA:0,_ZNK5neml211TensorValueINS_4SWR4EE4typeEv
FNDA:0,_ZNK5neml211TensorValueINS_4WFR4EE4typeEv
FNDA:0,_ZNK5neml211TensorValueINS_4WSR4EE4typeEv
FNDA:0,_ZNK5neml211TensorValueINS_4WWR4EE4typeEv
FNDA:0,_ZNK5neml211TensorValueINS_5SFFR4EE4typeEv
FNDA:0,_ZNK5neml211TensorValueINS_5SSFR5EE4typeEv
FNDA:0,_ZNK5neml211TensorValueINS_6SSSSR8EE4typeEv
FNDA:2,_ZNK5neml211TensorValueINS_6ScalarEE4typeEv
FNDA:0,_ZNK5neml211TensorValueINS_6TensorEE4typeEv
FNF:115
FNH:14
DA:32,0
DA:34,0
DA:35,0
DA:39,77
DA:41,77
DA:42,77
DA:45,3928925
DA:47,3928925
DA:52,1084
DA:54,1084
DA:55,1084
DA:59,2
DA:61,2
LF:13
LH:10
end_of_record
TN:
SF:/home/runner/work/neml2/neml2/src/neml2/tensors/Transformable.cxx
FN:33,36,_ZN5neml225transform_from_quaternionERKNS_10QuaternionE
FN:39,42,_ZN5neml218identity_transformERKN3c1013TensorOptionsE
FN:45,48,_ZN5neml225proper_rotation_transformERKNS_3RotE
FN:51,55,_ZN5neml227improper_rotation_transformERKNS_3RotE
FN:58,61,_ZN5neml220reflection_transformERKNS_3VecE
FN:64,67,_ZN5neml219inversion_transformERKN3c1013TensorOptionsE
FNDA:91,_ZN5neml225transform_from_quaternionERKNS_10QuaternionE
FNDA:2,_ZN5neml218identity_transformERKN3c1013TensorOptionsE
FNDA:2,_ZN5neml225proper_rotation_transformERKNS_3RotE
FNDA:3,_ZN5neml227improper_rotation_transformERKNS_3RotE
FNDA:0,_ZN5neml220reflection_transformERKNS_3VecE
FNDA:2,_ZN5neml219inversion_transformERKN3c1013TensorOptionsE
FNF:6
FNH:5
DA:33,91
DA:35,91
DA:39,2
DA:41,2
DA:45,2
DA:47,2
DA:51,3
DA:53,3
DA:54,6
DA:55,3
DA:58,0
DA:60,0
DA:64,2
DA:66,4
LF:14
LH:12
end_of_record
TN:
SF:/home/runner/work/neml2/neml2/src/neml2/tensors/Vec.cxx
FN:36,39,_ZN5neml23VecC2ERKNS_3RotE
FN:42,45,_ZN5neml23Vec12identity_mapERKN3c1013TensorOptionsE
FN:48,51,_ZNK5neml23Vec3dotERKS0_
FN:54,57,_ZNK5neml23Vec5crossERKS0_
FN:60,63,_ZNK5neml23Vec5outerERKS0_
FN:66,69,_ZNK5neml23Vec9transformERKNS_2R2E
FNDA:638,_ZN5neml23VecC2ERKNS_3RotE
FNDA:2,_ZN5neml23Vec12identity_mapERKN3c1013TensorOptionsE
FNDA:478,_ZNK5neml23Vec3dotERKS0_
FNDA:461,_ZNK5neml23Vec5crossERKS0_
FNDA:101,_ZNK5neml23Vec5outerERKS0_
FNDA:8,_ZNK5neml23Vec9transformERKNS_2R2E
FNF:6
FNH:6
DA:36,638
DA:37,638
DA:39,638
DA:42,2
DA:44,2
DA:48,478
DA:50,478
DA:54,461
DA:56,461
DA:60,101
DA:62,101
DA:66,8
DA:68,8
LF:13
LH:13
end_of_record
TN:
SF:/home/runner/work/neml2/neml2/src/neml2/tensors/VecBase.cxx
FN:100,104,_ZNK5neml27VecBaseINS_3RotEE7drotateERKNS_2R2E
FN:100,104,_ZNK5neml27VecBaseINS_3VecEE7drotateERKNS_2R2E
FN:100,104,_ZNK5neml27VecBaseINS_3WR2EE7drotateERKNS_2R2E
FN:34,40,_ZN5neml27VecBaseINS_3RotEE4fillERKdS4_S4_RKN3c1013TensorOptionsE
FN:34,40,_ZN5neml27VecBaseINS_3VecEE4fillERKdS4_S4_RKN3c1013TensorOptionsE
FN:34,40,_ZN5neml27VecBaseINS_3WR2EE4fillERKdS4_S4_RKN3c1013TensorOptionsE
FN:44,47,_ZN5neml27VecBaseINS_3RotEE4fillERKNS_6ScalarES5_S5_
FN:44,47,_ZN5neml27VecBaseINS_3VecEE4fillERKNS_6ScalarES5_S5_
FN:44,47,_ZN5neml27VecBaseINS_3WR2EE4fillERKNS_6ScalarES5_S5_
FN:51,54,_ZN5neml27VecBaseINS_3RotEE12identity_mapERKN3c1013TensorOptionsE
FN:51,54,_ZN5neml27VecBaseINS_3VecEE12identity_mapERKN3c1013TensorOptionsE
FN:51,54,_ZN5neml27VecBaseINS_3WR2EE12identity_mapERKN3c1013TensorOptionsE
FN:58,61,_ZNK5neml27VecBaseINS_3RotEEclEl
FN:58,61,_ZNK5neml27VecBaseINS_3VecEEclEl
FN:58,61,_ZNK5neml27VecBaseINS_3WR2EEclEl
FN:65,68,_ZNK5neml27VecBaseINS_3RotEE7norm_sqEv
FN:65,68,_ZNK5neml27VecBaseINS_3VecEE7norm_sqEv
FN:65,68,_ZNK5neml27VecBaseINS_3WR2EE7norm_sqEv
FN:72,75,_ZNK5neml27VecBaseINS_3RotEE4normEv
FN:72,75,_ZNK5neml27VecBaseINS_3VecEE4normEv
FN:72,75,_ZNK5neml27VecBaseINS_3WR2EE4normEv
FN:79,82,_ZNK5neml27VecBaseINS_3RotEE6rotateERKS1_
FN:79,82,_ZNK5neml27VecBaseINS_3VecEE6rotateERKNS_3RotE
FN:79,82,_ZNK5neml27VecBaseINS_3WR2EE6rotateERKNS_3RotE
FN:86,89,_ZNK5neml27VecBaseINS_3RotEE6rotateERKNS_2R2E
FN:86,89,_ZNK5neml27VecBaseINS_3VecEE6rotateERKNS_2R2E
FN:86,89,_ZNK5neml27VecBaseINS_3WR2EE6rotateERKNS_2R2E
FN:93,96,_ZNK5neml27VecBaseINS_3RotEE7drotateERKS1_
FN:93,96,_ZNK5neml27VecBaseINS_3VecEE7drotateERKNS_3RotE
FN:93,96,_ZNK5neml27VecBaseINS_3WR2EE7drotateERKNS_3RotE
FNDA:0,_ZNK5neml27VecBaseINS_3RotEE7drotateERKNS_2R2E
FNDA:0,_ZNK5neml27VecBaseINS_3VecEE7drotateERKNS_2R2E
FNDA:7,_ZNK5neml27VecBaseINS_3WR2EE7drotateERKNS_2R2E
FNDA:87,_ZN5neml27VecBaseINS_3RotEE4fillERKdS4_S4_RKN3c1013TensorOptionsE
FNDA:39,_ZN5neml27VecBaseINS_3VecEE4fillERKdS4_S4_RKN3c1013TensorOptionsE
FNDA:26,_ZN5neml27VecBaseINS_3WR2EE4fillERKdS4_S4_RKN3c1013TensorOptionsE
FNDA:103,_ZN5neml27VecBaseINS_3RotEE4fillERKNS_6ScalarES5_S5_
FNDA:41,_ZN5neml27VecBaseINS_3VecEE4fillERKNS_6ScalarES5_S5_
FNDA:38,_ZN5neml27VecBaseINS_3WR2EE4fillERKNS_6ScalarES5_S5_
FNDA:0,_ZN5neml27VecBaseINS_3RotEE12identity_mapERKN3c1013TensorOptionsE
FNDA:0,_ZN5neml27VecBaseINS_3VecEE12identity_mapERKN3c1013TensorOptionsE
FNDA:1,_ZN5neml27VecBaseINS_3WR2EE12identity_mapERKN3c1013TensorOptionsE
FNDA:0,_ZNK5neml27VecBaseINS_3RotEEclEl
FNDA:2131,_ZNK5neml27VecBaseINS_3VecEEclEl
FNDA:0,_ZNK5neml27VecBaseINS_3WR2EEclEl
FNDA:407,_ZNK5neml27VecBaseINS_3RotEE7norm_sqEv
FNDA:1341,_ZNK5neml27VecBaseINS_3VecEE7norm_sqEv
FNDA:34,_ZNK5neml27VecBaseINS_3WR2EE7norm_sqEv
FNDA:5,_ZNK5neml27VecBaseINS_3RotEE4normEv
FNDA:1339,_ZNK5neml27VecBaseINS_3VecEE4normEv
FNDA:0,_ZNK5neml27VecBaseINS_3WR2EE4normEv
FNDA:0,_ZNK5neml27VecBaseINS_3RotEE6rotateERKS1_
FNDA:13,_ZNK5neml27VecBaseINS_3VecEE6rotateERKNS_3RotE
FNDA:6,_ZNK5neml27VecBaseINS_3WR2EE6rotateERKNS_3RotE
FNDA:0,_ZNK5neml27VecBaseINS_3RotEE6rotateERKNS_2R2E
FNDA:13,_ZNK5neml27VecBaseINS_3VecEE6rotateERKNS_2R2E
FNDA:25,_ZNK5neml27VecBaseINS_3WR2EE6rotateERKNS_2R2E
FNDA:0,_ZNK5neml27VecBaseINS_3RotEE7drotateERKS1_
FNDA:4,_ZNK5neml27VecBaseINS_3VecEE7drotateERKNS_3RotE
FNDA:2,_ZNK5neml27VecBaseINS_3WR2EE7drotateERKNS_3RotE
FNF:30
FNH:20
DA:34,152
DA:39,152
DA:44,182
DA:46,910
DA:47,182
DA:51,1
DA:53,1
DA:58,2131
DA:60,6393
DA:61,2131
DA:65,1782
DA:67,1782
DA:72,1344
DA:74,1344
DA:79,19
DA:81,19
DA:86,38
DA:88,38
DA:93,6
DA:95,30
DA:96,12
DA:100,7
DA:102,7
DA:103,35
DA:104,14
LF:25
LH:25
end_of_record
TN:
SF:/home/runner/work/neml2/neml2/src/neml2/tensors/WR2.cxx
FN:41,44,_ZN5neml23WR2C2ERKNS_2R2E
FN:47,51,_ZNK5neml23WR2clEll
FN:54,76,_ZNK5neml23WR23expEv
FN:79,97,_ZNK5neml23WR24dexpEv
FNDA:46,_ZN5neml23WR2C2ERKNS_2R2E
FNDA:9,_ZNK5neml23WR2clEll
FNDA:24,_ZNK5neml23WR23expEv
FNDA:10,_ZNK5neml23WR24dexpEv
FNF:4
FNH:4
DA:41,46
DA:42,46
DA:44,46
DA:47,9
DA:49,9
DA:50,27
DA:51,9
DA:54,24
DA:64,24
DA:67,24
DA:70,24
DA:73,24
DA:75,48
DA:76,24
DA:79,10
DA:82,10
DA:83,10
DA:85,20
DA:86,30
DA:88,10
DA:89,20
DA:90,20
DA:91,20
DA:92,30
DA:94,10
DA:96,20
DA:97,10
LF:27
LH:27
end_of_record
TN:
SF:/home/runner/work/neml2/neml2/src/neml2/tensors/WSR4.cxx
FN:32,35,_ZN5neml24WSR4C2ERKNS_2R4E
FNDA:6,_ZN5neml24WSR4C2ERKNS_2R4E
FNF:1
FNH:1
DA:32,6
DA:33,6
DA:35,6
LF:3
LH:3
end_of_record
TN:
SF:/home/runner/work/neml2/neml2/src/neml2/tensors/WWR4.cxx
FN:32,36,_ZN5neml24WWR4C2ERKNS_2R4E
FN:39,42,_ZN5neml24WWR48identityERKN3c1013TensorOptionsE
FNDA:2,_ZN5neml24WWR4C2ERKNS_2R4E
FNDA:4,_ZN5neml24WWR48identityERKN3c1013TensorOptionsE
FNF:2
FNH:2
DA:32,2
DA:33,4
DA:34,6
DA:36,2
DA:39,4
DA:41,4
LF:6
LH:6
end_of_record
TN:
SF:/home/runner/work/neml2/neml2/src/neml2/tensors/crystallography.cxx
FN:127,151,_ZN5neml215crystallography20unique_bidirectionalERKNS_2R2ERKNS_3VecE
FN:141,142,_ZZN5neml215crystallography20unique_bidirectionalERKNS_2R2ERKNS_3VecEENKUlRKN2at6TensorESA_E_clESA_SA_
FN:37,48,_ZN5neml215crystallography26crystal_symmetry_operators10tetragonalERKN3c1013TensorOptionsE
FN:51,66,_ZN5neml215crystallography26crystal_symmetry_operators9hexagonalERKN3c1013TensorOptionsE
FN:69,78,_ZN5neml215crystallography26crystal_symmetry_operators5cubicERKN3c1013TensorOptionsE
FN:82,124,_ZN5neml215crystallography33symmetry_operations_from_orbifoldERKSsRKN3c1013TensorOptionsE
FNDA:70,_ZN5neml215crystallography20unique_bidirectionalERKNS_2R2ERKNS_3VecE
FNDA:2730,_ZZN5neml215crystallography20unique_bidirectionalERKNS_2R2ERKNS_3VecEENKUlRKN2at6TensorESA_E_clESA_SA_
FNDA:24,_ZN5neml215crystallography26crystal_symmetry_operators10tetragonalERKN3c1013TensorOptionsE
FNDA:20,_ZN5neml215crystallography26crystal_symmetry_operators9hexagonalERKN3c1013TensorOptionsE
FNDA:54,_ZN5neml215crystallography26crystal_symmetry_operators5cubicERKN3c1013TensorOptionsE
FNDA:90,_ZN5neml215crystallography33symmetry_operations_from_orbifoldERKSsRKN3c1013TensorOptionsE
FNF:6
FNH:6
DA:37,24
DA:39,1008
DA:47,264
DA:48,816
DA:51,20
DA:53,1240
DA:65,300
DA:66,1000
DA:69,54
DA:71,6588
DA:77,1458
DA:78,5292
DA:82,90
DA:86,90
DA:87,50
DA:89,40
DA:90,16
DA:92,36
DA:93,4
DA:95,32
DA:97,28
DA:98,24
DA:100,28
DA:101,16
DA:103,24
DA:104,16
DA:106,20
DA:107,4
DA:109,16
DA:111,28
DA:112,24
DA:114,12
DA:115,16
DA:117,8
DA:118,16
DA:120,4
DA:121,16
DA:123,0
DA:124,120
DA:127,70
DA:129,70
DA:131,70
DA:135,350
DA:136,70
DA:137,1680
DA:139,3220
DA:141,2730
DA:142,2730
DA:143,1610
DA:145,280
DA:146,280
DA:148,1610
DA:150,140
DA:151,1820
LF:54
LH:53
end_of_record
TN:
SF:/home/runner/work/neml2/neml2/src/neml2/tensors/functions/abs.cxx
FN:33,33,_ZN5neml23absERKNS_10QuaternionE
FN:33,33,_ZN5neml23absERKNS_11MillerIndexE
FN:33,33,_ZN5neml23absERKNS_2R2E
FN:33,33,_ZN5neml23absERKNS_2R3E
FN:33,33,_ZN5neml23absERKNS_2R4E
FN:33,33,_ZN5neml23absERKNS_2R5E
FN:33,33,_ZN5neml23absERKNS_2R8E
FN:33,33,_ZN5neml23absERKNS_3RotE
FN:33,33,_ZN5neml23absERKNS_3SR2E
FN:33,33,_ZN5neml23absERKNS_3VecE
FN:33,33,_ZN5neml23absERKNS_3WR2E
FN:33,33,_ZN5neml23absERKNS_4SFR3E
FN:33,33,_ZN5neml23absERKNS_4SFR4E
FN:33,33,_ZN5neml23absERKNS_4SSR4E
FN:33,33,_ZN5neml23absERKNS_4SWR4E
FN:33,33,_ZN5neml23absERKNS_4WFR4E
FN:33,33,_ZN5neml23absERKNS_4WSR4E
FN:33,33,_ZN5neml23absERKNS_4WWR4E
FN:33,33,_ZN5neml23absERKNS_5SFFR4E
FN:33,33,_ZN5neml23absERKNS_5SSFR5E
FN:33,33,_ZN5neml23absERKNS_6SSSSR8E
FN:33,33,_ZN5neml23absERKNS_6ScalarE
FN:33,33,_ZN5neml23absERKNS_6TensorE
FNDA:0,_ZN5neml23absERKNS_10QuaternionE
FNDA:0,_ZN5neml23absERKNS_11MillerIndexE
FNDA:0,_ZN5neml23absERKNS_2R2E
FNDA:0,_ZN5neml23absERKNS_2R3E
FNDA:0,_ZN5neml23absERKNS_2R4E
FNDA:0,_ZN5neml23absERKNS_2R5E
FNDA:0,_ZN5neml23absERKNS_2R8E
FNDA:0,_ZN5neml23absERKNS_3RotE
FNDA:0,_ZN5neml23absERKNS_3SR2E
FNDA:0,_ZN5neml23absERKNS_3VecE
FNDA:0,_ZN5neml23absERKNS_3WR2E
FNDA:0,_ZN5neml23absERKNS_4SFR3E
FNDA:0,_ZN5neml23absERKNS_4SFR4E
FNDA:0,_ZN5neml23absERKNS_4SSR4E
FNDA:0,_ZN5neml23absERKNS_4SWR4E
FNDA:0,_ZN5neml23absERKNS_4WFR4E
FNDA:0,_ZN5neml23absERKNS_4WSR4E
FNDA:0,_ZN5neml23absERKNS_4WWR4E
FNDA:0,_ZN5neml23absERKNS_5SFFR4E
FNDA:0,_ZN5neml23absERKNS_5SSFR5E
FNDA:0,_ZN5neml23absERKNS_6SSSSR8E
FNDA:45,_ZN5neml23absERKNS_6ScalarE
FNDA:1846,_ZN5neml23absERKNS_6TensorE
FNF:23
FNH:2
DA:33,3782
LF:1
LH:1
end_of_record
TN:
SF:/home/runner/work/neml2/neml2/src/neml2/tensors/functions/acos.cxx
FN:33,33,_ZN5neml24acosERKNS_10QuaternionE
FN:33,33,_ZN5neml24acosERKNS_11MillerIndexE
FN:33,33,_ZN5neml24acosERKNS_2R2E
FN:33,33,_ZN5neml24acosERKNS_2R3E
FN:33,33,_ZN5neml24acosERKNS_2R4E
FN:33,33,_ZN5neml24acosERKNS_2R5E
FN:33,33,_ZN5neml24acosERKNS_2R8E
FN:33,33,_ZN5neml24acosERKNS_3RotE
FN:33,33,_ZN5neml24acosERKNS_3SR2E
FN:33,33,_ZN5neml24acosERKNS_3VecE
FN:33,33,_ZN5neml24acosERKNS_3WR2E
FN:33,33,_ZN5neml24acosERKNS_4SFR3E
FN:33,33,_ZN5neml24acosERKNS_4SFR4E
FN:33,33,_ZN5neml24acosERKNS_4SSR4E
FN:33,33,_ZN5neml24acosERKNS_4SWR4E
FN:33,33,_ZN5neml24acosERKNS_4WFR4E
FN:33,33,_ZN5neml24acosERKNS_4WSR4E
FN:33,33,_ZN5neml24acosERKNS_4WWR4E
FN:33,33,_ZN5neml24acosERKNS_5SFFR4E
FN:33,33,_ZN5neml24acosERKNS_5SSFR5E
FN:33,33,_ZN5neml24acosERKNS_6SSSSR8E
FN:33,33,_ZN5neml24acosERKNS_6ScalarE
FN:33,33,_ZN5neml24acosERKNS_6TensorE
FNDA:0,_ZN5neml24acosERKNS_10QuaternionE
FNDA:0,_ZN5neml24acosERKNS_11MillerIndexE
FNDA:0,_ZN5neml24acosERKNS_2R2E
FNDA:0,_ZN5neml24acosERKNS_2R3E
FNDA:0,_ZN5neml24acosERKNS_2R4E
FNDA:0,_ZN5neml24acosERKNS_2R5E
FNDA:0,_ZN5neml24acosERKNS_2R8E
FNDA:0,_ZN5neml24acosERKNS_3RotE
FNDA:0,_ZN5neml24acosERKNS_3SR2E
FNDA:0,_ZN5neml24acosERKNS_3VecE
FNDA:0,_ZN5neml24acosERKNS_3WR2E
FNDA:0,_ZN5neml24acosERKNS_4SFR3E
FNDA:0,_ZN5neml24acosERKNS_4SFR4E
FNDA:0,_ZN5neml24acosERKNS_4SSR4E
FNDA:0,_ZN5neml24acosERKNS_4SWR4E
FNDA:0,_ZN5neml24acosERKNS_4WFR4E
FNDA:0,_ZN5neml24acosERKNS_4WSR4E
FNDA:0,_ZN5neml24acosERKNS_4WWR4E
FNDA:0,_ZN5neml24acosERKNS_5SFFR4E
FNDA:0,_ZN5neml24acosERKNS_5SSFR5E
FNDA:0,_ZN5neml24acosERKNS_6SSSSR8E
FNDA:6,_ZN5neml24acosERKNS_6ScalarE
FNDA:0,_ZN5neml24acosERKNS_6TensorE
FNF:23
FNH:1
DA:33,12
LF:1
LH:1
end_of_record
TN:
SF:/home/runner/work/neml2/neml2/src/neml2/tensors/functions/asin.cxx
FN:33,33,_ZN5neml24asinERKNS_10QuaternionE
FN:33,33,_ZN5neml24asinERKNS_11MillerIndexE
FN:33,33,_ZN5neml24asinERKNS_2R2E
FN:33,33,_ZN5neml24asinERKNS_2R3E
FN:33,33,_ZN5neml24asinERKNS_2R4E
FN:33,33,_ZN5neml24asinERKNS_2R5E
FN:33,33,_ZN5neml24asinERKNS_2R8E
FN:33,33,_ZN5neml24asinERKNS_3RotE
FN:33,33,_ZN5neml24asinERKNS_3SR2E
FN:33,33,_ZN5neml24asinERKNS_3VecE
FN:33,33,_ZN5neml24asinERKNS_3WR2E
FN:33,33,_ZN5neml24asinERKNS_4SFR3E
FN:33,33,_ZN5neml24asinERKNS_4SFR4E
FN:33,33,_ZN5neml24asinERKNS_4SSR4E
FN:33,33,_ZN5neml24asinERKNS_4SWR4E
FN:33,33,_ZN5neml24asinERKNS_4WFR4E
FN:33,33,_ZN5neml24asinERKNS_4WSR4E
FN:33,33,_ZN5neml24asinERKNS_4WWR4E
FN:33,33,_ZN5neml24asinERKNS_5SFFR4E
FN:33,33,_ZN5neml24asinERKNS_5SSFR5E
FN:33,33,_ZN5neml24asinERKNS_6SSSSR8E
FN:33,33,_ZN5neml24asinERKNS_6ScalarE
FN:33,33,_ZN5neml24asinERKNS_6TensorE
FNDA:0,_ZN5neml24asinERKNS_10QuaternionE
FNDA:0,_ZN5neml24asinERKNS_11MillerIndexE
FNDA:0,_ZN5neml24asinERKNS_2R2E
FNDA:0,_ZN5neml24asinERKNS_2R3E
FNDA:0,_ZN5neml24asinERKNS_2R4E
FNDA:0,_ZN5neml24asinERKNS_2R5E
FNDA:0,_ZN5neml24asinERKNS_2R8E
FNDA:0,_ZN5neml24asinERKNS_3RotE
FNDA:0,_ZN5neml24asinERKNS_3SR2E
FNDA:0,_ZN5neml24asinERKNS_3VecE
FNDA:0,_ZN5neml24asinERKNS_3WR2E
FNDA:0,_ZN5neml24asinERKNS_4SFR3E
FNDA:0,_ZN5neml24asinERKNS_4SFR4E
FNDA:0,_ZN5neml24asinERKNS_4SSR4E
FNDA:0,_ZN5neml24asinERKNS_4SWR4E
FNDA:0,_ZN5neml24asinERKNS_4WFR4E
FNDA:0,_ZN5neml24asinERKNS_4WSR4E
FNDA:0,_ZN5neml24asinERKNS_4WWR4E
FNDA:0,_ZN5neml24asinERKNS_5SFFR4E
FNDA:0,_ZN5neml24asinERKNS_5SSFR5E
FNDA:0,_ZN5neml24asinERKNS_6SSSSR8E
FNDA:0,_ZN5neml24asinERKNS_6ScalarE
FNDA:0,_ZN5neml24asinERKNS_6TensorE
FNF:23
FNH:0
DA:33,0
LF:1
LH:0
end_of_record
TN:
SF:/home/runner/work/neml2/neml2/src/neml2/tensors/functions/atan.cxx
FN:33,33,_ZN5neml24atanERKNS_10QuaternionE
FN:33,33,_ZN5neml24atanERKNS_11MillerIndexE
FN:33,33,_ZN5neml24atanERKNS_2R2E
FN:33,33,_ZN5neml24atanERKNS_2R3E
FN:33,33,_ZN5neml24atanERKNS_2R4E
FN:33,33,_ZN5neml24atanERKNS_2R5E
FN:33,33,_ZN5neml24atanERKNS_2R8E
FN:33,33,_ZN5neml24atanERKNS_3RotE
FN:33,33,_ZN5neml24atanERKNS_3SR2E
FN:33,33,_ZN5neml24atanERKNS_3VecE
FN:33,33,_ZN5neml24atanERKNS_3WR2E
FN:33,33,_ZN5neml24atanERKNS_4SFR3E
FN:33,33,_ZN5neml24atanERKNS_4SFR4E
FN:33,33,_ZN5neml24atanERKNS_4SSR4E
FN:33,33,_ZN5neml24atanERKNS_4SWR4E
FN:33,33,_ZN5neml24atanERKNS_4WFR4E
FN:33,33,_ZN5neml24atanERKNS_4WSR4E
FN:33,33,_ZN5neml24atanERKNS_4WWR4E
FN:33,33,_ZN5neml24atanERKNS_5SFFR4E
FN:33,33,_ZN5neml24atanERKNS_5SSFR5E
FN:33,33,_ZN5neml24atanERKNS_6SSSSR8E
FN:33,33,_ZN5neml24atanERKNS_6ScalarE
FN:33,33,_ZN5neml24atanERKNS_6TensorE
FNDA:0,_ZN5neml24atanERKNS_10QuaternionE
FNDA:0,_ZN5neml24atanERKNS_11MillerIndexE
FNDA:0,_ZN5neml24atanERKNS_2R2E
FNDA:0,_ZN5neml24atanERKNS_2R3E
FNDA:0,_ZN5neml24atanERKNS_2R4E
FNDA:0,_ZN5neml24atanERKNS_2R5E
FNDA:0,_ZN5neml24atanERKNS_2R8E
FNDA:0,_ZN5neml24atanERKNS_3RotE
FNDA:0,_ZN5neml24atanERKNS_3SR2E
FNDA:0,_ZN5neml24atanERKNS_3VecE
FNDA:0,_ZN5neml24atanERKNS_3WR2E
FNDA:0,_ZN5neml24atanERKNS_4SFR3E
FNDA:0,_ZN5neml24atanERKNS_4SFR4E
FNDA:0,_ZN5neml24atanERKNS_4SSR4E
FNDA:0,_ZN5neml24atanERKNS_4SWR4E
FNDA:0,_ZN5neml24atanERKNS_4WFR4E
FNDA:0,_ZN5neml24atanERKNS_4WSR4E
FNDA:0,_ZN5neml24atanERKNS_4WWR4E
FNDA:0,_ZN5neml24atanERKNS_5SFFR4E
FNDA:0,_ZN5neml24atanERKNS_5SSFR5E
FNDA:0,_ZN5neml24atanERKNS_6SSSSR8E
FNDA:0,_ZN5neml24atanERKNS_6ScalarE
FNDA:0,_ZN5neml24atanERKNS_6TensorE
FNF:23
FNH:0
DA:33,0
LF:1
LH:0
end_of_record
TN:
SF:/home/runner/work/neml2/neml2/src/neml2/tensors/functions/bmm.cxx
FN:32,44,_ZN5neml23bmmERKNS_6TensorES2_
FNDA:925,_ZN5neml23bmmERKNS_6TensorES2_
FNF:1
FNH:1
DA:32,925
DA:34,925
DA:35,925
DA:37,925
DA:39,925
DA:41,925
DA:43,1850
LF:7
LH:7
end_of_record
TN:
SF:/home/runner/work/neml2/neml2/src/neml2/tensors/functions/bmv.cxx
FN:32,44,_ZN5neml23bmvERKNS_6TensorES2_
FNDA:83,_ZN5neml23bmvERKNS_6TensorES2_
FNF:1
FNH:1
DA:32,83
DA:34,83
DA:35,83
DA:37,83
DA:39,83
DA:41,83
DA:43,166
LF:7
LH:7
end_of_record
TN:
SF:/home/runner/work/neml2/neml2/src/neml2/tensors/functions/bvv.cxx
FN:33,36,_ZN5neml23bvvERKNS_6TensorES2_
FNDA:632,_ZN5neml23bvvERKNS_6TensorES2_
FNF:1
FNH:1
DA:33,632
DA:35,632
LF:2
LH:2
end_of_record
TN:
SF:/home/runner/work/neml2/neml2/src/neml2/tensors/functions/cat.cxx
FN:44,44,_ZN5neml29batch_catERKSt16initializer_listINS_10QuaternionEEl
FN:44,44,_ZN5neml29batch_catERKSt16initializer_listINS_11MillerIndexEEl
FN:44,44,_ZN5neml29batch_catERKSt16initializer_listINS_2R2EEl
FN:44,44,_ZN5neml29batch_catERKSt16initializer_listINS_2R3EEl
FN:44,44,_ZN5neml29batch_catERKSt16initializer_listINS_2R4EEl
FN:44,44,_ZN5neml29batch_catERKSt16initializer_listINS_2R5EEl
FN:44,44,_ZN5neml29batch_catERKSt16initializer_listINS_2R8EEl
FN:44,44,_ZN5neml29batch_catERKSt16initializer_listINS_3RotEEl
FN:44,44,_ZN5neml29batch_catERKSt16initializer_listINS_3SR2EEl
FN:44,44,_ZN5neml29batch_catERKSt16initializer_listINS_3VecEEl
FN:44,44,_ZN5neml29batch_catERKSt16initializer_listINS_3WR2EEl
FN:44,44,_ZN5neml29batch_catERKSt16initializer_listINS_4SFR3EEl
FN:44,44,_ZN5neml29batch_catERKSt16initializer_listINS_4SFR4EEl
FN:44,44,_ZN5neml29batch_catERKSt16initializer_listINS_4SSR4EEl
FN:44,44,_ZN5neml29batch_catERKSt16initializer_listINS_4SWR4EEl
FN:44,44,_ZN5neml29batch_catERKSt16initializer_listINS_4WFR4EEl
FN:44,44,_ZN5neml29batch_catERKSt16initializer_listINS_4WSR4EEl
FN:44,44,_ZN5neml29batch_catERKSt16initializer_listINS_4WWR4EEl
FN:44,44,_ZN5neml29batch_catERKSt16initializer_listINS_5SFFR4EEl
FN:44,44,_ZN5neml29batch_catERKSt16initializer_listINS_5SSFR5EEl
FN:44,44,_ZN5neml29batch_catERKSt16initializer_listINS_6SSSSR8EEl
FN:44,44,_ZN5neml29batch_catERKSt16initializer_listINS_6ScalarEEl
FN:44,44,_ZN5neml29batch_catERKSt16initializer_listINS_6TensorEEl
FN:44,44,_ZN5neml29batch_catERKSt6vectorINS_10QuaternionESaIS1_EEl
FN:44,44,_ZN5neml29batch_catERKSt6vectorINS_11MillerIndexESaIS1_EEl
FN:44,44,_ZN5neml29batch_catERKSt6vectorINS_2R2ESaIS1_EEl
FN:44,44,_ZN5neml29batch_catERKSt6vectorINS_2R3ESaIS1_EEl
FN:44,44,_ZN5neml29batch_catERKSt6vectorINS_2R4ESaIS1_EEl
FN:44,44,_ZN5neml29batch_catERKSt6vectorINS_2R5ESaIS1_EEl
FN:44,44,_ZN5neml29batch_catERKSt6vectorINS_2R8ESaIS1_EEl
FN:44,44,_ZN5neml29batch_catERKSt6vectorINS_3RotESaIS1_EEl
FN:44,44,_ZN5neml29batch_catERKSt6vectorINS_3SR2ESaIS1_EEl
FN:44,44,_ZN5neml29batch_catERKSt6vectorINS_3VecESaIS1_EEl
FN:44,44,_ZN5neml29batch_catERKSt6vectorINS_3WR2ESaIS1_EEl
FN:44,44,_ZN5neml29batch_catERKSt6vectorINS_4SFR3ESaIS1_EEl
FN:44,44,_ZN5neml29batch_catERKSt6vectorINS_4SFR4ESaIS1_EEl
FN:44,44,_ZN5neml29batch_catERKSt6vectorINS_4SSR4ESaIS1_EEl
FN:44,44,_ZN5neml29batch_catERKSt6vectorINS_4SWR4ESaIS1_EEl
FN:44,44,_ZN5neml29batch_catERKSt6vectorINS_4WFR4ESaIS1_EEl
FN:44,44,_ZN5neml29batch_catERKSt6vectorINS_4WSR4ESaIS1_EEl
FN:44,44,_ZN5neml29batch_catERKSt6vectorINS_4WWR4ESaIS1_EEl
FN:44,44,_ZN5neml29batch_catERKSt6vectorINS_5SFFR4ESaIS1_EEl
FN:44,44,_ZN5neml29batch_catERKSt6vectorINS_5SSFR5ESaIS1_EEl
FN:44,44,_ZN5neml29batch_catERKSt6vectorINS_6SSSSR8ESaIS1_EEl
FN:44,44,_ZN5neml29batch_catERKSt6vectorINS_6ScalarESaIS1_EEl
FN:44,44,_ZN5neml29batch_catERKSt6vectorINS_6TensorESaIS1_EEl
FN:47,53,_ZN5neml28base_catERKSt6vectorINS_6TensorESaIS1_EEl
FNDA:8,_ZN5neml29batch_catERKSt16initializer_listINS_10QuaternionEEl
FNDA:0,_ZN5neml29batch_catERKSt16initializer_listINS_11MillerIndexEEl
FNDA:0,_ZN5neml29batch_catERKSt16initializer_listINS_2R2EEl
FNDA:0,_ZN5neml29batch_catERKSt16initializer_listINS_2R3EEl
FNDA:0,_ZN5neml29batch_catERKSt16initializer_listINS_2R4EEl
FNDA:0,_ZN5neml29batch_catERKSt16initializer_listINS_2R5EEl
FNDA:0,_ZN5neml29batch_catERKSt16initializer_listINS_2R8EEl
FNDA:0,_ZN5neml29batch_catERKSt16initializer_listINS_3RotEEl
FNDA:0,_ZN5neml29batch_catERKSt16initializer_listINS_3SR2EEl
FNDA:0,_ZN5neml29batch_catERKSt16initializer_listINS_3VecEEl
FNDA:0,_ZN5neml29batch_catERKSt16initializer_listINS_3WR2EEl
FNDA:0,_ZN5neml29batch_catERKSt16initializer_listINS_4SFR3EEl
FNDA:0,_ZN5neml29batch_catERKSt16initializer_listINS_4SFR4EEl
FNDA:0,_ZN5neml29batch_catERKSt16initializer_listINS_4SSR4EEl
FNDA:0,_ZN5neml29batch_catERKSt16initializer_listINS_4SWR4EEl
FNDA:0,_ZN5neml29batch_catERKSt16initializer_listINS_4WFR4EEl
FNDA:0,_ZN5neml29batch_catERKSt16initializer_listINS_4WSR4EEl
FNDA:0,_ZN5neml29batch_catERKSt16initializer_listINS_4WWR4EEl
FNDA:0,_ZN5neml29batch_catERKSt16initializer_listINS_5SFFR4EEl
FNDA:0,_ZN5neml29batch_catERKSt16initializer_listINS_5SSFR5EEl
FNDA:0,_ZN5neml29batch_catERKSt16initializer_listINS_6SSSSR8EEl
FNDA:0,_ZN5neml29batch_catERKSt16initializer_listINS_6ScalarEEl
FNDA:0,_ZN5neml29batch_catERKSt16initializer_listINS_6TensorEEl
FNDA:8,_ZN5neml29batch_catERKSt6vectorINS_10QuaternionESaIS1_EEl
FNDA:0,_ZN5neml29batch_catERKSt6vectorINS_11MillerIndexESaIS1_EEl
FNDA:0,_ZN5neml29batch_catERKSt6vectorINS_2R2ESaIS1_EEl
FNDA:0,_ZN5neml29batch_catERKSt6vectorINS_2R3ESaIS1_EEl
FNDA:0,_ZN5neml29batch_catERKSt6vectorINS_2R4ESaIS1_EEl
FNDA:0,_ZN5neml29batch_catERKSt6vectorINS_2R5ESaIS1_EEl
FNDA:0,_ZN5neml29batch_catERKSt6vectorINS_2R8ESaIS1_EEl
FNDA:0,_ZN5neml29batch_catERKSt6vectorINS_3RotESaIS1_EEl
FNDA:0,_ZN5neml29batch_catERKSt6vectorINS_3SR2ESaIS1_EEl
FNDA:0,_ZN5neml29batch_catERKSt6vectorINS_3VecESaIS1_EEl
FNDA:0,_ZN5neml29batch_catERKSt6vectorINS_3WR2ESaIS1_EEl
FNDA:0,_ZN5neml29batch_catERKSt6vectorINS_4SFR3ESaIS1_EEl
FNDA:0,_ZN5neml29batch_catERKSt6vectorINS_4SFR4ESaIS1_EEl
FNDA:0,_ZN5neml29batch_catERKSt6vectorINS_4SSR4ESaIS1_EEl
FNDA:0,_ZN5neml29batch_catERKSt6vectorINS_4SWR4ESaIS1_EEl
FNDA:0,_ZN5neml29batch_catERKSt6vectorINS_4WFR4ESaIS1_EEl
FNDA:0,_ZN5neml29batch_catERKSt6vectorINS_4WSR4ESaIS1_EEl
FNDA:0,_ZN5neml29batch_catERKSt6vectorINS_4WWR4ESaIS1_EEl
FNDA:0,_ZN5neml29batch_catERKSt6vectorINS_5SFFR4ESaIS1_EEl
FNDA:0,_ZN5neml29batch_catERKSt6vectorINS_5SSFR5ESaIS1_EEl
FNDA:0,_ZN5neml29batch_catERKSt6vectorINS_6SSSSR8ESaIS1_EEl
FNDA:0,_ZN5neml29batch_catERKSt6vectorINS_6ScalarESaIS1_EEl
FNDA:0,_ZN5neml29batch_catERKSt6vectorINS_6TensorESaIS1_EEl
FNDA:6661,_ZN5neml28base_catERKSt6vectorINS_6TensorESaIS1_EEl
FNF:47
FNH:3
DA:44,56
DA:47,6661
DA:49,6661
DA:50,6661
DA:51,6661
DA:52,13322
DA:53,6661
LF:7
LH:7
end_of_record
TN:
SF:/home/runner/work/neml2/neml2/src/neml2/tensors/functions/cbrt.cxx
FN:33,33,_ZN5neml24cbrtERKNS_10QuaternionE
FN:33,33,_ZN5neml24cbrtERKNS_11MillerIndexE
FN:33,33,_ZN5neml24cbrtERKNS_2R2E
FN:33,33,_ZN5neml24cbrtERKNS_2R3E
FN:33,33,_ZN5neml24cbrtERKNS_2R4E
FN:33,33,_ZN5neml24cbrtERKNS_2R5E
FN:33,33,_ZN5neml24cbrtERKNS_2R8E
FN:33,33,_ZN5neml24cbrtERKNS_3RotE
FN:33,33,_ZN5neml24cbrtERKNS_3SR2E
FN:33,33,_ZN5neml24cbrtERKNS_3VecE
FN:33,33,_ZN5neml24cbrtERKNS_3WR2E
FN:33,33,_ZN5neml24cbrtERKNS_4SFR3E
FN:33,33,_ZN5neml24cbrtERKNS_4SFR4E
FN:33,33,_ZN5neml24cbrtERKNS_4SSR4E
FN:33,33,_ZN5neml24cbrtERKNS_4SWR4E
FN:33,33,_ZN5neml24cbrtERKNS_4WFR4E
FN:33,33,_ZN5neml24cbrtERKNS_4WSR4E
FN:33,33,_ZN5neml24cbrtERKNS_4WWR4E
FN:33,33,_ZN5neml24cbrtERKNS_5SFFR4E
FN:33,33,_ZN5neml24cbrtERKNS_5SSFR5E
FN:33,33,_ZN5neml24cbrtERKNS_6SSSSR8E
FN:33,33,_ZN5neml24cbrtERKNS_6ScalarE
FN:33,33,_ZN5neml24cbrtERKNS_6TensorE
FNDA:0,_ZN5neml24cbrtERKNS_10QuaternionE
FNDA:0,_ZN5neml24cbrtERKNS_11MillerIndexE
FNDA:0,_ZN5neml24cbrtERKNS_2R2E
FNDA:0,_ZN5neml24cbrtERKNS_2R3E
FNDA:0,_ZN5neml24cbrtERKNS_2R4E
FNDA:0,_ZN5neml24cbrtERKNS_2R5E
FNDA:0,_ZN5neml24cbrtERKNS_2R8E
FNDA:0,_ZN5neml24cbrtERKNS_3RotE
FNDA:0,_ZN5neml24cbrtERKNS_3SR2E
FNDA:0,_ZN5neml24cbrtERKNS_3VecE
FNDA:0,_ZN5neml24cbrtERKNS_3WR2E
FNDA:0,_ZN5neml24cbrtERKNS_4SFR3E
FNDA:0,_ZN5neml24cbrtERKNS_4SFR4E
FNDA:0,_ZN5neml24cbrtERKNS_4SSR4E
FNDA:0,_ZN5neml24cbrtERKNS_4SWR4E
FNDA:0,_ZN5neml24cbrtERKNS_4WFR4E
FNDA:0,_ZN5neml24cbrtERKNS_4WSR4E
FNDA:0,_ZN5neml24cbrtERKNS_4WWR4E
FNDA:0,_ZN5neml24cbrtERKNS_5SFFR4E
FNDA:0,_ZN5neml24cbrtERKNS_5SSFR5E
FNDA:0,_ZN5neml24cbrtERKNS_6SSSSR8E
FNDA:0,_ZN5neml24cbrtERKNS_6ScalarE
FNDA:0,_ZN5neml24cbrtERKNS_6TensorE
FNF:23
FNH:0
DA:33,0
LF:1
LH:0
end_of_record
TN:
SF:/home/runner/work/neml2/neml2/src/neml2/tensors/functions/cos.cxx
FN:33,33,_ZN5neml23cosERKNS_10QuaternionE
FN:33,33,_ZN5neml23cosERKNS_11MillerIndexE
FN:33,33,_ZN5neml23cosERKNS_2R2E
FN:33,33,_ZN5neml23cosERKNS_2R3E
FN:33,33,_ZN5neml23cosERKNS_2R4E
FN:33,33,_ZN5neml23cosERKNS_2R5E
FN:33,33,_ZN5neml23cosERKNS_2R8E
FN:33,33,_ZN5neml23cosERKNS_3RotE
FN:33,33,_ZN5neml23cosERKNS_3SR2E
FN:33,33,_ZN5neml23cosERKNS_3VecE
FN:33,33,_ZN5neml23cosERKNS_3WR2E
FN:33,33,_ZN5neml23cosERKNS_4SFR3E
FN:33,33,_ZN5neml23cosERKNS_4SFR4E
FN:33,33,_ZN5neml23cosERKNS_4SSR4E
FN:33,33,_ZN5neml23cosERKNS_4SWR4E
FN:33,33,_ZN5neml23cosERKNS_4WFR4E
FN:33,33,_ZN5neml23cosERKNS_4WSR4E
FN:33,33,_ZN5neml23cosERKNS_4WWR4E
FN:33,33,_ZN5neml23cosERKNS_5SFFR4E
FN:33,33,_ZN5neml23cosERKNS_5SSFR5E
FN:33,33,_ZN5neml23cosERKNS_6SSSSR8E
FN:33,33,_ZN5neml23cosERKNS_6ScalarE
FN:33,33,_ZN5neml23cosERKNS_6TensorE
FNDA:0,_ZN5neml23cosERKNS_10QuaternionE
FNDA:0,_ZN5neml23cosERKNS_11MillerIndexE
FNDA:0,_ZN5neml23cosERKNS_2R2E
FNDA:0,_ZN5neml23cosERKNS_2R3E
FNDA:0,_ZN5neml23cosERKNS_2R4E
FNDA:0,_ZN5neml23cosERKNS_2R5E
FNDA:0,_ZN5neml23cosERKNS_2R8E
FNDA:0,_ZN5neml23cosERKNS_3RotE
FNDA:0,_ZN5neml23cosERKNS_3SR2E
FNDA:0,_ZN5neml23cosERKNS_3VecE
FNDA:0,_ZN5neml23cosERKNS_3WR2E
FNDA:0,_ZN5neml23cosERKNS_4SFR3E
FNDA:0,_ZN5neml23cosERKNS_4SFR4E
FNDA:0,_ZN5neml23cosERKNS_4SSR4E
FNDA:0,_ZN5neml23cosERKNS_4SWR4E
FNDA:0,_ZN5neml23cosERKNS_4WFR4E
FNDA:0,_ZN5neml23cosERKNS_4WSR4E
FNDA:0,_ZN5neml23cosERKNS_4WWR4E
FNDA:0,_ZN5neml23cosERKNS_5SFFR4E
FNDA:0,_ZN5neml23cosERKNS_5SSFR5E
FNDA:0,_ZN5neml23cosERKNS_6SSSSR8E
FNDA:54,_ZN5neml23cosERKNS_6ScalarE
FNDA:90,_ZN5neml23cosERKNS_6TensorE
FNF:23
FNH:2
DA:33,288
LF:1
LH:1
end_of_record
TN:
SF:/home/runner/work/neml2/neml2/src/neml2/tensors/functions/cosh.cxx
FN:33,33,_ZN5neml24coshERKNS_10QuaternionE
FN:33,33,_ZN5neml24coshERKNS_11MillerIndexE
FN:33,33,_ZN5neml24coshERKNS_2R2E
FN:33,33,_ZN5neml24coshERKNS_2R3E
FN:33,33,_ZN5neml24coshERKNS_2R4E
FN:33,33,_ZN5neml24coshERKNS_2R5E
FN:33,33,_ZN5neml24coshERKNS_2R8E
FN:33,33,_ZN5neml24coshERKNS_3RotE
FN:33,33,_ZN5neml24coshERKNS_3SR2E
FN:33,33,_ZN5neml24coshERKNS_3VecE
FN:33,33,_ZN5neml24coshERKNS_3WR2E
FN:33,33,_ZN5neml24coshERKNS_4SFR3E
FN:33,33,_ZN5neml24coshERKNS_4SFR4E
FN:33,33,_ZN5neml24coshERKNS_4SSR4E
FN:33,33,_ZN5neml24coshERKNS_4SWR4E
FN:33,33,_ZN5neml24coshERKNS_4WFR4E
FN:33,33,_ZN5neml24coshERKNS_4WSR4E
FN:33,33,_ZN5neml24coshERKNS_4WWR4E
FN:33,33,_ZN5neml24coshERKNS_5SFFR4E
FN:33,33,_ZN5neml24coshERKNS_5SSFR5E
FN:33,33,_ZN5neml24coshERKNS_6SSSSR8E
FN:33,33,_ZN5neml24coshERKNS_6ScalarE
FN:33,33,_ZN5neml24coshERKNS_6TensorE
FNDA:0,_ZN5neml24coshERKNS_10QuaternionE
FNDA:0,_ZN5neml24coshERKNS_11MillerIndexE
FNDA:0,_ZN5neml24coshERKNS_2R2E
FNDA:0,_ZN5neml24coshERKNS_2R3E
FNDA:0,_ZN5neml24coshERKNS_2R4E
FNDA:0,_ZN5neml24coshERKNS_2R5E
FNDA:0,_ZN5neml24coshERKNS_2R8E
FNDA:0,_ZN5neml24coshERKNS_3RotE
FNDA:0,_ZN5neml24coshERKNS_3SR2E
FNDA:0,_ZN5neml24coshERKNS_3VecE
FNDA:0,_ZN5neml24coshERKNS_3WR2E
FNDA:0,_ZN5neml24coshERKNS_4SFR3E
FNDA:0,_ZN5neml24coshERKNS_4SFR4E
FNDA:0,_ZN5neml24coshERKNS_4SSR4E
FNDA:0,_ZN5neml24coshERKNS_4SWR4E
FNDA:0,_ZN5neml24coshERKNS_4WFR4E
FNDA:0,_ZN5neml24coshERKNS_4WSR4E
FNDA:0,_ZN5neml24coshERKNS_4WWR4E
FNDA:0,_ZN5neml24coshERKNS_5SFFR4E
FNDA:0,_ZN5neml24coshERKNS_5SSFR5E
FNDA:0,_ZN5neml24coshERKNS_6SSSSR8E
FNDA:41,_ZN5neml24coshERKNS_6ScalarE
FNDA:0,_ZN5neml24coshERKNS_6TensorE
FNF:23
FNH:1
DA:33,82
LF:1
LH:1
end_of_record
TN:
SF:/home/runner/work/neml2/neml2/src/neml2/tensors/functions/deg2rad.cxx
FN:33,33,_ZN5neml27deg2radERKNS_10QuaternionE
FN:33,33,_ZN5neml27deg2radERKNS_11MillerIndexE
FN:33,33,_ZN5neml27deg2radERKNS_2R2E
FN:33,33,_ZN5neml27deg2radERKNS_2R3E
FN:33,33,_ZN5neml27deg2radERKNS_2R4E
FN:33,33,_ZN5neml27deg2radERKNS_2R5E
FN:33,33,_ZN5neml27deg2radERKNS_2R8E
FN:33,33,_ZN5neml27deg2radERKNS_3RotE
FN:33,33,_ZN5neml27deg2radERKNS_3SR2E
FN:33,33,_ZN5neml27deg2radERKNS_3VecE
FN:33,33,_ZN5neml27deg2radERKNS_3WR2E
FN:33,33,_ZN5neml27deg2radERKNS_4SFR3E
FN:33,33,_ZN5neml27deg2radERKNS_4SFR4E
FN:33,33,_ZN5neml27deg2radERKNS_4SSR4E
FN:33,33,_ZN5neml27deg2radERKNS_4SWR4E
FN:33,33,_ZN5neml27deg2radERKNS_4WFR4E
FN:33,33,_ZN5neml27deg2radERKNS_4WSR4E
FN:33,33,_ZN5neml27deg2radERKNS_4WWR4E
FN:33,33,_ZN5neml27deg2radERKNS_5SFFR4E
FN:33,33,_ZN5neml27deg2radERKNS_5SSFR5E
FN:33,33,_ZN5neml27deg2radERKNS_6SSSSR8E
FN:33,33,_ZN5neml27deg2radERKNS_6ScalarE
FN:33,33,_ZN5neml27deg2radERKNS_6TensorE
FNDA:0,_ZN5neml27deg2radERKNS_10QuaternionE
FNDA:0,_ZN5neml27deg2radERKNS_11MillerIndexE
FNDA:0,_ZN5neml27deg2radERKNS_2R2E
FNDA:0,_ZN5neml27deg2radERKNS_2R3E
FNDA:0,_ZN5neml27deg2radERKNS_2R4E
FNDA:0,_ZN5neml27deg2radERKNS_2R5E
FNDA:0,_ZN5neml27deg2radERKNS_2R8E
FNDA:0,_ZN5neml27deg2radERKNS_3RotE
FNDA:0,_ZN5neml27deg2radERKNS_3SR2E
FNDA:3,_ZN5neml27deg2radERKNS_3VecE
FNDA:0,_ZN5neml27deg2radERKNS_3WR2E
FNDA:0,_ZN5neml27deg2radERKNS_4SFR3E
FNDA:0,_ZN5neml27deg2radERKNS_4SFR4E
FNDA:0,_ZN5neml27deg2radERKNS_4SSR4E
FNDA:0,_ZN5neml27deg2radERKNS_4SWR4E
FNDA:0,_ZN5neml27deg2radERKNS_4WFR4E
FNDA:0,_ZN5neml27deg2radERKNS_4WSR4E
FNDA:0,_ZN5neml27deg2radERKNS_4WWR4E
FNDA:0,_ZN5neml27deg2radERKNS_5SFFR4E
FNDA:0,_ZN5neml27deg2radERKNS_5SSFR5E
FNDA:0,_ZN5neml27deg2radERKNS_6SSSSR8E
FNDA:0,_ZN5neml27deg2radERKNS_6ScalarE
FNDA:0,_ZN5neml27deg2radERKNS_6TensorE
FNF:23
FNH:1
DA:33,6
LF:1
LH:1
end_of_record
TN:
SF:/home/runner/work/neml2/neml2/src/neml2/tensors/functions/diag_embed.cxx
FN:38,38,_ZN5neml216batch_diag_embedERKNS_10QuaternionElll
FN:38,38,_ZN5neml216batch_diag_embedERKNS_11MillerIndexElll
FN:38,38,_ZN5neml216batch_diag_embedERKNS_2R2Elll
FN:38,38,_ZN5neml216batch_diag_embedERKNS_2R3Elll
FN:38,38,_ZN5neml216batch_diag_embedERKNS_2R4Elll
FN:38,38,_ZN5neml216batch_diag_embedERKNS_2R5Elll
FN:38,38,_ZN5neml216batch_diag_embedERKNS_2R8Elll
FN:38,38,_ZN5neml216batch_diag_embedERKNS_3RotElll
FN:38,38,_ZN5neml216batch_diag_embedERKNS_3SR2Elll
FN:38,38,_ZN5neml216batch_diag_embedERKNS_3VecElll
FN:38,38,_ZN5neml216batch_diag_embedERKNS_3WR2Elll
FN:38,38,_ZN5neml216batch_diag_embedERKNS_4SFR3Elll
FN:38,38,_ZN5neml216batch_diag_embedERKNS_4SFR4Elll
FN:38,38,_ZN5neml216batch_diag_embedERKNS_4SSR4Elll
FN:38,38,_ZN5neml216batch_diag_embedERKNS_4SWR4Elll
FN:38,38,_ZN5neml216batch_diag_embedERKNS_4WFR4Elll
FN:38,38,_ZN5neml216batch_diag_embedERKNS_4WSR4Elll
FN:38,38,_ZN5neml216batch_diag_embedERKNS_4WWR4Elll
FN:38,38,_ZN5neml216batch_diag_embedERKNS_5SFFR4Elll
FN:38,38,_ZN5neml216batch_diag_embedERKNS_5SSFR5Elll
FN:38,38,_ZN5neml216batch_diag_embedERKNS_6SSSSR8Elll
FN:38,38,_ZN5neml216batch_diag_embedERKNS_6ScalarElll
FN:38,38,_ZN5neml216batch_diag_embedERKNS_6TensorElll
FN:41,47,_ZN5neml215base_diag_embedERKNS_6TensorElll
FNDA:0,_ZN5neml216batch_diag_embedERKNS_10QuaternionElll
FNDA:0,_ZN5neml216batch_diag_embedERKNS_11MillerIndexElll
FNDA:0,_ZN5neml216batch_diag_embedERKNS_2R2Elll
FNDA:0,_ZN5neml216batch_diag_embedERKNS_2R3Elll
FNDA:0,_ZN5neml216batch_diag_embedERKNS_2R4Elll
FNDA:0,_ZN5neml216batch_diag_embedERKNS_2R5Elll
FNDA:0,_ZN5neml216batch_diag_embedERKNS_2R8Elll
FNDA:0,_ZN5neml216batch_diag_embedERKNS_3RotElll
FNDA:0,_ZN5neml216batch_diag_embedERKNS_3SR2Elll
FNDA:0,_ZN5neml216batch_diag_embedERKNS_3VecElll
FNDA:0,_ZN5neml216batch_diag_embedERKNS_3WR2Elll
FNDA:0,_ZN5neml216batch_diag_embedERKNS_4SFR3Elll
FNDA:0,_ZN5neml216batch_diag_embedERKNS_4SFR4Elll
FNDA:0,_ZN5neml216batch_diag_embedERKNS_4SSR4Elll
FNDA:0,_ZN5neml216batch_diag_embedERKNS_4SWR4Elll
FNDA:0,_ZN5neml216batch_diag_embedERKNS_4WFR4Elll
FNDA:0,_ZN5neml216batch_diag_embedERKNS_4WSR4Elll
FNDA:0,_ZN5neml216batch_diag_embedERKNS_4WWR4Elll
FNDA:0,_ZN5neml216batch_diag_embedERKNS_5SFFR4Elll
FNDA:0,_ZN5neml216batch_diag_embedERKNS_5SSFR5Elll
FNDA:0,_ZN5neml216batch_diag_embedERKNS_6SSSSR8Elll
FNDA:6,_ZN5neml216batch_diag_embedERKNS_6ScalarElll
FNDA:0,_ZN5neml216batch_diag_embedERKNS_6TensorElll
FNDA:64,_ZN5neml215base_diag_embedERKNS_6TensorElll
FNF:24
FNH:2
DA:38,6
DA:41,64
DA:44,128
DA:45,0
DA:46,192
LF:5
LH:4
end_of_record
TN:
SF:/home/runner/work/neml2/neml2/src/neml2/tensors/functions/diff.cxx
FN:33,33,_ZN5neml24diffERKNS_10QuaternionEll
FN:33,33,_ZN5neml24diffERKNS_11MillerIndexEll
FN:33,33,_ZN5neml24diffERKNS_2R2Ell
FN:33,33,_ZN5neml24diffERKNS_2R3Ell
FN:33,33,_ZN5neml24diffERKNS_2R4Ell
FN:33,33,_ZN5neml24diffERKNS_2R5Ell
FN:33,33,_ZN5neml24diffERKNS_2R8Ell
FN:33,33,_ZN5neml24diffERKNS_3RotEll
FN:33,33,_ZN5neml24diffERKNS_3SR2Ell
FN:33,33,_ZN5neml24diffERKNS_3VecEll
FN:33,33,_ZN5neml24diffERKNS_3WR2Ell
FN:33,33,_ZN5neml24diffERKNS_4SFR3Ell
FN:33,33,_ZN5neml24diffERKNS_4SFR4Ell
FN:33,33,_ZN5neml24diffERKNS_4SSR4Ell
FN:33,33,_ZN5neml24diffERKNS_4SWR4Ell
FN:33,33,_ZN5neml24diffERKNS_4WFR4Ell
FN:33,33,_ZN5neml24diffERKNS_4WSR4Ell
FN:33,33,_ZN5neml24diffERKNS_4WWR4Ell
FN:33,33,_ZN5neml24diffERKNS_5SFFR4Ell
FN:33,33,_ZN5neml24diffERKNS_5SSFR5Ell
FN:33,33,_ZN5neml24diffERKNS_6SSSSR8Ell
FN:33,33,_ZN5neml24diffERKNS_6ScalarEll
FN:33,33,_ZN5neml24diffERKNS_6TensorEll
FNDA:0,_ZN5neml24diffERKNS_10QuaternionEll
FNDA:0,_ZN5neml24diffERKNS_11MillerIndexEll
FNDA:0,_ZN5neml24diffERKNS_2R2Ell
FNDA:0,_ZN5neml24diffERKNS_2R3Ell
FNDA:0,_ZN5neml24diffERKNS_2R4Ell
FNDA:0,_ZN5neml24diffERKNS_2R5Ell
FNDA:0,_ZN5neml24diffERKNS_2R8Ell
FNDA:0,_ZN5neml24diffERKNS_3RotEll
FNDA:12,_ZN5neml24diffERKNS_3SR2Ell
FNDA:0,_ZN5neml24diffERKNS_3VecEll
FNDA:0,_ZN5neml24diffERKNS_3WR2Ell
FNDA:0,_ZN5neml24diffERKNS_4SFR3Ell
FNDA:0,_ZN5neml24diffERKNS_4SFR4Ell
FNDA:0,_ZN5neml24diffERKNS_4SSR4Ell
FNDA:0,_ZN5neml24diffERKNS_4SWR4Ell
FNDA:0,_ZN5neml24diffERKNS_4WFR4Ell
FNDA:0,_ZN5neml24diffERKNS_4WSR4Ell
FNDA:0,_ZN5neml24diffERKNS_4WWR4Ell
FNDA:0,_ZN5neml24diffERKNS_5SFFR4Ell
FNDA:0,_ZN5neml24diffERKNS_5SSFR5Ell
FNDA:0,_ZN5neml24diffERKNS_6SSSSR8Ell
FNDA:42,_ZN5neml24diffERKNS_6ScalarEll
FNDA:0,_ZN5neml24diffERKNS_6TensorEll
FNF:23
FNH:2
DA:33,108
LF:1
LH:1
end_of_record
TN:
SF:/home/runner/work/neml2/neml2/src/neml2/tensors/functions/exp.cxx
FN:33,33,_ZN5neml23expERKNS_10QuaternionE
FN:33,33,_ZN5neml23expERKNS_11MillerIndexE
FN:33,33,_ZN5neml23expERKNS_2R2E
FN:33,33,_ZN5neml23expERKNS_2R3E
FN:33,33,_ZN5neml23expERKNS_2R4E
FN:33,33,_ZN5neml23expERKNS_2R5E
FN:33,33,_ZN5neml23expERKNS_2R8E
FN:33,33,_ZN5neml23expERKNS_3RotE
FN:33,33,_ZN5neml23expERKNS_3SR2E
FN:33,33,_ZN5neml23expERKNS_3VecE
FN:33,33,_ZN5neml23expERKNS_3WR2E
FN:33,33,_ZN5neml23expERKNS_4SFR3E
FN:33,33,_ZN5neml23expERKNS_4SFR4E
FN:33,33,_ZN5neml23expERKNS_4SSR4E
FN:33,33,_ZN5neml23expERKNS_4SWR4E
FN:33,33,_ZN5neml23expERKNS_4WFR4E
FN:33,33,_ZN5neml23expERKNS_4WSR4E
FN:33,33,_ZN5neml23expERKNS_4WWR4E
FN:33,33,_ZN5neml23expERKNS_5SFFR4E
FN:33,33,_ZN5neml23expERKNS_5SSFR5E
FN:33,33,_ZN5neml23expERKNS_6SSSSR8E
FN:33,33,_ZN5neml23expERKNS_6ScalarE
FN:33,33,_ZN5neml23expERKNS_6TensorE
FNDA:0,_ZN5neml23expERKNS_10QuaternionE
FNDA:0,_ZN5neml23expERKNS_11MillerIndexE
FNDA:0,_ZN5neml23expERKNS_2R2E
FNDA:0,_ZN5neml23expERKNS_2R3E
FNDA:0,_ZN5neml23expERKNS_2R4E
FNDA:0,_ZN5neml23expERKNS_2R5E
FNDA:0,_ZN5neml23expERKNS_2R8E
FNDA:0,_ZN5neml23expERKNS_3RotE
FNDA:0,_ZN5neml23expERKNS_3SR2E
FNDA:0,_ZN5neml23expERKNS_3VecE
FNDA:0,_ZN5neml23expERKNS_3WR2E
FNDA:0,_ZN5neml23expERKNS_4SFR3E
FNDA:0,_ZN5neml23expERKNS_4SFR4E
FNDA:0,_ZN5neml23expERKNS_4SSR4E
FNDA:0,_ZN5neml23expERKNS_4SWR4E
FNDA:0,_ZN5neml23expERKNS_4WFR4E
FNDA:0,_ZN5neml23expERKNS_4WSR4E
FNDA:0,_ZN5neml23expERKNS_4WWR4E
FNDA:0,_ZN5neml23expERKNS_5SFFR4E
FNDA:0,_ZN5neml23expERKNS_5SSFR5E
FNDA:0,_ZN5neml23expERKNS_6SSSSR8E
FNDA:63,_ZN5neml23expERKNS_6ScalarE
FNDA:2,_ZN5neml23expERKNS_6TensorE
FNF:23
FNH:2
DA:33,130
LF:1
LH:1
end_of_record
TN:
SF:/home/runner/work/neml2/neml2/src/neml2/tensors/functions/fmod.cxx
FN:34,34,_ZN5neml24fmodERKNS_10QuaternionERKd
FN:34,34,_ZN5neml24fmodERKNS_10QuaternionES2_
FN:34,34,_ZN5neml24fmodERKNS_11MillerIndexERKd
FN:34,34,_ZN5neml24fmodERKNS_11MillerIndexES2_
FN:34,34,_ZN5neml24fmodERKNS_2R2ERKd
FN:34,34,_ZN5neml24fmodERKNS_2R2ES2_
FN:34,34,_ZN5neml24fmodERKNS_2R3ERKd
FN:34,34,_ZN5neml24fmodERKNS_2R3ES2_
FN:34,34,_ZN5neml24fmodERKNS_2R4ERKd
FN:34,34,_ZN5neml24fmodERKNS_2R4ES2_
FN:34,34,_ZN5neml24fmodERKNS_2R5ERKd
FN:34,34,_ZN5neml24fmodERKNS_2R5ES2_
FN:34,34,_ZN5neml24fmodERKNS_2R8ERKd
FN:34,34,_ZN5neml24fmodERKNS_2R8ES2_
FN:34,34,_ZN5neml24fmodERKNS_3RotERKd
FN:34,34,_ZN5neml24fmodERKNS_3RotES2_
FN:34,34,_ZN5neml24fmodERKNS_3SR2ERKd
FN:34,34,_ZN5neml24fmodERKNS_3SR2ES2_
FN:34,34,_ZN5neml24fmodERKNS_3VecERKd
FN:34,34,_ZN5neml24fmodERKNS_3VecES2_
FN:34,34,_ZN5neml24fmodERKNS_3WR2ERKd
FN:34,34,_ZN5neml24fmodERKNS_3WR2ES2_
FN:34,34,_ZN5neml24fmodERKNS_4SFR3ERKd
FN:34,34,_ZN5neml24fmodERKNS_4SFR3ES2_
FN:34,34,_ZN5neml24fmodERKNS_4SFR4ERKd
FN:34,34,_ZN5neml24fmodERKNS_4SFR4ES2_
FN:34,34,_ZN5neml24fmodERKNS_4SSR4ERKd
FN:34,34,_ZN5neml24fmodERKNS_4SSR4ES2_
FN:34,34,_ZN5neml24fmodERKNS_4SWR4ERKd
FN:34,34,_ZN5neml24fmodERKNS_4SWR4ES2_
FN:34,34,_ZN5neml24fmodERKNS_4WFR4ERKd
FN:34,34,_ZN5neml24fmodERKNS_4WFR4ES2_
FN:34,34,_ZN5neml24fmodERKNS_4WSR4ERKd
FN:34,34,_ZN5neml24fmodERKNS_4WSR4ES2_
FN:34,34,_ZN5neml24fmodERKNS_4WWR4ERKd
FN:34,34,_ZN5neml24fmodERKNS_4WWR4ES2_
FN:34,34,_ZN5neml24fmodERKNS_5SFFR4ERKd
FN:34,34,_ZN5neml24fmodERKNS_5SFFR4ES2_
FN:34,34,_ZN5neml24fmodERKNS_5SSFR5ERKd
FN:34,34,_ZN5neml24fmodERKNS_5SSFR5ES2_
FN:34,34,_ZN5neml24fmodERKNS_6SSSSR8ERKd
FN:34,34,_ZN5neml24fmodERKNS_6SSSSR8ES2_
FN:34,34,_ZN5neml24fmodERKNS_6ScalarERKd
FN:34,34,_ZN5neml24fmodERKNS_6ScalarES2_
FN:34,34,_ZN5neml24fmodERKNS_6TensorERKd
FN:34,34,_ZN5neml24fmodERKNS_6TensorES2_
FNDA:0,_ZN5neml24fmodERKNS_10QuaternionERKd
FNDA:0,_ZN5neml24fmodERKNS_10QuaternionES2_
FNDA:0,_ZN5neml24fmodERKNS_11MillerIndexERKd
FNDA:0,_ZN5neml24fmodERKNS_11MillerIndexES2_
FNDA:0,_ZN5neml24fmodERKNS_2R2ERKd
FNDA:0,_ZN5neml24fmodERKNS_2R2ES2_
FNDA:0,_ZN5neml24fmodERKNS_2R3ERKd
FNDA:0,_ZN5neml24fmodERKNS_2R3ES2_
FNDA:0,_ZN5neml24fmodERKNS_2R4ERKd
FNDA:0,_ZN5neml24fmodERKNS_2R4ES2_
FNDA:0,_ZN5neml24fmodERKNS_2R5ERKd
FNDA:0,_ZN5neml24fmodERKNS_2R5ES2_
FNDA:0,_ZN5neml24fmodERKNS_2R8ERKd
FNDA:0,_ZN5neml24fmodERKNS_2R8ES2_
FNDA:0,_ZN5neml24fmodERKNS_3RotERKd
FNDA:0,_ZN5neml24fmodERKNS_3RotES2_
FNDA:0,_ZN5neml24fmodERKNS_3SR2ERKd
FNDA:0,_ZN5neml24fmodERKNS_3SR2ES2_
FNDA:0,_ZN5neml24fmodERKNS_3VecERKd
FNDA:0,_ZN5neml24fmodERKNS_3VecES2_
FNDA:0,_ZN5neml24fmodERKNS_3WR2ERKd
FNDA:0,_ZN5neml24fmodERKNS_3WR2ES2_
FNDA:0,_ZN5neml24fmodERKNS_4SFR3ERKd
FNDA:0,_ZN5neml24fmodERKNS_4SFR3ES2_
FNDA:0,_ZN5neml24fmodERKNS_4SFR4ERKd
FNDA:0,_ZN5neml24fmodERKNS_4SFR4ES2_
FNDA:0,_ZN5neml24fmodERKNS_4SSR4ERKd
FNDA:0,_ZN5neml24fmodERKNS_4SSR4ES2_
FNDA:0,_ZN5neml24fmodERKNS_4SWR4ERKd
FNDA:0,_ZN5neml24fmodERKNS_4SWR4ES2_
FNDA:0,_ZN5neml24fmodERKNS_4WFR4ERKd
FNDA:0,_ZN5neml24fmodERKNS_4WFR4ES2_
FNDA:0,_ZN5neml24fmodERKNS_4WSR4ERKd
FNDA:0,_ZN5neml24fmodERKNS_4WSR4ES2_
FNDA:0,_ZN5neml24fmodERKNS_4WWR4ERKd
FNDA:0,_ZN5neml24fmodERKNS_4WWR4ES2_
FNDA:0,_ZN5neml24fmodERKNS_5SFFR4ERKd
FNDA:0,_ZN5neml24fmodERKNS_5SFFR4ES2_
FNDA:0,_ZN5neml24fmodERKNS_5SSFR5ERKd
FNDA:0,_ZN5neml24fmodERKNS_5SSFR5ES2_
FNDA:0,_ZN5neml24fmodERKNS_6SSSSR8ERKd
FNDA:0,_ZN5neml24fmodERKNS_6SSSSR8ES2_
FNDA:0,_ZN5neml24fmodERKNS_6ScalarERKd
FNDA:0,_ZN5neml24fmodERKNS_6ScalarES2_
FNDA:6,_ZN5neml24fmodERKNS_6TensorERKd
FNDA:0,_ZN5neml24fmodERKNS_6TensorES2_
FNF:46
FNH:1
DA:34,12
LF:1
LH:1
end_of_record
TN:
SF:/home/runner/work/neml2/neml2/src/neml2/tensors/functions/gcd.cxx
FN:39,39,_ZN5neml23gcdERKNS_10QuaternionES2_
FN:39,39,_ZN5neml23gcdERKNS_11MillerIndexES2_
FN:39,39,_ZN5neml23gcdERKNS_2R2ES2_
FN:39,39,_ZN5neml23gcdERKNS_2R3ES2_
FN:39,39,_ZN5neml23gcdERKNS_2R4ES2_
FN:39,39,_ZN5neml23gcdERKNS_2R5ES2_
FN:39,39,_ZN5neml23gcdERKNS_2R8ES2_
FN:39,39,_ZN5neml23gcdERKNS_3RotES2_
FN:39,39,_ZN5neml23gcdERKNS_3SR2ES2_
FN:39,39,_ZN5neml23gcdERKNS_3VecES2_
FN:39,39,_ZN5neml23gcdERKNS_3WR2ES2_
FN:39,39,_ZN5neml23gcdERKNS_4SFR3ES2_
FN:39,39,_ZN5neml23gcdERKNS_4SFR4ES2_
FN:39,39,_ZN5neml23gcdERKNS_4SSR4ES2_
FN:39,39,_ZN5neml23gcdERKNS_4SWR4ES2_
FN:39,39,_ZN5neml23gcdERKNS_4WFR4ES2_
FN:39,39,_ZN5neml23gcdERKNS_4WSR4ES2_
FN:39,39,_ZN5neml23gcdERKNS_4WWR4ES2_
FN:39,39,_ZN5neml23gcdERKNS_5SFFR4ES2_
FN:39,39,_ZN5neml23gcdERKNS_5SSFR5ES2_
FN:39,39,_ZN5neml23gcdERKNS_6SSSSR8ES2_
FN:39,39,_ZN5neml23gcdERKNS_6ScalarES2_
FN:39,39,_ZN5neml23gcdERKNS_6TensorES2_
FNDA:0,_ZN5neml23gcdERKNS_10QuaternionES2_
FNDA:0,_ZN5neml23gcdERKNS_11MillerIndexES2_
FNDA:0,_ZN5neml23gcdERKNS_2R2ES2_
FNDA:0,_ZN5neml23gcdERKNS_2R3ES2_
FNDA:0,_ZN5neml23gcdERKNS_2R4ES2_
FNDA:0,_ZN5neml23gcdERKNS_2R5ES2_
FNDA:0,_ZN5neml23gcdERKNS_2R8ES2_
FNDA:0,_ZN5neml23gcdERKNS_3RotES2_
FNDA:0,_ZN5neml23gcdERKNS_3SR2ES2_
FNDA:0,_ZN5neml23gcdERKNS_3VecES2_
FNDA:0,_ZN5neml23gcdERKNS_3WR2ES2_
FNDA:0,_ZN5neml23gcdERKNS_4SFR3ES2_
FNDA:0,_ZN5neml23gcdERKNS_4SFR4ES2_
FNDA:0,_ZN5neml23gcdERKNS_4SSR4ES2_
FNDA:0,_ZN5neml23gcdERKNS_4SWR4ES2_
FNDA:0,_ZN5neml23gcdERKNS_4WFR4ES2_
FNDA:0,_ZN5neml23gcdERKNS_4WSR4ES2_
FNDA:0,_ZN5neml23gcdERKNS_4WWR4ES2_
FNDA:0,_ZN5neml23gcdERKNS_5SFFR4ES2_
FNDA:0,_ZN5neml23gcdERKNS_5SSFR5ES2_
FNDA:0,_ZN5neml23gcdERKNS_6SSSSR8ES2_
FNDA:146,_ZN5neml23gcdERKNS_6ScalarES2_
FNDA:0,_ZN5neml23gcdERKNS_6TensorES2_
FNF:23
FNH:1
DA:39,146
LF:1
LH:1
end_of_record
TN:
SF:/home/runner/work/neml2/neml2/src/neml2/tensors/functions/heaviside.cxx
FN:34,34,_ZN5neml29heavisideERKNS_10QuaternionE
FN:34,34,_ZN5neml29heavisideERKNS_11MillerIndexE
FN:34,34,_ZN5neml29heavisideERKNS_2R2E
FN:34,34,_ZN5neml29heavisideERKNS_2R3E
FN:34,34,_ZN5neml29heavisideERKNS_2R4E
FN:34,34,_ZN5neml29heavisideERKNS_2R5E
FN:34,34,_ZN5neml29heavisideERKNS_2R8E
FN:34,34,_ZN5neml29heavisideERKNS_3RotE
FN:34,34,_ZN5neml29heavisideERKNS_3SR2E
FN:34,34,_ZN5neml29heavisideERKNS_3VecE
FN:34,34,_ZN5neml29heavisideERKNS_3WR2E
FN:34,34,_ZN5neml29heavisideERKNS_4SFR3E
FN:34,34,_ZN5neml29heavisideERKNS_4SFR4E
FN:34,34,_ZN5neml29heavisideERKNS_4SSR4E
FN:34,34,_ZN5neml29heavisideERKNS_4SWR4E
FN:34,34,_ZN5neml29heavisideERKNS_4WFR4E
FN:34,34,_ZN5neml29heavisideERKNS_4WSR4E
FN:34,34,_ZN5neml29heavisideERKNS_4WWR4E
FN:34,34,_ZN5neml29heavisideERKNS_5SFFR4E
FN:34,34,_ZN5neml29heavisideERKNS_5SSFR5E
FN:34,34,_ZN5neml29heavisideERKNS_6SSSSR8E
FN:34,34,_ZN5neml29heavisideERKNS_6ScalarE
FN:34,34,_ZN5neml29heavisideERKNS_6TensorE
FNDA:0,_ZN5neml29heavisideERKNS_10QuaternionE
FNDA:0,_ZN5neml29heavisideERKNS_11MillerIndexE
FNDA:0,_ZN5neml29heavisideERKNS_2R2E
FNDA:0,_ZN5neml29heavisideERKNS_2R3E
FNDA:0,_ZN5neml29heavisideERKNS_2R4E
FNDA:0,_ZN5neml29heavisideERKNS_2R5E
FNDA:0,_ZN5neml29heavisideERKNS_2R8E
FNDA:0,_ZN5neml29heavisideERKNS_3RotE
FNDA:0,_ZN5neml29heavisideERKNS_3SR2E
FNDA:0,_ZN5neml29heavisideERKNS_3VecE
FNDA:0,_ZN5neml29heavisideERKNS_3WR2E
FNDA:0,_ZN5neml29heavisideERKNS_4SFR3E
FNDA:0,_ZN5neml29heavisideERKNS_4SFR4E
FNDA:0,_ZN5neml29heavisideERKNS_4SSR4E
FNDA:0,_ZN5neml29heavisideERKNS_4SWR4E
FNDA:0,_ZN5neml29heavisideERKNS_4WFR4E
FNDA:0,_ZN5neml29heavisideERKNS_4WSR4E
FNDA:0,_ZN5neml29heavisideERKNS_4WWR4E
FNDA:0,_ZN5neml29heavisideERKNS_5SFFR4E
FNDA:0,_ZN5neml29heavisideERKNS_5SSFR5E
FNDA:0,_ZN5neml29heavisideERKNS_6SSSSR8E
FNDA:22,_ZN5neml29heavisideERKNS_6ScalarE
FNDA:2,_ZN5neml29heavisideERKNS_6TensorE
FNF:23
FNH:2
DA:34,48
LF:1
LH:1
end_of_record
TN:
SF:/home/runner/work/neml2/neml2/src/neml2/tensors/functions/jacrev.cxx
FN:35,96,_ZN5neml26jacrevERKNS_6TensorERKSt6vectorIS0_SaIS0_EEbbb
FN:99,102,_ZN5neml26jacrevERKNS_6TensorES2_bbb
FNDA:99,_ZN5neml26jacrevERKNS_6TensorERKSt6vectorIS0_SaIS0_EEbbb
FNDA:95,_ZN5neml26jacrevERKNS_6TensorES2_bbb
FNF:2
FNH:2
DA:35,99
DA:41,99
DA:44,99
DA:45,15
DA:48,178
DA:49,94
DA:55,94
DA:58,84
DA:61,84
DA:62,84
DA:65,168
DA:66,84
DA:67,178
DA:68,188
DA:69,282
DA:72,299
DA:74,1075
DA:79,1720
DA:80,215
DA:82,215
DA:84,215
DA:86,455
DA:87,240
DA:88,720
DA:89,215
DA:92,178
DA:93,94
DA:95,84
DA:96,969
DA:99,95
DA:101,285
DA:102,95
LF:32
LH:32
end_of_record
TN:
SF:/home/runner/work/neml2/neml2/src/neml2/tensors/functions/linalg/cross.cxx
FN:32,37,_ZN5neml26linalg5crossERKNS_3VecES3_
FNDA:461,_ZN5neml26linalg5crossERKNS_3VecES3_
FNF:1
FNH:1
DA:32,461
DA:34,461
DA:35,1383
DA:36,922
DA:37,922
LF:5
LH:5
end_of_record
TN:
SF:/home/runner/work/neml2/neml2/src/neml2/tensors/functions/linalg/inv.cxx
FN:31,34,_ZN5neml26linalg3invERKNS_6TensorE
FNDA:47,_ZN5neml26linalg3invERKNS_6TensorE
FNF:1
FNH:1
DA:31,47
DA:33,94
LF:2
LH:2
end_of_record
TN:
SF:/home/runner/work/neml2/neml2/src/neml2/tensors/functions/linalg/lu_factor.cxx
FN:31,35,_ZN5neml26linalg9lu_factorERKNS_6TensorEb
FNDA:3,_ZN5neml26linalg9lu_factorERKNS_6TensorEb
FNF:1
FNH:1
DA:31,3
DA:33,3
DA:34,6
DA:35,3
LF:4
LH:4
end_of_record
TN:
SF:/home/runner/work/neml2/neml2/src/neml2/tensors/functions/linalg/lu_solve.cxx
FN:31,34,_ZN5neml26linalg8lu_solveERKNS_6TensorES3_S3_bb
FNDA:9,_ZN5neml26linalg8lu_solveERKNS_6TensorES3_S3_bb
FNF:1
FNH:1
DA:31,9
DA:33,18
LF:2
LH:2
end_of_record
TN:
SF:/home/runner/work/neml2/neml2/src/neml2/tensors/functions/linalg/outer.cxx
FN:34,38,_ZN5neml26linalg5outerERKNS_3VecES3_
FNDA:101,_ZN5neml26linalg5outerERKNS_3VecES3_
FNF:1
FNH:1
DA:34,101
DA:36,101
DA:37,101
LF:3
LH:3
end_of_record
TN:
SF:/home/runner/work/neml2/neml2/src/neml2/tensors/functions/linalg/solve.cxx
FN:31,34,_ZN5neml26linalg5solveERKNS_6TensorES3_
FNDA:1485,_ZN5neml26linalg5solveERKNS_6TensorES3_
FNF:1
FNH:1
DA:31,1485
DA:33,2970
LF:2
LH:2
end_of_record
TN:
SF:/home/runner/work/neml2/neml2/src/neml2/tensors/functions/linalg/vecdot.cxx
FN:33,51,_ZN5neml26linalg6vecdotERKNS_6TensorES3_
FNDA:2996,_ZN5neml26linalg6vecdotERKNS_6TensorES3_
FNF:1
FNH:1
DA:33,2996
DA:35,2996
DA:36,2996
DA:38,2996
DA:40,2996
DA:42,2996
DA:44,2996
DA:46,2996
DA:48,2996
DA:50,2996
LF:10
LH:10
end_of_record
TN:
SF:/home/runner/work/neml2/neml2/src/neml2/tensors/functions/linalg/vector_norm.cxx
FN:34,48,_ZN5neml26linalg11vector_normERKNS_6TensorE
FNDA:1591,_ZN5neml26linalg11vector_normERKNS_6TensorE
FNF:1
FNH:1
DA:34,1591
DA:36,1591
DA:38,1591
DA:42,1591
DA:43,69
DA:45,4566
DA:46,3044
DA:47,1522
LF:8
LH:8
end_of_record
TN:
SF:/home/runner/work/neml2/neml2/src/neml2/tensors/functions/log.cxx
FN:33,33,_ZN5neml23logERKNS_10QuaternionE
FN:33,33,_ZN5neml23logERKNS_11MillerIndexE
FN:33,33,_ZN5neml23logERKNS_2R2E
FN:33,33,_ZN5neml23logERKNS_2R3E
FN:33,33,_ZN5neml23logERKNS_2R4E
FN:33,33,_ZN5neml23logERKNS_2R5E
FN:33,33,_ZN5neml23logERKNS_2R8E
FN:33,33,_ZN5neml23logERKNS_3RotE
FN:33,33,_ZN5neml23logERKNS_3SR2E
FN:33,33,_ZN5neml23logERKNS_3VecE
FN:33,33,_ZN5neml23logERKNS_3WR2E
FN:33,33,_ZN5neml23logERKNS_4SFR3E
FN:33,33,_ZN5neml23logERKNS_4SFR4E
FN:33,33,_ZN5neml23logERKNS_4SSR4E
FN:33,33,_ZN5neml23logERKNS_4SWR4E
FN:33,33,_ZN5neml23logERKNS_4WFR4E
FN:33,33,_ZN5neml23logERKNS_4WSR4E
FN:33,33,_ZN5neml23logERKNS_4WWR4E
FN:33,33,_ZN5neml23logERKNS_5SFFR4E
FN:33,33,_ZN5neml23logERKNS_5SSFR5E
FN:33,33,_ZN5neml23logERKNS_6SSSSR8E
FN:33,33,_ZN5neml23logERKNS_6ScalarE
FN:33,33,_ZN5neml23logERKNS_6TensorE
FNDA:0,_ZN5neml23logERKNS_10QuaternionE
FNDA:0,_ZN5neml23logERKNS_11MillerIndexE
FNDA:0,_ZN5neml23logERKNS_2R2E
FNDA:0,_ZN5neml23logERKNS_2R3E
FNDA:0,_ZN5neml23logERKNS_2R4E
FNDA:0,_ZN5neml23logERKNS_2R5E
FNDA:0,_ZN5neml23logERKNS_2R8E
FNDA:0,_ZN5neml23logERKNS_3RotE
FNDA:0,_ZN5neml23logERKNS_3SR2E
FNDA:0,_ZN5neml23logERKNS_3VecE
FNDA:0,_ZN5neml23logERKNS_3WR2E
FNDA:0,_ZN5neml23logERKNS_4SFR3E
FNDA:0,_ZN5neml23logERKNS_4SFR4E
FNDA:0,_ZN5neml23logERKNS_4SSR4E
FNDA:0,_ZN5neml23logERKNS_4SWR4E
FNDA:0,_ZN5neml23logERKNS_4WFR4E
FNDA:0,_ZN5neml23logERKNS_4WSR4E
FNDA:0,_ZN5neml23logERKNS_4WWR4E
FNDA:0,_ZN5neml23logERKNS_5SFFR4E
FNDA:0,_ZN5neml23logERKNS_5SSFR5E
FNDA:0,_ZN5neml23logERKNS_6SSSSR8E
FNDA:10,_ZN5neml23logERKNS_6ScalarE
FNDA:0,_ZN5neml23logERKNS_6TensorE
FNF:23
FNH:1
DA:33,20
LF:1
LH:1
end_of_record
TN:
SF:/home/runner/work/neml2/neml2/src/neml2/tensors/functions/log10.cxx
FN:33,33,_ZN5neml25log10ERKNS_10QuaternionE
FN:33,33,_ZN5neml25log10ERKNS_11MillerIndexE
FN:33,33,_ZN5neml25log10ERKNS_2R2E
FN:33,33,_ZN5neml25log10ERKNS_2R3E
FN:33,33,_ZN5neml25log10ERKNS_2R4E
FN:33,33,_ZN5neml25log10ERKNS_2R5E
FN:33,33,_ZN5neml25log10ERKNS_2R8E
FN:33,33,_ZN5neml25log10ERKNS_3RotE
FN:33,33,_ZN5neml25log10ERKNS_3SR2E
FN:33,33,_ZN5neml25log10ERKNS_3VecE
FN:33,33,_ZN5neml25log10ERKNS_3WR2E
FN:33,33,_ZN5neml25log10ERKNS_4SFR3E
FN:33,33,_ZN5neml25log10ERKNS_4SFR4E
FN:33,33,_ZN5neml25log10ERKNS_4SSR4E
FN:33,33,_ZN5neml25log10ERKNS_4SWR4E
FN:33,33,_ZN5neml25log10ERKNS_4WFR4E
FN:33,33,_ZN5neml25log10ERKNS_4WSR4E
FN:33,33,_ZN5neml25log10ERKNS_4WWR4E
FN:33,33,_ZN5neml25log10ERKNS_5SFFR4E
FN:33,33,_ZN5neml25log10ERKNS_5SSFR5E
FN:33,33,_ZN5neml25log10ERKNS_6SSSSR8E
FN:33,33,_ZN5neml25log10ERKNS_6ScalarE
FN:33,33,_ZN5neml25log10ERKNS_6TensorE
FNDA:0,_ZN5neml25log10ERKNS_10QuaternionE
FNDA:0,_ZN5neml25log10ERKNS_11MillerIndexE
FNDA:0,_ZN5neml25log10ERKNS_2R2E
FNDA:0,_ZN5neml25log10ERKNS_2R3E
FNDA:0,_ZN5neml25log10ERKNS_2R4E
FNDA:0,_ZN5neml25log10ERKNS_2R5E
FNDA:0,_ZN5neml25log10ERKNS_2R8E
FNDA:0,_ZN5neml25log10ERKNS_3RotE
FNDA:0,_ZN5neml25log10ERKNS_3SR2E
FNDA:0,_ZN5neml25log10ERKNS_3VecE
FNDA:0,_ZN5neml25log10ERKNS_3WR2E
FNDA:0,_ZN5neml25log10ERKNS_4SFR3E
FNDA:0,_ZN5neml25log10ERKNS_4SFR4E
FNDA:0,_ZN5neml25log10ERKNS_4SSR4E
FNDA:0,_ZN5neml25log10ERKNS_4SWR4E
FNDA:0,_ZN5neml25log10ERKNS_4WFR4E
FNDA:0,_ZN5neml25log10ERKNS_4WSR4E
FNDA:0,_ZN5neml25log10ERKNS_4WWR4E
FNDA:0,_ZN5neml25log10ERKNS_5SFFR4E
FNDA:0,_ZN5neml25log10ERKNS_5SSFR5E
FNDA:0,_ZN5neml25log10ERKNS_6SSSSR8E
FNDA:0,_ZN5neml25log10ERKNS_6ScalarE
FNDA:0,_ZN5neml25log10ERKNS_6TensorE
FNF:23
FNH:0
DA:33,0
LF:1
LH:0
end_of_record
TN:
SF:/home/runner/work/neml2/neml2/src/neml2/tensors/functions/macaulay.cxx
FN:34,34,_ZN5neml28macaulayERKNS_10QuaternionE
FN:34,34,_ZN5neml28macaulayERKNS_11MillerIndexE
FN:34,34,_ZN5neml28macaulayERKNS_2R2E
FN:34,34,_ZN5neml28macaulayERKNS_2R3E
FN:34,34,_ZN5neml28macaulayERKNS_2R4E
FN:34,34,_ZN5neml28macaulayERKNS_2R5E
FN:34,34,_ZN5neml28macaulayERKNS_2R8E
FN:34,34,_ZN5neml28macaulayERKNS_3RotE
FN:34,34,_ZN5neml28macaulayERKNS_3SR2E
FN:34,34,_ZN5neml28macaulayERKNS_3VecE
FN:34,34,_ZN5neml28macaulayERKNS_3WR2E
FN:34,34,_ZN5neml28macaulayERKNS_4SFR3E
FN:34,34,_ZN5neml28macaulayERKNS_4SFR4E
FN:34,34,_ZN5neml28macaulayERKNS_4SSR4E
FN:34,34,_ZN5neml28macaulayERKNS_4SWR4E
FN:34,34,_ZN5neml28macaulayERKNS_4WFR4E
FN:34,34,_ZN5neml28macaulayERKNS_4WSR4E
FN:34,34,_ZN5neml28macaulayERKNS_4WWR4E
FN:34,34,_ZN5neml28macaulayERKNS_5SFFR4E
FN:34,34,_ZN5neml28macaulayERKNS_5SSFR5E
FN:34,34,_ZN5neml28macaulayERKNS_6SSSSR8E
FN:34,34,_ZN5neml28macaulayERKNS_6ScalarE
FN:34,34,_ZN5neml28macaulayERKNS_6TensorE
FNDA:0,_ZN5neml28macaulayERKNS_10QuaternionE
FNDA:0,_ZN5neml28macaulayERKNS_11MillerIndexE
FNDA:0,_ZN5neml28macaulayERKNS_2R2E
FNDA:0,_ZN5neml28macaulayERKNS_2R3E
FNDA:0,_ZN5neml28macaulayERKNS_2R4E
FNDA:0,_ZN5neml28macaulayERKNS_2R5E
FNDA:0,_ZN5neml28macaulayERKNS_2R8E
FNDA:0,_ZN5neml28macaulayERKNS_3RotE
FNDA:0,_ZN5neml28macaulayERKNS_3SR2E
FNDA:0,_ZN5neml28macaulayERKNS_3VecE
FNDA:0,_ZN5neml28macaulayERKNS_3WR2E
FNDA:0,_ZN5neml28macaulayERKNS_4SFR3E
FNDA:0,_ZN5neml28macaulayERKNS_4SFR4E
FNDA:0,_ZN5neml28macaulayERKNS_4SSR4E
FNDA:0,_ZN5neml28macaulayERKNS_4SWR4E
FNDA:0,_ZN5neml28macaulayERKNS_4WFR4E
FNDA:0,_ZN5neml28macaulayERKNS_4WSR4E
FNDA:0,_ZN5neml28macaulayERKNS_4WWR4E
FNDA:0,_ZN5neml28macaulayERKNS_5SFFR4E
FNDA:0,_ZN5neml28macaulayERKNS_5SSFR5E
FNDA:0,_ZN5neml28macaulayERKNS_6SSSSR8E
FNDA:0,_ZN5neml28macaulayERKNS_6ScalarE
FNDA:2,_ZN5neml28macaulayERKNS_6TensorE
FNF:23
FNH:1
DA:34,4
LF:1
LH:1
end_of_record
TN:
SF:/home/runner/work/neml2/neml2/src/neml2/tensors/functions/mean.cxx
FN:39,39,_ZN5neml210batch_meanERKNS_10QuaternionEl
FN:39,39,_ZN5neml210batch_meanERKNS_11MillerIndexEl
FN:39,39,_ZN5neml210batch_meanERKNS_2R2El
FN:39,39,_ZN5neml210batch_meanERKNS_2R3El
FN:39,39,_ZN5neml210batch_meanERKNS_2R4El
FN:39,39,_ZN5neml210batch_meanERKNS_2R5El
FN:39,39,_ZN5neml210batch_meanERKNS_2R8El
FN:39,39,_ZN5neml210batch_meanERKNS_3RotEl
FN:39,39,_ZN5neml210batch_meanERKNS_3SR2El
FN:39,39,_ZN5neml210batch_meanERKNS_3VecEl
FN:39,39,_ZN5neml210batch_meanERKNS_3WR2El
FN:39,39,_ZN5neml210batch_meanERKNS_4SFR3El
FN:39,39,_ZN5neml210batch_meanERKNS_4SFR4El
FN:39,39,_ZN5neml210batch_meanERKNS_4SSR4El
FN:39,39,_ZN5neml210batch_meanERKNS_4SWR4El
FN:39,39,_ZN5neml210batch_meanERKNS_4WFR4El
FN:39,39,_ZN5neml210batch_meanERKNS_4WSR4El
FN:39,39,_ZN5neml210batch_meanERKNS_4WWR4El
FN:39,39,_ZN5neml210batch_meanERKNS_5SFFR4El
FN:39,39,_ZN5neml210batch_meanERKNS_5SSFR5El
FN:39,39,_ZN5neml210batch_meanERKNS_6SSSSR8El
FN:39,39,_ZN5neml210batch_meanERKNS_6ScalarEl
FN:39,39,_ZN5neml210batch_meanERKNS_6TensorEl
FN:42,46,_ZN5neml29base_meanERKNS_6TensorEl
FNDA:0,_ZN5neml210batch_meanERKNS_10QuaternionEl
FNDA:0,_ZN5neml210batch_meanERKNS_11MillerIndexEl
FNDA:0,_ZN5neml210batch_meanERKNS_2R2El
FNDA:0,_ZN5neml210batch_meanERKNS_2R3El
FNDA:0,_ZN5neml210batch_meanERKNS_2R4El
FNDA:0,_ZN5neml210batch_meanERKNS_2R5El
FNDA:0,_ZN5neml210batch_meanERKNS_2R8El
FNDA:0,_ZN5neml210batch_meanERKNS_3RotEl
FNDA:1,_ZN5neml210batch_meanERKNS_3SR2El
FNDA:0,_ZN5neml210batch_meanERKNS_3VecEl
FNDA:0,_ZN5neml210batch_meanERKNS_3WR2El
FNDA:0,_ZN5neml210batch_meanERKNS_4SFR3El
FNDA:0,_ZN5neml210batch_meanERKNS_4SFR4El
FNDA:0,_ZN5neml210batch_meanERKNS_4SSR4El
FNDA:0,_ZN5neml210batch_meanERKNS_4SWR4El
FNDA:0,_ZN5neml210batch_meanERKNS_4WFR4El
FNDA:0,_ZN5neml210batch_meanERKNS_4WSR4El
FNDA:0,_ZN5neml210batch_meanERKNS_4WWR4El
FNDA:0,_ZN5neml210batch_meanERKNS_5SFFR4El
FNDA:0,_ZN5neml210batch_meanERKNS_5SSFR5El
FNDA:0,_ZN5neml210batch_meanERKNS_6SSSSR8El
FNDA:0,_ZN5neml210batch_meanERKNS_6ScalarEl
FNDA:0,_ZN5neml210batch_meanERKNS_6TensorEl
FNDA:0,_ZN5neml29base_meanERKNS_6TensorEl
FNF:24
FNH:1
DA:39,1
DA:42,0
DA:44,0
DA:45,0
LF:4
LH:1
end_of_record
TN:
SF:/home/runner/work/neml2/neml2/src/neml2/tensors/functions/minimum.cxx
FN:38,38,_ZN5neml27minimumERKNS_10QuaternionES2_
FN:38,38,_ZN5neml27minimumERKNS_11MillerIndexES2_
FN:38,38,_ZN5neml27minimumERKNS_2R2ES2_
FN:38,38,_ZN5neml27minimumERKNS_2R3ES2_
FN:38,38,_ZN5neml27minimumERKNS_2R4ES2_
FN:38,38,_ZN5neml27minimumERKNS_2R5ES2_
FN:38,38,_ZN5neml27minimumERKNS_2R8ES2_
FN:38,38,_ZN5neml27minimumERKNS_3RotES2_
FN:38,38,_ZN5neml27minimumERKNS_3SR2ES2_
FN:38,38,_ZN5neml27minimumERKNS_3VecES2_
FN:38,38,_ZN5neml27minimumERKNS_3WR2ES2_
FN:38,38,_ZN5neml27minimumERKNS_4SFR3ES2_
FN:38,38,_ZN5neml27minimumERKNS_4SFR4ES2_
FN:38,38,_ZN5neml27minimumERKNS_4SSR4ES2_
FN:38,38,_ZN5neml27minimumERKNS_4SWR4ES2_
FN:38,38,_ZN5neml27minimumERKNS_4WFR4ES2_
FN:38,38,_ZN5neml27minimumERKNS_4WSR4ES2_
FN:38,38,_ZN5neml27minimumERKNS_4WWR4ES2_
FN:38,38,_ZN5neml27minimumERKNS_5SFFR4ES2_
FN:38,38,_ZN5neml27minimumERKNS_5SSFR5ES2_
FN:38,38,_ZN5neml27minimumERKNS_6SSSSR8ES2_
FN:38,38,_ZN5neml27minimumERKNS_6ScalarES2_
FN:38,38,_ZN5neml27minimumERKNS_6TensorES2_
FNDA:0,_ZN5neml27minimumERKNS_10QuaternionES2_
FNDA:0,_ZN5neml27minimumERKNS_11MillerIndexES2_
FNDA:0,_ZN5neml27minimumERKNS_2R2ES2_
FNDA:0,_ZN5neml27minimumERKNS_2R3ES2_
FNDA:0,_ZN5neml27minimumERKNS_2R4ES2_
FNDA:0,_ZN5neml27minimumERKNS_2R5ES2_
FNDA:0,_ZN5neml27minimumERKNS_2R8ES2_
FNDA:0,_ZN5neml27minimumERKNS_3RotES2_
FNDA:0,_ZN5neml27minimumERKNS_3SR2ES2_
FNDA:0,_ZN5neml27minimumERKNS_3VecES2_
FNDA:0,_ZN5neml27minimumERKNS_3WR2ES2_
FNDA:0,_ZN5neml27minimumERKNS_4SFR3ES2_
FNDA:0,_ZN5neml27minimumERKNS_4SFR4ES2_
FNDA:0,_ZN5neml27minimumERKNS_4SSR4ES2_
FNDA:0,_ZN5neml27minimumERKNS_4SWR4ES2_
FNDA:0,_ZN5neml27minimumERKNS_4WFR4ES2_
FNDA:0,_ZN5neml27minimumERKNS_4WSR4ES2_
FNDA:0,_ZN5neml27minimumERKNS_4WWR4ES2_
FNDA:0,_ZN5neml27minimumERKNS_5SFFR4ES2_
FNDA:0,_ZN5neml27minimumERKNS_5SSFR5ES2_
FNDA:0,_ZN5neml27minimumERKNS_6SSSSR8ES2_
FNDA:0,_ZN5neml27minimumERKNS_6ScalarES2_
FNDA:0,_ZN5neml27minimumERKNS_6TensorES2_
FNF:23
FNH:0
DA:38,0
LF:1
LH:0
end_of_record
TN:
SF:/home/runner/work/neml2/neml2/src/neml2/tensors/functions/operators.cxx
FN:100,100,_ZN5neml2miERKNS_6TensorES2_
FN:101,101,_ZN5neml2miERKNS_6ScalarERKNS_6TensorE
FN:101,101,_ZN5neml2miERKNS_6TensorERKNS_6ScalarE
FN:102,102,_ZN5neml2miERKNS_6TensorERKd
FN:102,102,_ZN5neml2miERKdRKNS_6TensorE
FN:103,103,_ZN5neml2miERKNS_6ScalarES2_
FN:104,104,_ZN5neml2miERKNS_6ScalarERKd
FN:104,104,_ZN5neml2miERKdRKNS_6ScalarE
FN:132,132,_ZN5neml2mlERKNS_10QuaternionERKNS_6ScalarE
FN:132,132,_ZN5neml2mlERKNS_11MillerIndexERKNS_6ScalarE
FN:132,132,_ZN5neml2mlERKNS_2R2ERKNS_6ScalarE
FN:132,132,_ZN5neml2mlERKNS_2R3ERKNS_6ScalarE
FN:132,132,_ZN5neml2mlERKNS_2R4ERKNS_6ScalarE
FN:132,132,_ZN5neml2mlERKNS_2R5ERKNS_6ScalarE
FN:132,132,_ZN5neml2mlERKNS_2R8ERKNS_6ScalarE
FN:132,132,_ZN5neml2mlERKNS_3RotERKNS_6ScalarE
FN:132,132,_ZN5neml2mlERKNS_3SR2ERKNS_6ScalarE
FN:132,132,_ZN5neml2mlERKNS_3VecERKNS_6ScalarE
FN:132,132,_ZN5neml2mlERKNS_3WR2ERKNS_6ScalarE
FN:132,132,_ZN5neml2mlERKNS_4SFR3ERKNS_6ScalarE
FN:132,132,_ZN5neml2mlERKNS_4SFR4ERKNS_6ScalarE
FN:132,132,_ZN5neml2mlERKNS_4SSR4ERKNS_6ScalarE
FN:132,132,_ZN5neml2mlERKNS_4SWR4ERKNS_6ScalarE
FN:132,132,_ZN5neml2mlERKNS_4WFR4ERKNS_6ScalarE
FN:132,132,_ZN5neml2mlERKNS_4WSR4ERKNS_6ScalarE
FN:132,132,_ZN5neml2mlERKNS_4WWR4ERKNS_6ScalarE
FN:132,132,_ZN5neml2mlERKNS_5SFFR4ERKNS_6ScalarE
FN:132,132,_ZN5neml2mlERKNS_5SSFR5ERKNS_6ScalarE
FN:132,132,_ZN5neml2mlERKNS_6SSSSR8ERKNS_6ScalarE
FN:132,132,_ZN5neml2mlERKNS_6ScalarERKNS_10QuaternionE
FN:132,132,_ZN5neml2mlERKNS_6ScalarERKNS_11MillerIndexE
FN:132,132,_ZN5neml2mlERKNS_6ScalarERKNS_2R2E
FN:132,132,_ZN5neml2mlERKNS_6ScalarERKNS_2R3E
FN:132,132,_ZN5neml2mlERKNS_6ScalarERKNS_2R4E
FN:132,132,_ZN5neml2mlERKNS_6ScalarERKNS_2R5E
FN:132,132,_ZN5neml2mlERKNS_6ScalarERKNS_2R8E
FN:132,132,_ZN5neml2mlERKNS_6ScalarERKNS_3RotE
FN:132,132,_ZN5neml2mlERKNS_6ScalarERKNS_3SR2E
FN:132,132,_ZN5neml2mlERKNS_6ScalarERKNS_3VecE
FN:132,132,_ZN5neml2mlERKNS_6ScalarERKNS_3WR2E
FN:132,132,_ZN5neml2mlERKNS_6ScalarERKNS_4SFR3E
FN:132,132,_ZN5neml2mlERKNS_6ScalarERKNS_4SFR4E
FN:132,132,_ZN5neml2mlERKNS_6ScalarERKNS_4SSR4E
FN:132,132,_ZN5neml2mlERKNS_6ScalarERKNS_4SWR4E
FN:132,132,_ZN5neml2mlERKNS_6ScalarERKNS_4WFR4E
FN:132,132,_ZN5neml2mlERKNS_6ScalarERKNS_4WSR4E
FN:132,132,_ZN5neml2mlERKNS_6ScalarERKNS_4WWR4E
FN:132,132,_ZN5neml2mlERKNS_6ScalarERKNS_5SFFR4E
FN:132,132,_ZN5neml2mlERKNS_6ScalarERKNS_5SSFR5E
FN:132,132,_ZN5neml2mlERKNS_6ScalarERKNS_6SSSSR8E
FN:133,133,_ZN5neml2mlERKNS_10QuaternionERKd
FN:133,133,_ZN5neml2mlERKNS_11MillerIndexERKd
FN:133,133,_ZN5neml2mlERKNS_2R2ERKd
FN:133,133,_ZN5neml2mlERKNS_2R3ERKd
FN:133,133,_ZN5neml2mlERKNS_2R4ERKd
FN:133,133,_ZN5neml2mlERKNS_2R5ERKd
FN:133,133,_ZN5neml2mlERKNS_2R8ERKd
FN:133,133,_ZN5neml2mlERKNS_3RotERKd
FN:133,133,_ZN5neml2mlERKNS_3SR2ERKd
FN:133,133,_ZN5neml2mlERKNS_3VecERKd
FN:133,133,_ZN5neml2mlERKNS_3WR2ERKd
FN:133,133,_ZN5neml2mlERKNS_4SFR3ERKd
FN:133,133,_ZN5neml2mlERKNS_4SFR4ERKd
FN:133,133,_ZN5neml2mlERKNS_4SSR4ERKd
FN:133,133,_ZN5neml2mlERKNS_4SWR4ERKd
FN:133,133,_ZN5neml2mlERKNS_4WFR4ERKd
FN:133,133,_ZN5neml2mlERKNS_4WSR4ERKd
FN:133,133,_ZN5neml2mlERKNS_4WWR4ERKd
FN:133,133,_ZN5neml2mlERKNS_5SFFR4ERKd
FN:133,133,_ZN5neml2mlERKNS_5SSFR5ERKd
FN:133,133,_ZN5neml2mlERKNS_6SSSSR8ERKd
FN:133,133,_ZN5neml2mlERKdRKNS_10QuaternionE
FN:133,133,_ZN5neml2mlERKdRKNS_11MillerIndexE
FN:133,133,_ZN5neml2mlERKdRKNS_2R2E
FN:133,133,_ZN5neml2mlERKdRKNS_2R3E
FN:133,133,_ZN5neml2mlERKdRKNS_2R4E
FN:133,133,_ZN5neml2mlERKdRKNS_2R5E
FN:133,133,_ZN5neml2mlERKdRKNS_2R8E
FN:133,133,_ZN5neml2mlERKdRKNS_3RotE
FN:133,133,_ZN5neml2mlERKdRKNS_3SR2E
FN:133,133,_ZN5neml2mlERKdRKNS_3VecE
FN:133,133,_ZN5neml2mlERKdRKNS_3WR2E
FN:133,133,_ZN5neml2mlERKdRKNS_4SFR3E
FN:133,133,_ZN5neml2mlERKdRKNS_4SFR4E
FN:133,133,_ZN5neml2mlERKdRKNS_4SSR4E
FN:133,133,_ZN5neml2mlERKdRKNS_4SWR4E
FN:133,133,_ZN5neml2mlERKdRKNS_4WFR4E
FN:133,133,_ZN5neml2mlERKdRKNS_4WSR4E
FN:133,133,_ZN5neml2mlERKdRKNS_4WWR4E
FN:133,133,_ZN5neml2mlERKdRKNS_5SFFR4E
FN:133,133,_ZN5neml2mlERKdRKNS_5SSFR5E
FN:133,133,_ZN5neml2mlERKdRKNS_6SSSSR8E
FN:134,134,_ZN5neml2mlERKNS_6TensorES2_
FN:135,135,_ZN5neml2mlERKNS_6ScalarERKNS_6TensorE
FN:135,135,_ZN5neml2mlERKNS_6TensorERKNS_6ScalarE
FN:136,136,_ZN5neml2mlERKNS_6TensorERKd
FN:136,136,_ZN5neml2mlERKdRKNS_6TensorE
FN:137,137,_ZN5neml2mlERKNS_6ScalarES2_
FN:138,138,_ZN5neml2mlERKNS_6ScalarERKd
FN:138,138,_ZN5neml2mlERKdRKNS_6ScalarE
FN:171,171,_ZN5neml2dvERKNS_10QuaternionERKNS_6ScalarE
FN:171,171,_ZN5neml2dvERKNS_11MillerIndexERKNS_6ScalarE
FN:171,171,_ZN5neml2dvERKNS_2R2ERKNS_6ScalarE
FN:171,171,_ZN5neml2dvERKNS_2R3ERKNS_6ScalarE
FN:171,171,_ZN5neml2dvERKNS_2R4ERKNS_6ScalarE
FN:171,171,_ZN5neml2dvERKNS_2R5ERKNS_6ScalarE
FN:171,171,_ZN5neml2dvERKNS_2R8ERKNS_6ScalarE
FN:171,171,_ZN5neml2dvERKNS_3RotERKNS_6ScalarE
FN:171,171,_ZN5neml2dvERKNS_3SR2ERKNS_6ScalarE
FN:171,171,_ZN5neml2dvERKNS_3VecERKNS_6ScalarE
FN:171,171,_ZN5neml2dvERKNS_3WR2ERKNS_6ScalarE
FN:171,171,_ZN5neml2dvERKNS_4SFR3ERKNS_6ScalarE
FN:171,171,_ZN5neml2dvERKNS_4SFR4ERKNS_6ScalarE
FN:171,171,_ZN5neml2dvERKNS_4SSR4ERKNS_6ScalarE
FN:171,171,_ZN5neml2dvERKNS_4SWR4ERKNS_6ScalarE
FN:171,171,_ZN5neml2dvERKNS_4WFR4ERKNS_6ScalarE
FN:171,171,_ZN5neml2dvERKNS_4WSR4ERKNS_6ScalarE
FN:171,171,_ZN5neml2dvERKNS_4WWR4ERKNS_6ScalarE
FN:171,171,_ZN5neml2dvERKNS_5SFFR4ERKNS_6ScalarE
FN:171,171,_ZN5neml2dvERKNS_5SSFR5ERKNS_6ScalarE
FN:171,171,_ZN5neml2dvERKNS_6SSSSR8ERKNS_6ScalarE
FN:171,171,_ZN5neml2dvERKNS_6ScalarERKNS_10QuaternionE
FN:171,171,_ZN5neml2dvERKNS_6ScalarERKNS_11MillerIndexE
FN:171,171,_ZN5neml2dvERKNS_6ScalarERKNS_2R2E
FN:171,171,_ZN5neml2dvERKNS_6ScalarERKNS_2R3E
FN:171,171,_ZN5neml2dvERKNS_6ScalarERKNS_2R4E
FN:171,171,_ZN5neml2dvERKNS_6ScalarERKNS_2R5E
FN:171,171,_ZN5neml2dvERKNS_6ScalarERKNS_2R8E
FN:171,171,_ZN5neml2dvERKNS_6ScalarERKNS_3RotE
FN:171,171,_ZN5neml2dvERKNS_6ScalarERKNS_3SR2E
FN:171,171,_ZN5neml2dvERKNS_6ScalarERKNS_3VecE
FN:171,171,_ZN5neml2dvERKNS_6ScalarERKNS_3WR2E
FN:171,171,_ZN5neml2dvERKNS_6ScalarERKNS_4SFR3E
FN:171,171,_ZN5neml2dvERKNS_6ScalarERKNS_4SFR4E
FN:171,171,_ZN5neml2dvERKNS_6ScalarERKNS_4SSR4E
FN:171,171,_ZN5neml2dvERKNS_6ScalarERKNS_4SWR4E
FN:171,171,_ZN5neml2dvERKNS_6ScalarERKNS_4WFR4E
FN:171,171,_ZN5neml2dvERKNS_6ScalarERKNS_4WSR4E
FN:171,171,_ZN5neml2dvERKNS_6ScalarERKNS_4WWR4E
FN:171,171,_ZN5neml2dvERKNS_6ScalarERKNS_5SFFR4E
FN:171,171,_ZN5neml2dvERKNS_6ScalarERKNS_5SSFR5E
FN:171,171,_ZN5neml2dvERKNS_6ScalarERKNS_6SSSSR8E
FN:172,172,_ZN5neml2dvERKNS_10QuaternionERKd
FN:172,172,_ZN5neml2dvERKNS_11MillerIndexERKd
FN:172,172,_ZN5neml2dvERKNS_2R2ERKd
FN:172,172,_ZN5neml2dvERKNS_2R3ERKd
FN:172,172,_ZN5neml2dvERKNS_2R4ERKd
FN:172,172,_ZN5neml2dvERKNS_2R5ERKd
FN:172,172,_ZN5neml2dvERKNS_2R8ERKd
FN:172,172,_ZN5neml2dvERKNS_3RotERKd
FN:172,172,_ZN5neml2dvERKNS_3SR2ERKd
FN:172,172,_ZN5neml2dvERKNS_3VecERKd
FN:172,172,_ZN5neml2dvERKNS_3WR2ERKd
FN:172,172,_ZN5neml2dvERKNS_4SFR3ERKd
FN:172,172,_ZN5neml2dvERKNS_4SFR4ERKd
FN:172,172,_ZN5neml2dvERKNS_4SSR4ERKd
FN:172,172,_ZN5neml2dvERKNS_4SWR4ERKd
FN:172,172,_ZN5neml2dvERKNS_4WFR4ERKd
FN:172,172,_ZN5neml2dvERKNS_4WSR4ERKd
FN:172,172,_ZN5neml2dvERKNS_4WWR4ERKd
FN:172,172,_ZN5neml2dvERKNS_5SFFR4ERKd
FN:172,172,_ZN5neml2dvERKNS_5SSFR5ERKd
FN:172,172,_ZN5neml2dvERKNS_6SSSSR8ERKd
FN:172,172,_ZN5neml2dvERKdRKNS_10QuaternionE
FN:172,172,_ZN5neml2dvERKdRKNS_11MillerIndexE
FN:172,172,_ZN5neml2dvERKdRKNS_2R2E
FN:172,172,_ZN5neml2dvERKdRKNS_2R3E
FN:172,172,_ZN5neml2dvERKdRKNS_2R4E
FN:172,172,_ZN5neml2dvERKdRKNS_2R5E
FN:172,172,_ZN5neml2dvERKdRKNS_2R8E
FN:172,172,_ZN5neml2dvERKdRKNS_3RotE
FN:172,172,_ZN5neml2dvERKdRKNS_3SR2E
FN:172,172,_ZN5neml2dvERKdRKNS_3VecE
FN:172,172,_ZN5neml2dvERKdRKNS_3WR2E
FN:172,172,_ZN5neml2dvERKdRKNS_4SFR3E
FN:172,172,_ZN5neml2dvERKdRKNS_4SFR4E
FN:172,172,_ZN5neml2dvERKdRKNS_4SSR4E
FN:172,172,_ZN5neml2dvERKdRKNS_4SWR4E
FN:172,172,_ZN5neml2dvERKdRKNS_4WFR4E
FN:172,172,_ZN5neml2dvERKdRKNS_4WSR4E
FN:172,172,_ZN5neml2dvERKdRKNS_4WWR4E
FN:172,172,_ZN5neml2dvERKdRKNS_5SFFR4E
FN:172,172,_ZN5neml2dvERKdRKNS_5SSFR5E
FN:172,172,_ZN5neml2dvERKdRKNS_6SSSSR8E
FN:173,173,_ZN5neml2dvERKNS_6TensorES2_
FN:174,174,_ZN5neml2dvERKNS_6ScalarERKNS_6TensorE
FN:174,174,_ZN5neml2dvERKNS_6TensorERKNS_6ScalarE
FN:175,175,_ZN5neml2dvERKNS_6TensorERKd
FN:175,175,_ZN5neml2dvERKdRKNS_6TensorE
FN:176,176,_ZN5neml2dvERKNS_6ScalarES2_
FN:177,177,_ZN5neml2dvERKNS_6ScalarERKd
FN:177,177,_ZN5neml2dvERKdRKNS_6ScalarE
FN:57,57,_ZN5neml2plERKNS_10QuaternionES2_
FN:57,57,_ZN5neml2plERKNS_11MillerIndexES2_
FN:57,57,_ZN5neml2plERKNS_2R2ES2_
FN:57,57,_ZN5neml2plERKNS_2R3ES2_
FN:57,57,_ZN5neml2plERKNS_2R4ES2_
FN:57,57,_ZN5neml2plERKNS_2R5ES2_
FN:57,57,_ZN5neml2plERKNS_2R8ES2_
FN:57,57,_ZN5neml2plERKNS_3RotES2_
FN:57,57,_ZN5neml2plERKNS_3SR2ES2_
FN:57,57,_ZN5neml2plERKNS_3VecES2_
FN:57,57,_ZN5neml2plERKNS_3WR2ES2_
FN:57,57,_ZN5neml2plERKNS_4SFR3ES2_
FN:57,57,_ZN5neml2plERKNS_4SFR4ES2_
FN:57,57,_ZN5neml2plERKNS_4SSR4ES2_
FN:57,57,_ZN5neml2plERKNS_4SWR4ES2_
FN:57,57,_ZN5neml2plERKNS_4WFR4ES2_
FN:57,57,_ZN5neml2plERKNS_4WSR4ES2_
FN:57,57,_ZN5neml2plERKNS_4WWR4ES2_
FN:57,57,_ZN5neml2plERKNS_5SFFR4ES2_
FN:57,57,_ZN5neml2plERKNS_5SSFR5ES2_
FN:57,57,_ZN5neml2plERKNS_6SSSSR8ES2_
FN:58,58,_ZN5neml2plERKNS_10QuaternionERKNS_6ScalarE
FN:58,58,_ZN5neml2plERKNS_11MillerIndexERKNS_6ScalarE
FN:58,58,_ZN5neml2plERKNS_2R2ERKNS_6ScalarE
FN:58,58,_ZN5neml2plERKNS_2R3ERKNS_6ScalarE
FN:58,58,_ZN5neml2plERKNS_2R4ERKNS_6ScalarE
FN:58,58,_ZN5neml2plERKNS_2R5ERKNS_6ScalarE
FN:58,58,_ZN5neml2plERKNS_2R8ERKNS_6ScalarE
FN:58,58,_ZN5neml2plERKNS_3RotERKNS_6ScalarE
FN:58,58,_ZN5neml2plERKNS_3SR2ERKNS_6ScalarE
FN:58,58,_ZN5neml2plERKNS_3VecERKNS_6ScalarE
FN:58,58,_ZN5neml2plERKNS_3WR2ERKNS_6ScalarE
FN:58,58,_ZN5neml2plERKNS_4SFR3ERKNS_6ScalarE
FN:58,58,_ZN5neml2plERKNS_4SFR4ERKNS_6ScalarE
FN:58,58,_ZN5neml2plERKNS_4SSR4ERKNS_6ScalarE
FN:58,58,_ZN5neml2plERKNS_4SWR4ERKNS_6ScalarE
FN:58,58,_ZN5neml2plERKNS_4WFR4ERKNS_6ScalarE
FN:58,58,_ZN5neml2plERKNS_4WSR4ERKNS_6ScalarE
FN:58,58,_ZN5neml2plERKNS_4WWR4ERKNS_6ScalarE
FN:58,58,_ZN5neml2plERKNS_5SFFR4ERKNS_6ScalarE
FN:58,58,_ZN5neml2plERKNS_5SSFR5ERKNS_6ScalarE
FN:58,58,_ZN5neml2plERKNS_6SSSSR8ERKNS_6ScalarE
FN:58,58,_ZN5neml2plERKNS_6ScalarERKNS_10QuaternionE
FN:58,58,_ZN5neml2plERKNS_6ScalarERKNS_11MillerIndexE
FN:58,58,_ZN5neml2plERKNS_6ScalarERKNS_2R2E
FN:58,58,_ZN5neml2plERKNS_6ScalarERKNS_2R3E
FN:58,58,_ZN5neml2plERKNS_6ScalarERKNS_2R4E
FN:58,58,_ZN5neml2plERKNS_6ScalarERKNS_2R5E
FN:58,58,_ZN5neml2plERKNS_6ScalarERKNS_2R8E
FN:58,58,_ZN5neml2plERKNS_6ScalarERKNS_3RotE
FN:58,58,_ZN5neml2plERKNS_6ScalarERKNS_3SR2E
FN:58,58,_ZN5neml2plERKNS_6ScalarERKNS_3VecE
FN:58,58,_ZN5neml2plERKNS_6ScalarERKNS_3WR2E
FN:58,58,_ZN5neml2plERKNS_6ScalarERKNS_4SFR3E
FN:58,58,_ZN5neml2plERKNS_6ScalarERKNS_4SFR4E
FN:58,58,_ZN5neml2plERKNS_6ScalarERKNS_4SSR4E
FN:58,58,_ZN5neml2plERKNS_6ScalarERKNS_4SWR4E
FN:58,58,_ZN5neml2plERKNS_6ScalarERKNS_4WFR4E
FN:58,58,_ZN5neml2plERKNS_6ScalarERKNS_4WSR4E
FN:58,58,_ZN5neml2plERKNS_6ScalarERKNS_4WWR4E
FN:58,58,_ZN5neml2plERKNS_6ScalarERKNS_5SFFR4E
FN:58,58,_ZN5neml2plERKNS_6ScalarERKNS_5SSFR5E
FN:58,58,_ZN5neml2plERKNS_6ScalarERKNS_6SSSSR8E
FN:59,59,_ZN5neml2plERKNS_10QuaternionERKd
FN:59,59,_ZN5neml2plERKNS_11MillerIndexERKd
FN:59,59,_ZN5neml2plERKNS_2R2ERKd
FN:59,59,_ZN5neml2plERKNS_2R3ERKd
FN:59,59,_ZN5neml2plERKNS_2R4ERKd
FN:59,59,_ZN5neml2plERKNS_2R5ERKd
FN:59,59,_ZN5neml2plERKNS_2R8ERKd
FN:59,59,_ZN5neml2plERKNS_3RotERKd
FN:59,59,_ZN5neml2plERKNS_3SR2ERKd
FN:59,59,_ZN5neml2plERKNS_3VecERKd
FN:59,59,_ZN5neml2plERKNS_3WR2ERKd
FN:59,59,_ZN5neml2plERKNS_4SFR3ERKd
FN:59,59,_ZN5neml2plERKNS_4SFR4ERKd
FN:59,59,_ZN5neml2plERKNS_4SSR4ERKd
FN:59,59,_ZN5neml2plERKNS_4SWR4ERKd
FN:59,59,_ZN5neml2plERKNS_4WFR4ERKd
FN:59,59,_ZN5neml2plERKNS_4WSR4ERKd
FN:59,59,_ZN5neml2plERKNS_4WWR4ERKd
FN:59,59,_ZN5neml2plERKNS_5SFFR4ERKd
FN:59,59,_ZN5neml2plERKNS_5SSFR5ERKd
FN:59,59,_ZN5neml2plERKNS_6SSSSR8ERKd
FN:59,59,_ZN5neml2plERKdRKNS_10QuaternionE
FN:59,59,_ZN5neml2plERKdRKNS_11MillerIndexE
FN:59,59,_ZN5neml2plERKdRKNS_2R2E
FN:59,59,_ZN5neml2plERKdRKNS_2R3E
FN:59,59,_ZN5neml2plERKdRKNS_2R4E
FN:59,59,_ZN5neml2plERKdRKNS_2R5E
FN:59,59,_ZN5neml2plERKdRKNS_2R8E
FN:59,59,_ZN5neml2plERKdRKNS_3RotE
FN:59,59,_ZN5neml2plERKdRKNS_3SR2E
FN:59,59,_ZN5neml2plERKdRKNS_3VecE
FN:59,59,_ZN5neml2plERKdRKNS_3WR2E
FN:59,59,_ZN5neml2plERKdRKNS_4SFR3E
FN:59,59,_ZN5neml2plERKdRKNS_4SFR4E
FN:59,59,_ZN5neml2plERKdRKNS_4SSR4E
FN:59,59,_ZN5neml2plERKdRKNS_4SWR4E
FN:59,59,_ZN5neml2plERKdRKNS_4WFR4E
FN:59,59,_ZN5neml2plERKdRKNS_4WSR4E
FN:59,59,_ZN5neml2plERKdRKNS_4WWR4E
FN:59,59,_ZN5neml2plERKdRKNS_5SFFR4E
FN:59,59,_ZN5neml2plERKdRKNS_5SSFR5E
FN:59,59,_ZN5neml2plERKdRKNS_6SSSSR8E
FN:60,60,_ZN5neml2plERKNS_6TensorES2_
FN:61,61,_ZN5neml2plERKNS_6ScalarERKNS_6TensorE
FN:61,61,_ZN5neml2plERKNS_6TensorERKNS_6ScalarE
FN:62,62,_ZN5neml2plERKNS_6TensorERKd
FN:62,62,_ZN5neml2plERKdRKNS_6TensorE
FN:63,63,_ZN5neml2plERKNS_6ScalarES2_
FN:64,64,_ZN5neml2plERKNS_6ScalarERKd
FN:64,64,_ZN5neml2plERKdRKNS_6ScalarE
FN:97,97,_ZN5neml2miERKNS_10QuaternionES2_
FN:97,97,_ZN5neml2miERKNS_11MillerIndexES2_
FN:97,97,_ZN5neml2miERKNS_2R2ES2_
FN:97,97,_ZN5neml2miERKNS_2R3ES2_
FN:97,97,_ZN5neml2miERKNS_2R4ES2_
FN:97,97,_ZN5neml2miERKNS_2R5ES2_
FN:97,97,_ZN5neml2miERKNS_2R8ES2_
FN:97,97,_ZN5neml2miERKNS_3RotES2_
FN:97,97,_ZN5neml2miERKNS_3SR2ES2_
FN:97,97,_ZN5neml2miERKNS_3VecES2_
FN:97,97,_ZN5neml2miERKNS_3WR2ES2_
FN:97,97,_ZN5neml2miERKNS_4SFR3ES2_
FN:97,97,_ZN5neml2miERKNS_4SFR4ES2_
FN:97,97,_ZN5neml2miERKNS_4SSR4ES2_
FN:97,97,_ZN5neml2miERKNS_4SWR4ES2_
FN:97,97,_ZN5neml2miERKNS_4WFR4ES2_
FN:97,97,_ZN5neml2miERKNS_4WSR4ES2_
FN:97,97,_ZN5neml2miERKNS_4WWR4ES2_
FN:97,97,_ZN5neml2miERKNS_5SFFR4ES2_
FN:97,97,_ZN5neml2miERKNS_5SSFR5ES2_
FN:97,97,_ZN5neml2miERKNS_6SSSSR8ES2_
FN:98,98,_ZN5neml2miERKNS_10QuaternionERKNS_6ScalarE
FN:98,98,_ZN5neml2miERKNS_11MillerIndexERKNS_6ScalarE
FN:98,98,_ZN5neml2miERKNS_2R2ERKNS_6ScalarE
FN:98,98,_ZN5neml2miERKNS_2R3ERKNS_6ScalarE
FN:98,98,_ZN5neml2miERKNS_2R4ERKNS_6ScalarE
FN:98,98,_ZN5neml2miERKNS_2R5ERKNS_6ScalarE
FN:98,98,_ZN5neml2miERKNS_2R8ERKNS_6ScalarE
FN:98,98,_ZN5neml2miERKNS_3RotERKNS_6ScalarE
FN:98,98,_ZN5neml2miERKNS_3SR2ERKNS_6ScalarE
FN:98,98,_ZN5neml2miERKNS_3VecERKNS_6ScalarE
FN:98,98,_ZN5neml2miERKNS_3WR2ERKNS_6ScalarE
FN:98,98,_ZN5neml2miERKNS_4SFR3ERKNS_6ScalarE
FN:98,98,_ZN5neml2miERKNS_4SFR4ERKNS_6ScalarE
FN:98,98,_ZN5neml2miERKNS_4SSR4ERKNS_6ScalarE
FN:98,98,_ZN5neml2miERKNS_4SWR4ERKNS_6ScalarE
FN:98,98,_ZN5neml2miERKNS_4WFR4ERKNS_6ScalarE
FN:98,98,_ZN5neml2miERKNS_4WSR4ERKNS_6ScalarE
FN:98,98,_ZN5neml2miERKNS_4WWR4ERKNS_6ScalarE
FN:98,98,_ZN5neml2miERKNS_5SFFR4ERKNS_6ScalarE
FN:98,98,_ZN5neml2miERKNS_5SSFR5ERKNS_6ScalarE
FN:98,98,_ZN5neml2miERKNS_6SSSSR8ERKNS_6ScalarE
FN:98,98,_ZN5neml2miERKNS_6ScalarERKNS_10QuaternionE
FN:98,98,_ZN5neml2miERKNS_6ScalarERKNS_11MillerIndexE
FN:98,98,_ZN5neml2miERKNS_6ScalarERKNS_2R2E
FN:98,98,_ZN5neml2miERKNS_6ScalarERKNS_2R3E
FN:98,98,_ZN5neml2miERKNS_6ScalarERKNS_2R4E
FN:98,98,_ZN5neml2miERKNS_6ScalarERKNS_2R5E
FN:98,98,_ZN5neml2miERKNS_6ScalarERKNS_2R8E
FN:98,98,_ZN5neml2miERKNS_6ScalarERKNS_3RotE
FN:98,98,_ZN5neml2miERKNS_6ScalarERKNS_3SR2E
FN:98,98,_ZN5neml2miERKNS_6ScalarERKNS_3VecE
FN:98,98,_ZN5neml2miERKNS_6ScalarERKNS_3WR2E
FN:98,98,_ZN5neml2miERKNS_6ScalarERKNS_4SFR3E
FN:98,98,_ZN5neml2miERKNS_6ScalarERKNS_4SFR4E
FN:98,98,_ZN5neml2miERKNS_6ScalarERKNS_4SSR4E
FN:98,98,_ZN5neml2miERKNS_6ScalarERKNS_4SWR4E
FN:98,98,_ZN5neml2miERKNS_6ScalarERKNS_4WFR4E
FN:98,98,_ZN5neml2miERKNS_6ScalarERKNS_4WSR4E
FN:98,98,_ZN5neml2miERKNS_6ScalarERKNS_4WWR4E
FN:98,98,_ZN5neml2miERKNS_6ScalarERKNS_5SFFR4E
FN:98,98,_ZN5neml2miERKNS_6ScalarERKNS_5SSFR5E
FN:98,98,_ZN5neml2miERKNS_6ScalarERKNS_6SSSSR8E
FN:99,99,_ZN5neml2miERKNS_10QuaternionERKd
FN:99,99,_ZN5neml2miERKNS_11MillerIndexERKd
FN:99,99,_ZN5neml2miERKNS_2R2ERKd
FN:99,99,_ZN5neml2miERKNS_2R3ERKd
FN:99,99,_ZN5neml2miERKNS_2R4ERKd
FN:99,99,_ZN5neml2miERKNS_2R5ERKd
FN:99,99,_ZN5neml2miERKNS_2R8ERKd
FN:99,99,_ZN5neml2miERKNS_3RotERKd
FN:99,99,_ZN5neml2miERKNS_3SR2ERKd
FN:99,99,_ZN5neml2miERKNS_3VecERKd
FN:99,99,_ZN5neml2miERKNS_3WR2ERKd
FN:99,99,_ZN5neml2miERKNS_4SFR3ERKd
FN:99,99,_ZN5neml2miERKNS_4SFR4ERKd
FN:99,99,_ZN5neml2miERKNS_4SSR4ERKd
FN:99,99,_ZN5neml2miERKNS_4SWR4ERKd
FN:99,99,_ZN5neml2miERKNS_4WFR4ERKd
FN:99,99,_ZN5neml2miERKNS_4WSR4ERKd
FN:99,99,_ZN5neml2miERKNS_4WWR4ERKd
FN:99,99,_ZN5neml2miERKNS_5SFFR4ERKd
FN:99,99,_ZN5neml2miERKNS_5SSFR5ERKd
FN:99,99,_ZN5neml2miERKNS_6SSSSR8ERKd
FN:99,99,_ZN5neml2miERKdRKNS_10QuaternionE
FN:99,99,_ZN5neml2miERKdRKNS_11MillerIndexE
FN:99,99,_ZN5neml2miERKdRKNS_2R2E
FN:99,99,_ZN5neml2miERKdRKNS_2R3E
FN:99,99,_ZN5neml2miERKdRKNS_2R4E
FN:99,99,_ZN5neml2miERKdRKNS_2R5E
FN:99,99,_ZN5neml2miERKdRKNS_2R8E
FN:99,99,_ZN5neml2miERKdRKNS_3RotE
FN:99,99,_ZN5neml2miERKdRKNS_3SR2E
FN:99,99,_ZN5neml2miERKdRKNS_3VecE
FN:99,99,_ZN5neml2miERKdRKNS_3WR2E
FN:99,99,_ZN5neml2miERKdRKNS_4SFR3E
FN:99,99,_ZN5neml2miERKdRKNS_4SFR4E
FN:99,99,_ZN5neml2miERKdRKNS_4SSR4E
FN:99,99,_ZN5neml2miERKdRKNS_4SWR4E
FN:99,99,_ZN5neml2miERKdRKNS_4WFR4E
FN:99,99,_ZN5neml2miERKdRKNS_4WSR4E
FN:99,99,_ZN5neml2miERKdRKNS_4WWR4E
FN:99,99,_ZN5neml2miERKdRKNS_5SFFR4E
FN:99,99,_ZN5neml2miERKdRKNS_5SSFR5E
FN:99,99,_ZN5neml2miERKdRKNS_6SSSSR8E
FNDA:1863,_ZN5neml2miERKNS_6TensorES2_
FNDA:4,_ZN5neml2miERKNS_6ScalarERKNS_6TensorE
FNDA:4,_ZN5neml2miERKNS_6TensorERKNS_6ScalarE
FNDA:388,_ZN5neml2miERKNS_6TensorERKd
FNDA:6,_ZN5neml2miERKdRKNS_6TensorE
FNDA:1188,_ZN5neml2miERKNS_6ScalarES2_
FNDA:152,_ZN5neml2miERKNS_6ScalarERKd
FNDA:760,_ZN5neml2miERKdRKNS_6ScalarE
FNDA:0,_ZN5neml2mlERKNS_10QuaternionERKNS_6ScalarE
FNDA:0,_ZN5neml2mlERKNS_11MillerIndexERKNS_6ScalarE
FNDA:831,_ZN5neml2mlERKNS_2R2ERKNS_6ScalarE
FNDA:150,_ZN5neml2mlERKNS_2R3ERKNS_6ScalarE
FNDA:2,_ZN5neml2mlERKNS_2R4ERKNS_6ScalarE
FNDA:2,_ZN5neml2mlERKNS_2R5ERKNS_6ScalarE
FNDA:0,_ZN5neml2mlERKNS_2R8ERKNS_6ScalarE
FNDA:50,_ZN5neml2mlERKNS_3RotERKNS_6ScalarE
FNDA:395,_ZN5neml2mlERKNS_3SR2ERKNS_6ScalarE
FNDA:91,_ZN5neml2mlERKNS_3VecERKNS_6ScalarE
FNDA:19,_ZN5neml2mlERKNS_3WR2ERKNS_6ScalarE
FNDA:2,_ZN5neml2mlERKNS_4SFR3ERKNS_6ScalarE
FNDA:2,_ZN5neml2mlERKNS_4SFR4ERKNS_6ScalarE
FNDA:236,_ZN5neml2mlERKNS_4SSR4ERKNS_6ScalarE
FNDA:0,_ZN5neml2mlERKNS_4SWR4ERKNS_6ScalarE
FNDA:2,_ZN5neml2mlERKNS_4WFR4ERKNS_6ScalarE
FNDA:0,_ZN5neml2mlERKNS_4WSR4ERKNS_6ScalarE
FNDA:0,_ZN5neml2mlERKNS_4WWR4ERKNS_6ScalarE
FNDA:0,_ZN5neml2mlERKNS_5SFFR4ERKNS_6ScalarE
FNDA:2,_ZN5neml2mlERKNS_5SSFR5ERKNS_6ScalarE
FNDA:0,_ZN5neml2mlERKNS_6SSSSR8ERKNS_6ScalarE
FNDA:0,_ZN5neml2mlERKNS_6ScalarERKNS_10QuaternionE
FNDA:0,_ZN5neml2mlERKNS_6ScalarERKNS_11MillerIndexE
FNDA:824,_ZN5neml2mlERKNS_6ScalarERKNS_2R2E
FNDA:150,_ZN5neml2mlERKNS_6ScalarERKNS_2R3E
FNDA:2,_ZN5neml2mlERKNS_6ScalarERKNS_2R4E
FNDA:2,_ZN5neml2mlERKNS_6ScalarERKNS_2R5E
FNDA:0,_ZN5neml2mlERKNS_6ScalarERKNS_2R8E
FNDA:2,_ZN5neml2mlERKNS_6ScalarERKNS_3RotE
FNDA:298,_ZN5neml2mlERKNS_6ScalarERKNS_3SR2E
FNDA:91,_ZN5neml2mlERKNS_6ScalarERKNS_3VecE
FNDA:7,_ZN5neml2mlERKNS_6ScalarERKNS_3WR2E
FNDA:2,_ZN5neml2mlERKNS_6ScalarERKNS_4SFR3E
FNDA:2,_ZN5neml2mlERKNS_6ScalarERKNS_4SFR4E
FNDA:215,_ZN5neml2mlERKNS_6ScalarERKNS_4SSR4E
FNDA:0,_ZN5neml2mlERKNS_6ScalarERKNS_4SWR4E
FNDA:2,_ZN5neml2mlERKNS_6ScalarERKNS_4WFR4E
FNDA:0,_ZN5neml2mlERKNS_6ScalarERKNS_4WSR4E
FNDA:0,_ZN5neml2mlERKNS_6ScalarERKNS_4WWR4E
FNDA:0,_ZN5neml2mlERKNS_6ScalarERKNS_5SFFR4E
FNDA:2,_ZN5neml2mlERKNS_6ScalarERKNS_5SSFR5E
FNDA:0,_ZN5neml2mlERKNS_6ScalarERKNS_6SSSSR8E
FNDA:0,_ZN5neml2mlERKNS_10QuaternionERKd
FNDA:0,_ZN5neml2mlERKNS_11MillerIndexERKd
FNDA:284,_ZN5neml2mlERKNS_2R2ERKd
FNDA:0,_ZN5neml2mlERKNS_2R3ERKd
FNDA:0,_ZN5neml2mlERKNS_2R4ERKd
FNDA:0,_ZN5neml2mlERKNS_2R5ERKd
FNDA:0,_ZN5neml2mlERKNS_2R8ERKd
FNDA:0,_ZN5neml2mlERKNS_3RotERKd
FNDA:53,_ZN5neml2mlERKNS_3SR2ERKd
FNDA:52,_ZN5neml2mlERKNS_3VecERKd
FNDA:0,_ZN5neml2mlERKNS_3WR2ERKd
FNDA:0,_ZN5neml2mlERKNS_4SFR3ERKd
FNDA:0,_ZN5neml2mlERKNS_4SFR4ERKd
FNDA:40,_ZN5neml2mlERKNS_4SSR4ERKd
FNDA:0,_ZN5neml2mlERKNS_4SWR4ERKd
FNDA:0,_ZN5neml2mlERKNS_4WFR4ERKd
FNDA:0,_ZN5neml2mlERKNS_4WSR4ERKd
FNDA:0,_ZN5neml2mlERKNS_4WWR4ERKd
FNDA:0,_ZN5neml2mlERKNS_5SFFR4ERKd
FNDA:0,_ZN5neml2mlERKNS_5SSFR5ERKd
FNDA:0,_ZN5neml2mlERKNS_6SSSSR8ERKd
FNDA:0,_ZN5neml2mlERKdRKNS_10QuaternionE
FNDA:0,_ZN5neml2mlERKdRKNS_11MillerIndexE
FNDA:284,_ZN5neml2mlERKdRKNS_2R2E
FNDA:0,_ZN5neml2mlERKdRKNS_2R3E
FNDA:0,_ZN5neml2mlERKdRKNS_2R4E
FNDA:0,_ZN5neml2mlERKdRKNS_2R5E
FNDA:0,_ZN5neml2mlERKdRKNS_2R8E
FNDA:0,_ZN5neml2mlERKdRKNS_3RotE
FNDA:52,_ZN5neml2mlERKdRKNS_3SR2E
FNDA:52,_ZN5neml2mlERKdRKNS_3VecE
FNDA:0,_ZN5neml2mlERKdRKNS_3WR2E
FNDA:0,_ZN5neml2mlERKdRKNS_4SFR3E
FNDA:0,_ZN5neml2mlERKdRKNS_4SFR4E
FNDA:40,_ZN5neml2mlERKdRKNS_4SSR4E
FNDA:0,_ZN5neml2mlERKdRKNS_4SWR4E
FNDA:0,_ZN5neml2mlERKdRKNS_4WFR4E
FNDA:0,_ZN5neml2mlERKdRKNS_4WSR4E
FNDA:0,_ZN5neml2mlERKdRKNS_4WWR4E
FNDA:0,_ZN5neml2mlERKdRKNS_5SFFR4E
FNDA:0,_ZN5neml2mlERKdRKNS_5SSFR5E
FNDA:0,_ZN5neml2mlERKdRKNS_6SSSSR8E
FNDA:174,_ZN5neml2mlERKNS_6TensorES2_
FNDA:486,_ZN5neml2mlERKNS_6ScalarERKNS_6TensorE
FNDA:498,_ZN5neml2mlERKNS_6TensorERKNS_6ScalarE
FNDA:242,_ZN5neml2mlERKNS_6TensorERKd
FNDA:231,_ZN5neml2mlERKdRKNS_6TensorE
FNDA:2942,_ZN5neml2mlERKNS_6ScalarES2_
FNDA:4698,_ZN5neml2mlERKNS_6ScalarERKd
FNDA:4623,_ZN5neml2mlERKdRKNS_6ScalarE
FNDA:0,_ZN5neml2dvERKNS_10QuaternionERKNS_6ScalarE
FNDA:73,_ZN5neml2dvERKNS_11MillerIndexERKNS_6ScalarE
FNDA:8,_ZN5neml2dvERKNS_2R2ERKNS_6ScalarE
FNDA:0,_ZN5neml2dvERKNS_2R3ERKNS_6ScalarE
FNDA:1,_ZN5neml2dvERKNS_2R4ERKNS_6ScalarE
FNDA:0,_ZN5neml2dvERKNS_2R5ERKNS_6ScalarE
FNDA:0,_ZN5neml2dvERKNS_2R8ERKNS_6ScalarE
FNDA:71,_ZN5neml2dvERKNS_3RotERKNS_6ScalarE
FNDA:96,_ZN5neml2dvERKNS_3SR2ERKNS_6ScalarE
FNDA:1129,_ZN5neml2dvERKNS_3VecERKNS_6ScalarE
FNDA:0,_ZN5neml2dvERKNS_3WR2ERKNS_6ScalarE
FNDA:0,_ZN5neml2dvERKNS_4SFR3ERKNS_6ScalarE
FNDA:0,_ZN5neml2dvERKNS_4SFR4ERKNS_6ScalarE
FNDA:26,_ZN5neml2dvERKNS_4SSR4ERKNS_6ScalarE
FNDA:0,_ZN5neml2dvERKNS_4SWR4ERKNS_6ScalarE
FNDA:0,_ZN5neml2dvERKNS_4WFR4ERKNS_6ScalarE
FNDA:0,_ZN5neml2dvERKNS_4WSR4ERKNS_6ScalarE
FNDA:0,_ZN5neml2dvERKNS_4WWR4ERKNS_6ScalarE
FNDA:0,_ZN5neml2dvERKNS_5SFFR4ERKNS_6ScalarE
FNDA:0,_ZN5neml2dvERKNS_5SSFR5ERKNS_6ScalarE
FNDA:0,_ZN5neml2dvERKNS_6SSSSR8ERKNS_6ScalarE
FNDA:0,_ZN5neml2dvERKNS_6ScalarERKNS_10QuaternionE
FNDA:0,_ZN5neml2dvERKNS_6ScalarERKNS_11MillerIndexE
FNDA:0,_ZN5neml2dvERKNS_6ScalarERKNS_2R2E
FNDA:0,_ZN5neml2dvERKNS_6ScalarERKNS_2R3E
FNDA:0,_ZN5neml2dvERKNS_6ScalarERKNS_2R4E
FNDA:0,_ZN5neml2dvERKNS_6ScalarERKNS_2R5E
FNDA:0,_ZN5neml2dvERKNS_6ScalarERKNS_2R8E
FNDA:0,_ZN5neml2dvERKNS_6ScalarERKNS_3RotE
FNDA:0,_ZN5neml2dvERKNS_6ScalarERKNS_3SR2E
FNDA:0,_ZN5neml2dvERKNS_6ScalarERKNS_3VecE
FNDA:0,_ZN5neml2dvERKNS_6ScalarERKNS_3WR2E
FNDA:0,_ZN5neml2dvERKNS_6ScalarERKNS_4SFR3E
FNDA:0,_ZN5neml2dvERKNS_6ScalarERKNS_4SFR4E
FNDA:0,_ZN5neml2dvERKNS_6ScalarERKNS_4SSR4E
FNDA:0,_ZN5neml2dvERKNS_6ScalarERKNS_4SWR4E
FNDA:0,_ZN5neml2dvERKNS_6ScalarERKNS_4WFR4E
FNDA:0,_ZN5neml2dvERKNS_6ScalarERKNS_4WSR4E
FNDA:0,_ZN5neml2dvERKNS_6ScalarERKNS_4WWR4E
FNDA:0,_ZN5neml2dvERKNS_6ScalarERKNS_5SFFR4E
FNDA:0,_ZN5neml2dvERKNS_6ScalarERKNS_5SSFR5E
FNDA:0,_ZN5neml2dvERKNS_6ScalarERKNS_6SSSSR8E
FNDA:0,_ZN5neml2dvERKNS_10QuaternionERKd
FNDA:0,_ZN5neml2dvERKNS_11MillerIndexERKd
FNDA:149,_ZN5neml2dvERKNS_2R2ERKd
FNDA:0,_ZN5neml2dvERKNS_2R3ERKd
FNDA:72,_ZN5neml2dvERKNS_2R4ERKd
FNDA:0,_ZN5neml2dvERKNS_2R5ERKd
FNDA:0,_ZN5neml2dvERKNS_2R8ERKd
FNDA:0,_ZN5neml2dvERKNS_3RotERKd
FNDA:151,_ZN5neml2dvERKNS_3SR2ERKd
FNDA:0,_ZN5neml2dvERKNS_3VecERKd
FNDA:0,_ZN5neml2dvERKNS_3WR2ERKd
FNDA:0,_ZN5neml2dvERKNS_4SFR3ERKd
FNDA:0,_ZN5neml2dvERKNS_4SFR4ERKd
FNDA:63,_ZN5neml2dvERKNS_4SSR4ERKd
FNDA:0,_ZN5neml2dvERKNS_4SWR4ERKd
FNDA:0,_ZN5neml2dvERKNS_4WFR4ERKd
FNDA:0,_ZN5neml2dvERKNS_4WSR4ERKd
FNDA:0,_ZN5neml2dvERKNS_4WWR4ERKd
FNDA:0,_ZN5neml2dvERKNS_5SFFR4ERKd
FNDA:0,_ZN5neml2dvERKNS_5SSFR5ERKd
FNDA:0,_ZN5neml2dvERKNS_6SSSSR8ERKd
FNDA:0,_ZN5neml2dvERKdRKNS_10QuaternionE
FNDA:0,_ZN5neml2dvERKdRKNS_11MillerIndexE
FNDA:0,_ZN5neml2dvERKdRKNS_2R2E
FNDA:0,_ZN5neml2dvERKdRKNS_2R3E
FNDA:0,_ZN5neml2dvERKdRKNS_2R4E
FNDA:0,_ZN5neml2dvERKdRKNS_2R5E
FNDA:0,_ZN5neml2dvERKdRKNS_2R8E
FNDA:0,_ZN5neml2dvERKdRKNS_3RotE
FNDA:0,_ZN5neml2dvERKdRKNS_3SR2E
FNDA:0,_ZN5neml2dvERKdRKNS_3VecE
FNDA:0,_ZN5neml2dvERKdRKNS_3WR2E
FNDA:0,_ZN5neml2dvERKdRKNS_4SFR3E
FNDA:0,_ZN5neml2dvERKdRKNS_4SFR4E
FNDA:0,_ZN5neml2dvERKdRKNS_4SSR4E
FNDA:0,_ZN5neml2dvERKdRKNS_4SWR4E
FNDA:0,_ZN5neml2dvERKdRKNS_4WFR4E
FNDA:0,_ZN5neml2dvERKdRKNS_4WSR4E
FNDA:0,_ZN5neml2dvERKdRKNS_4WWR4E
FNDA:0,_ZN5neml2dvERKdRKNS_5SFFR4E
FNDA:0,_ZN5neml2dvERKdRKNS_5SSFR5E
FNDA:0,_ZN5neml2dvERKdRKNS_6SSSSR8E
FNDA:55,_ZN5neml2dvERKNS_6TensorES2_
FNDA:4,_ZN5neml2dvERKNS_6ScalarERKNS_6TensorE
FNDA:1787,_ZN5neml2dvERKNS_6TensorERKNS_6ScalarE
FNDA:350,_ZN5neml2dvERKNS_6TensorERKd
FNDA:11,_ZN5neml2dvERKdRKNS_6TensorE
FNDA:666,_ZN5neml2dvERKNS_6ScalarES2_
FNDA:468,_ZN5neml2dvERKNS_6ScalarERKd
FNDA:591,_ZN5neml2dvERKdRKNS_6ScalarE
FNDA:0,_ZN5neml2plERKNS_10QuaternionES2_
FNDA:0,_ZN5neml2plERKNS_11MillerIndexES2_
FNDA:643,_ZN5neml2plERKNS_2R2ES2_
FNDA:2,_ZN5neml2plERKNS_2R3ES2_
FNDA:207,_ZN5neml2plERKNS_2R4ES2_
FNDA:2,_ZN5neml2plERKNS_2R5ES2_
FNDA:0,_ZN5neml2plERKNS_2R8ES2_
FNDA:2,_ZN5neml2plERKNS_3RotES2_
FNDA:148,_ZN5neml2plERKNS_3SR2ES2_
FNDA:39,_ZN5neml2plERKNS_3VecES2_
FNDA:6,_ZN5neml2plERKNS_3WR2ES2_
FNDA:2,_ZN5neml2plERKNS_4SFR3ES2_
FNDA:2,_ZN5neml2plERKNS_4SFR4ES2_
FNDA:66,_ZN5neml2plERKNS_4SSR4ES2_
FNDA:0,_ZN5neml2plERKNS_4SWR4ES2_
FNDA:2,_ZN5neml2plERKNS_4WFR4ES2_
FNDA:0,_ZN5neml2plERKNS_4WSR4ES2_
FNDA:0,_ZN5neml2plERKNS_4WWR4ES2_
FNDA:0,_ZN5neml2plERKNS_5SFFR4ES2_
FNDA:2,_ZN5neml2plERKNS_5SSFR5ES2_
FNDA:0,_ZN5neml2plERKNS_6SSSSR8ES2_
FNDA:0,_ZN5neml2plERKNS_10QuaternionERKNS_6ScalarE
FNDA:0,_ZN5neml2plERKNS_11MillerIndexERKNS_6ScalarE
FNDA:0,_ZN5neml2plERKNS_2R2ERKNS_6ScalarE
FNDA:0,_ZN5neml2plERKNS_2R3ERKNS_6ScalarE
FNDA:0,_ZN5neml2plERKNS_2R4ERKNS_6ScalarE
FNDA:0,_ZN5neml2plERKNS_2R5ERKNS_6ScalarE
FNDA:0,_ZN5neml2plERKNS_2R8ERKNS_6ScalarE
FNDA:0,_ZN5neml2plERKNS_3RotERKNS_6ScalarE
FNDA:0,_ZN5neml2plERKNS_3SR2ERKNS_6ScalarE
FNDA:0,_ZN5neml2plERKNS_3VecERKNS_6ScalarE
FNDA:0,_ZN5neml2plERKNS_3WR2ERKNS_6ScalarE
FNDA:0,_ZN5neml2plERKNS_4SFR3ERKNS_6ScalarE
FNDA:0,_ZN5neml2plERKNS_4SFR4ERKNS_6ScalarE
FNDA:0,_ZN5neml2plERKNS_4SSR4ERKNS_6ScalarE
FNDA:0,_ZN5neml2plERKNS_4SWR4ERKNS_6ScalarE
FNDA:0,_ZN5neml2plERKNS_4WFR4ERKNS_6ScalarE
FNDA:0,_ZN5neml2plERKNS_4WSR4ERKNS_6ScalarE
FNDA:0,_ZN5neml2plERKNS_4WWR4ERKNS_6ScalarE
FNDA:0,_ZN5neml2plERKNS_5SFFR4ERKNS_6ScalarE
FNDA:0,_ZN5neml2plERKNS_5SSFR5ERKNS_6ScalarE
FNDA:0,_ZN5neml2plERKNS_6SSSSR8ERKNS_6ScalarE
FNDA:0,_ZN5neml2plERKNS_6ScalarERKNS_10QuaternionE
FNDA:0,_ZN5neml2plERKNS_6ScalarERKNS_11MillerIndexE
FNDA:0,_ZN5neml2plERKNS_6ScalarERKNS_2R2E
FNDA:0,_ZN5neml2plERKNS_6ScalarERKNS_2R3E
FNDA:0,_ZN5neml2plERKNS_6ScalarERKNS_2R4E
FNDA:0,_ZN5neml2plERKNS_6ScalarERKNS_2R5E
FNDA:0,_ZN5neml2plERKNS_6ScalarERKNS_2R8E
FNDA:0,_ZN5neml2plERKNS_6ScalarERKNS_3RotE
FNDA:0,_ZN5neml2plERKNS_6ScalarERKNS_3SR2E
FNDA:0,_ZN5neml2plERKNS_6ScalarERKNS_3VecE
FNDA:0,_ZN5neml2plERKNS_6ScalarERKNS_3WR2E
FNDA:0,_ZN5neml2plERKNS_6ScalarERKNS_4SFR3E
FNDA:0,_ZN5neml2plERKNS_6ScalarERKNS_4SFR4E
FNDA:0,_ZN5neml2plERKNS_6ScalarERKNS_4SSR4E
FNDA:0,_ZN5neml2plERKNS_6ScalarERKNS_4SWR4E
FNDA:0,_ZN5neml2plERKNS_6ScalarERKNS_4WFR4E
FNDA:0,_ZN5neml2plERKNS_6ScalarERKNS_4WSR4E
FNDA:0,_ZN5neml2plERKNS_6ScalarERKNS_4WWR4E
FNDA:0,_ZN5neml2plERKNS_6ScalarERKNS_5SFFR4E
FNDA:0,_ZN5neml2plERKNS_6ScalarERKNS_5SSFR5E
FNDA:0,_ZN5neml2plERKNS_6ScalarERKNS_6SSSSR8E
FNDA:0,_ZN5neml2plERKNS_10QuaternionERKd
FNDA:0,_ZN5neml2plERKNS_11MillerIndexERKd
FNDA:0,_ZN5neml2plERKNS_2R2ERKd
FNDA:0,_ZN5neml2plERKNS_2R3ERKd
FNDA:0,_ZN5neml2plERKNS_2R4ERKd
FNDA:0,_ZN5neml2plERKNS_2R5ERKd
FNDA:0,_ZN5neml2plERKNS_2R8ERKd
FNDA:0,_ZN5neml2plERKNS_3RotERKd
FNDA:0,_ZN5neml2plERKNS_3SR2ERKd
FNDA:0,_ZN5neml2plERKNS_3VecERKd
FNDA:0,_ZN5neml2plERKNS_3WR2ERKd
FNDA:0,_ZN5neml2plERKNS_4SFR3ERKd
FNDA:0,_ZN5neml2plERKNS_4SFR4ERKd
FNDA:0,_ZN5neml2plERKNS_4SSR4ERKd
FNDA:0,_ZN5neml2plERKNS_4SWR4ERKd
FNDA:0,_ZN5neml2plERKNS_4WFR4ERKd
FNDA:0,_ZN5neml2plERKNS_4WSR4ERKd
FNDA:0,_ZN5neml2plERKNS_4WWR4ERKd
FNDA:0,_ZN5neml2plERKNS_5SFFR4ERKd
FNDA:0,_ZN5neml2plERKNS_5SSFR5ERKd
FNDA:0,_ZN5neml2plERKNS_6SSSSR8ERKd
FNDA:0,_ZN5neml2plERKdRKNS_10QuaternionE
FNDA:0,_ZN5neml2plERKdRKNS_11MillerIndexE
FNDA:0,_ZN5neml2plERKdRKNS_2R2E
FNDA:0,_ZN5neml2plERKdRKNS_2R3E
FNDA:0,_ZN5neml2plERKdRKNS_2R4E
FNDA:0,_ZN5neml2plERKdRKNS_2R5E
FNDA:0,_ZN5neml2plERKdRKNS_2R8E
FNDA:0,_ZN5neml2plERKdRKNS_3RotE
FNDA:0,_ZN5neml2plERKdRKNS_3SR2E
FNDA:0,_ZN5neml2plERKdRKNS_3VecE
FNDA:0,_ZN5neml2plERKdRKNS_3WR2E
FNDA:0,_ZN5neml2plERKdRKNS_4SFR3E
FNDA:0,_ZN5neml2plERKdRKNS_4SFR4E
FNDA:0,_ZN5neml2plERKdRKNS_4SSR4E
FNDA:0,_ZN5neml2plERKdRKNS_4SWR4E
FNDA:0,_ZN5neml2plERKdRKNS_4WFR4E
FNDA:0,_ZN5neml2plERKdRKNS_4WSR4E
FNDA:0,_ZN5neml2plERKdRKNS_4WWR4E
FNDA:0,_ZN5neml2plERKdRKNS_5SFFR4E
FNDA:0,_ZN5neml2plERKdRKNS_5SSFR5E
FNDA:0,_ZN5neml2plERKdRKNS_6SSSSR8E
FNDA:1883,_ZN5neml2plERKNS_6TensorES2_
FNDA:4,_ZN5neml2plERKNS_6ScalarERKNS_6TensorE
FNDA:1783,_ZN5neml2plERKNS_6TensorERKNS_6ScalarE
FNDA:6,_ZN5neml2plERKNS_6TensorERKd
FNDA:2,_ZN5neml2plERKdRKNS_6TensorE
FNDA:716,_ZN5neml2plERKNS_6ScalarES2_
FNDA:959,_ZN5neml2plERKNS_6ScalarERKd
FNDA:809,_ZN5neml2plERKdRKNS_6ScalarE
FNDA:0,_ZN5neml2miERKNS_10QuaternionES2_
FNDA:0,_ZN5neml2miERKNS_11MillerIndexES2_
FNDA:91,_ZN5neml2miERKNS_2R2ES2_
FNDA:113,_ZN5neml2miERKNS_2R3ES2_
FNDA:8,_ZN5neml2miERKNS_2R4ES2_
FNDA:2,_ZN5neml2miERKNS_2R5ES2_
FNDA:0,_ZN5neml2miERKNS_2R8ES2_
FNDA:7,_ZN5neml2miERKNS_3RotES2_
FNDA:251,_ZN5neml2miERKNS_3SR2ES2_
FNDA:54,_ZN5neml2miERKNS_3VecES2_
FNDA:6,_ZN5neml2miERKNS_3WR2ES2_
FNDA:2,_ZN5neml2miERKNS_4SFR3ES2_
FNDA:2,_ZN5neml2miERKNS_4SFR4ES2_
FNDA:72,_ZN5neml2miERKNS_4SSR4ES2_
FNDA:0,_ZN5neml2miERKNS_4SWR4ES2_
FNDA:2,_ZN5neml2miERKNS_4WFR4ES2_
FNDA:0,_ZN5neml2miERKNS_4WSR4ES2_
FNDA:0,_ZN5neml2miERKNS_4WWR4ES2_
FNDA:0,_ZN5neml2miERKNS_5SFFR4ES2_
FNDA:2,_ZN5neml2miERKNS_5SSFR5ES2_
FNDA:0,_ZN5neml2miERKNS_6SSSSR8ES2_
FNDA:0,_ZN5neml2miERKNS_10QuaternionERKNS_6ScalarE
FNDA:0,_ZN5neml2miERKNS_11MillerIndexERKNS_6ScalarE
FNDA:0,_ZN5neml2miERKNS_2R2ERKNS_6ScalarE
FNDA:0,_ZN5neml2miERKNS_2R3ERKNS_6ScalarE
FNDA:0,_ZN5neml2miERKNS_2R4ERKNS_6ScalarE
FNDA:0,_ZN5neml2miERKNS_2R5ERKNS_6ScalarE
FNDA:0,_ZN5neml2miERKNS_2R8ERKNS_6ScalarE
FNDA:0,_ZN5neml2miERKNS_3RotERKNS_6ScalarE
FNDA:0,_ZN5neml2miERKNS_3SR2ERKNS_6ScalarE
FNDA:0,_ZN5neml2miERKNS_3VecERKNS_6ScalarE
FNDA:0,_ZN5neml2miERKNS_3WR2ERKNS_6ScalarE
FNDA:0,_ZN5neml2miERKNS_4SFR3ERKNS_6ScalarE
FNDA:0,_ZN5neml2miERKNS_4SFR4ERKNS_6ScalarE
FNDA:0,_ZN5neml2miERKNS_4SSR4ERKNS_6ScalarE
FNDA:0,_ZN5neml2miERKNS_4SWR4ERKNS_6ScalarE
FNDA:0,_ZN5neml2miERKNS_4WFR4ERKNS_6ScalarE
FNDA:0,_ZN5neml2miERKNS_4WSR4ERKNS_6ScalarE
FNDA:0,_ZN5neml2miERKNS_4WWR4ERKNS_6ScalarE
FNDA:0,_ZN5neml2miERKNS_5SFFR4ERKNS_6ScalarE
FNDA:0,_ZN5neml2miERKNS_5SSFR5ERKNS_6ScalarE
FNDA:0,_ZN5neml2miERKNS_6SSSSR8ERKNS_6ScalarE
FNDA:0,_ZN5neml2miERKNS_6ScalarERKNS_10QuaternionE
FNDA:0,_ZN5neml2miERKNS_6ScalarERKNS_11MillerIndexE
FNDA:0,_ZN5neml2miERKNS_6ScalarERKNS_2R2E
FNDA:0,_ZN5neml2miERKNS_6ScalarERKNS_2R3E
FNDA:0,_ZN5neml2miERKNS_6ScalarERKNS_2R4E
FNDA:0,_ZN5neml2miERKNS_6ScalarERKNS_2R5E
FNDA:0,_ZN5neml2miERKNS_6ScalarERKNS_2R8E
FNDA:0,_ZN5neml2miERKNS_6ScalarERKNS_3RotE
FNDA:0,_ZN5neml2miERKNS_6ScalarERKNS_3SR2E
FNDA:0,_ZN5neml2miERKNS_6ScalarERKNS_3VecE
FNDA:0,_ZN5neml2miERKNS_6ScalarERKNS_3WR2E
FNDA:0,_ZN5neml2miERKNS_6ScalarERKNS_4SFR3E
FNDA:0,_ZN5neml2miERKNS_6ScalarERKNS_4SFR4E
FNDA:0,_ZN5neml2miERKNS_6ScalarERKNS_4SSR4E
FNDA:0,_ZN5neml2miERKNS_6ScalarERKNS_4SWR4E
FNDA:0,_ZN5neml2miERKNS_6ScalarERKNS_4WFR4E
FNDA:0,_ZN5neml2miERKNS_6ScalarERKNS_4WSR4E
FNDA:0,_ZN5neml2miERKNS_6ScalarERKNS_4WWR4E
FNDA:0,_ZN5neml2miERKNS_6ScalarERKNS_5SFFR4E
FNDA:0,_ZN5neml2miERKNS_6ScalarERKNS_5SSFR5E
FNDA:0,_ZN5neml2miERKNS_6ScalarERKNS_6SSSSR8E
FNDA:0,_ZN5neml2miERKNS_10QuaternionERKd
FNDA:0,_ZN5neml2miERKNS_11MillerIndexERKd
FNDA:0,_ZN5neml2miERKNS_2R2ERKd
FNDA:0,_ZN5neml2miERKNS_2R3ERKd
FNDA:0,_ZN5neml2miERKNS_2R4ERKd
FNDA:0,_ZN5neml2miERKNS_2R5ERKd
FNDA:0,_ZN5neml2miERKNS_2R8ERKd
FNDA:0,_ZN5neml2miERKNS_3RotERKd
FNDA:0,_ZN5neml2miERKNS_3SR2ERKd
FNDA:0,_ZN5neml2miERKNS_3VecERKd
FNDA:0,_ZN5neml2miERKNS_3WR2ERKd
FNDA:0,_ZN5neml2miERKNS_4SFR3ERKd
FNDA:0,_ZN5neml2miERKNS_4SFR4ERKd
FNDA:0,_ZN5neml2miERKNS_4SSR4ERKd
FNDA:0,_ZN5neml2miERKNS_4SWR4ERKd
FNDA:0,_ZN5neml2miERKNS_4WFR4ERKd
FNDA:0,_ZN5neml2miERKNS_4WSR4ERKd
FNDA:0,_ZN5neml2miERKNS_4WWR4ERKd
FNDA:0,_ZN5neml2miERKNS_5SFFR4ERKd
FNDA:0,_ZN5neml2miERKNS_5SSFR5ERKd
FNDA:0,_ZN5neml2miERKNS_6SSSSR8ERKd
FNDA:0,_ZN5neml2miERKdRKNS_10QuaternionE
FNDA:0,_ZN5neml2miERKdRKNS_11MillerIndexE
FNDA:0,_ZN5neml2miERKdRKNS_2R2E
FNDA:0,_ZN5neml2miERKdRKNS_2R3E
FNDA:0,_ZN5neml2miERKdRKNS_2R4E
FNDA:0,_ZN5neml2miERKdRKNS_2R5E
FNDA:0,_ZN5neml2miERKdRKNS_2R8E
FNDA:0,_ZN5neml2miERKdRKNS_3RotE
FNDA:0,_ZN5neml2miERKdRKNS_3SR2E
FNDA:0,_ZN5neml2miERKdRKNS_3VecE
FNDA:0,_ZN5neml2miERKdRKNS_3WR2E
FNDA:0,_ZN5neml2miERKdRKNS_4SFR3E
FNDA:0,_ZN5neml2miERKdRKNS_4SFR4E
FNDA:0,_ZN5neml2miERKdRKNS_4SSR4E
FNDA:0,_ZN5neml2miERKdRKNS_4SWR4E
FNDA:0,_ZN5neml2miERKdRKNS_4WFR4E
FNDA:0,_ZN5neml2miERKdRKNS_4WSR4E
FNDA:0,_ZN5neml2miERKdRKNS_4WWR4E
FNDA:0,_ZN5neml2miERKdRKNS_5SFFR4E
FNDA:0,_ZN5neml2miERKdRKNS_5SSFR5E
FNDA:0,_ZN5neml2miERKdRKNS_6SSSSR8E
FNF:410
FNH:103
DA:57,1123
DA:58,0
DA:59,0
DA:60,1883
DA:61,1787
DA:62,14
DA:63,716
DA:64,2727
DA:97,612
DA:98,0
DA:99,0
DA:100,1863
DA:101,8
DA:102,788
DA:103,1188
DA:104,1824
DA:132,3383
DA:133,1286
DA:134,174
DA:135,984
DA:136,715
DA:137,2942
DA:138,14019
DA:171,1404
DA:172,870
DA:173,55
DA:174,1791
DA:175,722
DA:176,666
DA:177,2118
LF:30
LH:26
end_of_record
TN:
SF:/home/runner/work/neml2/neml2/src/neml2/tensors/functions/pow.cxx
FN:39,39,_ZN5neml23powERKNS_10QuaternionERKNS_6ScalarE
FN:39,39,_ZN5neml23powERKNS_10QuaternionERKd
FN:39,39,_ZN5neml23powERKNS_11MillerIndexERKNS_6ScalarE
FN:39,39,_ZN5neml23powERKNS_11MillerIndexERKd
FN:39,39,_ZN5neml23powERKNS_2R2ERKNS_6ScalarE
FN:39,39,_ZN5neml23powERKNS_2R2ERKd
FN:39,39,_ZN5neml23powERKNS_2R3ERKNS_6ScalarE
FN:39,39,_ZN5neml23powERKNS_2R3ERKd
FN:39,39,_ZN5neml23powERKNS_2R4ERKNS_6ScalarE
FN:39,39,_ZN5neml23powERKNS_2R4ERKd
FN:39,39,_ZN5neml23powERKNS_2R5ERKNS_6ScalarE
FN:39,39,_ZN5neml23powERKNS_2R5ERKd
FN:39,39,_ZN5neml23powERKNS_2R8ERKNS_6ScalarE
FN:39,39,_ZN5neml23powERKNS_2R8ERKd
FN:39,39,_ZN5neml23powERKNS_3RotERKNS_6ScalarE
FN:39,39,_ZN5neml23powERKNS_3RotERKd
FN:39,39,_ZN5neml23powERKNS_3SR2ERKNS_6ScalarE
FN:39,39,_ZN5neml23powERKNS_3SR2ERKd
FN:39,39,_ZN5neml23powERKNS_3VecERKNS_6ScalarE
FN:39,39,_ZN5neml23powERKNS_3VecERKd
FN:39,39,_ZN5neml23powERKNS_3WR2ERKNS_6ScalarE
FN:39,39,_ZN5neml23powERKNS_3WR2ERKd
FN:39,39,_ZN5neml23powERKNS_4SFR3ERKNS_6ScalarE
FN:39,39,_ZN5neml23powERKNS_4SFR3ERKd
FN:39,39,_ZN5neml23powERKNS_4SFR4ERKNS_6ScalarE
FN:39,39,_ZN5neml23powERKNS_4SFR4ERKd
FN:39,39,_ZN5neml23powERKNS_4SSR4ERKNS_6ScalarE
FN:39,39,_ZN5neml23powERKNS_4SSR4ERKd
FN:39,39,_ZN5neml23powERKNS_4SWR4ERKNS_6ScalarE
FN:39,39,_ZN5neml23powERKNS_4SWR4ERKd
FN:39,39,_ZN5neml23powERKNS_4WFR4ERKNS_6ScalarE
FN:39,39,_ZN5neml23powERKNS_4WFR4ERKd
FN:39,39,_ZN5neml23powERKNS_4WSR4ERKNS_6ScalarE
FN:39,39,_ZN5neml23powERKNS_4WSR4ERKd
FN:39,39,_ZN5neml23powERKNS_4WWR4ERKNS_6ScalarE
FN:39,39,_ZN5neml23powERKNS_4WWR4ERKd
FN:39,39,_ZN5neml23powERKNS_5SFFR4ERKNS_6ScalarE
FN:39,39,_ZN5neml23powERKNS_5SFFR4ERKd
FN:39,39,_ZN5neml23powERKNS_5SSFR5ERKNS_6ScalarE
FN:39,39,_ZN5neml23powERKNS_5SSFR5ERKd
FN:39,39,_ZN5neml23powERKNS_6SSSSR8ERKNS_6ScalarE
FN:39,39,_ZN5neml23powERKNS_6SSSSR8ERKd
FN:39,39,_ZN5neml23powERKNS_6TensorERKNS_6ScalarE
FN:39,39,_ZN5neml23powERKNS_6TensorERKd
FN:42,45,_ZN5neml23powERKNS_6ScalarERKd
FN:48,52,_ZN5neml23powERKNS_6ScalarES2_
FN:55,58,_ZN5neml23powERKdRKNS_6ScalarE
FN:61,67,_ZN5neml23powERKNS_6TensorES2_
FN:70,73,_ZN5neml23powERKdRKNS_6TensorE
FNDA:0,_ZN5neml23powERKNS_10QuaternionERKNS_6ScalarE
FNDA:0,_ZN5neml23powERKNS_10QuaternionERKd
FNDA:0,_ZN5neml23powERKNS_11MillerIndexERKNS_6ScalarE
FNDA:0,_ZN5neml23powERKNS_11MillerIndexERKd
FNDA:0,_ZN5neml23powERKNS_2R2ERKNS_6ScalarE
FNDA:0,_ZN5neml23powERKNS_2R2ERKd
FNDA:0,_ZN5neml23powERKNS_2R3ERKNS_6ScalarE
FNDA:0,_ZN5neml23powERKNS_2R3ERKd
FNDA:0,_ZN5neml23powERKNS_2R4ERKNS_6ScalarE
FNDA:0,_ZN5neml23powERKNS_2R4ERKd
FNDA:0,_ZN5neml23powERKNS_2R5ERKNS_6ScalarE
FNDA:0,_ZN5neml23powERKNS_2R5ERKd
FNDA:0,_ZN5neml23powERKNS_2R8ERKNS_6ScalarE
FNDA:0,_ZN5neml23powERKNS_2R8ERKd
FNDA:0,_ZN5neml23powERKNS_3RotERKNS_6ScalarE
FNDA:0,_ZN5neml23powERKNS_3RotERKd
FNDA:0,_ZN5neml23powERKNS_3SR2ERKNS_6ScalarE
FNDA:0,_ZN5neml23powERKNS_3SR2ERKd
FNDA:0,_ZN5neml23powERKNS_3VecERKNS_6ScalarE
FNDA:0,_ZN5neml23powERKNS_3VecERKd
FNDA:0,_ZN5neml23powERKNS_3WR2ERKNS_6ScalarE
FNDA:0,_ZN5neml23powERKNS_3WR2ERKd
FNDA:0,_ZN5neml23powERKNS_4SFR3ERKNS_6ScalarE
FNDA:0,_ZN5neml23powERKNS_4SFR3ERKd
FNDA:0,_ZN5neml23powERKNS_4SFR4ERKNS_6ScalarE
FNDA:0,_ZN5neml23powERKNS_4SFR4ERKd
FNDA:0,_ZN5neml23powERKNS_4SSR4ERKNS_6ScalarE
FNDA:0,_ZN5neml23powERKNS_4SSR4ERKd
FNDA:0,_ZN5neml23powERKNS_4SWR4ERKNS_6ScalarE
FNDA:0,_ZN5neml23powERKNS_4SWR4ERKd
FNDA:0,_ZN5neml23powERKNS_4WFR4ERKNS_6ScalarE
FNDA:0,_ZN5neml23powERKNS_4WFR4ERKd
FNDA:0,_ZN5neml23powERKNS_4WSR4ERKNS_6ScalarE
FNDA:0,_ZN5neml23powERKNS_4WSR4ERKd
FNDA:0,_ZN5neml23powERKNS_4WWR4ERKNS_6ScalarE
FNDA:0,_ZN5neml23powERKNS_4WWR4ERKd
FNDA:0,_ZN5neml23powERKNS_5SFFR4ERKNS_6ScalarE
FNDA:0,_ZN5neml23powERKNS_5SFFR4ERKd
FNDA:0,_ZN5neml23powERKNS_5SSFR5ERKNS_6ScalarE
FNDA:0,_ZN5neml23powERKNS_5SSFR5ERKd
FNDA:0,_ZN5neml23powERKNS_6SSSSR8ERKNS_6ScalarE
FNDA:0,_ZN5neml23powERKNS_6SSSSR8ERKd
FNDA:616,_ZN5neml23powERKNS_6TensorERKNS_6ScalarE
FNDA:2,_ZN5neml23powERKNS_6TensorERKd
FNDA:824,_ZN5neml23powERKNS_6ScalarERKd
FNDA:75,_ZN5neml23powERKNS_6ScalarES2_
FNDA:6,_ZN5neml23powERKdRKNS_6ScalarE
FNDA:0,_ZN5neml23powERKNS_6TensorES2_
FNDA:0,_ZN5neml23powERKdRKNS_6TensorE
FNF:49
FNH:5
DA:39,620
DA:42,824
DA:44,1648
DA:48,75
DA:50,75
DA:51,75
DA:55,6
DA:57,12
DA:61,0
DA:63,0
DA:64,0
DA:66,0
DA:70,0
DA:72,0
LF:14
LH:8
end_of_record
TN:
SF:/home/runner/work/neml2/neml2/src/neml2/tensors/functions/sign.cxx
FN:33,33,_ZN5neml24signERKNS_10QuaternionE
FN:33,33,_ZN5neml24signERKNS_11MillerIndexE
FN:33,33,_ZN5neml24signERKNS_2R2E
FN:33,33,_ZN5neml24signERKNS_2R3E
FN:33,33,_ZN5neml24signERKNS_2R4E
FN:33,33,_ZN5neml24signERKNS_2R5E
FN:33,33,_ZN5neml24signERKNS_2R8E
FN:33,33,_ZN5neml24signERKNS_3RotE
FN:33,33,_ZN5neml24signERKNS_3SR2E
FN:33,33,_ZN5neml24signERKNS_3VecE
FN:33,33,_ZN5neml24signERKNS_3WR2E
FN:33,33,_ZN5neml24signERKNS_4SFR3E
FN:33,33,_ZN5neml24signERKNS_4SFR4E
FN:33,33,_ZN5neml24signERKNS_4SSR4E
FN:33,33,_ZN5neml24signERKNS_4SWR4E
FN:33,33,_ZN5neml24signERKNS_4WFR4E
FN:33,33,_ZN5neml24signERKNS_4WSR4E
FN:33,33,_ZN5neml24signERKNS_4WWR4E
FN:33,33,_ZN5neml24signERKNS_5SFFR4E
FN:33,33,_ZN5neml24signERKNS_5SSFR5E
FN:33,33,_ZN5neml24signERKNS_6SSSSR8E
FN:33,33,_ZN5neml24signERKNS_6ScalarE
FN:33,33,_ZN5neml24signERKNS_6TensorE
FNDA:0,_ZN5neml24signERKNS_10QuaternionE
FNDA:0,_ZN5neml24signERKNS_11MillerIndexE
FNDA:0,_ZN5neml24signERKNS_2R2E
FNDA:0,_ZN5neml24signERKNS_2R3E
FNDA:0,_ZN5neml24signERKNS_2R4E
FNDA:0,_ZN5neml24signERKNS_2R5E
FNDA:0,_ZN5neml24signERKNS_2R8E
FNDA:0,_ZN5neml24signERKNS_3RotE
FNDA:0,_ZN5neml24signERKNS_3SR2E
FNDA:0,_ZN5neml24signERKNS_3VecE
FNDA:0,_ZN5neml24signERKNS_3WR2E
FNDA:0,_ZN5neml24signERKNS_4SFR3E
FNDA:0,_ZN5neml24signERKNS_4SFR4E
FNDA:0,_ZN5neml24signERKNS_4SSR4E
FNDA:0,_ZN5neml24signERKNS_4SWR4E
FNDA:0,_ZN5neml24signERKNS_4WFR4E
FNDA:0,_ZN5neml24signERKNS_4WSR4E
FNDA:0,_ZN5neml24signERKNS_4WWR4E
FNDA:0,_ZN5neml24signERKNS_5SFFR4E
FNDA:0,_ZN5neml24signERKNS_5SSFR5E
FNDA:0,_ZN5neml24signERKNS_6SSSSR8E
FNDA:43,_ZN5neml24signERKNS_6ScalarE
FNDA:4,_ZN5neml24signERKNS_6TensorE
FNF:23
FNH:2
DA:33,94
LF:1
LH:1
end_of_record
TN:
SF:/home/runner/work/neml2/neml2/src/neml2/tensors/functions/sin.cxx
FN:33,33,_ZN5neml23sinERKNS_10QuaternionE
FN:33,33,_ZN5neml23sinERKNS_11MillerIndexE
FN:33,33,_ZN5neml23sinERKNS_2R2E
FN:33,33,_ZN5neml23sinERKNS_2R3E
FN:33,33,_ZN5neml23sinERKNS_2R4E
FN:33,33,_ZN5neml23sinERKNS_2R5E
FN:33,33,_ZN5neml23sinERKNS_2R8E
FN:33,33,_ZN5neml23sinERKNS_3RotE
FN:33,33,_ZN5neml23sinERKNS_3SR2E
FN:33,33,_ZN5neml23sinERKNS_3VecE
FN:33,33,_ZN5neml23sinERKNS_3WR2E
FN:33,33,_ZN5neml23sinERKNS_4SFR3E
FN:33,33,_ZN5neml23sinERKNS_4SFR4E
FN:33,33,_ZN5neml23sinERKNS_4SSR4E
FN:33,33,_ZN5neml23sinERKNS_4SWR4E
FN:33,33,_ZN5neml23sinERKNS_4WFR4E
FN:33,33,_ZN5neml23sinERKNS_4WSR4E
FN:33,33,_ZN5neml23sinERKNS_4WWR4E
FN:33,33,_ZN5neml23sinERKNS_5SFFR4E
FN:33,33,_ZN5neml23sinERKNS_5SSFR5E
FN:33,33,_ZN5neml23sinERKNS_6SSSSR8E
FN:33,33,_ZN5neml23sinERKNS_6ScalarE
FN:33,33,_ZN5neml23sinERKNS_6TensorE
FNDA:0,_ZN5neml23sinERKNS_10QuaternionE
FNDA:0,_ZN5neml23sinERKNS_11MillerIndexE
FNDA:0,_ZN5neml23sinERKNS_2R2E
FNDA:0,_ZN5neml23sinERKNS_2R3E
FNDA:0,_ZN5neml23sinERKNS_2R4E
FNDA:0,_ZN5neml23sinERKNS_2R5E
FNDA:0,_ZN5neml23sinERKNS_2R8E
FNDA:0,_ZN5neml23sinERKNS_3RotE
FNDA:0,_ZN5neml23sinERKNS_3SR2E
FNDA:0,_ZN5neml23sinERKNS_3VecE
FNDA:0,_ZN5neml23sinERKNS_3WR2E
FNDA:0,_ZN5neml23sinERKNS_4SFR3E
FNDA:0,_ZN5neml23sinERKNS_4SFR4E
FNDA:0,_ZN5neml23sinERKNS_4SSR4E
FNDA:0,_ZN5neml23sinERKNS_4SWR4E
FNDA:0,_ZN5neml23sinERKNS_4WFR4E
FNDA:0,_ZN5neml23sinERKNS_4WSR4E
FNDA:0,_ZN5neml23sinERKNS_4WWR4E
FNDA:0,_ZN5neml23sinERKNS_5SFFR4E
FNDA:0,_ZN5neml23sinERKNS_5SSFR5E
FNDA:0,_ZN5neml23sinERKNS_6SSSSR8E
FNDA:6,_ZN5neml23sinERKNS_6ScalarE
FNDA:84,_ZN5neml23sinERKNS_6TensorE
FNF:23
FNH:2
DA:33,180
LF:1
LH:1
end_of_record
TN:
SF:/home/runner/work/neml2/neml2/src/neml2/tensors/functions/sinh.cxx
FN:33,33,_ZN5neml24sinhERKNS_10QuaternionE
FN:33,33,_ZN5neml24sinhERKNS_11MillerIndexE
FN:33,33,_ZN5neml24sinhERKNS_2R2E
FN:33,33,_ZN5neml24sinhERKNS_2R3E
FN:33,33,_ZN5neml24sinhERKNS_2R4E
FN:33,33,_ZN5neml24sinhERKNS_2R5E
FN:33,33,_ZN5neml24sinhERKNS_2R8E
FN:33,33,_ZN5neml24sinhERKNS_3RotE
FN:33,33,_ZN5neml24sinhERKNS_3SR2E
FN:33,33,_ZN5neml24sinhERKNS_3VecE
FN:33,33,_ZN5neml24sinhERKNS_3WR2E
FN:33,33,_ZN5neml24sinhERKNS_4SFR3E
FN:33,33,_ZN5neml24sinhERKNS_4SFR4E
FN:33,33,_ZN5neml24sinhERKNS_4SSR4E
FN:33,33,_ZN5neml24sinhERKNS_4SWR4E
FN:33,33,_ZN5neml24sinhERKNS_4WFR4E
FN:33,33,_ZN5neml24sinhERKNS_4WSR4E
FN:33,33,_ZN5neml24sinhERKNS_4WWR4E
FN:33,33,_ZN5neml24sinhERKNS_5SFFR4E
FN:33,33,_ZN5neml24sinhERKNS_5SSFR5E
FN:33,33,_ZN5neml24sinhERKNS_6SSSSR8E
FN:33,33,_ZN5neml24sinhERKNS_6ScalarE
FN:33,33,_ZN5neml24sinhERKNS_6TensorE
FNDA:0,_ZN5neml24sinhERKNS_10QuaternionE
FNDA:0,_ZN5neml24sinhERKNS_11MillerIndexE
FNDA:0,_ZN5neml24sinhERKNS_2R2E
FNDA:0,_ZN5neml24sinhERKNS_2R3E
FNDA:0,_ZN5neml24sinhERKNS_2R4E
FNDA:0,_ZN5neml24sinhERKNS_2R5E
FNDA:0,_ZN5neml24sinhERKNS_2R8E
FNDA:0,_ZN5neml24sinhERKNS_3RotE
FNDA:0,_ZN5neml24sinhERKNS_3SR2E
FNDA:0,_ZN5neml24sinhERKNS_3VecE
FNDA:0,_ZN5neml24sinhERKNS_3WR2E
FNDA:0,_ZN5neml24sinhERKNS_4SFR3E
FNDA:0,_ZN5neml24sinhERKNS_4SFR4E
FNDA:0,_ZN5neml24sinhERKNS_4SSR4E
FNDA:0,_ZN5neml24sinhERKNS_4SWR4E
FNDA:0,_ZN5neml24sinhERKNS_4WFR4E
FNDA:0,_ZN5neml24sinhERKNS_4WSR4E
FNDA:0,_ZN5neml24sinhERKNS_4WWR4E
FNDA:0,_ZN5neml24sinhERKNS_5SFFR4E
FNDA:0,_ZN5neml24sinhERKNS_5SSFR5E
FNDA:0,_ZN5neml24sinhERKNS_6SSSSR8E
FNDA:57,_ZN5neml24sinhERKNS_6ScalarE
FNDA:0,_ZN5neml24sinhERKNS_6TensorE
FNF:23
FNH:1
DA:33,114
LF:1
LH:1
end_of_record
TN:
SF:/home/runner/work/neml2/neml2/src/neml2/tensors/functions/sqrt.cxx
FN:33,33,_ZN5neml24sqrtERKNS_10QuaternionE
FN:33,33,_ZN5neml24sqrtERKNS_11MillerIndexE
FN:33,33,_ZN5neml24sqrtERKNS_2R2E
FN:33,33,_ZN5neml24sqrtERKNS_2R3E
FN:33,33,_ZN5neml24sqrtERKNS_2R4E
FN:33,33,_ZN5neml24sqrtERKNS_2R5E
FN:33,33,_ZN5neml24sqrtERKNS_2R8E
FN:33,33,_ZN5neml24sqrtERKNS_3RotE
FN:33,33,_ZN5neml24sqrtERKNS_3SR2E
FN:33,33,_ZN5neml24sqrtERKNS_3VecE
FN:33,33,_ZN5neml24sqrtERKNS_3WR2E
FN:33,33,_ZN5neml24sqrtERKNS_4SFR3E
FN:33,33,_ZN5neml24sqrtERKNS_4SFR4E
FN:33,33,_ZN5neml24sqrtERKNS_4SSR4E
FN:33,33,_ZN5neml24sqrtERKNS_4SWR4E
FN:33,33,_ZN5neml24sqrtERKNS_4WFR4E
FN:33,33,_ZN5neml24sqrtERKNS_4WSR4E
FN:33,33,_ZN5neml24sqrtERKNS_4WWR4E
FN:33,33,_ZN5neml24sqrtERKNS_5SFFR4E
FN:33,33,_ZN5neml24sqrtERKNS_5SSFR5E
FN:33,33,_ZN5neml24sqrtERKNS_6SSSSR8E
FN:33,33,_ZN5neml24sqrtERKNS_6ScalarE
FN:33,33,_ZN5neml24sqrtERKNS_6TensorE
FNDA:0,_ZN5neml24sqrtERKNS_10QuaternionE
FNDA:0,_ZN5neml24sqrtERKNS_11MillerIndexE
FNDA:0,_ZN5neml24sqrtERKNS_2R2E
FNDA:0,_ZN5neml24sqrtERKNS_2R3E
FNDA:0,_ZN5neml24sqrtERKNS_2R4E
FNDA:0,_ZN5neml24sqrtERKNS_2R5E
FNDA:0,_ZN5neml24sqrtERKNS_2R8E
FNDA:0,_ZN5neml24sqrtERKNS_3RotE
FNDA:0,_ZN5neml24sqrtERKNS_3SR2E
FNDA:0,_ZN5neml24sqrtERKNS_3VecE
FNDA:0,_ZN5neml24sqrtERKNS_3WR2E
FNDA:0,_ZN5neml24sqrtERKNS_4SFR3E
FNDA:0,_ZN5neml24sqrtERKNS_4SFR4E
FNDA:0,_ZN5neml24sqrtERKNS_4SSR4E
FNDA:0,_ZN5neml24sqrtERKNS_4SWR4E
FNDA:0,_ZN5neml24sqrtERKNS_4WFR4E
FNDA:0,_ZN5neml24sqrtERKNS_4WSR4E
FNDA:0,_ZN5neml24sqrtERKNS_4WWR4E
FNDA:0,_ZN5neml24sqrtERKNS_5SFFR4E
FNDA:0,_ZN5neml24sqrtERKNS_5SSFR5E
FNDA:0,_ZN5neml24sqrtERKNS_6SSSSR8E
FNDA:1635,_ZN5neml24sqrtERKNS_6ScalarE
FNDA:2,_ZN5neml24sqrtERKNS_6TensorE
FNF:23
FNH:2
DA:33,3274
LF:1
LH:1
end_of_record
TN:
SF:/home/runner/work/neml2/neml2/src/neml2/tensors/functions/stack.cxx
FN:44,44,_ZN5neml211batch_stackERKSt16initializer_listINS_10QuaternionEEl
FN:44,44,_ZN5neml211batch_stackERKSt16initializer_listINS_11MillerIndexEEl
FN:44,44,_ZN5neml211batch_stackERKSt16initializer_listINS_2R2EEl
FN:44,44,_ZN5neml211batch_stackERKSt16initializer_listINS_2R3EEl
FN:44,44,_ZN5neml211batch_stackERKSt16initializer_listINS_2R4EEl
FN:44,44,_ZN5neml211batch_stackERKSt16initializer_listINS_2R5EEl
FN:44,44,_ZN5neml211batch_stackERKSt16initializer_listINS_2R8EEl
FN:44,44,_ZN5neml211batch_stackERKSt16initializer_listINS_3RotEEl
FN:44,44,_ZN5neml211batch_stackERKSt16initializer_listINS_3SR2EEl
FN:44,44,_ZN5neml211batch_stackERKSt16initializer_listINS_3VecEEl
FN:44,44,_ZN5neml211batch_stackERKSt16initializer_listINS_3WR2EEl
FN:44,44,_ZN5neml211batch_stackERKSt16initializer_listINS_4SFR3EEl
FN:44,44,_ZN5neml211batch_stackERKSt16initializer_listINS_4SFR4EEl
FN:44,44,_ZN5neml211batch_stackERKSt16initializer_listINS_4SSR4EEl
FN:44,44,_ZN5neml211batch_stackERKSt16initializer_listINS_4SWR4EEl
FN:44,44,_ZN5neml211batch_stackERKSt16initializer_listINS_4WFR4EEl
FN:44,44,_ZN5neml211batch_stackERKSt16initializer_listINS_4WSR4EEl
FN:44,44,_ZN5neml211batch_stackERKSt16initializer_listINS_4WWR4EEl
FN:44,44,_ZN5neml211batch_stackERKSt16initializer_listINS_5SFFR4EEl
FN:44,44,_ZN5neml211batch_stackERKSt16initializer_listINS_5SSFR5EEl
FN:44,44,_ZN5neml211batch_stackERKSt16initializer_listINS_6SSSSR8EEl
FN:44,44,_ZN5neml211batch_stackERKSt16initializer_listINS_6ScalarEEl
FN:44,44,_ZN5neml211batch_stackERKSt16initializer_listINS_6TensorEEl
FN:44,44,_ZN5neml211batch_stackERKSt6vectorINS_10QuaternionESaIS1_EEl
FN:44,44,_ZN5neml211batch_stackERKSt6vectorINS_11MillerIndexESaIS1_EEl
FN:44,44,_ZN5neml211batch_stackERKSt6vectorINS_2R2ESaIS1_EEl
FN:44,44,_ZN5neml211batch_stackERKSt6vectorINS_2R3ESaIS1_EEl
FN:44,44,_ZN5neml211batch_stackERKSt6vectorINS_2R4ESaIS1_EEl
FN:44,44,_ZN5neml211batch_stackERKSt6vectorINS_2R5ESaIS1_EEl
FN:44,44,_ZN5neml211batch_stackERKSt6vectorINS_2R8ESaIS1_EEl
FN:44,44,_ZN5neml211batch_stackERKSt6vectorINS_3RotESaIS1_EEl
FN:44,44,_ZN5neml211batch_stackERKSt6vectorINS_3SR2ESaIS1_EEl
FN:44,44,_ZN5neml211batch_stackERKSt6vectorINS_3VecESaIS1_EEl
FN:44,44,_ZN5neml211batch_stackERKSt6vectorINS_3WR2ESaIS1_EEl
FN:44,44,_ZN5neml211batch_stackERKSt6vectorINS_4SFR3ESaIS1_EEl
FN:44,44,_ZN5neml211batch_stackERKSt6vectorINS_4SFR4ESaIS1_EEl
FN:44,44,_ZN5neml211batch_stackERKSt6vectorINS_4SSR4ESaIS1_EEl
FN:44,44,_ZN5neml211batch_stackERKSt6vectorINS_4SWR4ESaIS1_EEl
FN:44,44,_ZN5neml211batch_stackERKSt6vectorINS_4WFR4ESaIS1_EEl
FN:44,44,_ZN5neml211batch_stackERKSt6vectorINS_4WSR4ESaIS1_EEl
FN:44,44,_ZN5neml211batch_stackERKSt6vectorINS_4WWR4ESaIS1_EEl
FN:44,44,_ZN5neml211batch_stackERKSt6vectorINS_5SFFR4ESaIS1_EEl
FN:44,44,_ZN5neml211batch_stackERKSt6vectorINS_5SSFR5ESaIS1_EEl
FN:44,44,_ZN5neml211batch_stackERKSt6vectorINS_6SSSSR8ESaIS1_EEl
FN:44,44,_ZN5neml211batch_stackERKSt6vectorINS_6ScalarESaIS1_EEl
FN:44,44,_ZN5neml211batch_stackERKSt6vectorINS_6TensorESaIS1_EEl
FN:47,53,_ZN5neml210base_stackERKSt6vectorINS_6TensorESaIS1_EEl
FNDA:0,_ZN5neml211batch_stackERKSt16initializer_listINS_10QuaternionEEl
FNDA:0,_ZN5neml211batch_stackERKSt16initializer_listINS_11MillerIndexEEl
FNDA:0,_ZN5neml211batch_stackERKSt16initializer_listINS_2R2EEl
FNDA:0,_ZN5neml211batch_stackERKSt16initializer_listINS_2R3EEl
FNDA:0,_ZN5neml211batch_stackERKSt16initializer_listINS_2R4EEl
FNDA:0,_ZN5neml211batch_stackERKSt16initializer_listINS_2R5EEl
FNDA:0,_ZN5neml211batch_stackERKSt16initializer_listINS_2R8EEl
FNDA:0,_ZN5neml211batch_stackERKSt16initializer_listINS_3RotEEl
FNDA:0,_ZN5neml211batch_stackERKSt16initializer_listINS_3SR2EEl
FNDA:0,_ZN5neml211batch_stackERKSt16initializer_listINS_3VecEEl
FNDA:0,_ZN5neml211batch_stackERKSt16initializer_listINS_3WR2EEl
FNDA:0,_ZN5neml211batch_stackERKSt16initializer_listINS_4SFR3EEl
FNDA:0,_ZN5neml211batch_stackERKSt16initializer_listINS_4SFR4EEl
FNDA:0,_ZN5neml211batch_stackERKSt16initializer_listINS_4SSR4EEl
FNDA:0,_ZN5neml211batch_stackERKSt16initializer_listINS_4SWR4EEl
FNDA:0,_ZN5neml211batch_stackERKSt16initializer_listINS_4WFR4EEl
FNDA:0,_ZN5neml211batch_stackERKSt16initializer_listINS_4WSR4EEl
FNDA:0,_ZN5neml211batch_stackERKSt16initializer_listINS_4WWR4EEl
FNDA:0,_ZN5neml211batch_stackERKSt16initializer_listINS_5SFFR4EEl
FNDA:0,_ZN5neml211batch_stackERKSt16initializer_listINS_5SSFR5EEl
FNDA:0,_ZN5neml211batch_stackERKSt16initializer_listINS_6SSSSR8EEl
FNDA:0,_ZN5neml211batch_stackERKSt16initializer_listINS_6ScalarEEl
FNDA:0,_ZN5neml211batch_stackERKSt16initializer_listINS_6TensorEEl
FNDA:0,_ZN5neml211batch_stackERKSt6vectorINS_10QuaternionESaIS1_EEl
FNDA:0,_ZN5neml211batch_stackERKSt6vectorINS_11MillerIndexESaIS1_EEl
FNDA:0,_ZN5neml211batch_stackERKSt6vectorINS_2R2ESaIS1_EEl
FNDA:0,_ZN5neml211batch_stackERKSt6vectorINS_2R3ESaIS1_EEl
FNDA:0,_ZN5neml211batch_stackERKSt6vectorINS_2R4ESaIS1_EEl
FNDA:0,_ZN5neml211batch_stackERKSt6vectorINS_2R5ESaIS1_EEl
FNDA:0,_ZN5neml211batch_stackERKSt6vectorINS_2R8ESaIS1_EEl
FNDA:0,_ZN5neml211batch_stackERKSt6vectorINS_3RotESaIS1_EEl
FNDA:0,_ZN5neml211batch_stackERKSt6vectorINS_3SR2ESaIS1_EEl
FNDA:0,_ZN5neml211batch_stackERKSt6vectorINS_3VecESaIS1_EEl
FNDA:0,_ZN5neml211batch_stackERKSt6vectorINS_3WR2ESaIS1_EEl
FNDA:0,_ZN5neml211batch_stackERKSt6vectorINS_4SFR3ESaIS1_EEl
FNDA:0,_ZN5neml211batch_stackERKSt6vectorINS_4SFR4ESaIS1_EEl
FNDA:0,_ZN5neml211batch_stackERKSt6vectorINS_4SSR4ESaIS1_EEl
FNDA:0,_ZN5neml211batch_stackERKSt6vectorINS_4SWR4ESaIS1_EEl
FNDA:0,_ZN5neml211batch_stackERKSt6vectorINS_4WFR4ESaIS1_EEl
FNDA:0,_ZN5neml211batch_stackERKSt6vectorINS_4WSR4ESaIS1_EEl
FNDA:0,_ZN5neml211batch_stackERKSt6vectorINS_4WWR4ESaIS1_EEl
FNDA:0,_ZN5neml211batch_stackERKSt6vectorINS_5SFFR4ESaIS1_EEl
FNDA:0,_ZN5neml211batch_stackERKSt6vectorINS_5SSFR5ESaIS1_EEl
FNDA:0,_ZN5neml211batch_stackERKSt6vectorINS_6SSSSR8ESaIS1_EEl
FNDA:0,_ZN5neml211batch_stackERKSt6vectorINS_6ScalarESaIS1_EEl
FNDA:0,_ZN5neml211batch_stackERKSt6vectorINS_6TensorESaIS1_EEl
FNDA:2869,_ZN5neml210base_stackERKSt6vectorINS_6TensorESaIS1_EEl
FNF:47
FNH:1
DA:44,0
DA:47,2869
DA:49,2869
DA:50,2869
DA:51,2869
DA:52,5738
DA:53,2869
LF:7
LH:6
end_of_record
TN:
SF:/home/runner/work/neml2/neml2/src/neml2/tensors/functions/sum.cxx
FN:39,39,_ZN5neml29batch_sumERKNS_10QuaternionEl
FN:39,39,_ZN5neml29batch_sumERKNS_11MillerIndexEl
FN:39,39,_ZN5neml29batch_sumERKNS_2R2El
FN:39,39,_ZN5neml29batch_sumERKNS_2R3El
FN:39,39,_ZN5neml29batch_sumERKNS_2R4El
FN:39,39,_ZN5neml29batch_sumERKNS_2R5El
FN:39,39,_ZN5neml29batch_sumERKNS_2R8El
FN:39,39,_ZN5neml29batch_sumERKNS_3RotEl
FN:39,39,_ZN5neml29batch_sumERKNS_3SR2El
FN:39,39,_ZN5neml29batch_sumERKNS_3VecEl
FN:39,39,_ZN5neml29batch_sumERKNS_3WR2El
FN:39,39,_ZN5neml29batch_sumERKNS_4SFR3El
FN:39,39,_ZN5neml29batch_sumERKNS_4SFR4El
FN:39,39,_ZN5neml29batch_sumERKNS_4SSR4El
FN:39,39,_ZN5neml29batch_sumERKNS_4SWR4El
FN:39,39,_ZN5neml29batch_sumERKNS_4WFR4El
FN:39,39,_ZN5neml29batch_sumERKNS_4WSR4El
FN:39,39,_ZN5neml29batch_sumERKNS_4WWR4El
FN:39,39,_ZN5neml29batch_sumERKNS_5SFFR4El
FN:39,39,_ZN5neml29batch_sumERKNS_5SSFR5El
FN:39,39,_ZN5neml29batch_sumERKNS_6SSSSR8El
FN:39,39,_ZN5neml29batch_sumERKNS_6ScalarEl
FN:39,39,_ZN5neml29batch_sumERKNS_6TensorEl
FN:42,46,_ZN5neml28base_sumERKNS_6TensorEl
FNDA:0,_ZN5neml29batch_sumERKNS_10QuaternionEl
FNDA:0,_ZN5neml29batch_sumERKNS_11MillerIndexEl
FNDA:0,_ZN5neml29batch_sumERKNS_2R2El
FNDA:0,_ZN5neml29batch_sumERKNS_2R3El
FNDA:0,_ZN5neml29batch_sumERKNS_2R4El
FNDA:0,_ZN5neml29batch_sumERKNS_2R5El
FNDA:0,_ZN5neml29batch_sumERKNS_2R8El
FNDA:0,_ZN5neml29batch_sumERKNS_3RotEl
FNDA:6,_ZN5neml29batch_sumERKNS_3SR2El
FNDA:0,_ZN5neml29batch_sumERKNS_3VecEl
FNDA:6,_ZN5neml29batch_sumERKNS_3WR2El
FNDA:0,_ZN5neml29batch_sumERKNS_4SFR3El
FNDA:0,_ZN5neml29batch_sumERKNS_4SFR4El
FNDA:0,_ZN5neml29batch_sumERKNS_4SSR4El
FNDA:0,_ZN5neml29batch_sumERKNS_4SWR4El
FNDA:0,_ZN5neml29batch_sumERKNS_4WFR4El
FNDA:0,_ZN5neml29batch_sumERKNS_4WSR4El
FNDA:0,_ZN5neml29batch_sumERKNS_4WWR4El
FNDA:0,_ZN5neml29batch_sumERKNS_5SFFR4El
FNDA:0,_ZN5neml29batch_sumERKNS_5SSFR5El
FNDA:0,_ZN5neml29batch_sumERKNS_6SSSSR8El
FNDA:5,_ZN5neml29batch_sumERKNS_6ScalarEl
FNDA:0,_ZN5neml29batch_sumERKNS_6TensorEl
FNDA:489,_ZN5neml28base_sumERKNS_6TensorEl
FNF:24
FNH:4
DA:39,17
DA:42,489
DA:44,489
DA:45,978
LF:4
LH:4
end_of_record
TN:
SF:/home/runner/work/neml2/neml2/src/neml2/tensors/functions/tan.cxx
FN:33,33,_ZN5neml23tanERKNS_10QuaternionE
FN:33,33,_ZN5neml23tanERKNS_11MillerIndexE
FN:33,33,_ZN5neml23tanERKNS_2R2E
FN:33,33,_ZN5neml23tanERKNS_2R3E
FN:33,33,_ZN5neml23tanERKNS_2R4E
FN:33,33,_ZN5neml23tanERKNS_2R5E
FN:33,33,_ZN5neml23tanERKNS_2R8E
FN:33,33,_ZN5neml23tanERKNS_3RotE
FN:33,33,_ZN5neml23tanERKNS_3SR2E
FN:33,33,_ZN5neml23tanERKNS_3VecE
FN:33,33,_ZN5neml23tanERKNS_3WR2E
FN:33,33,_ZN5neml23tanERKNS_4SFR3E
FN:33,33,_ZN5neml23tanERKNS_4SFR4E
FN:33,33,_ZN5neml23tanERKNS_4SSR4E
FN:33,33,_ZN5neml23tanERKNS_4SWR4E
FN:33,33,_ZN5neml23tanERKNS_4WFR4E
FN:33,33,_ZN5neml23tanERKNS_4WSR4E
FN:33,33,_ZN5neml23tanERKNS_4WWR4E
FN:33,33,_ZN5neml23tanERKNS_5SFFR4E
FN:33,33,_ZN5neml23tanERKNS_5SSFR5E
FN:33,33,_ZN5neml23tanERKNS_6SSSSR8E
FN:33,33,_ZN5neml23tanERKNS_6ScalarE
FN:33,33,_ZN5neml23tanERKNS_6TensorE
FNDA:0,_ZN5neml23tanERKNS_10QuaternionE
FNDA:0,_ZN5neml23tanERKNS_11MillerIndexE
FNDA:0,_ZN5neml23tanERKNS_2R2E
FNDA:0,_ZN5neml23tanERKNS_2R3E
FNDA:0,_ZN5neml23tanERKNS_2R4E
FNDA:0,_ZN5neml23tanERKNS_2R5E
FNDA:0,_ZN5neml23tanERKNS_2R8E
FNDA:0,_ZN5neml23tanERKNS_3RotE
FNDA:0,_ZN5neml23tanERKNS_3SR2E
FNDA:0,_ZN5neml23tanERKNS_3VecE
FNDA:0,_ZN5neml23tanERKNS_3WR2E
FNDA:0,_ZN5neml23tanERKNS_4SFR3E
FNDA:0,_ZN5neml23tanERKNS_4SFR4E
FNDA:0,_ZN5neml23tanERKNS_4SSR4E
FNDA:0,_ZN5neml23tanERKNS_4SWR4E
FNDA:0,_ZN5neml23tanERKNS_4WFR4E
FNDA:0,_ZN5neml23tanERKNS_4WSR4E
FNDA:0,_ZN5neml23tanERKNS_4WWR4E
FNDA:0,_ZN5neml23tanERKNS_5SFFR4E
FNDA:0,_ZN5neml23tanERKNS_5SSFR5E
FNDA:0,_ZN5neml23tanERKNS_6SSSSR8E
FNDA:60,_ZN5neml23tanERKNS_6ScalarE
FNDA:0,_ZN5neml23tanERKNS_6TensorE
FNF:23
FNH:1
DA:33,120
LF:1
LH:1
end_of_record
TN:
SF:/home/runner/work/neml2/neml2/src/neml2/tensors/functions/tanh.cxx
FN:33,33,_ZN5neml24tanhERKNS_10QuaternionE
FN:33,33,_ZN5neml24tanhERKNS_11MillerIndexE
FN:33,33,_ZN5neml24tanhERKNS_2R2E
FN:33,33,_ZN5neml24tanhERKNS_2R3E
FN:33,33,_ZN5neml24tanhERKNS_2R4E
FN:33,33,_ZN5neml24tanhERKNS_2R5E
FN:33,33,_ZN5neml24tanhERKNS_2R8E
FN:33,33,_ZN5neml24tanhERKNS_3RotE
FN:33,33,_ZN5neml24tanhERKNS_3SR2E
FN:33,33,_ZN5neml24tanhERKNS_3VecE
FN:33,33,_ZN5neml24tanhERKNS_3WR2E
FN:33,33,_ZN5neml24tanhERKNS_4SFR3E
FN:33,33,_ZN5neml24tanhERKNS_4SFR4E
FN:33,33,_ZN5neml24tanhERKNS_4SSR4E
FN:33,33,_ZN5neml24tanhERKNS_4SWR4E
FN:33,33,_ZN5neml24tanhERKNS_4WFR4E
FN:33,33,_ZN5neml24tanhERKNS_4WSR4E
FN:33,33,_ZN5neml24tanhERKNS_4WWR4E
FN:33,33,_ZN5neml24tanhERKNS_5SFFR4E
FN:33,33,_ZN5neml24tanhERKNS_5SSFR5E
FN:33,33,_ZN5neml24tanhERKNS_6SSSSR8E
FN:33,33,_ZN5neml24tanhERKNS_6ScalarE
FN:33,33,_ZN5neml24tanhERKNS_6TensorE
FNDA:0,_ZN5neml24tanhERKNS_10QuaternionE
FNDA:0,_ZN5neml24tanhERKNS_11MillerIndexE
FNDA:0,_ZN5neml24tanhERKNS_2R2E
FNDA:0,_ZN5neml24tanhERKNS_2R3E
FNDA:0,_ZN5neml24tanhERKNS_2R4E
FNDA:0,_ZN5neml24tanhERKNS_2R5E
FNDA:0,_ZN5neml24tanhERKNS_2R8E
FNDA:0,_ZN5neml24tanhERKNS_3RotE
FNDA:0,_ZN5neml24tanhERKNS_3SR2E
FNDA:0,_ZN5neml24tanhERKNS_3VecE
FNDA:0,_ZN5neml24tanhERKNS_3WR2E
FNDA:0,_ZN5neml24tanhERKNS_4SFR3E
FNDA:0,_ZN5neml24tanhERKNS_4SFR4E
FNDA:0,_ZN5neml24tanhERKNS_4SSR4E
FNDA:0,_ZN5neml24tanhERKNS_4SWR4E
FNDA:0,_ZN5neml24tanhERKNS_4WFR4E
FNDA:0,_ZN5neml24tanhERKNS_4WSR4E
FNDA:0,_ZN5neml24tanhERKNS_4WWR4E
FNDA:0,_ZN5neml24tanhERKNS_5SFFR4E
FNDA:0,_ZN5neml24tanhERKNS_5SSFR5E
FNDA:0,_ZN5neml24tanhERKNS_6SSSSR8E
FNDA:4,_ZN5neml24tanhERKNS_6ScalarE
FNDA:0,_ZN5neml24tanhERKNS_6TensorE
FNF:23
FNH:1
DA:33,8
LF:1
LH:1
end_of_record
TN:
SF:/home/runner/work/neml2/neml2/src/neml2/tensors/functions/where.cxx
FN:38,38,_ZN5neml25whereERKN2at6TensorERKNS_10QuaternionES6_
FN:38,38,_ZN5neml25whereERKN2at6TensorERKNS_11MillerIndexES6_
FN:38,38,_ZN5neml25whereERKN2at6TensorERKNS_2R2ES6_
FN:38,38,_ZN5neml25whereERKN2at6TensorERKNS_2R3ES6_
FN:38,38,_ZN5neml25whereERKN2at6TensorERKNS_2R4ES6_
FN:38,38,_ZN5neml25whereERKN2at6TensorERKNS_2R5ES6_
FN:38,38,_ZN5neml25whereERKN2at6TensorERKNS_2R8ES6_
FN:38,38,_ZN5neml25whereERKN2at6TensorERKNS_3RotES6_
FN:38,38,_ZN5neml25whereERKN2at6TensorERKNS_3SR2ES6_
FN:38,38,_ZN5neml25whereERKN2at6TensorERKNS_3VecES6_
FN:38,38,_ZN5neml25whereERKN2at6TensorERKNS_3WR2ES6_
FN:38,38,_ZN5neml25whereERKN2at6TensorERKNS_4SFR3ES6_
FN:38,38,_ZN5neml25whereERKN2at6TensorERKNS_4SFR4ES6_
FN:38,38,_ZN5neml25whereERKN2at6TensorERKNS_4SSR4ES6_
FN:38,38,_ZN5neml25whereERKN2at6TensorERKNS_4SWR4ES6_
FN:38,38,_ZN5neml25whereERKN2at6TensorERKNS_4WFR4ES6_
FN:38,38,_ZN5neml25whereERKN2at6TensorERKNS_4WSR4ES6_
FN:38,38,_ZN5neml25whereERKN2at6TensorERKNS_4WWR4ES6_
FN:38,38,_ZN5neml25whereERKN2at6TensorERKNS_5SFFR4ES6_
FN:38,38,_ZN5neml25whereERKN2at6TensorERKNS_5SSFR5ES6_
FN:38,38,_ZN5neml25whereERKN2at6TensorERKNS_6SSSSR8ES6_
FN:38,38,_ZN5neml25whereERKN2at6TensorERKNS_6ScalarES6_
FN:38,38,_ZN5neml25whereERKN2at6TensorERKNS_6TensorES6_
FNDA:0,_ZN5neml25whereERKN2at6TensorERKNS_10QuaternionES6_
FNDA:0,_ZN5neml25whereERKN2at6TensorERKNS_11MillerIndexES6_
FNDA:1,_ZN5neml25whereERKN2at6TensorERKNS_2R2ES6_
FNDA:0,_ZN5neml25whereERKN2at6TensorERKNS_2R3ES6_
FNDA:0,_ZN5neml25whereERKN2at6TensorERKNS_2R4ES6_
FNDA:0,_ZN5neml25whereERKN2at6TensorERKNS_2R5ES6_
FNDA:0,_ZN5neml25whereERKN2at6TensorERKNS_2R8ES6_
FNDA:1,_ZN5neml25whereERKN2at6TensorERKNS_3RotES6_
FNDA:0,_ZN5neml25whereERKN2at6TensorERKNS_3SR2ES6_
FNDA:0,_ZN5neml25whereERKN2at6TensorERKNS_3VecES6_
FNDA:0,_ZN5neml25whereERKN2at6TensorERKNS_3WR2ES6_
FNDA:0,_ZN5neml25whereERKN2at6TensorERKNS_4SFR3ES6_
FNDA:0,_ZN5neml25whereERKN2at6TensorERKNS_4SFR4ES6_
FNDA:0,_ZN5neml25whereERKN2at6TensorERKNS_4SSR4ES6_
FNDA:0,_ZN5neml25whereERKN2at6TensorERKNS_4SWR4ES6_
FNDA:0,_ZN5neml25whereERKN2at6TensorERKNS_4WFR4ES6_
FNDA:0,_ZN5neml25whereERKN2at6TensorERKNS_4WSR4ES6_
FNDA:0,_ZN5neml25whereERKN2at6TensorERKNS_4WWR4ES6_
FNDA:0,_ZN5neml25whereERKN2at6TensorERKNS_5SFFR4ES6_
FNDA:0,_ZN5neml25whereERKN2at6TensorERKNS_5SSFR5ES6_
FNDA:0,_ZN5neml25whereERKN2at6TensorERKNS_6SSSSR8ES6_
FNDA:8,_ZN5neml25whereERKN2at6TensorERKNS_6ScalarES6_
FNDA:18,_ZN5neml25whereERKN2at6TensorERKNS_6TensorES6_
FNF:23
FNH:4
DA:38,28
LF:1
LH:1
end_of_record
TN:
SF:/home/runner/work/neml2/neml2/src/neml2/tensors/mandel_notation.cxx
FN:104,111,_ZN5neml212skew_to_fullERKNS_6TensorEl
FN:31,51,_ZN5neml215full_to_reducedERKNS_6TensorERKN2at6TensorES6_l
FN:54,71,_ZN5neml215reduced_to_fullERKNS_6TensorERKN2at6TensorES6_l
FN:74,81,_ZN5neml214full_to_mandelERKNS_6TensorEl
FN:84,91,_ZN5neml214mandel_to_fullERKNS_6TensorEl
FN:94,101,_ZN5neml212full_to_skewERKNS_6TensorEl
FNDA:36,_ZN5neml212skew_to_fullERKNS_6TensorEl
FNDA:347,_ZN5neml215full_to_reducedERKNS_6TensorERKN2at6TensorES6_l
FNDA:259,_ZN5neml215reduced_to_fullERKNS_6TensorERKN2at6TensorES6_l
FNDA:290,_ZN5neml214full_to_mandelERKNS_6TensorEl
FNDA:223,_ZN5neml214mandel_to_fullERKNS_6TensorEl
FNDA:57,_ZN5neml212full_to_skewERKNS_6TensorEl
FNF:6
FNH:6
DA:31,347
DA:33,347
DA:34,347
DA:35,347
DA:36,347
DA:37,347
DA:39,347
DA:40,347
DA:41,347
DA:43,347
DA:44,347
DA:46,694
DA:47,694
DA:50,1041
DA:51,347
DA:54,259
DA:56,259
DA:57,259
DA:58,259
DA:59,259
DA:60,259
DA:62,259
DA:63,259
DA:64,259
DA:65,259
DA:66,259
DA:68,518
DA:69,518
DA:70,777
DA:71,259
DA:74,290
DA:78,580
DA:79,580
DA:80,580
DA:84,223
DA:88,446
DA:89,446
DA:90,446
DA:94,57
DA:98,114
DA:99,114
DA:100,114
DA:104,36
DA:108,72
DA:109,72
DA:110,72
LF:46
LH:46
end_of_record
TN:
SF:/home/runner/work/neml2/neml2/src/neml2/tensors/shape_utils.cxx
FN:30,34,_ZN5neml25utils12storage_sizeEN3c108ArrayRefIlEE
FN:37,42,_ZN5neml25utils11pad_prependEN3c108ArrayRefIlEEll
FNDA:10484,_ZN5neml25utils12storage_sizeEN3c108ArrayRefIlEE
FNDA:52222,_ZN5neml25utils11pad_prependEN3c108ArrayRefIlEEll
FNF:2
FNH:2
DA:30,10484
DA:32,10484
DA:33,10484
DA:37,52222
DA:39,52222
DA:40,52222
DA:41,52222
DA:42,0
LF:8
LH:7
end_of_record
TN:
SF:/home/runner/work/neml2/neml2/src/neml2/tensors/tensors.cxx
FN:37,47,_ZN5neml2lsERSoRKNS_10TensorTypeE
FNDA:10,_ZN5neml2lsERSoRKNS_10TensorTypeE
FNF:1
FNH:1
DA:37,10
DA:44,10
DA:45,0
DA:46,10
LF:4
LH:3
end_of_record
TN:
SF:/home/runner/work/neml2/neml2/src/neml2/user_tensors/EmptyPrimitiveTensor.cxx
FN:32,46,_ZN5neml220EmptyPrimitiveTensorINS_10QuaternionEE16expected_optionsEv
FN:32,46,_ZN5neml220EmptyPrimitiveTensorINS_11MillerIndexEE16expected_optionsEv
FN:32,46,_ZN5neml220EmptyPrimitiveTensorINS_2R2EE16expected_optionsEv
FN:32,46,_ZN5neml220EmptyPrimitiveTensorINS_2R3EE16expected_optionsEv
FN:32,46,_ZN5neml220EmptyPrimitiveTensorINS_2R4EE16expected_optionsEv
FN:32,46,_ZN5neml220EmptyPrimitiveTensorINS_2R5EE16expected_optionsEv
FN:32,46,_ZN5neml220EmptyPrimitiveTensorINS_2R8EE16expected_optionsEv
FN:32,46,_ZN5neml220EmptyPrimitiveTensorINS_3RotEE16expected_optionsEv
FN:32,46,_ZN5neml220EmptyPrimitiveTensorINS_3SR2EE16expected_optionsEv
FN:32,46,_ZN5neml220EmptyPrimitiveTensorINS_3VecEE16expected_optionsEv
FN:32,46,_ZN5neml220EmptyPrimitiveTensorINS_3WR2EE16expected_optionsEv
FN:32,46,_ZN5neml220EmptyPrimitiveTensorINS_4SFR3EE16expected_optionsEv
FN:32,46,_ZN5neml220EmptyPrimitiveTensorINS_4SFR4EE16expected_optionsEv
FN:32,46,_ZN5neml220EmptyPrimitiveTensorINS_4SSR4EE16expected_optionsEv
FN:32,46,_ZN5neml220EmptyPrimitiveTensorINS_4SWR4EE16expected_optionsEv
FN:32,46,_ZN5neml220EmptyPrimitiveTensorINS_4WFR4EE16expected_optionsEv
FN:32,46,_ZN5neml220EmptyPrimitiveTensorINS_4WSR4EE16expected_optionsEv
FN:32,46,_ZN5neml220EmptyPrimitiveTensorINS_4WWR4EE16expected_optionsEv
FN:32,46,_ZN5neml220EmptyPrimitiveTensorINS_5SFFR4EE16expected_optionsEv
FN:32,46,_ZN5neml220EmptyPrimitiveTensorINS_5SSFR5EE16expected_optionsEv
FN:32,46,_ZN5neml220EmptyPrimitiveTensorINS_6SSSSR8EE16expected_optionsEv
FN:32,46,_ZN5neml220EmptyPrimitiveTensorINS_6ScalarEE16expected_optionsEv
FN:49,53,_ZN5neml220EmptyPrimitiveTensorINS_10QuaternionEEC2ERKNS_9OptionSetE
FN:49,53,_ZN5neml220EmptyPrimitiveTensorINS_11MillerIndexEEC2ERKNS_9OptionSetE
FN:49,53,_ZN5neml220EmptyPrimitiveTensorINS_2R2EEC2ERKNS_9OptionSetE
FN:49,53,_ZN5neml220EmptyPrimitiveTensorINS_2R3EEC2ERKNS_9OptionSetE
FN:49,53,_ZN5neml220EmptyPrimitiveTensorINS_2R4EEC2ERKNS_9OptionSetE
FN:49,53,_ZN5neml220EmptyPrimitiveTensorINS_2R5EEC2ERKNS_9OptionSetE
FN:49,53,_ZN5neml220EmptyPrimitiveTensorINS_2R8EEC2ERKNS_9OptionSetE
FN:49,53,_ZN5neml220EmptyPrimitiveTensorINS_3RotEEC2ERKNS_9OptionSetE
FN:49,53,_ZN5neml220EmptyPrimitiveTensorINS_3SR2EEC2ERKNS_9OptionSetE
FN:49,53,_ZN5neml220EmptyPrimitiveTensorINS_3VecEEC2ERKNS_9OptionSetE
FN:49,53,_ZN5neml220EmptyPrimitiveTensorINS_3WR2EEC2ERKNS_9OptionSetE
FN:49,53,_ZN5neml220EmptyPrimitiveTensorINS_4SFR3EEC2ERKNS_9OptionSetE
FN:49,53,_ZN5neml220EmptyPrimitiveTensorINS_4SFR4EEC2ERKNS_9OptionSetE
FN:49,53,_ZN5neml220EmptyPrimitiveTensorINS_4SSR4EEC2ERKNS_9OptionSetE
FN:49,53,_ZN5neml220EmptyPrimitiveTensorINS_4SWR4EEC2ERKNS_9OptionSetE
FN:49,53,_ZN5neml220EmptyPrimitiveTensorINS_4WFR4EEC2ERKNS_9OptionSetE
FN:49,53,_ZN5neml220EmptyPrimitiveTensorINS_4WSR4EEC2ERKNS_9OptionSetE
FN:49,53,_ZN5neml220EmptyPrimitiveTensorINS_4WWR4EEC2ERKNS_9OptionSetE
FN:49,53,_ZN5neml220EmptyPrimitiveTensorINS_5SFFR4EEC2ERKNS_9OptionSetE
FN:49,53,_ZN5neml220EmptyPrimitiveTensorINS_5SSFR5EEC2ERKNS_9OptionSetE
FN:49,53,_ZN5neml220EmptyPrimitiveTensorINS_6SSSSR8EEC2ERKNS_9OptionSetE
FN:49,53,_ZN5neml220EmptyPrimitiveTensorINS_6ScalarEEC2ERKNS_9OptionSetE
FNDA:1,_ZN5neml220EmptyPrimitiveTensorINS_10QuaternionEE16expected_optionsEv
FNDA:1,_ZN5neml220EmptyPrimitiveTensorINS_11MillerIndexEE16expected_optionsEv
FNDA:1,_ZN5neml220EmptyPrimitiveTensorINS_2R2EE16expected_optionsEv
FNDA:1,_ZN5neml220EmptyPrimitiveTensorINS_2R3EE16expected_optionsEv
FNDA:1,_ZN5neml220EmptyPrimitiveTensorINS_2R4EE16expected_optionsEv
FNDA:1,_ZN5neml220EmptyPrimitiveTensorINS_2R5EE16expected_optionsEv
FNDA:1,_ZN5neml220EmptyPrimitiveTensorINS_2R8EE16expected_optionsEv
FNDA:1,_ZN5neml220EmptyPrimitiveTensorINS_3RotEE16expected_optionsEv
FNDA:1,_ZN5neml220EmptyPrimitiveTensorINS_3SR2EE16expected_optionsEv
FNDA:1,_ZN5neml220EmptyPrimitiveTensorINS_3VecEE16expected_optionsEv
FNDA:1,_ZN5neml220EmptyPrimitiveTensorINS_3WR2EE16expected_optionsEv
FNDA:1,_ZN5neml220EmptyPrimitiveTensorINS_4SFR3EE16expected_optionsEv
FNDA:1,_ZN5neml220EmptyPrimitiveTensorINS_4SFR4EE16expected_optionsEv
FNDA:1,_ZN5neml220EmptyPrimitiveTensorINS_4SSR4EE16expected_optionsEv
FNDA:1,_ZN5neml220EmptyPrimitiveTensorINS_4SWR4EE16expected_optionsEv
FNDA:1,_ZN5neml220EmptyPrimitiveTensorINS_4WFR4EE16expected_optionsEv
FNDA:1,_ZN5neml220EmptyPrimitiveTensorINS_4WSR4EE16expected_optionsEv
FNDA:1,_ZN5neml220EmptyPrimitiveTensorINS_4WWR4EE16expected_optionsEv
FNDA:1,_ZN5neml220EmptyPrimitiveTensorINS_5SFFR4EE16expected_optionsEv
FNDA:1,_ZN5neml220EmptyPrimitiveTensorINS_5SSFR5EE16expected_optionsEv
FNDA:1,_ZN5neml220EmptyPrimitiveTensorINS_6SSSSR8EE16expected_optionsEv
FNDA:1,_ZN5neml220EmptyPrimitiveTensorINS_6ScalarEE16expected_optionsEv
FNDA:0,_ZN5neml220EmptyPrimitiveTensorINS_10QuaternionEEC2ERKNS_9OptionSetE
FNDA:0,_ZN5neml220EmptyPrimitiveTensorINS_11MillerIndexEEC2ERKNS_9OptionSetE
FNDA:1,_ZN5neml220EmptyPrimitiveTensorINS_2R2EEC2ERKNS_9OptionSetE
FNDA:1,_ZN5neml220EmptyPrimitiveTensorINS_2R3EEC2ERKNS_9OptionSetE
FNDA:1,_ZN5neml220EmptyPrimitiveTensorINS_2R4EEC2ERKNS_9OptionSetE
FNDA:1,_ZN5neml220EmptyPrimitiveTensorINS_2R5EEC2ERKNS_9OptionSetE
FNDA:0,_ZN5neml220EmptyPrimitiveTensorINS_2R8EEC2ERKNS_9OptionSetE
FNDA:1,_ZN5neml220EmptyPrimitiveTensorINS_3RotEEC2ERKNS_9OptionSetE
FNDA:1,_ZN5neml220EmptyPrimitiveTensorINS_3SR2EEC2ERKNS_9OptionSetE
FNDA:1,_ZN5neml220EmptyPrimitiveTensorINS_3VecEEC2ERKNS_9OptionSetE
FNDA:0,_ZN5neml220EmptyPrimitiveTensorINS_3WR2EEC2ERKNS_9OptionSetE
FNDA:1,_ZN5neml220EmptyPrimitiveTensorINS_4SFR3EEC2ERKNS_9OptionSetE
FNDA:1,_ZN5neml220EmptyPrimitiveTensorINS_4SFR4EEC2ERKNS_9OptionSetE
FNDA:1,_ZN5neml220EmptyPrimitiveTensorINS_4SSR4EEC2ERKNS_9OptionSetE
FNDA:0,_ZN5neml220EmptyPrimitiveTensorINS_4SWR4EEC2ERKNS_9OptionSetE
FNDA:1,_ZN5neml220EmptyPrimitiveTensorINS_4WFR4EEC2ERKNS_9OptionSetE
FNDA:0,_ZN5neml220EmptyPrimitiveTensorINS_4WSR4EEC2ERKNS_9OptionSetE
FNDA:0,_ZN5neml220EmptyPrimitiveTensorINS_4WWR4EEC2ERKNS_9OptionSetE
FNDA:0,_ZN5neml220EmptyPrimitiveTensorINS_5SFFR4EEC2ERKNS_9OptionSetE
FNDA:1,_ZN5neml220EmptyPrimitiveTensorINS_5SSFR5EEC2ERKNS_9OptionSetE
FNDA:0,_ZN5neml220EmptyPrimitiveTensorINS_6SSSSR8EEC2ERKNS_9OptionSetE
FNDA:1,_ZN5neml220EmptyPrimitiveTensorINS_6ScalarEEC2ERKNS_9OptionSetE
FNF:44
FNH:35
DA:32,22
DA:36,22
DA:38,22
DA:39,22
DA:42,66
DA:43,22
DA:45,44
DA:46,22
DA:49,13
DA:50,39
DA:51,26
DA:53,13
LF:12
LH:12
end_of_record
TN:
SF:/home/runner/work/neml2/neml2/src/neml2/user_tensors/EmptyTensor.cxx
FN:32,45,_ZN5neml211EmptyTensor16expected_optionsEv
FN:47,53,_ZN5neml211EmptyTensorC2ERKNS_9OptionSetE
FNDA:1,_ZN5neml211EmptyTensor16expected_optionsEv
FNDA:1,_ZN5neml211EmptyTensorC2ERKNS_9OptionSetE
FNF:2
FNH:2
DA:32,1
DA:34,1
DA:35,1
DA:36,1
DA:38,3
DA:39,1
DA:41,3
DA:42,1
DA:44,1
DA:45,0
DA:47,1
DA:48,2
DA:50,1
DA:51,4
DA:53,1
LF:15
LH:14
end_of_record
TN:
SF:/home/runner/work/neml2/neml2/src/neml2/user_tensors/FillMillerIndex.cxx
FN:33,42,_ZN5neml215FillMillerIndex16expected_optionsEv
FN:44,48,_ZN5neml215FillMillerIndexC2ERKNS_9OptionSetE
FN:51,58,_ZNK5neml215FillMillerIndex4fillERKSt6vectorIlSaIlEE
FNDA:1,_ZN5neml215FillMillerIndex16expected_optionsEv
FNDA:143,_ZN5neml215FillMillerIndexC2ERKNS_9OptionSetE
FNDA:143,_ZNK5neml215FillMillerIndex4fillERKSt6vectorIlSaIlEE
FNF:3
FNH:3
DA:33,1
DA:35,1
DA:36,1
DA:37,1
DA:39,2
DA:40,1
DA:41,1
DA:42,0
DA:44,143
DA:46,286
DA:48,142
DA:51,143
DA:53,143
DA:54,1
DA:56,142
DA:57,284
DA:58,142
LF:17
LH:16
end_of_record
TN:
SF:/home/runner/work/neml2/neml2/src/neml2/user_tensors/FillR2.cxx
FN:34,48,_ZN5neml26FillR216expected_optionsEv
FN:50,54,_ZN5neml26FillR2C2ERKNS_9OptionSetE
FN:57,87,_ZNK5neml26FillR24fillERKSt6vectorINS_10TensorNameESaIS2_EE
FNDA:1,_ZN5neml26FillR216expected_optionsEv
FNDA:9,_ZN5neml26FillR2C2ERKNS_9OptionSetE
FNDA:9,_ZNK5neml26FillR24fillERKSt6vectorINS_10TensorNameESaIS2_EE
FNF:3
FNH:3
DA:34,1
DA:36,1
DA:37,1
DA:42,1
DA:44,2
DA:45,1
DA:47,1
DA:48,0
DA:50,9
DA:52,18
DA:54,9
DA:57,9
DA:59,9
DA:60,1
DA:61,8
DA:62,1
DA:63,7
DA:64,2
DA:65,2
DA:66,2
DA:67,2
DA:68,2
DA:69,3
DA:70,6
DA:71,12
DA:72,12
DA:73,12
DA:74,12
DA:75,12
DA:76,12
DA:77,12
DA:78,12
DA:79,18
DA:81,0
DA:83,0
DA:86,0
LF:36
LH:32
end_of_record
TN:
SF:/home/runner/work/neml2/neml2/src/neml2/user_tensors/FillRot.cxx
FN:34,46,_ZN5neml27FillRot16expected_optionsEv
FN:48,52,_ZN5neml27FillRotC2ERKNS_9OptionSetE
FN:55,79,_ZNK5neml27FillRot4fillERKSt6vectorINS_10TensorNameESaIS2_EERKSs
FNDA:1,_ZN5neml27FillRot16expected_optionsEv
FNDA:16,_ZN5neml27FillRotC2ERKNS_9OptionSetE
FNDA:16,_ZNK5neml27FillRot4fillERKSt6vectorINS_10TensorNameESaIS2_EERKSs
FNF:3
FNH:3
DA:34,1
DA:36,1
DA:37,1
DA:39,2
DA:40,2
DA:42,2
DA:43,1
DA:45,1
DA:46,0
DA:48,16
DA:49,16
DA:50,48
DA:52,16
DA:55,16
DA:57,16
DA:59,15
DA:61,15
DA:63,15
DA:66,1
DA:68,1
DA:70,1
DA:72,2
DA:73,3
DA:74,1
DA:75,1
DA:76,1
DA:78,0
LF:27
LH:25
end_of_record
TN:
SF:/home/runner/work/neml2/neml2/src/neml2/user_tensors/FillSR2.cxx
FN:33,47,_ZN5neml27FillSR216expected_optionsEv
FN:49,53,_ZN5neml27FillSR2C2ERKNS_9OptionSetE
FN:56,72,_ZNK5neml27FillSR24fillERKSt6vectorINS_10TensorNameESaIS2_EE
FNDA:1,_ZN5neml27FillSR216expected_optionsEv
FNDA:118,_ZN5neml27FillSR2C2ERKNS_9OptionSetE
FNDA:118,_ZNK5neml27FillSR24fillERKSt6vectorINS_10TensorNameESaIS2_EE
FNF:3
FNH:3
DA:33,1
DA:35,1
DA:36,1
DA:41,1
DA:43,2
DA:44,1
DA:46,1
DA:47,0
DA:49,118
DA:51,236
DA:53,118
DA:56,118
DA:58,118
DA:59,13
DA:60,105
DA:61,28
DA:62,77
DA:63,154
DA:64,154
DA:65,154
DA:66,154
DA:67,154
DA:68,231
DA:70,0
DA:71,0
LF:25
LH:22
end_of_record
TN:
SF:/home/runner/work/neml2/neml2/src/neml2/user_tensors/FillWR2.cxx
FN:33,42,_ZN5neml27FillWR216expected_optionsEv
FN:44,48,_ZN5neml27FillWR2C2ERKNS_9OptionSetE
FN:51,59,_ZNK5neml27FillWR24fillERKSt6vectorINS_10TensorNameESaIS2_EE
FNDA:1,_ZN5neml27FillWR216expected_optionsEv
FNDA:10,_ZN5neml27FillWR2C2ERKNS_9OptionSetE
FNDA:10,_ZNK5neml27FillWR24fillERKSt6vectorINS_10TensorNameESaIS2_EE
FNF:3
FNH:3
DA:33,1
DA:35,1
DA:36,1
DA:38,2
DA:39,1
DA:41,1
DA:42,0
DA:44,10
DA:46,20
DA:48,10
DA:51,10
DA:53,10
DA:55,10
DA:58,10
LF:14
LH:13
end_of_record
TN:
SF:/home/runner/work/neml2/neml2/src/neml2/user_tensors/FullPrimitiveTensor.cxx
FN:32,49,_ZN5neml219FullPrimitiveTensorINS_10QuaternionEE16expected_optionsEv
FN:32,49,_ZN5neml219FullPrimitiveTensorINS_11MillerIndexEE16expected_optionsEv
FN:32,49,_ZN5neml219FullPrimitiveTensorINS_2R2EE16expected_optionsEv
FN:32,49,_ZN5neml219FullPrimitiveTensorINS_2R3EE16expected_optionsEv
FN:32,49,_ZN5neml219FullPrimitiveTensorINS_2R4EE16expected_optionsEv
FN:32,49,_ZN5neml219FullPrimitiveTensorINS_2R5EE16expected_optionsEv
FN:32,49,_ZN5neml219FullPrimitiveTensorINS_2R8EE16expected_optionsEv
FN:32,49,_ZN5neml219FullPrimitiveTensorINS_3RotEE16expected_optionsEv
FN:32,49,_ZN5neml219FullPrimitiveTensorINS_3SR2EE16expected_optionsEv
FN:32,49,_ZN5neml219FullPrimitiveTensorINS_3VecEE16expected_optionsEv
FN:32,49,_ZN5neml219FullPrimitiveTensorINS_3WR2EE16expected_optionsEv
FN:32,49,_ZN5neml219FullPrimitiveTensorINS_4SFR3EE16expected_optionsEv
FN:32,49,_ZN5neml219FullPrimitiveTensorINS_4SFR4EE16expected_optionsEv
FN:32,49,_ZN5neml219FullPrimitiveTensorINS_4SSR4EE16expected_optionsEv
FN:32,49,_ZN5neml219FullPrimitiveTensorINS_4SWR4EE16expected_optionsEv
FN:32,49,_ZN5neml219FullPrimitiveTensorINS_4WFR4EE16expected_optionsEv
FN:32,49,_ZN5neml219FullPrimitiveTensorINS_4WSR4EE16expected_optionsEv
FN:32,49,_ZN5neml219FullPrimitiveTensorINS_4WWR4EE16expected_optionsEv
FN:32,49,_ZN5neml219FullPrimitiveTensorINS_5SFFR4EE16expected_optionsEv
FN:32,49,_ZN5neml219FullPrimitiveTensorINS_5SSFR5EE16expected_optionsEv
FN:32,49,_ZN5neml219FullPrimitiveTensorINS_6SSSSR8EE16expected_optionsEv
FN:32,49,_ZN5neml219FullPrimitiveTensorINS_6ScalarEE16expected_optionsEv
FN:52,58,_ZN5neml219FullPrimitiveTensorINS_10QuaternionEEC2ERKNS_9OptionSetE
FN:52,58,_ZN5neml219FullPrimitiveTensorINS_11MillerIndexEEC2ERKNS_9OptionSetE
FN:52,58,_ZN5neml219FullPrimitiveTensorINS_2R2EEC2ERKNS_9OptionSetE
FN:52,58,_ZN5neml219FullPrimitiveTensorINS_2R3EEC2ERKNS_9OptionSetE
FN:52,58,_ZN5neml219FullPrimitiveTensorINS_2R4EEC2ERKNS_9OptionSetE
FN:52,58,_ZN5neml219FullPrimitiveTensorINS_2R5EEC2ERKNS_9OptionSetE
FN:52,58,_ZN5neml219FullPrimitiveTensorINS_2R8EEC2ERKNS_9OptionSetE
FN:52,58,_ZN5neml219FullPrimitiveTensorINS_3RotEEC2ERKNS_9OptionSetE
FN:52,58,_ZN5neml219FullPrimitiveTensorINS_3SR2EEC2ERKNS_9OptionSetE
FN:52,58,_ZN5neml219FullPrimitiveTensorINS_3VecEEC2ERKNS_9OptionSetE
FN:52,58,_ZN5neml219FullPrimitiveTensorINS_3WR2EEC2ERKNS_9OptionSetE
FN:52,58,_ZN5neml219FullPrimitiveTensorINS_4SFR3EEC2ERKNS_9OptionSetE
FN:52,58,_ZN5neml219FullPrimitiveTensorINS_4SFR4EEC2ERKNS_9OptionSetE
FN:52,58,_ZN5neml219FullPrimitiveTensorINS_4SSR4EEC2ERKNS_9OptionSetE
FN:52,58,_ZN5neml219FullPrimitiveTensorINS_4SWR4EEC2ERKNS_9OptionSetE
FN:52,58,_ZN5neml219FullPrimitiveTensorINS_4WFR4EEC2ERKNS_9OptionSetE
FN:52,58,_ZN5neml219FullPrimitiveTensorINS_4WSR4EEC2ERKNS_9OptionSetE
FN:52,58,_ZN5neml219FullPrimitiveTensorINS_4WWR4EEC2ERKNS_9OptionSetE
FN:52,58,_ZN5neml219FullPrimitiveTensorINS_5SFFR4EEC2ERKNS_9OptionSetE
FN:52,58,_ZN5neml219FullPrimitiveTensorINS_5SSFR5EEC2ERKNS_9OptionSetE
FN:52,58,_ZN5neml219FullPrimitiveTensorINS_6SSSSR8EEC2ERKNS_9OptionSetE
FN:52,58,_ZN5neml219FullPrimitiveTensorINS_6ScalarEEC2ERKNS_9OptionSetE
FNDA:1,_ZN5neml219FullPrimitiveTensorINS_10QuaternionEE16expected_optionsEv
FNDA:1,_ZN5neml219FullPrimitiveTensorINS_11MillerIndexEE16expected_optionsEv
FNDA:1,_ZN5neml219FullPrimitiveTensorINS_2R2EE16expected_optionsEv
FNDA:1,_ZN5neml219FullPrimitiveTensorINS_2R3EE16expected_optionsEv
FNDA:1,_ZN5neml219FullPrimitiveTensorINS_2R4EE16expected_optionsEv
FNDA:1,_ZN5neml219FullPrimitiveTensorINS_2R5EE16expected_optionsEv
FNDA:1,_ZN5neml219FullPrimitiveTensorINS_2R8EE16expected_optionsEv
FNDA:1,_ZN5neml219FullPrimitiveTensorINS_3RotEE16expected_optionsEv
FNDA:1,_ZN5neml219FullPrimitiveTensorINS_3SR2EE16expected_optionsEv
FNDA:1,_ZN5neml219FullPrimitiveTensorINS_3VecEE16expected_optionsEv
FNDA:1,_ZN5neml219FullPrimitiveTensorINS_3WR2EE16expected_optionsEv
FNDA:1,_ZN5neml219FullPrimitiveTensorINS_4SFR3EE16expected_optionsEv
FNDA:1,_ZN5neml219FullPrimitiveTensorINS_4SFR4EE16expected_optionsEv
FNDA:1,_ZN5neml219FullPrimitiveTensorINS_4SSR4EE16expected_optionsEv
FNDA:1,_ZN5neml219FullPrimitiveTensorINS_4SWR4EE16expected_optionsEv
FNDA:1,_ZN5neml219FullPrimitiveTensorINS_4WFR4EE16expected_optionsEv
FNDA:1,_ZN5neml219FullPrimitiveTensorINS_4WSR4EE16expected_optionsEv
FNDA:1,_ZN5neml219FullPrimitiveTensorINS_4WWR4EE16expected_optionsEv
FNDA:1,_ZN5neml219FullPrimitiveTensorINS_5SFFR4EE16expected_optionsEv
FNDA:1,_ZN5neml219FullPrimitiveTensorINS_5SSFR5EE16expected_optionsEv
FNDA:1,_ZN5neml219FullPrimitiveTensorINS_6SSSSR8EE16expected_optionsEv
FNDA:1,_ZN5neml219FullPrimitiveTensorINS_6ScalarEE16expected_optionsEv
FNDA:0,_ZN5neml219FullPrimitiveTensorINS_10QuaternionEEC2ERKNS_9OptionSetE
FNDA:0,_ZN5neml219FullPrimitiveTensorINS_11MillerIndexEEC2ERKNS_9OptionSetE
FNDA:9,_ZN5neml219FullPrimitiveTensorINS_2R2EEC2ERKNS_9OptionSetE
FNDA:9,_ZN5neml219FullPrimitiveTensorINS_2R3EEC2ERKNS_9OptionSetE
FNDA:9,_ZN5neml219FullPrimitiveTensorINS_2R4EEC2ERKNS_9OptionSetE
FNDA:9,_ZN5neml219FullPrimitiveTensorINS_2R5EEC2ERKNS_9OptionSetE
FNDA:0,_ZN5neml219FullPrimitiveTensorINS_2R8EEC2ERKNS_9OptionSetE
FNDA:9,_ZN5neml219FullPrimitiveTensorINS_3RotEEC2ERKNS_9OptionSetE
FNDA:9,_ZN5neml219FullPrimitiveTensorINS_3SR2EEC2ERKNS_9OptionSetE
FNDA:9,_ZN5neml219FullPrimitiveTensorINS_3VecEEC2ERKNS_9OptionSetE
FNDA:0,_ZN5neml219FullPrimitiveTensorINS_3WR2EEC2ERKNS_9OptionSetE
FNDA:9,_ZN5neml219FullPrimitiveTensorINS_4SFR3EEC2ERKNS_9OptionSetE
FNDA:9,_ZN5neml219FullPrimitiveTensorINS_4SFR4EEC2ERKNS_9OptionSetE
FNDA:9,_ZN5neml219FullPrimitiveTensorINS_4SSR4EEC2ERKNS_9OptionSetE
FNDA:0,_ZN5neml219FullPrimitiveTensorINS_4SWR4EEC2ERKNS_9OptionSetE
FNDA:9,_ZN5neml219FullPrimitiveTensorINS_4WFR4EEC2ERKNS_9OptionSetE
FNDA:0,_ZN5neml219FullPrimitiveTensorINS_4WSR4EEC2ERKNS_9OptionSetE
FNDA:0,_ZN5neml219FullPrimitiveTensorINS_4WWR4EEC2ERKNS_9OptionSetE
FNDA:0,_ZN5neml219FullPrimitiveTensorINS_5SFFR4EEC2ERKNS_9OptionSetE
FNDA:9,_ZN5neml219FullPrimitiveTensorINS_5SSFR5EEC2ERKNS_9OptionSetE
FNDA:0,_ZN5neml219FullPrimitiveTensorINS_6SSSSR8EEC2ERKNS_9OptionSetE
FNDA:68,_ZN5neml219FullPrimitiveTensorINS_6ScalarEEC2ERKNS_9OptionSetE
FNF:44
FNH:35
DA:32,22
DA:36,22
DA:38,22
DA:39,22
DA:42,66
DA:43,44
DA:45,44
DA:46,22
DA:48,44
DA:49,22
DA:52,176
DA:53,352
DA:54,176
DA:55,176
DA:56,704
DA:58,176
LF:16
LH:16
end_of_record
TN:
SF:/home/runner/work/neml2/neml2/src/neml2/user_tensors/FullTensor.cxx
FN:32,48,_ZN5neml210FullTensor16expected_optionsEv
FN:50,57,_ZN5neml210FullTensorC2ERKNS_9OptionSetE
FNDA:1,_ZN5neml210FullTensor16expected_optionsEv
FNDA:9,_ZN5neml210FullTensorC2ERKNS_9OptionSetE
FNF:2
FNH:2
DA:32,1
DA:34,1
DA:35,1
DA:36,1
DA:38,3
DA:39,1
DA:41,3
DA:42,2
DA:44,2
DA:45,1
DA:47,1
DA:48,0
DA:50,9
DA:51,18
DA:53,9
DA:54,9
DA:55,54
DA:57,9
LF:18
LH:17
end_of_record
TN:
SF:/home/runner/work/neml2/neml2/src/neml2/user_tensors/IdentityTensor.cxx
FN:32,45,_ZN5neml214IdentityTensor16expected_optionsEv
FN:47,52,_ZN5neml214IdentityTensorC2ERKNS_9OptionSetE
FNDA:1,_ZN5neml214IdentityTensor16expected_optionsEv
FNDA:1,_ZN5neml214IdentityTensorC2ERKNS_9OptionSetE
FNF:2
FNH:2
DA:32,1
DA:34,1
DA:35,1
DA:37,3
DA:38,2
DA:40,2
DA:41,2
DA:42,1
DA:44,1
DA:45,0
DA:47,1
DA:49,4
DA:50,4
DA:52,1
LF:14
LH:13
end_of_record
TN:
SF:/home/runner/work/neml2/neml2/src/neml2/user_tensors/LinspacePrimitiveTensor.cxx
FN:32,60,_ZN5neml223LinspacePrimitiveTensorINS_10QuaternionEE16expected_optionsEv
FN:32,60,_ZN5neml223LinspacePrimitiveTensorINS_11MillerIndexEE16expected_optionsEv
FN:32,60,_ZN5neml223LinspacePrimitiveTensorINS_2R2EE16expected_optionsEv
FN:32,60,_ZN5neml223LinspacePrimitiveTensorINS_2R3EE16expected_optionsEv
FN:32,60,_ZN5neml223LinspacePrimitiveTensorINS_2R4EE16expected_optionsEv
FN:32,60,_ZN5neml223LinspacePrimitiveTensorINS_2R5EE16expected_optionsEv
FN:32,60,_ZN5neml223LinspacePrimitiveTensorINS_2R8EE16expected_optionsEv
FN:32,60,_ZN5neml223LinspacePrimitiveTensorINS_3RotEE16expected_optionsEv
FN:32,60,_ZN5neml223LinspacePrimitiveTensorINS_3SR2EE16expected_optionsEv
FN:32,60,_ZN5neml223LinspacePrimitiveTensorINS_3VecEE16expected_optionsEv
FN:32,60,_ZN5neml223LinspacePrimitiveTensorINS_3WR2EE16expected_optionsEv
FN:32,60,_ZN5neml223LinspacePrimitiveTensorINS_4SFR3EE16expected_optionsEv
FN:32,60,_ZN5neml223LinspacePrimitiveTensorINS_4SFR4EE16expected_optionsEv
FN:32,60,_ZN5neml223LinspacePrimitiveTensorINS_4SSR4EE16expected_optionsEv
FN:32,60,_ZN5neml223LinspacePrimitiveTensorINS_4SWR4EE16expected_optionsEv
FN:32,60,_ZN5neml223LinspacePrimitiveTensorINS_4WFR4EE16expected_optionsEv
FN:32,60,_ZN5neml223LinspacePrimitiveTensorINS_4WSR4EE16expected_optionsEv
FN:32,60,_ZN5neml223LinspacePrimitiveTensorINS_4WWR4EE16expected_optionsEv
FN:32,60,_ZN5neml223LinspacePrimitiveTensorINS_5SFFR4EE16expected_optionsEv
FN:32,60,_ZN5neml223LinspacePrimitiveTensorINS_5SSFR5EE16expected_optionsEv
FN:32,60,_ZN5neml223LinspacePrimitiveTensorINS_6SSSSR8EE16expected_optionsEv
FN:32,60,_ZN5neml223LinspacePrimitiveTensorINS_6ScalarEE16expected_optionsEv
FN:63,67,_ZN5neml223LinspacePrimitiveTensorINS_10QuaternionEEC2ERKNS_9OptionSetE
FN:63,67,_ZN5neml223LinspacePrimitiveTensorINS_11MillerIndexEEC2ERKNS_9OptionSetE
FN:63,67,_ZN5neml223LinspacePrimitiveTensorINS_2R2EEC2ERKNS_9OptionSetE
FN:63,67,_ZN5neml223LinspacePrimitiveTensorINS_2R3EEC2ERKNS_9OptionSetE
FN:63,67,_ZN5neml223LinspacePrimitiveTensorINS_2R4EEC2ERKNS_9OptionSetE
FN:63,67,_ZN5neml223LinspacePrimitiveTensorINS_2R5EEC2ERKNS_9OptionSetE
FN:63,67,_ZN5neml223LinspacePrimitiveTensorINS_2R8EEC2ERKNS_9OptionSetE
FN:63,67,_ZN5neml223LinspacePrimitiveTensorINS_3RotEEC2ERKNS_9OptionSetE
FN:63,67,_ZN5neml223LinspacePrimitiveTensorINS_3SR2EEC2ERKNS_9OptionSetE
FN:63,67,_ZN5neml223LinspacePrimitiveTensorINS_3VecEEC2ERKNS_9OptionSetE
FN:63,67,_ZN5neml223LinspacePrimitiveTensorINS_3WR2EEC2ERKNS_9OptionSetE
FN:63,67,_ZN5neml223LinspacePrimitiveTensorINS_4SFR3EEC2ERKNS_9OptionSetE
FN:63,67,_ZN5neml223LinspacePrimitiveTensorINS_4SFR4EEC2ERKNS_9OptionSetE
FN:63,67,_ZN5neml223LinspacePrimitiveTensorINS_4SSR4EEC2ERKNS_9OptionSetE
FN:63,67,_ZN5neml223LinspacePrimitiveTensorINS_4SWR4EEC2ERKNS_9OptionSetE
FN:63,67,_ZN5neml223LinspacePrimitiveTensorINS_4WFR4EEC2ERKNS_9OptionSetE
FN:63,67,_ZN5neml223LinspacePrimitiveTensorINS_4WSR4EEC2ERKNS_9OptionSetE
FN:63,67,_ZN5neml223LinspacePrimitiveTensorINS_4WWR4EEC2ERKNS_9OptionSetE
FN:63,67,_ZN5neml223LinspacePrimitiveTensorINS_5SFFR4EEC2ERKNS_9OptionSetE
FN:63,67,_ZN5neml223LinspacePrimitiveTensorINS_5SSFR5EEC2ERKNS_9OptionSetE
FN:63,67,_ZN5neml223LinspacePrimitiveTensorINS_6SSSSR8EEC2ERKNS_9OptionSetE
FN:63,67,_ZN5neml223LinspacePrimitiveTensorINS_6ScalarEEC2ERKNS_9OptionSetE
FN:71,84,_ZNK5neml223LinspacePrimitiveTensorINS_10QuaternionEE4makeERKNS_9OptionSetE
FN:71,84,_ZNK5neml223LinspacePrimitiveTensorINS_11MillerIndexEE4makeERKNS_9OptionSetE
FN:71,84,_ZNK5neml223LinspacePrimitiveTensorINS_2R2EE4makeERKNS_9OptionSetE
FN:71,84,_ZNK5neml223LinspacePrimitiveTensorINS_2R3EE4makeERKNS_9OptionSetE
FN:71,84,_ZNK5neml223LinspacePrimitiveTensorINS_2R4EE4makeERKNS_9OptionSetE
FN:71,84,_ZNK5neml223LinspacePrimitiveTensorINS_2R5EE4makeERKNS_9OptionSetE
FN:71,84,_ZNK5neml223LinspacePrimitiveTensorINS_2R8EE4makeERKNS_9OptionSetE
FN:71,84,_ZNK5neml223LinspacePrimitiveTensorINS_3RotEE4makeERKNS_9OptionSetE
FN:71,84,_ZNK5neml223LinspacePrimitiveTensorINS_3SR2EE4makeERKNS_9OptionSetE
FN:71,84,_ZNK5neml223LinspacePrimitiveTensorINS_3VecEE4makeERKNS_9OptionSetE
FN:71,84,_ZNK5neml223LinspacePrimitiveTensorINS_3WR2EE4makeERKNS_9OptionSetE
FN:71,84,_ZNK5neml223LinspacePrimitiveTensorINS_4SFR3EE4makeERKNS_9OptionSetE
FN:71,84,_ZNK5neml223LinspacePrimitiveTensorINS_4SFR4EE4makeERKNS_9OptionSetE
FN:71,84,_ZNK5neml223LinspacePrimitiveTensorINS_4SSR4EE4makeERKNS_9OptionSetE
FN:71,84,_ZNK5neml223LinspacePrimitiveTensorINS_4SWR4EE4makeERKNS_9OptionSetE
FN:71,84,_ZNK5neml223LinspacePrimitiveTensorINS_4WFR4EE4makeERKNS_9OptionSetE
FN:71,84,_ZNK5neml223LinspacePrimitiveTensorINS_4WSR4EE4makeERKNS_9OptionSetE
FN:71,84,_ZNK5neml223LinspacePrimitiveTensorINS_4WWR4EE4makeERKNS_9OptionSetE
FN:71,84,_ZNK5neml223LinspacePrimitiveTensorINS_5SFFR4EE4makeERKNS_9OptionSetE
FN:71,84,_ZNK5neml223LinspacePrimitiveTensorINS_5SSFR5EE4makeERKNS_9OptionSetE
FN:71,84,_ZNK5neml223LinspacePrimitiveTensorINS_6SSSSR8EE4makeERKNS_9OptionSetE
FN:71,84,_ZNK5neml223LinspacePrimitiveTensorINS_6ScalarEE4makeERKNS_9OptionSetE
FNDA:1,_ZN5neml223LinspacePrimitiveTensorINS_10QuaternionEE16expected_optionsEv
FNDA:1,_ZN5neml223LinspacePrimitiveTensorINS_11MillerIndexEE16expected_optionsEv
FNDA:1,_ZN5neml223LinspacePrimitiveTensorINS_2R2EE16expected_optionsEv
FNDA:1,_ZN5neml223LinspacePrimitiveTensorINS_2R3EE16expected_optionsEv
FNDA:1,_ZN5neml223LinspacePrimitiveTensorINS_2R4EE16expected_optionsEv
FNDA:1,_ZN5neml223LinspacePrimitiveTensorINS_2R5EE16expected_optionsEv
FNDA:1,_ZN5neml223LinspacePrimitiveTensorINS_2R8EE16expected_optionsEv
FNDA:1,_ZN5neml223LinspacePrimitiveTensorINS_3RotEE16expected_optionsEv
FNDA:1,_ZN5neml223LinspacePrimitiveTensorINS_3SR2EE16expected_optionsEv
FNDA:1,_ZN5neml223LinspacePrimitiveTensorINS_3VecEE16expected_optionsEv
FNDA:1,_ZN5neml223LinspacePrimitiveTensorINS_3WR2EE16expected_optionsEv
FNDA:1,_ZN5neml223LinspacePrimitiveTensorINS_4SFR3EE16expected_optionsEv
FNDA:1,_ZN5neml223LinspacePrimitiveTensorINS_4SFR4EE16expected_optionsEv
FNDA:1,_ZN5neml223LinspacePrimitiveTensorINS_4SSR4EE16expected_optionsEv
FNDA:1,_ZN5neml223LinspacePrimitiveTensorINS_4SWR4EE16expected_optionsEv
FNDA:1,_ZN5neml223LinspacePrimitiveTensorINS_4WFR4EE16expected_optionsEv
FNDA:1,_ZN5neml223LinspacePrimitiveTensorINS_4WSR4EE16expected_optionsEv
FNDA:1,_ZN5neml223LinspacePrimitiveTensorINS_4WWR4EE16expected_optionsEv
FNDA:1,_ZN5neml223LinspacePrimitiveTensorINS_5SFFR4EE16expected_optionsEv
FNDA:1,_ZN5neml223LinspacePrimitiveTensorINS_5SSFR5EE16expected_optionsEv
FNDA:1,_ZN5neml223LinspacePrimitiveTensorINS_6SSSSR8EE16expected_optionsEv
FNDA:1,_ZN5neml223LinspacePrimitiveTensorINS_6ScalarEE16expected_optionsEv
FNDA:0,_ZN5neml223LinspacePrimitiveTensorINS_10QuaternionEEC2ERKNS_9OptionSetE
FNDA:0,_ZN5neml223LinspacePrimitiveTensorINS_11MillerIndexEEC2ERKNS_9OptionSetE
FNDA:1,_ZN5neml223LinspacePrimitiveTensorINS_2R2EEC2ERKNS_9OptionSetE
FNDA:1,_ZN5neml223LinspacePrimitiveTensorINS_2R3EEC2ERKNS_9OptionSetE
FNDA:1,_ZN5neml223LinspacePrimitiveTensorINS_2R4EEC2ERKNS_9OptionSetE
FNDA:1,_ZN5neml223LinspacePrimitiveTensorINS_2R5EEC2ERKNS_9OptionSetE
FNDA:0,_ZN5neml223LinspacePrimitiveTensorINS_2R8EEC2ERKNS_9OptionSetE
FNDA:1,_ZN5neml223LinspacePrimitiveTensorINS_3RotEEC2ERKNS_9OptionSetE
FNDA:12,_ZN5neml223LinspacePrimitiveTensorINS_3SR2EEC2ERKNS_9OptionSetE
FNDA:1,_ZN5neml223LinspacePrimitiveTensorINS_3VecEEC2ERKNS_9OptionSetE
FNDA:1,_ZN5neml223LinspacePrimitiveTensorINS_3WR2EEC2ERKNS_9OptionSetE
FNDA:1,_ZN5neml223LinspacePrimitiveTensorINS_4SFR3EEC2ERKNS_9OptionSetE
FNDA:1,_ZN5neml223LinspacePrimitiveTensorINS_4SFR4EEC2ERKNS_9OptionSetE
FNDA:1,_ZN5neml223LinspacePrimitiveTensorINS_4SSR4EEC2ERKNS_9OptionSetE
FNDA:0,_ZN5neml223LinspacePrimitiveTensorINS_4SWR4EEC2ERKNS_9OptionSetE
FNDA:1,_ZN5neml223LinspacePrimitiveTensorINS_4WFR4EEC2ERKNS_9OptionSetE
FNDA:0,_ZN5neml223LinspacePrimitiveTensorINS_4WSR4EEC2ERKNS_9OptionSetE
FNDA:0,_ZN5neml223LinspacePrimitiveTensorINS_4WWR4EEC2ERKNS_9OptionSetE
FNDA:0,_ZN5neml223LinspacePrimitiveTensorINS_5SFFR4EEC2ERKNS_9OptionSetE
FNDA:1,_ZN5neml223LinspacePrimitiveTensorINS_5SSFR5EEC2ERKNS_9OptionSetE
FNDA:0,_ZN5neml223LinspacePrimitiveTensorINS_6SSSSR8EEC2ERKNS_9OptionSetE
FNDA:60,_ZN5neml223LinspacePrimitiveTensorINS_6ScalarEEC2ERKNS_9OptionSetE
FNDA:0,_ZNK5neml223LinspacePrimitiveTensorINS_10QuaternionEE4makeERKNS_9OptionSetE
FNDA:0,_ZNK5neml223LinspacePrimitiveTensorINS_11MillerIndexEE4makeERKNS_9OptionSetE
FNDA:1,_ZNK5neml223LinspacePrimitiveTensorINS_2R2EE4makeERKNS_9OptionSetE
FNDA:1,_ZNK5neml223LinspacePrimitiveTensorINS_2R3EE4makeERKNS_9OptionSetE
FNDA:1,_ZNK5neml223LinspacePrimitiveTensorINS_2R4EE4makeERKNS_9OptionSetE
FNDA:1,_ZNK5neml223LinspacePrimitiveTensorINS_2R5EE4makeERKNS_9OptionSetE
FNDA:0,_ZNK5neml223LinspacePrimitiveTensorINS_2R8EE4makeERKNS_9OptionSetE
FNDA:1,_ZNK5neml223LinspacePrimitiveTensorINS_3RotEE4makeERKNS_9OptionSetE
FNDA:12,_ZNK5neml223LinspacePrimitiveTensorINS_3SR2EE4makeERKNS_9OptionSetE
FNDA:1,_ZNK5neml223LinspacePrimitiveTensorINS_3VecEE4makeERKNS_9OptionSetE
FNDA:1,_ZNK5neml223LinspacePrimitiveTensorINS_3WR2EE4makeERKNS_9OptionSetE
FNDA:1,_ZNK5neml223LinspacePrimitiveTensorINS_4SFR3EE4makeERKNS_9OptionSetE
FNDA:1,_ZNK5neml223LinspacePrimitiveTensorINS_4SFR4EE4makeERKNS_9OptionSetE
FNDA:1,_ZNK5neml223LinspacePrimitiveTensorINS_4SSR4EE4makeERKNS_9OptionSetE
FNDA:0,_ZNK5neml223LinspacePrimitiveTensorINS_4SWR4EE4makeERKNS_9OptionSetE
FNDA:1,_ZNK5neml223LinspacePrimitiveTensorINS_4WFR4EE4makeERKNS_9OptionSetE
FNDA:0,_ZNK5neml223LinspacePrimitiveTensorINS_4WSR4EE4makeERKNS_9OptionSetE
FNDA:0,_ZNK5neml223LinspacePrimitiveTensorINS_4WWR4EE4makeERKNS_9OptionSetE
FNDA:0,_ZNK5neml223LinspacePrimitiveTensorINS_5SFFR4EE4makeERKNS_9OptionSetE
FNDA:1,_ZNK5neml223LinspacePrimitiveTensorINS_5SSFR5EE4makeERKNS_9OptionSetE
FNDA:0,_ZNK5neml223LinspacePrimitiveTensorINS_6SSSSR8EE4makeERKNS_9OptionSetE
FNDA:60,_ZNK5neml223LinspacePrimitiveTensorINS_6ScalarEE4makeERKNS_9OptionSetE
FNF:66
FNH:50
DA:32,22
DA:36,22
DA:38,22
DA:39,22
DA:43,44
DA:44,44
DA:46,44
DA:47,44
DA:49,44
DA:50,44
DA:52,44
DA:53,22
DA:55,66
DA:56,22
DA:59,44
DA:60,22
DA:63,84
DA:65,84
DA:67,84
DA:71,84
DA:73,84
DA:74,168
DA:75,168
DA:76,252
DA:79,84
DA:80,84
DA:81,0
DA:83,168
DA:84,84
LF:29
LH:28
end_of_record
TN:
SF:/home/runner/work/neml2/neml2/src/neml2/user_tensors/LinspaceTensor.cxx
FN:32,58,_ZN5neml214LinspaceTensor16expected_optionsEv
FN:60,64,_ZN5neml214LinspaceTensorC2ERKNS_9OptionSetE
FN:67,85,_ZNK5neml214LinspaceTensor4makeERKNS_9OptionSetE
FNDA:1,_ZN5neml214LinspaceTensor16expected_optionsEv
FNDA:5,_ZN5neml214LinspaceTensorC2ERKNS_9OptionSetE
FNDA:5,_ZNK5neml214LinspaceTensor4makeERKNS_9OptionSetE
FNF:3
FNH:3
DA:32,1
DA:34,1
DA:35,1
DA:36,1
DA:38,2
DA:39,2
DA:41,2
DA:42,2
DA:44,2
DA:45,2
DA:47,2
DA:48,2
DA:50,2
DA:51,1
DA:53,3
DA:54,2
DA:55,1
DA:57,1
DA:58,0
DA:60,5
DA:62,5
DA:64,5
DA:67,5
DA:69,10
DA:70,10
DA:71,10
DA:72,25
DA:75,5
DA:76,5
DA:77,4
DA:80,5
DA:81,5
DA:82,4
DA:84,10
DA:85,5
LF:35
LH:34
end_of_record
TN:
SF:/home/runner/work/neml2/neml2/src/neml2/user_tensors/LogspacePrimitiveTensor.cxx
FN:32,63,_ZN5neml223LogspacePrimitiveTensorINS_10QuaternionEE16expected_optionsEv
FN:32,63,_ZN5neml223LogspacePrimitiveTensorINS_11MillerIndexEE16expected_optionsEv
FN:32,63,_ZN5neml223LogspacePrimitiveTensorINS_2R2EE16expected_optionsEv
FN:32,63,_ZN5neml223LogspacePrimitiveTensorINS_2R3EE16expected_optionsEv
FN:32,63,_ZN5neml223LogspacePrimitiveTensorINS_2R4EE16expected_optionsEv
FN:32,63,_ZN5neml223LogspacePrimitiveTensorINS_2R5EE16expected_optionsEv
FN:32,63,_ZN5neml223LogspacePrimitiveTensorINS_2R8EE16expected_optionsEv
FN:32,63,_ZN5neml223LogspacePrimitiveTensorINS_3RotEE16expected_optionsEv
FN:32,63,_ZN5neml223LogspacePrimitiveTensorINS_3SR2EE16expected_optionsEv
FN:32,63,_ZN5neml223LogspacePrimitiveTensorINS_3VecEE16expected_optionsEv
FN:32,63,_ZN5neml223LogspacePrimitiveTensorINS_3WR2EE16expected_optionsEv
FN:32,63,_ZN5neml223LogspacePrimitiveTensorINS_4SFR3EE16expected_optionsEv
FN:32,63,_ZN5neml223LogspacePrimitiveTensorINS_4SFR4EE16expected_optionsEv
FN:32,63,_ZN5neml223LogspacePrimitiveTensorINS_4SSR4EE16expected_optionsEv
FN:32,63,_ZN5neml223LogspacePrimitiveTensorINS_4SWR4EE16expected_optionsEv
FN:32,63,_ZN5neml223LogspacePrimitiveTensorINS_4WFR4EE16expected_optionsEv
FN:32,63,_ZN5neml223LogspacePrimitiveTensorINS_4WSR4EE16expected_optionsEv
FN:32,63,_ZN5neml223LogspacePrimitiveTensorINS_4WWR4EE16expected_optionsEv
FN:32,63,_ZN5neml223LogspacePrimitiveTensorINS_5SFFR4EE16expected_optionsEv
FN:32,63,_ZN5neml223LogspacePrimitiveTensorINS_5SSFR5EE16expected_optionsEv
FN:32,63,_ZN5neml223LogspacePrimitiveTensorINS_6SSSSR8EE16expected_optionsEv
FN:32,63,_ZN5neml223LogspacePrimitiveTensorINS_6ScalarEE16expected_optionsEv
FN:66,70,_ZN5neml223LogspacePrimitiveTensorINS_10QuaternionEEC2ERKNS_9OptionSetE
FN:66,70,_ZN5neml223LogspacePrimitiveTensorINS_11MillerIndexEEC2ERKNS_9OptionSetE
FN:66,70,_ZN5neml223LogspacePrimitiveTensorINS_2R2EEC2ERKNS_9OptionSetE
FN:66,70,_ZN5neml223LogspacePrimitiveTensorINS_2R3EEC2ERKNS_9OptionSetE
FN:66,70,_ZN5neml223LogspacePrimitiveTensorINS_2R4EEC2ERKNS_9OptionSetE
FN:66,70,_ZN5neml223LogspacePrimitiveTensorINS_2R5EEC2ERKNS_9OptionSetE
FN:66,70,_ZN5neml223LogspacePrimitiveTensorINS_2R8EEC2ERKNS_9OptionSetE
FN:66,70,_ZN5neml223LogspacePrimitiveTensorINS_3RotEEC2ERKNS_9OptionSetE
FN:66,70,_ZN5neml223LogspacePrimitiveTensorINS_3SR2EEC2ERKNS_9OptionSetE
FN:66,70,_ZN5neml223LogspacePrimitiveTensorINS_3VecEEC2ERKNS_9OptionSetE
FN:66,70,_ZN5neml223LogspacePrimitiveTensorINS_3WR2EEC2ERKNS_9OptionSetE
FN:66,70,_ZN5neml223LogspacePrimitiveTensorINS_4SFR3EEC2ERKNS_9OptionSetE
FN:66,70,_ZN5neml223LogspacePrimitiveTensorINS_4SFR4EEC2ERKNS_9OptionSetE
FN:66,70,_ZN5neml223LogspacePrimitiveTensorINS_4SSR4EEC2ERKNS_9OptionSetE
FN:66,70,_ZN5neml223LogspacePrimitiveTensorINS_4SWR4EEC2ERKNS_9OptionSetE
FN:66,70,_ZN5neml223LogspacePrimitiveTensorINS_4WFR4EEC2ERKNS_9OptionSetE
FN:66,70,_ZN5neml223LogspacePrimitiveTensorINS_4WSR4EEC2ERKNS_9OptionSetE
FN:66,70,_ZN5neml223LogspacePrimitiveTensorINS_4WWR4EEC2ERKNS_9OptionSetE
FN:66,70,_ZN5neml223LogspacePrimitiveTensorINS_5SFFR4EEC2ERKNS_9OptionSetE
FN:66,70,_ZN5neml223LogspacePrimitiveTensorINS_5SSFR5EEC2ERKNS_9OptionSetE
FN:66,70,_ZN5neml223LogspacePrimitiveTensorINS_6SSSSR8EEC2ERKNS_9OptionSetE
FN:66,70,_ZN5neml223LogspacePrimitiveTensorINS_6ScalarEEC2ERKNS_9OptionSetE
FN:74,88,_ZNK5neml223LogspacePrimitiveTensorINS_10QuaternionEE4makeERKNS_9OptionSetE
FN:74,88,_ZNK5neml223LogspacePrimitiveTensorINS_11MillerIndexEE4makeERKNS_9OptionSetE
FN:74,88,_ZNK5neml223LogspacePrimitiveTensorINS_2R2EE4makeERKNS_9OptionSetE
FN:74,88,_ZNK5neml223LogspacePrimitiveTensorINS_2R3EE4makeERKNS_9OptionSetE
FN:74,88,_ZNK5neml223LogspacePrimitiveTensorINS_2R4EE4makeERKNS_9OptionSetE
FN:74,88,_ZNK5neml223LogspacePrimitiveTensorINS_2R5EE4makeERKNS_9OptionSetE
FN:74,88,_ZNK5neml223LogspacePrimitiveTensorINS_2R8EE4makeERKNS_9OptionSetE
FN:74,88,_ZNK5neml223LogspacePrimitiveTensorINS_3RotEE4makeERKNS_9OptionSetE
FN:74,88,_ZNK5neml223LogspacePrimitiveTensorINS_3SR2EE4makeERKNS_9OptionSetE
FN:74,88,_ZNK5neml223LogspacePrimitiveTensorINS_3VecEE4makeERKNS_9OptionSetE
FN:74,88,_ZNK5neml223LogspacePrimitiveTensorINS_3WR2EE4makeERKNS_9OptionSetE
FN:74,88,_ZNK5neml223LogspacePrimitiveTensorINS_4SFR3EE4makeERKNS_9OptionSetE
FN:74,88,_ZNK5neml223LogspacePrimitiveTensorINS_4SFR4EE4makeERKNS_9OptionSetE
FN:74,88,_ZNK5neml223LogspacePrimitiveTensorINS_4SSR4EE4makeERKNS_9OptionSetE
FN:74,88,_ZNK5neml223LogspacePrimitiveTensorINS_4SWR4EE4makeERKNS_9OptionSetE
FN:74,88,_ZNK5neml223LogspacePrimitiveTensorINS_4WFR4EE4makeERKNS_9OptionSetE
FN:74,88,_ZNK5neml223LogspacePrimitiveTensorINS_4WSR4EE4makeERKNS_9OptionSetE
FN:74,88,_ZNK5neml223LogspacePrimitiveTensorINS_4WWR4EE4makeERKNS_9OptionSetE
FN:74,88,_ZNK5neml223LogspacePrimitiveTensorINS_5SFFR4EE4makeERKNS_9OptionSetE
FN:74,88,_ZNK5neml223LogspacePrimitiveTensorINS_5SSFR5EE4makeERKNS_9OptionSetE
FN:74,88,_ZNK5neml223LogspacePrimitiveTensorINS_6SSSSR8EE4makeERKNS_9OptionSetE
FN:74,88,_ZNK5neml223LogspacePrimitiveTensorINS_6ScalarEE4makeERKNS_9OptionSetE
FNDA:1,_ZN5neml223LogspacePrimitiveTensorINS_10QuaternionEE16expected_optionsEv
FNDA:1,_ZN5neml223LogspacePrimitiveTensorINS_11MillerIndexEE16expected_optionsEv
FNDA:1,_ZN5neml223LogspacePrimitiveTensorINS_2R2EE16expected_optionsEv
FNDA:1,_ZN5neml223LogspacePrimitiveTensorINS_2R3EE16expected_optionsEv
FNDA:1,_ZN5neml223LogspacePrimitiveTensorINS_2R4EE16expected_optionsEv
FNDA:1,_ZN5neml223LogspacePrimitiveTensorINS_2R5EE16expected_optionsEv
FNDA:1,_ZN5neml223LogspacePrimitiveTensorINS_2R8EE16expected_optionsEv
FNDA:1,_ZN5neml223LogspacePrimitiveTensorINS_3RotEE16expected_optionsEv
FNDA:1,_ZN5neml223LogspacePrimitiveTensorINS_3SR2EE16expected_optionsEv
FNDA:1,_ZN5neml223LogspacePrimitiveTensorINS_3VecEE16expected_optionsEv
FNDA:1,_ZN5neml223LogspacePrimitiveTensorINS_3WR2EE16expected_optionsEv
FNDA:1,_ZN5neml223LogspacePrimitiveTensorINS_4SFR3EE16expected_optionsEv
FNDA:1,_ZN5neml223LogspacePrimitiveTensorINS_4SFR4EE16expected_optionsEv
FNDA:1,_ZN5neml223LogspacePrimitiveTensorINS_4SSR4EE16expected_optionsEv
FNDA:1,_ZN5neml223LogspacePrimitiveTensorINS_4SWR4EE16expected_optionsEv
FNDA:1,_ZN5neml223LogspacePrimitiveTensorINS_4WFR4EE16expected_optionsEv
FNDA:1,_ZN5neml223LogspacePrimitiveTensorINS_4WSR4EE16expected_optionsEv
FNDA:1,_ZN5neml223LogspacePrimitiveTensorINS_4WWR4EE16expected_optionsEv
FNDA:1,_ZN5neml223LogspacePrimitiveTensorINS_5SFFR4EE16expected_optionsEv
FNDA:1,_ZN5neml223LogspacePrimitiveTensorINS_5SSFR5EE16expected_optionsEv
FNDA:1,_ZN5neml223LogspacePrimitiveTensorINS_6SSSSR8EE16expected_optionsEv
FNDA:1,_ZN5neml223LogspacePrimitiveTensorINS_6ScalarEE16expected_optionsEv
FNDA:0,_ZN5neml223LogspacePrimitiveTensorINS_10QuaternionEEC2ERKNS_9OptionSetE
FNDA:0,_ZN5neml223LogspacePrimitiveTensorINS_11MillerIndexEEC2ERKNS_9OptionSetE
FNDA:1,_ZN5neml223LogspacePrimitiveTensorINS_2R2EEC2ERKNS_9OptionSetE
FNDA:1,_ZN5neml223LogspacePrimitiveTensorINS_2R3EEC2ERKNS_9OptionSetE
FNDA:1,_ZN5neml223LogspacePrimitiveTensorINS_2R4EEC2ERKNS_9OptionSetE
FNDA:1,_ZN5neml223LogspacePrimitiveTensorINS_2R5EEC2ERKNS_9OptionSetE
FNDA:0,_ZN5neml223LogspacePrimitiveTensorINS_2R8EEC2ERKNS_9OptionSetE
FNDA:1,_ZN5neml223LogspacePrimitiveTensorINS_3RotEEC2ERKNS_9OptionSetE
FNDA:1,_ZN5neml223LogspacePrimitiveTensorINS_3SR2EEC2ERKNS_9OptionSetE
FNDA:1,_ZN5neml223LogspacePrimitiveTensorINS_3VecEEC2ERKNS_9OptionSetE
FNDA:0,_ZN5neml223LogspacePrimitiveTensorINS_3WR2EEC2ERKNS_9OptionSetE
FNDA:1,_ZN5neml223LogspacePrimitiveTensorINS_4SFR3EEC2ERKNS_9OptionSetE
FNDA:1,_ZN5neml223LogspacePrimitiveTensorINS_4SFR4EEC2ERKNS_9OptionSetE
FNDA:1,_ZN5neml223LogspacePrimitiveTensorINS_4SSR4EEC2ERKNS_9OptionSetE
FNDA:0,_ZN5neml223LogspacePrimitiveTensorINS_4SWR4EEC2ERKNS_9OptionSetE
FNDA:1,_ZN5neml223LogspacePrimitiveTensorINS_4WFR4EEC2ERKNS_9OptionSetE
FNDA:0,_ZN5neml223LogspacePrimitiveTensorINS_4WSR4EEC2ERKNS_9OptionSetE
FNDA:0,_ZN5neml223LogspacePrimitiveTensorINS_4WWR4EEC2ERKNS_9OptionSetE
FNDA:0,_ZN5neml223LogspacePrimitiveTensorINS_5SFFR4EEC2ERKNS_9OptionSetE
FNDA:1,_ZN5neml223LogspacePrimitiveTensorINS_5SSFR5EEC2ERKNS_9OptionSetE
FNDA:0,_ZN5neml223LogspacePrimitiveTensorINS_6SSSSR8EEC2ERKNS_9OptionSetE
FNDA:7,_ZN5neml223LogspacePrimitiveTensorINS_6ScalarEEC2ERKNS_9OptionSetE
FNDA:0,_ZNK5neml223LogspacePrimitiveTensorINS_10QuaternionEE4makeERKNS_9OptionSetE
FNDA:0,_ZNK5neml223LogspacePrimitiveTensorINS_11MillerIndexEE4makeERKNS_9OptionSetE
FNDA:1,_ZNK5neml223LogspacePrimitiveTensorINS_2R2EE4makeERKNS_9OptionSetE
FNDA:1,_ZNK5neml223LogspacePrimitiveTensorINS_2R3EE4makeERKNS_9OptionSetE
FNDA:1,_ZNK5neml223LogspacePrimitiveTensorINS_2R4EE4makeERKNS_9OptionSetE
FNDA:1,_ZNK5neml223LogspacePrimitiveTensorINS_2R5EE4makeERKNS_9OptionSetE
FNDA:0,_ZNK5neml223LogspacePrimitiveTensorINS_2R8EE4makeERKNS_9OptionSetE
FNDA:1,_ZNK5neml223LogspacePrimitiveTensorINS_3RotEE4makeERKNS_9OptionSetE
FNDA:1,_ZNK5neml223LogspacePrimitiveTensorINS_3SR2EE4makeERKNS_9OptionSetE
FNDA:1,_ZNK5neml223LogspacePrimitiveTensorINS_3VecEE4makeERKNS_9OptionSetE
FNDA:0,_ZNK5neml223LogspacePrimitiveTensorINS_3WR2EE4makeERKNS_9OptionSetE
FNDA:1,_ZNK5neml223LogspacePrimitiveTensorINS_4SFR3EE4makeERKNS_9OptionSetE
FNDA:1,_ZNK5neml223LogspacePrimitiveTensorINS_4SFR4EE4makeERKNS_9OptionSetE
FNDA:1,_ZNK5neml223LogspacePrimitiveTensorINS_4SSR4EE4makeERKNS_9OptionSetE
FNDA:0,_ZNK5neml223LogspacePrimitiveTensorINS_4SWR4EE4makeERKNS_9OptionSetE
FNDA:1,_ZNK5neml223LogspacePrimitiveTensorINS_4WFR4EE4makeERKNS_9OptionSetE
FNDA:0,_ZNK5neml223LogspacePrimitiveTensorINS_4WSR4EE4makeERKNS_9OptionSetE
FNDA:0,_ZNK5neml223LogspacePrimitiveTensorINS_4WWR4EE4makeERKNS_9OptionSetE
FNDA:0,_ZNK5neml223LogspacePrimitiveTensorINS_5SFFR4EE4makeERKNS_9OptionSetE
FNDA:1,_ZNK5neml223LogspacePrimitiveTensorINS_5SSFR5EE4makeERKNS_9OptionSetE
FNDA:0,_ZNK5neml223LogspacePrimitiveTensorINS_6SSSSR8EE4makeERKNS_9OptionSetE
FNDA:7,_ZNK5neml223LogspacePrimitiveTensorINS_6ScalarEE4makeERKNS_9OptionSetE
FNF:66
FNH:48
DA:32,22
DA:36,22
DA:38,22
DA:39,22
DA:43,44
DA:44,44
DA:46,44
DA:47,44
DA:49,44
DA:50,44
DA:52,44
DA:53,44
DA:55,44
DA:56,22
DA:58,66
DA:59,22
DA:62,44
DA:63,22
DA:66,19
DA:68,19
DA:70,19
DA:74,19
DA:76,19
DA:77,38
DA:78,38
DA:79,38
DA:80,57
DA:83,19
DA:84,19
DA:85,0
DA:87,38
DA:88,19
LF:32
LH:31
end_of_record
TN:
SF:/home/runner/work/neml2/neml2/src/neml2/user_tensors/LogspaceTensor.cxx
FN:32,61,_ZN5neml214LogspaceTensor16expected_optionsEv
FN:63,67,_ZN5neml214LogspaceTensorC2ERKNS_9OptionSetE
FN:70,88,_ZNK5neml214LogspaceTensor4makeERKNS_9OptionSetE
FNDA:1,_ZN5neml214LogspaceTensor16expected_optionsEv
FNDA:1,_ZN5neml214LogspaceTensorC2ERKNS_9OptionSetE
FNDA:1,_ZNK5neml214LogspaceTensor4makeERKNS_9OptionSetE
FNF:3
FNH:3
DA:32,1
DA:34,1
DA:35,1
DA:36,1
DA:38,2
DA:39,2
DA:41,2
DA:42,2
DA:44,2
DA:45,2
DA:47,2
DA:48,2
DA:50,2
DA:51,2
DA:53,2
DA:54,1
DA:56,3
DA:57,2
DA:58,1
DA:60,1
DA:61,0
DA:63,1
DA:65,1
DA:67,1
DA:70,1
DA:72,2
DA:73,2
DA:74,2
DA:75,5
DA:78,1
DA:79,1
DA:80,0
DA:83,1
DA:84,1
DA:85,0
DA:87,2
DA:88,1
LF:37
LH:34
end_of_record
TN:
SF:/home/runner/work/neml2/neml2/src/neml2/user_tensors/OnesPrimitiveTensor.cxx
FN:32,45,_ZN5neml219OnesPrimitiveTensorINS_10QuaternionEE16expected_optionsEv
FN:32,45,_ZN5neml219OnesPrimitiveTensorINS_11MillerIndexEE16expected_optionsEv
FN:32,45,_ZN5neml219OnesPrimitiveTensorINS_2R2EE16expected_optionsEv
FN:32,45,_ZN5neml219OnesPrimitiveTensorINS_2R3EE16expected_optionsEv
FN:32,45,_ZN5neml219OnesPrimitiveTensorINS_2R4EE16expected_optionsEv
FN:32,45,_ZN5neml219OnesPrimitiveTensorINS_2R5EE16expected_optionsEv
FN:32,45,_ZN5neml219OnesPrimitiveTensorINS_2R8EE16expected_optionsEv
FN:32,45,_ZN5neml219OnesPrimitiveTensorINS_3RotEE16expected_optionsEv
FN:32,45,_ZN5neml219OnesPrimitiveTensorINS_3SR2EE16expected_optionsEv
FN:32,45,_ZN5neml219OnesPrimitiveTensorINS_3VecEE16expected_optionsEv
FN:32,45,_ZN5neml219OnesPrimitiveTensorINS_3WR2EE16expected_optionsEv
FN:32,45,_ZN5neml219OnesPrimitiveTensorINS_4SFR3EE16expected_optionsEv
FN:32,45,_ZN5neml219OnesPrimitiveTensorINS_4SFR4EE16expected_optionsEv
FN:32,45,_ZN5neml219OnesPrimitiveTensorINS_4SSR4EE16expected_optionsEv
FN:32,45,_ZN5neml219OnesPrimitiveTensorINS_4SWR4EE16expected_optionsEv
FN:32,45,_ZN5neml219OnesPrimitiveTensorINS_4WFR4EE16expected_optionsEv
FN:32,45,_ZN5neml219OnesPrimitiveTensorINS_4WSR4EE16expected_optionsEv
FN:32,45,_ZN5neml219OnesPrimitiveTensorINS_4WWR4EE16expected_optionsEv
FN:32,45,_ZN5neml219OnesPrimitiveTensorINS_5SFFR4EE16expected_optionsEv
FN:32,45,_ZN5neml219OnesPrimitiveTensorINS_5SSFR5EE16expected_optionsEv
FN:32,45,_ZN5neml219OnesPrimitiveTensorINS_6SSSSR8EE16expected_optionsEv
FN:32,45,_ZN5neml219OnesPrimitiveTensorINS_6ScalarEE16expected_optionsEv
FN:48,52,_ZN5neml219OnesPrimitiveTensorINS_10QuaternionEEC2ERKNS_9OptionSetE
FN:48,52,_ZN5neml219OnesPrimitiveTensorINS_11MillerIndexEEC2ERKNS_9OptionSetE
FN:48,52,_ZN5neml219OnesPrimitiveTensorINS_2R2EEC2ERKNS_9OptionSetE
FN:48,52,_ZN5neml219OnesPrimitiveTensorINS_2R3EEC2ERKNS_9OptionSetE
FN:48,52,_ZN5neml219OnesPrimitiveTensorINS_2R4EEC2ERKNS_9OptionSetE
FN:48,52,_ZN5neml219OnesPrimitiveTensorINS_2R5EEC2ERKNS_9OptionSetE
FN:48,52,_ZN5neml219OnesPrimitiveTensorINS_2R8EEC2ERKNS_9OptionSetE
FN:48,52,_ZN5neml219OnesPrimitiveTensorINS_3RotEEC2ERKNS_9OptionSetE
FN:48,52,_ZN5neml219OnesPrimitiveTensorINS_3SR2EEC2ERKNS_9OptionSetE
FN:48,52,_ZN5neml219OnesPrimitiveTensorINS_3VecEEC2ERKNS_9OptionSetE
FN:48,52,_ZN5neml219OnesPrimitiveTensorINS_3WR2EEC2ERKNS_9OptionSetE
FN:48,52,_ZN5neml219OnesPrimitiveTensorINS_4SFR3EEC2ERKNS_9OptionSetE
FN:48,52,_ZN5neml219OnesPrimitiveTensorINS_4SFR4EEC2ERKNS_9OptionSetE
FN:48,52,_ZN5neml219OnesPrimitiveTensorINS_4SSR4EEC2ERKNS_9OptionSetE
FN:48,52,_ZN5neml219OnesPrimitiveTensorINS_4SWR4EEC2ERKNS_9OptionSetE
FN:48,52,_ZN5neml219OnesPrimitiveTensorINS_4WFR4EEC2ERKNS_9OptionSetE
FN:48,52,_ZN5neml219OnesPrimitiveTensorINS_4WSR4EEC2ERKNS_9OptionSetE
FN:48,52,_ZN5neml219OnesPrimitiveTensorINS_4WWR4EEC2ERKNS_9OptionSetE
FN:48,52,_ZN5neml219OnesPrimitiveTensorINS_5SFFR4EEC2ERKNS_9OptionSetE
FN:48,52,_ZN5neml219OnesPrimitiveTensorINS_5SSFR5EEC2ERKNS_9OptionSetE
FN:48,52,_ZN5neml219OnesPrimitiveTensorINS_6SSSSR8EEC2ERKNS_9OptionSetE
FN:48,52,_ZN5neml219OnesPrimitiveTensorINS_6ScalarEEC2ERKNS_9OptionSetE
FNDA:1,_ZN5neml219OnesPrimitiveTensorINS_10QuaternionEE16expected_optionsEv
FNDA:1,_ZN5neml219OnesPrimitiveTensorINS_11MillerIndexEE16expected_optionsEv
FNDA:1,_ZN5neml219OnesPrimitiveTensorINS_2R2EE16expected_optionsEv
FNDA:1,_ZN5neml219OnesPrimitiveTensorINS_2R3EE16expected_optionsEv
FNDA:1,_ZN5neml219OnesPrimitiveTensorINS_2R4EE16expected_optionsEv
FNDA:1,_ZN5neml219OnesPrimitiveTensorINS_2R5EE16expected_optionsEv
FNDA:1,_ZN5neml219OnesPrimitiveTensorINS_2R8EE16expected_optionsEv
FNDA:1,_ZN5neml219OnesPrimitiveTensorINS_3RotEE16expected_optionsEv
FNDA:1,_ZN5neml219OnesPrimitiveTensorINS_3SR2EE16expected_optionsEv
FNDA:1,_ZN5neml219OnesPrimitiveTensorINS_3VecEE16expected_optionsEv
FNDA:1,_ZN5neml219OnesPrimitiveTensorINS_3WR2EE16expected_optionsEv
FNDA:1,_ZN5neml219OnesPrimitiveTensorINS_4SFR3EE16expected_optionsEv
FNDA:1,_ZN5neml219OnesPrimitiveTensorINS_4SFR4EE16expected_optionsEv
FNDA:1,_ZN5neml219OnesPrimitiveTensorINS_4SSR4EE16expected_optionsEv
FNDA:1,_ZN5neml219OnesPrimitiveTensorINS_4SWR4EE16expected_optionsEv
FNDA:1,_ZN5neml219OnesPrimitiveTensorINS_4WFR4EE16expected_optionsEv
FNDA:1,_ZN5neml219OnesPrimitiveTensorINS_4WSR4EE16expected_optionsEv
FNDA:1,_ZN5neml219OnesPrimitiveTensorINS_4WWR4EE16expected_optionsEv
FNDA:1,_ZN5neml219OnesPrimitiveTensorINS_5SFFR4EE16expected_optionsEv
FNDA:1,_ZN5neml219OnesPrimitiveTensorINS_5SSFR5EE16expected_optionsEv
FNDA:1,_ZN5neml219OnesPrimitiveTensorINS_6SSSSR8EE16expected_optionsEv
FNDA:1,_ZN5neml219OnesPrimitiveTensorINS_6ScalarEE16expected_optionsEv
FNDA:0,_ZN5neml219OnesPrimitiveTensorINS_10QuaternionEEC2ERKNS_9OptionSetE
FNDA:0,_ZN5neml219OnesPrimitiveTensorINS_11MillerIndexEEC2ERKNS_9OptionSetE
FNDA:1,_ZN5neml219OnesPrimitiveTensorINS_2R2EEC2ERKNS_9OptionSetE
FNDA:1,_ZN5neml219OnesPrimitiveTensorINS_2R3EEC2ERKNS_9OptionSetE
FNDA:1,_ZN5neml219OnesPrimitiveTensorINS_2R4EEC2ERKNS_9OptionSetE
FNDA:1,_ZN5neml219OnesPrimitiveTensorINS_2R5EEC2ERKNS_9OptionSetE
