TN:
SF:/home/runner/work/neml2/neml2/src/neml2/base/DiagnosticsInterface.cxx
FN:31,35,_ZN5neml210DiagnosingC2Eb
FN:37,37,_ZN5neml210DiagnosingD2Ev
FN:40,44,_ZN5neml224current_diagnostic_stateEv
FN:47,51,_ZN5neml217current_diagnosesEv
FN:54,77,_ZN5neml28diagnoseERKNS_20DiagnosticsInterfaceE
FN:79,82,_ZN5neml220DiagnosticsInterfaceC2EPNS_11NEML2ObjectE
FNDA:245,_ZN5neml210DiagnosingC2Eb
FNDA:245,_ZN5neml210DiagnosingD2Ev
FNDA:984,_ZN5neml224current_diagnostic_stateEv
FNDA:401,_ZN5neml217current_diagnosesEv
FNDA:245,_ZN5neml28diagnoseERKNS_20DiagnosticsInterfaceE
FNDA:555,_ZN5neml220DiagnosticsInterfaceC2EPNS_11NEML2ObjectE
FNF:6
FNH:6
DA:31,245
DA:32,245
DA:34,245
DA:35,245
DA:37,245
DA:40,984
DA:42,984
DA:43,984
DA:47,401
DA:49,401
DA:50,401
DA:54,245
DA:56,245
DA:57,245
DA:58,245
DA:62,245
DA:63,245
DA:64,245
DA:67,245
DA:70,245
DA:72,152
DA:73,152
DA:76,245
DA:77,0
DA:79,555
DA:80,555
DA:82,555
LF:27
LH:26
end_of_record
TN:
SF:/home/runner/work/neml2/neml2/src/neml2/base/EnumSelection.cxx
FN:32,36,_ZN5neml2lsERSoRKNS_13EnumSelectionE
FN:39,43,_ZN5neml2rsERSt18basic_stringstreamIcSt11char_traitsIcESaIcEERNS_13EnumSelectionE
FN:45,50,_ZN5neml213EnumSelectionC2ERKSt6vectorISsSaISsEERKSs
FN:52,58,_ZN5neml213EnumSelectionC2ERKSt6vectorISsSaISsEERKS1_IiSaIiEERKSs
FN:61,65,_ZNK5neml213EnumSelectioneqERKS0_
FN:68,71,_ZNK5neml213EnumSelectionneERKS0_
FN:74,77,_ZNK5neml213EnumSelectioneqERKSs
FN:80,83,_ZNK5neml213EnumSelectionneERKSs
FN:86,93,_ZN5neml213EnumSelection6selectERKSs
FNDA:1,_ZN5neml2lsERSoRKNS_13EnumSelectionE
FNDA:37,_ZN5neml2rsERSt18basic_stringstreamIcSt11char_traitsIcESaIcEERNS_13EnumSelectionE
FNDA:25,_ZN5neml213EnumSelectionC2ERKSt6vectorISsSaISsEERKSs
FNDA:680,_ZN5neml213EnumSelectionC2ERKSt6vectorISsSaISsEERKS1_IiSaIiEERKSs
FNDA:7,_ZNK5neml213EnumSelectioneqERKS0_
FNDA:5,_ZNK5neml213EnumSelectionneERKS0_
FNDA:363,_ZNK5neml213EnumSelectioneqERKSs
FNDA:0,_ZNK5neml213EnumSelectionneERKSs
FNDA:739,_ZN5neml213EnumSelection6selectERKSs
FNF:9
FNH:8
DA:32,1
DA:34,1
DA:35,1
DA:39,37
DA:41,37
DA:42,36
DA:45,25
DA:46,25
DA:47,49
DA:49,24
DA:50,25
DA:52,680
DA:54,680
DA:55,1358
DA:57,678
DA:58,679
DA:61,7
DA:63,9
DA:64,9
DA:68,5
DA:70,5
DA:74,363
DA:76,363
DA:80,0
DA:82,0
DA:86,739
DA:88,739
DA:90,1478
DA:91,736
DA:92,736
DA:93,736
LF:31
LH:29
end_of_record
TN:
SF:/home/runner/work/neml2/neml2/src/neml2/base/EnumSelectionBase.cxx
FN:31,40,_ZN5neml217EnumSelectionBaseC2ERKSt6vectorISsSaISsEE
FN:42,57,_ZN5neml217EnumSelectionBaseC2ERKSt6vectorISsSaISsEERKS1_IiSaIiEE
FN:60,66,_ZNK5neml217EnumSelectionBase14candidates_strEv
FNDA:28,_ZN5neml217EnumSelectionBaseC2ERKSt6vectorISsSaISsEE
FNDA:697,_ZN5neml217EnumSelectionBaseC2ERKSt6vectorISsSaISsEERKS1_IiSaIiEE
FNDA:1514,_ZNK5neml217EnumSelectionBase14candidates_strEv
FNF:3
FNH:3
DA:31,28
DA:33,28
DA:34,28
DA:37,27
DA:38,91
DA:39,64
DA:40,29
DA:42,697
DA:43,697
DA:45,697
DA:48,696
DA:49,696
DA:52,696
DA:53,696
DA:55,3480
DA:56,2785
DA:57,699
DA:60,1514
DA:62,1514
DA:63,7663
DA:64,6149
DA:65,3028
DA:66,1514
LF:23
LH:23
end_of_record
TN:
SF:/home/runner/work/neml2/neml2/src/neml2/base/Factory.cxx
FN:120,123,_ZN5neml27Factory5clearEv
FN:34,48,_ZN5neml210load_inputERKNSt10filesystem4pathERKSs
FN:51,55,_ZN5neml212reload_inputERKNSt10filesystem4pathERKSs
FN:58,62,_ZN5neml27Factory3getEv
FN:65,69,_ZN5neml27Factory7optionsEv
FN:72,76,_ZN5neml27Factory10has_objectERKSsS2_
FN:79,82,_ZN5neml27Factory12load_optionsERKNS_16OptionCollectionE
FN:85,103,_ZN5neml27Factory13create_objectERKSsRKNS_9OptionSetE
FNDA:326,_ZN5neml27Factory5clearEv
FNDA:325,_ZN5neml210load_inputERKNSt10filesystem4pathERKSs
FNDA:324,_ZN5neml212reload_inputERKNSt10filesystem4pathERKSs
FNDA:1789,_ZN5neml27Factory3getEv
FNDA:3352,_ZN5neml27Factory7optionsEv
FNDA:0,_ZN5neml27Factory10has_objectERKSsS2_
FNDA:325,_ZN5neml27Factory12load_optionsERKNS_16OptionCollectionE
FNDA:1337,_ZN5neml27Factory13create_objectERKSsRKNS_9OptionSetE
FNF:8
FNH:7
DA:34,325
DA:36,325
DA:39,325
DA:41,325
DA:42,325
DA:43,325
DA:45,0
DA:47,323
DA:48,325
DA:51,324
DA:53,324
DA:54,324
DA:55,322
DA:58,1789
DA:60,1789
DA:61,1789
DA:65,3352
DA:67,3352
DA:68,3352
DA:72,0
DA:74,0
DA:75,0
DA:79,325
DA:81,325
DA:82,325
DA:85,1337
DA:87,1337
DA:88,1337
DA:90,1337
DA:91,1337
DA:92,1335
DA:96,1335
DA:98,0
DA:100,0
DA:101,0
DA:102,0
DA:103,1335
DA:120,326
DA:122,326
DA:123,326
LF:40
LH:32
end_of_record
TN:
SF:/home/runner/work/neml2/neml2/src/neml2/base/HITParser.cxx
FN:103,117,_ZNK5neml29HITParser22extract_object_optionsEPN3hit4NodeES3_
FN:120,125,_ZNK5neml29HITParser15extract_optionsEPN3hit4NodeERNS_9OptionSetE
FN:129,182,_ZNK5neml29HITParser14extract_optionEPN3hit4NodeERNS_9OptionSetE
FN:40,100,_ZNK5neml29HITParser5parseERKNSt10filesystem4pathERKSs
FNDA:3252,_ZNK5neml29HITParser22extract_object_optionsEPN3hit4NodeES3_
FNDA:3264,_ZNK5neml29HITParser15extract_optionsEPN3hit4NodeERNS_9OptionSetE
FNDA:7089,_ZNK5neml29HITParser14extract_optionEPN3hit4NodeERNS_9OptionSetE
FNDA:336,_ZNK5neml29HITParser5parseERKNSt10filesystem4pathERKSs
FNF:4
FNH:4
DA:40,336
DA:43,336
DA:44,336
DA:47,336
DA:48,336
DA:49,336
DA:52,336
DA:53,336
DA:56,336
DA:59,336
DA:60,336
DA:61,336
DA:64,336
DA:65,336
DA:66,336
DA:67,672
DA:68,336
DA:69,336
DA:71,336
DA:74,672
DA:75,336
DA:76,12
DA:82,336
DA:85,2340
DA:87,2007
DA:88,2007
DA:90,647
DA:91,3896
DA:93,3252
DA:94,3249
DA:95,3249
DA:96,647
DA:99,666
DA:100,360
DA:103,3252
DA:106,6504
DA:108,3252
DA:109,3252
DA:112,3249
DA:113,3249
DA:114,3249
DA:116,6498
DA:117,3255
DA:120,3264
DA:122,13602
DA:123,10341
DA:124,10350
DA:125,3261
DA:129,7089
DA:143,7089
DA:145,7089
DA:146,81717
DA:147,81717
DA:149,7089
DA:151,7089
DA:154,7088
DA:158,7088
DA:159,5611
DA:160,5482
DA:161,5449
DA:162,5410
DA:163,5410
DA:164,4560
DA:165,3353
DA:166,2401
DA:167,1774
DA:168,1739
DA:169,1721
DA:170,30
DA:171,30
DA:176,7086
DA:178,7086
DA:180,7086
DA:182,7086
LF:74
LH:74
end_of_record
TN:
SF:/home/runner/work/neml2/neml2/src/neml2/base/LabeledAxis.cxx
FN:147,160,_ZNK5neml211LabeledAxis4sizeEv
FN:163,191,_ZNK5neml211LabeledAxis4sizeERKNS_19LabeledAxisAccessorE
FN:194,214,_ZNK5neml211LabeledAxis5sliceERKNS_19LabeledAxisAccessorE
FN:217,228,_ZNK5neml211LabeledAxis9nvariableEv
FN:231,246,_ZNK5neml211LabeledAxis12has_variableERKNS_19LabeledAxisAccessorE
FN:249,260,_ZNK5neml211LabeledAxis11variable_idERKNS_19LabeledAxisAccessorE
FN:263,267,_ZNK5neml211LabeledAxis14variable_namesEv
FN:270,274,_ZNK5neml211LabeledAxis15variable_slicesEv
FN:277,281,_ZNK5neml211LabeledAxis14variable_sliceERKNS_19LabeledAxisAccessorE
FN:284,288,_ZNK5neml211LabeledAxis14variable_sizesEv
FN:291,310,_ZNK5neml211LabeledAxis13variable_sizeERKNS_19LabeledAxisAccessorE
FN:313,316,_ZNK5neml211LabeledAxis8nsubaxisEv
FN:319,329,_ZNK5neml211LabeledAxis11has_subaxisERKNS_19LabeledAxisAccessorE
FN:33,36,_ZN5neml211LabeledAxisC2ENS_19LabeledAxisAccessorE
FN:332,342,_ZNK5neml211LabeledAxis10subaxis_idERKSs
FN:345,349,_ZNK5neml211LabeledAxis7subaxesEv
FN:352,364,_ZNK5neml211LabeledAxis7subaxisERKNS_19LabeledAxisAccessorE
FN:367,371,_ZN5neml211LabeledAxis7subaxisERKNS_19LabeledAxisAccessorE
FN:374,378,_ZNK5neml211LabeledAxis13subaxis_namesEv
FN:381,385,_ZNK5neml211LabeledAxis14subaxis_slicesEv
FN:388,403,_ZNK5neml211LabeledAxis13subaxis_sliceERKNS_19LabeledAxisAccessorE
FN:39,42,_ZNK5neml211LabeledAxis7qualifyERKNS_19LabeledAxisAccessorE
FN:406,410,_ZNK5neml211LabeledAxis13subaxis_sizesEv
FN:413,423,_ZNK5neml211LabeledAxis12subaxis_sizeERKNS_19LabeledAxisAccessorE
FN:426,447,_ZNK5neml211LabeledAxis6equalsERKS0_
FN:45,55,_ZN5neml211LabeledAxis11add_subaxisERKSs
FN:450,464,_ZN5neml211LabeledAxis22cache_reserved_subaxisERKSs
FN:467,470,_ZNK5neml211LabeledAxis16ensure_setup_dbgEv
FN:473,500,_ZN5neml2lsERSoRKNS_11LabeledAxisE
FN:503,506,_ZN5neml2eqERKNS_11LabeledAxisES2_
FN:509,512,_ZN5neml2neERKNS_11LabeledAxisES2_
FN:58,73,_ZN5neml211LabeledAxis12add_variableERKNS_19LabeledAxisAccessorEl
FN:77,81,_ZN5neml211LabeledAxis12add_variableINS_10QuaternionEEEvRKNS_19LabeledAxisAccessorE
FN:77,81,_ZN5neml211LabeledAxis12add_variableINS_11MillerIndexEEEvRKNS_19LabeledAxisAccessorE
FN:77,81,_ZN5neml211LabeledAxis12add_variableINS_2R2EEEvRKNS_19LabeledAxisAccessorE
FN:77,81,_ZN5neml211LabeledAxis12add_variableINS_2R3EEEvRKNS_19LabeledAxisAccessorE
FN:77,81,_ZN5neml211LabeledAxis12add_variableINS_2R4EEEvRKNS_19LabeledAxisAccessorE
FN:77,81,_ZN5neml211LabeledAxis12add_variableINS_2R5EEEvRKNS_19LabeledAxisAccessorE
FN:77,81,_ZN5neml211LabeledAxis12add_variableINS_2R8EEEvRKNS_19LabeledAxisAccessorE
FN:77,81,_ZN5neml211LabeledAxis12add_variableINS_3RotEEEvRKNS_19LabeledAxisAccessorE
FN:77,81,_ZN5neml211LabeledAxis12add_variableINS_3SR2EEEvRKNS_19LabeledAxisAccessorE
FN:77,81,_ZN5neml211LabeledAxis12add_variableINS_3VecEEEvRKNS_19LabeledAxisAccessorE
FN:77,81,_ZN5neml211LabeledAxis12add_variableINS_3WR2EEEvRKNS_19LabeledAxisAccessorE
FN:77,81,_ZN5neml211LabeledAxis12add_variableINS_4SFR3EEEvRKNS_19LabeledAxisAccessorE
FN:77,81,_ZN5neml211LabeledAxis12add_variableINS_4SFR4EEEvRKNS_19LabeledAxisAccessorE
FN:77,81,_ZN5neml211LabeledAxis12add_variableINS_4SSR4EEEvRKNS_19LabeledAxisAccessorE
FN:77,81,_ZN5neml211LabeledAxis12add_variableINS_4SWR4EEEvRKNS_19LabeledAxisAccessorE
FN:77,81,_ZN5neml211LabeledAxis12add_variableINS_4WFR4EEEvRKNS_19LabeledAxisAccessorE
FN:77,81,_ZN5neml211LabeledAxis12add_variableINS_4WSR4EEEvRKNS_19LabeledAxisAccessorE
FN:77,81,_ZN5neml211LabeledAxis12add_variableINS_4WWR4EEEvRKNS_19LabeledAxisAccessorE
FN:77,81,_ZN5neml211LabeledAxis12add_variableINS_5SFFR4EEEvRKNS_19LabeledAxisAccessorE
FN:77,81,_ZN5neml211LabeledAxis12add_variableINS_5SSFR5EEEvRKNS_19LabeledAxisAccessorE
FN:77,81,_ZN5neml211LabeledAxis12add_variableINS_6SSSSR8EEEvRKNS_19LabeledAxisAccessorE
FN:77,81,_ZN5neml211LabeledAxis12add_variableINS_6ScalarEEEvRKNS_19LabeledAxisAccessorE
FN:87,144,_ZN5neml211LabeledAxis12setup_layoutEv
FNDA:1472,_ZNK5neml211LabeledAxis4sizeEv
FNDA:78,_ZNK5neml211LabeledAxis4sizeERKNS_19LabeledAxisAccessorE
FNDA:27,_ZNK5neml211LabeledAxis5sliceERKNS_19LabeledAxisAccessorE
FNDA:360,_ZNK5neml211LabeledAxis9nvariableEv
FNDA:14557,_ZNK5neml211LabeledAxis12has_variableERKNS_19LabeledAxisAccessorE
FNDA:88,_ZNK5neml211LabeledAxis11variable_idERKNS_19LabeledAxisAccessorE
FNDA:25182,_ZNK5neml211LabeledAxis14variable_namesEv
FNDA:16,_ZNK5neml211LabeledAxis15variable_slicesEv
FNDA:40,_ZNK5neml211LabeledAxis14variable_sliceERKNS_19LabeledAxisAccessorE
FNDA:56467,_ZNK5neml211LabeledAxis14variable_sizesEv
FNDA:62,_ZNK5neml211LabeledAxis13variable_sizeERKNS_19LabeledAxisAccessorE
FNDA:13,_ZNK5neml211LabeledAxis8nsubaxisEv
FNDA:27,_ZNK5neml211LabeledAxis11has_subaxisERKNS_19LabeledAxisAccessorE
FNDA:2074,_ZN5neml211LabeledAxisC2ENS_19LabeledAxisAccessorE
FNDA:17,_ZNK5neml211LabeledAxis10subaxis_idERKSs
FNDA:2,_ZNK5neml211LabeledAxis7subaxesEv
FNDA:6659,_ZNK5neml211LabeledAxis7subaxisERKNS_19LabeledAxisAccessorE
FNDA:6571,_ZN5neml211LabeledAxis7subaxisERKNS_19LabeledAxisAccessorE
FNDA:9,_ZNK5neml211LabeledAxis13subaxis_namesEv
FNDA:3,_ZNK5neml211LabeledAxis14subaxis_slicesEv
FNDA:14,_ZNK5neml211LabeledAxis13subaxis_sliceERKNS_19LabeledAxisAccessorE
FNDA:24665,_ZNK5neml211LabeledAxis7qualifyERKNS_19LabeledAxisAccessorE
FNDA:9,_ZNK5neml211LabeledAxis13subaxis_sizesEv
FNDA:14,_ZNK5neml211LabeledAxis12subaxis_sizeERKNS_19LabeledAxisAccessorE
FNDA:10,_ZNK5neml211LabeledAxis6equalsERKS0_
FNDA:2074,_ZN5neml211LabeledAxis11add_subaxisERKSs
FNDA:1498,_ZN5neml211LabeledAxis22cache_reserved_subaxisERKSs
FNDA:81874,_ZNK5neml211LabeledAxis16ensure_setup_dbgEv
FNDA:0,_ZN5neml2lsERSoRKNS_11LabeledAxisE
FNDA:6,_ZN5neml2eqERKNS_11LabeledAxisES2_
FNDA:4,_ZN5neml2neERKNS_11LabeledAxisES2_
FNDA:3818,_ZN5neml211LabeledAxis12add_variableERKNS_19LabeledAxisAccessorEl
FNDA:0,_ZN5neml211LabeledAxis12add_variableINS_10QuaternionEEEvRKNS_19LabeledAxisAccessorE
FNDA:0,_ZN5neml211LabeledAxis12add_variableINS_11MillerIndexEEEvRKNS_19LabeledAxisAccessorE
FNDA:0,_ZN5neml211LabeledAxis12add_variableINS_2R2EEEvRKNS_19LabeledAxisAccessorE
FNDA:0,_ZN5neml211LabeledAxis12add_variableINS_2R3EEEvRKNS_19LabeledAxisAccessorE
FNDA:0,_ZN5neml211LabeledAxis12add_variableINS_2R4EEEvRKNS_19LabeledAxisAccessorE
FNDA:0,_ZN5neml211LabeledAxis12add_variableINS_2R5EEEvRKNS_19LabeledAxisAccessorE
FNDA:0,_ZN5neml211LabeledAxis12add_variableINS_2R8EEEvRKNS_19LabeledAxisAccessorE
FNDA:0,_ZN5neml211LabeledAxis12add_variableINS_3RotEEEvRKNS_19LabeledAxisAccessorE
FNDA:136,_ZN5neml211LabeledAxis12add_variableINS_3SR2EEEvRKNS_19LabeledAxisAccessorE
FNDA:0,_ZN5neml211LabeledAxis12add_variableINS_3VecEEEvRKNS_19LabeledAxisAccessorE
FNDA:0,_ZN5neml211LabeledAxis12add_variableINS_3WR2EEEvRKNS_19LabeledAxisAccessorE
FNDA:0,_ZN5neml211LabeledAxis12add_variableINS_4SFR3EEEvRKNS_19LabeledAxisAccessorE
FNDA:0,_ZN5neml211LabeledAxis12add_variableINS_4SFR4EEEvRKNS_19LabeledAxisAccessorE
FNDA:0,_ZN5neml211LabeledAxis12add_variableINS_4SSR4EEEvRKNS_19LabeledAxisAccessorE
FNDA:0,_ZN5neml211LabeledAxis12add_variableINS_4SWR4EEEvRKNS_19LabeledAxisAccessorE
FNDA:0,_ZN5neml211LabeledAxis12add_variableINS_4WFR4EEEvRKNS_19LabeledAxisAccessorE
FNDA:0,_ZN5neml211LabeledAxis12add_variableINS_4WSR4EEEvRKNS_19LabeledAxisAccessorE
FNDA:0,_ZN5neml211LabeledAxis12add_variableINS_4WWR4EEEvRKNS_19LabeledAxisAccessorE
FNDA:0,_ZN5neml211LabeledAxis12add_variableINS_5SFFR4EEEvRKNS_19LabeledAxisAccessorE
FNDA:0,_ZN5neml211LabeledAxis12add_variableINS_5SSFR5EEEvRKNS_19LabeledAxisAccessorE
FNDA:0,_ZN5neml211LabeledAxis12add_variableINS_6SSSSR8EEEvRKNS_19LabeledAxisAccessorE
FNDA:181,_ZN5neml211LabeledAxis12add_variableINS_6ScalarEEEvRKNS_19LabeledAxisAccessorE
FNDA:2273,_ZN5neml211LabeledAxis12setup_layoutEv
FNF:55
FNH:34
DA:33,2074
DA:34,2074
DA:36,2074
DA:39,24665
DA:41,24665
DA:45,2074
DA:47,2074
DA:48,2074
DA:49,2074
DA:50,2074
DA:51,2074
DA:52,2074
DA:53,1498
DA:54,4148
DA:58,3818
DA:60,3818
DA:61,3818
DA:63,3818
DA:65,1870
DA:67,1870
DA:69,1870
DA:72,1948
DA:73,3818
DA:77,317
DA:79,317
DA:80,317
DA:81,317
DA:87,2273
DA:90,2273
DA:92,2273
DA:93,2273
DA:94,2273
DA:95,2273
DA:97,2273
DA:98,2273
DA:99,2273
DA:100,2273
DA:101,2273
DA:104,3975
DA:106,1702
DA:107,1702
DA:108,1702
DA:109,1702
DA:110,1702
DA:114,3708
DA:116,1435
DA:117,1435
DA:118,1435
DA:119,1435
DA:120,1435
DA:121,1435
DA:122,1435
DA:123,1435
DA:126,3593
DA:128,2158
DA:129,2158
DA:130,2158
DA:131,2158
DA:132,2158
DA:135,2158
DA:136,2158
DA:137,2158
DA:138,2158
DA:139,2158
DA:143,2273
DA:144,2273
DA:147,1472
DA:150,1472
DA:151,1449
DA:154,23
DA:155,69
DA:156,46
DA:157,32
DA:158,9
DA:159,23
DA:163,78
DA:165,78
DA:168,78
DA:170,46
DA:171,46
DA:172,36
DA:174,10
DA:175,10
DA:180,10
DA:184,32
DA:185,32
DA:190,32
DA:194,27
DA:196,27
DA:197,27
DA:200,27
DA:202,22
DA:203,22
DA:207,5
DA:212,5
DA:213,5
DA:217,360
DA:220,360
DA:221,351
DA:224,9
DA:225,14
DA:226,5
DA:227,9
DA:231,14557
DA:233,14557
DA:236,14557
DA:237,13817
DA:238,27634
DA:241,740
DA:242,268
DA:244,472
DA:245,472
DA:249,88
DA:251,88
DA:252,88
DA:253,88
DA:254,88
DA:259,176
DA:263,25182
DA:265,25182
DA:266,25182
DA:270,16
DA:272,16
DA:273,16
DA:277,40
DA:279,40
DA:280,40
DA:284,56467
DA:286,56467
DA:287,56467
DA:291,62
DA:294,62
DA:295,30
DA:298,32
DA:300,18
DA:301,18
DA:302,18
DA:303,18
DA:306,14
DA:307,14
DA:308,14
DA:309,14
DA:313,13
DA:315,13
DA:319,27
DA:321,27
DA:323,27
DA:325,27
DA:326,23
DA:328,4
DA:332,17
DA:334,17
DA:335,17
DA:336,17
DA:341,34
DA:345,2
DA:347,2
DA:348,2
DA:352,6659
DA:354,6659
DA:356,6659
DA:357,6659
DA:358,6659
DA:360,6659
DA:361,6655
DA:363,4
DA:367,6571
DA:370,6571
DA:374,9
DA:376,9
DA:377,9
DA:381,3
DA:383,3
DA:384,3
DA:388,14
DA:390,14
DA:393,14
DA:394,10
DA:397,4
DA:398,4
DA:399,4
DA:400,4
DA:401,4
DA:402,4
DA:406,9
DA:408,9
DA:409,9
DA:413,14
DA:415,14
DA:416,14
DA:417,14
DA:419,14
DA:420,10
DA:422,4
DA:426,10
DA:429,10
DA:430,2
DA:433,8
DA:434,0
DA:437,10
DA:439,2
DA:440,0
DA:442,2
DA:443,0
DA:446,8
DA:450,1498
DA:452,1498
DA:453,658
DA:454,840
DA:455,61
DA:456,779
DA:457,147
DA:458,632
DA:459,70
DA:460,562
DA:461,49
DA:462,513
DA:463,50
DA:464,1498
DA:467,81874
DA:469,81874
DA:470,81874
DA:473,0
DA:476,0
DA:479,0
DA:480,0
DA:482,0
DA:483,0
DA:484,0
DA:485,0
DA:488,0
DA:490,0
DA:491,0
DA:492,0
DA:493,0
DA:494,0
DA:495,0
DA:496,0
DA:499,0
DA:500,0
DA:503,6
DA:505,6
DA:509,4
DA:511,4
LF:244
LH:223
end_of_record
TN:
SF:/home/runner/work/neml2/neml2/src/neml2/base/LabeledAxisAccessor.cxx
FN:101,109,_ZNK5neml219LabeledAxisAccessor5sliceEll
FN:112,115,_ZNK5neml219LabeledAxisAccessor7remountERKS0_l
FN:118,121,_ZNK5neml219LabeledAxisAccessor10start_withERKS0_
FN:124,127,_ZNK5neml219LabeledAxisAccessor8is_stateEv
FN:130,133,_ZNK5neml219LabeledAxisAccessor12is_old_stateEv
FN:136,139,_ZNK5neml219LabeledAxisAccessor8is_forceEv
FN:142,145,_ZNK5neml219LabeledAxisAccessor12is_old_forceEv
FN:148,151,_ZNK5neml219LabeledAxisAccessor11is_residualEv
FN:154,157,_ZNK5neml219LabeledAxisAccessor12is_parameterEv
FN:160,169,_ZNK5neml219LabeledAxisAccessor7currentEv
FN:172,181,_ZNK5neml219LabeledAxisAccessor3oldEv
FN:184,192,_ZNK5neml219LabeledAxisAccessor18validate_item_nameERKSs
FN:195,198,_ZN5neml2neERKNS_19LabeledAxisAccessorES2_
FN:201,204,_ZN5neml2eqERKNS_19LabeledAxisAccessorES2_
FN:207,210,_ZN5neml2ltERKNS_19LabeledAxisAccessorES2_
FN:213,222,_ZN5neml2lsERSoRKNS_19LabeledAxisAccessorE
FN:34,37,_ZN5neml222reserved_subaxis_namesEv
FN:39,43,_ZNK5neml219LabeledAxisAccessorcvSt6vectorISsSaISsEEEv
FN:46,49,_ZNK5neml219LabeledAxisAccessor3strEv
FN:52,55,_ZNK5neml219LabeledAxisAccessor5emptyEv
FN:58,61,_ZNK5neml219LabeledAxisAccessor4sizeEv
FN:64,67,_ZNK5neml219LabeledAxisAccessorixEm
FN:70,75,_ZNK5neml219LabeledAxisAccessor11with_suffixERKSs
FN:78,81,_ZNK5neml219LabeledAxisAccessor6appendERKS0_
FN:84,89,_ZNK5neml219LabeledAxisAccessor7prependERKS0_
FN:92,98,_ZNK5neml219LabeledAxisAccessor5sliceEl
FNDA:1563,_ZNK5neml219LabeledAxisAccessor5sliceEll
FNDA:133,_ZNK5neml219LabeledAxisAccessor7remountERKS0_l
FNDA:1561,_ZNK5neml219LabeledAxisAccessor10start_withERKS0_
FNDA:827,_ZNK5neml219LabeledAxisAccessor8is_stateEv
FNDA:163,_ZNK5neml219LabeledAxisAccessor12is_old_stateEv
FNDA:167,_ZNK5neml219LabeledAxisAccessor8is_forceEv
FNDA:47,_ZNK5neml219LabeledAxisAccessor12is_old_forceEv
FNDA:134,_ZNK5neml219LabeledAxisAccessor11is_residualEv
FNDA:88,_ZNK5neml219LabeledAxisAccessor12is_parameterEv
FNDA:0,_ZNK5neml219LabeledAxisAccessor7currentEv
FNDA:85,_ZNK5neml219LabeledAxisAccessor3oldEv
FNDA:86687,_ZNK5neml219LabeledAxisAccessor18validate_item_nameERKSs
FNDA:7349,_ZN5neml2neERKNS_19LabeledAxisAccessorES2_
FNDA:66061,_ZN5neml2eqERKNS_19LabeledAxisAccessorES2_
FNDA:469895,_ZN5neml2ltERKNS_19LabeledAxisAccessorES2_
FNDA:2522,_ZN5neml2lsERSoRKNS_19LabeledAxisAccessorE
FNDA:0,_ZN5neml222reserved_subaxis_namesEv
FNDA:1,_ZNK5neml219LabeledAxisAccessorcvSt6vectorISsSaISsEEEv
FNDA:411,_ZNK5neml219LabeledAxisAccessor3strEv
FNDA:26274,_ZNK5neml219LabeledAxisAccessor5emptyEv
FNDA:18534,_ZNK5neml219LabeledAxisAccessor4sizeEv
FNDA:17011,_ZNK5neml219LabeledAxisAccessorixEm
FNDA:149,_ZNK5neml219LabeledAxisAccessor11with_suffixERKSs
FNDA:2075,_ZNK5neml219LabeledAxisAccessor6appendERKS0_
FNDA:29734,_ZNK5neml219LabeledAxisAccessor7prependERKS0_
FNDA:2465,_ZNK5neml219LabeledAxisAccessor5sliceEl
FNF:26
FNH:24
DA:34,0
DA:36,0
DA:37,0
DA:39,1
DA:41,1
DA:42,1
DA:46,411
DA:48,411
DA:52,26274
DA:54,26274
DA:58,18534
DA:60,18534
DA:64,17011
DA:66,17011
DA:70,149
DA:72,149
DA:73,149
DA:74,298
DA:75,149
DA:78,2075
DA:80,2075
DA:84,29734
DA:86,29734
DA:87,29734
DA:88,59468
DA:89,29734
DA:92,2465
DA:94,2465
DA:95,2465
DA:96,2465
DA:97,4930
DA:98,2465
DA:101,1563
DA:103,1563
DA:104,1563
DA:105,1563
DA:106,1563
DA:107,1563
DA:108,3126
DA:109,1563
DA:112,133
DA:114,133
DA:118,1561
DA:120,1561
DA:124,827
DA:126,827
DA:130,163
DA:132,163
DA:136,167
DA:138,167
DA:142,47
DA:144,47
DA:148,134
DA:150,134
DA:154,88
DA:156,88
DA:160,0
DA:162,0
DA:163,0
DA:164,0
DA:165,0
DA:166,0
DA:167,0
DA:168,0
DA:172,85
DA:174,85
DA:175,85
DA:176,35
DA:177,50
DA:178,50
DA:179,0
DA:180,0
DA:184,86687
DA:186,86687
DA:187,86687
DA:188,86687
DA:192,86686
DA:195,7349
DA:197,7349
DA:201,66061
DA:203,66061
DA:207,469895
DA:209,469895
DA:213,2522
DA:215,8285
DA:217,5763
DA:218,3241
DA:219,5763
DA:221,2522
LF:89
LH:76
end_of_record
TN:
SF:/home/runner/work/neml2/neml2/src/neml2/base/MultiEnumSelection.cxx
FN:32,44,_ZN5neml2lsERSoRKNS_18MultiEnumSelectionE
FN:47,51,_ZN5neml2rsERSt18basic_stringstreamIcSt11char_traitsIcESaIcEERNS_18MultiEnumSelectionE
FN:53,58,_ZN5neml218MultiEnumSelectionC2ERKSt6vectorISsSaISsEES5_
FN:60,66,_ZN5neml218MultiEnumSelectionC2ERKSt6vectorISsSaISsEERKS1_IiSaIiEES5_
FN:69,73,_ZNK5neml218MultiEnumSelectioneqERKS0_
FN:76,79,_ZNK5neml218MultiEnumSelectionneERKS0_
FN:82,94,_ZN5neml218MultiEnumSelection6selectERKSt6vectorISsSaISsEE
FNDA:1,_ZN5neml2lsERSoRKNS_18MultiEnumSelectionE
FNDA:26,_ZN5neml2rsERSt18basic_stringstreamIcSt11char_traitsIcESaIcEERNS_18MultiEnumSelectionE
FNDA:3,_ZN5neml218MultiEnumSelectionC2ERKSt6vectorISsSaISsEES5_
FNDA:17,_ZN5neml218MultiEnumSelectionC2ERKSt6vectorISsSaISsEERKS1_IiSaIiEES5_
FNDA:4,_ZNK5neml218MultiEnumSelectioneqERKS0_
FNDA:3,_ZNK5neml218MultiEnumSelectionneERKS0_
FNDA:46,_ZN5neml218MultiEnumSelection6selectERKSt6vectorISsSaISsEE
FNF:7
FNH:7
DA:32,1
DA:34,1
DA:35,1
DA:36,3
DA:38,2
DA:39,2
DA:40,1
DA:42,1
DA:43,1
DA:44,1
DA:47,26
DA:49,28
DA:50,25
DA:53,3
DA:54,3
DA:55,3
DA:57,3
DA:58,5
DA:60,17
DA:62,17
DA:63,17
DA:65,17
DA:66,19
DA:69,4
DA:71,5
DA:72,5
DA:76,3
DA:78,3
DA:82,46
DA:84,46
DA:85,46
DA:86,123
DA:88,80
DA:90,163
DA:91,77
DA:92,77
DA:94,43
LF:37
LH:37
end_of_record
TN:
SF:/home/runner/work/neml2/neml2/src/neml2/base/NEML2Object.cxx
FN:30,36,_ZN5neml211NEML2Object16expected_optionsEv
FN:38,42,_ZN5neml211NEML2ObjectC2ERKNS_9OptionSetE
FNDA:862,_ZN5neml211NEML2Object16expected_optionsEv
FNDA:1359,_ZN5neml211NEML2ObjectC2ERKNS_9OptionSetE
FNF:2
FNH:2
DA:30,862
DA:32,862
DA:33,1724
DA:34,862
DA:35,862
DA:36,0
DA:38,1359
DA:39,1359
DA:40,2718
DA:42,1359
LF:10
LH:9
end_of_record
TN:
SF:/home/runner/work/neml2/neml2/src/neml2/base/Option.cxx
FN:149,152,_ZN5neml27details13_print_helperIcEEvRSoPKT_
FN:156,159,_ZN5neml27details13_print_helperIhEEvRSoPKT_
FN:163,167,_ZN5neml27details13_print_helperIbEEvRSoPKSt6vectorIT_SaIS4_EE
FN:38,43,_ZN5neml26OptionIN3c1011SmallVectorIlLj8EEEEC2ERKSs
FN:38,43,_ZN5neml26OptionINS_10TensorNameIN2at6TensorEEEEC2ERKSs
FN:38,43,_ZN5neml26OptionINS_10TensorNameINS_10QuaternionEEEEC2ERKSs
FN:38,43,_ZN5neml26OptionINS_10TensorNameINS_11MillerIndexEEEEC2ERKSs
FN:38,43,_ZN5neml26OptionINS_10TensorNameINS_2R2EEEEC2ERKSs
FN:38,43,_ZN5neml26OptionINS_10TensorNameINS_2R3EEEEC2ERKSs
FN:38,43,_ZN5neml26OptionINS_10TensorNameINS_2R4EEEEC2ERKSs
FN:38,43,_ZN5neml26OptionINS_10TensorNameINS_2R5EEEEC2ERKSs
FN:38,43,_ZN5neml26OptionINS_10TensorNameINS_2R8EEEEC2ERKSs
FN:38,43,_ZN5neml26OptionINS_10TensorNameINS_3RotEEEEC2ERKSs
FN:38,43,_ZN5neml26OptionINS_10TensorNameINS_3SR2EEEEC2ERKSs
FN:38,43,_ZN5neml26OptionINS_10TensorNameINS_3VecEEEEC2ERKSs
FN:38,43,_ZN5neml26OptionINS_10TensorNameINS_3WR2EEEEC2ERKSs
FN:38,43,_ZN5neml26OptionINS_10TensorNameINS_4SFR3EEEEC2ERKSs
FN:38,43,_ZN5neml26OptionINS_10TensorNameINS_4SFR4EEEEC2ERKSs
FN:38,43,_ZN5neml26OptionINS_10TensorNameINS_4SSR4EEEEC2ERKSs
FN:38,43,_ZN5neml26OptionINS_10TensorNameINS_4SWR4EEEEC2ERKSs
FN:38,43,_ZN5neml26OptionINS_10TensorNameINS_4WFR4EEEEC2ERKSs
FN:38,43,_ZN5neml26OptionINS_10TensorNameINS_4WSR4EEEEC2ERKSs
FN:38,43,_ZN5neml26OptionINS_10TensorNameINS_4WWR4EEEEC2ERKSs
FN:38,43,_ZN5neml26OptionINS_10TensorNameINS_5SFFR4EEEEC2ERKSs
FN:38,43,_ZN5neml26OptionINS_10TensorNameINS_5SSFR5EEEEC2ERKSs
FN:38,43,_ZN5neml26OptionINS_10TensorNameINS_6SSSSR8EEEEC2ERKSs
FN:38,43,_ZN5neml26OptionINS_10TensorNameINS_6ScalarEEEEC2ERKSs
FN:38,43,_ZN5neml26OptionINS_10TensorNameINS_6TensorEEEEC2ERKSs
FN:38,43,_ZN5neml26OptionINS_13EnumSelectionEEC2ERKSs
FN:38,43,_ZN5neml26OptionINS_18MultiEnumSelectionEEC2ERKSs
FN:38,43,_ZN5neml26OptionINS_19LabeledAxisAccessorEEC2ERKSs
FN:38,43,_ZN5neml26OptionIPNS_11NEML2ObjectEEC2ERKSs
FN:38,43,_ZN5neml26OptionISsEC2ERKSs
FN:38,43,_ZN5neml26OptionISt6vectorIN3c1011SmallVectorIlLj8EEESaIS4_EEEC2ERKSs
FN:38,43,_ZN5neml26OptionISt6vectorIN3c106DeviceESaIS3_EEEC2ERKSs
FN:38,43,_ZN5neml26OptionISt6vectorINS_10TensorNameIN2at6TensorEEESaIS5_EEEC2ERKSs
FN:38,43,_ZN5neml26OptionISt6vectorINS_10TensorNameINS_10QuaternionEEESaIS4_EEEC2ERKSs
FN:38,43,_ZN5neml26OptionISt6vectorINS_10TensorNameINS_11MillerIndexEEESaIS4_EEEC2ERKSs
FN:38,43,_ZN5neml26OptionISt6vectorINS_10TensorNameINS_2R2EEESaIS4_EEEC2ERKSs
FN:38,43,_ZN5neml26OptionISt6vectorINS_10TensorNameINS_2R3EEESaIS4_EEEC2ERKSs
FN:38,43,_ZN5neml26OptionISt6vectorINS_10TensorNameINS_2R4EEESaIS4_EEEC2ERKSs
FN:38,43,_ZN5neml26OptionISt6vectorINS_10TensorNameINS_2R5EEESaIS4_EEEC2ERKSs
FN:38,43,_ZN5neml26OptionISt6vectorINS_10TensorNameINS_2R8EEESaIS4_EEEC2ERKSs
FN:38,43,_ZN5neml26OptionISt6vectorINS_10TensorNameINS_3RotEEESaIS4_EEEC2ERKSs
FN:38,43,_ZN5neml26OptionISt6vectorINS_10TensorNameINS_3SR2EEESaIS4_EEEC2ERKSs
FN:38,43,_ZN5neml26OptionISt6vectorINS_10TensorNameINS_3VecEEESaIS4_EEEC2ERKSs
FN:38,43,_ZN5neml26OptionISt6vectorINS_10TensorNameINS_3WR2EEESaIS4_EEEC2ERKSs
FN:38,43,_ZN5neml26OptionISt6vectorINS_10TensorNameINS_4SFR3EEESaIS4_EEEC2ERKSs
FN:38,43,_ZN5neml26OptionISt6vectorINS_10TensorNameINS_4SFR4EEESaIS4_EEEC2ERKSs
FN:38,43,_ZN5neml26OptionISt6vectorINS_10TensorNameINS_4SSR4EEESaIS4_EEEC2ERKSs
FN:38,43,_ZN5neml26OptionISt6vectorINS_10TensorNameINS_4SWR4EEESaIS4_EEEC2ERKSs
FN:38,43,_ZN5neml26OptionISt6vectorINS_10TensorNameINS_4WFR4EEESaIS4_EEEC2ERKSs
FN:38,43,_ZN5neml26OptionISt6vectorINS_10TensorNameINS_4WSR4EEESaIS4_EEEC2ERKSs
FN:38,43,_ZN5neml26OptionISt6vectorINS_10TensorNameINS_4WWR4EEESaIS4_EEEC2ERKSs
FN:38,43,_ZN5neml26OptionISt6vectorINS_10TensorNameINS_5SFFR4EEESaIS4_EEEC2ERKSs
FN:38,43,_ZN5neml26OptionISt6vectorINS_10TensorNameINS_5SSFR5EEESaIS4_EEEC2ERKSs
FN:38,43,_ZN5neml26OptionISt6vectorINS_10TensorNameINS_6SSSSR8EEESaIS4_EEEC2ERKSs
FN:38,43,_ZN5neml26OptionISt6vectorINS_10TensorNameINS_6ScalarEEESaIS4_EEEC2ERKSs
FN:38,43,_ZN5neml26OptionISt6vectorINS_10TensorNameINS_6TensorEEESaIS4_EEEC2ERKSs
FN:38,43,_ZN5neml26OptionISt6vectorINS_19LabeledAxisAccessorESaIS2_EEEC2ERKSs
FN:38,43,_ZN5neml26OptionISt6vectorIS1_IN3c1011SmallVectorIlLj8EEESaIS4_EESaIS6_EEEC2ERKSs
FN:38,43,_ZN5neml26OptionISt6vectorIS1_IN3c106DeviceESaIS3_EESaIS5_EEEC2ERKSs
FN:38,43,_ZN5neml26OptionISt6vectorIS1_INS_10TensorNameIN2at6TensorEEESaIS5_EESaIS7_EEEC2ERKSs
FN:38,43,_ZN5neml26OptionISt6vectorIS1_INS_10TensorNameINS_10QuaternionEEESaIS4_EESaIS6_EEEC2ERKSs
FN:38,43,_ZN5neml26OptionISt6vectorIS1_INS_10TensorNameINS_11MillerIndexEEESaIS4_EESaIS6_EEEC2ERKSs
FN:38,43,_ZN5neml26OptionISt6vectorIS1_INS_10TensorNameINS_2R2EEESaIS4_EESaIS6_EEEC2ERKSs
FN:38,43,_ZN5neml26OptionISt6vectorIS1_INS_10TensorNameINS_2R3EEESaIS4_EESaIS6_EEEC2ERKSs
FN:38,43,_ZN5neml26OptionISt6vectorIS1_INS_10TensorNameINS_2R4EEESaIS4_EESaIS6_EEEC2ERKSs
FN:38,43,_ZN5neml26OptionISt6vectorIS1_INS_10TensorNameINS_2R5EEESaIS4_EESaIS6_EEEC2ERKSs
FN:38,43,_ZN5neml26OptionISt6vectorIS1_INS_10TensorNameINS_2R8EEESaIS4_EESaIS6_EEEC2ERKSs
FN:38,43,_ZN5neml26OptionISt6vectorIS1_INS_10TensorNameINS_3RotEEESaIS4_EESaIS6_EEEC2ERKSs
FN:38,43,_ZN5neml26OptionISt6vectorIS1_INS_10TensorNameINS_3SR2EEESaIS4_EESaIS6_EEEC2ERKSs
FN:38,43,_ZN5neml26OptionISt6vectorIS1_INS_10TensorNameINS_3VecEEESaIS4_EESaIS6_EEEC2ERKSs
FN:38,43,_ZN5neml26OptionISt6vectorIS1_INS_10TensorNameINS_3WR2EEESaIS4_EESaIS6_EEEC2ERKSs
FN:38,43,_ZN5neml26OptionISt6vectorIS1_INS_10TensorNameINS_4SFR3EEESaIS4_EESaIS6_EEEC2ERKSs
FN:38,43,_ZN5neml26OptionISt6vectorIS1_INS_10TensorNameINS_4SFR4EEESaIS4_EESaIS6_EEEC2ERKSs
FN:38,43,_ZN5neml26OptionISt6vectorIS1_INS_10TensorNameINS_4SSR4EEESaIS4_EESaIS6_EEEC2ERKSs
FN:38,43,_ZN5neml26OptionISt6vectorIS1_INS_10TensorNameINS_4SWR4EEESaIS4_EESaIS6_EEEC2ERKSs
FN:38,43,_ZN5neml26OptionISt6vectorIS1_INS_10TensorNameINS_4WFR4EEESaIS4_EESaIS6_EEEC2ERKSs
FN:38,43,_ZN5neml26OptionISt6vectorIS1_INS_10TensorNameINS_4WSR4EEESaIS4_EESaIS6_EEEC2ERKSs
FN:38,43,_ZN5neml26OptionISt6vectorIS1_INS_10TensorNameINS_4WWR4EEESaIS4_EESaIS6_EEEC2ERKSs
FN:38,43,_ZN5neml26OptionISt6vectorIS1_INS_10TensorNameINS_5SFFR4EEESaIS4_EESaIS6_EEEC2ERKSs
FN:38,43,_ZN5neml26OptionISt6vectorIS1_INS_10TensorNameINS_5SSFR5EEESaIS4_EESaIS6_EEEC2ERKSs
FN:38,43,_ZN5neml26OptionISt6vectorIS1_INS_10TensorNameINS_6SSSSR8EEESaIS4_EESaIS6_EEEC2ERKSs
FN:38,43,_ZN5neml26OptionISt6vectorIS1_INS_10TensorNameINS_6ScalarEEESaIS4_EESaIS6_EEEC2ERKSs
FN:38,43,_ZN5neml26OptionISt6vectorIS1_INS_10TensorNameINS_6TensorEEESaIS4_EESaIS6_EEEC2ERKSs
FN:38,43,_ZN5neml26OptionISt6vectorIS1_INS_19LabeledAxisAccessorESaIS2_EESaIS4_EEEC2ERKSs
FN:38,43,_ZN5neml26OptionISt6vectorIS1_ISsSaISsEESaIS3_EEEC2ERKSs
FN:38,43,_ZN5neml26OptionISt6vectorIS1_IbSaIbEESaIS3_EEEC2ERKSs
FN:38,43,_ZN5neml26OptionISt6vectorIS1_IdSaIdEESaIS3_EEEC2ERKSs
FN:38,43,_ZN5neml26OptionISt6vectorIS1_IiSaIiEESaIS3_EEEC2ERKSs
FN:38,43,_ZN5neml26OptionISt6vectorIS1_IjSaIjEESaIS3_EEEC2ERKSs
FN:38,43,_ZN5neml26OptionISt6vectorIS1_IlSaIlEESaIS3_EEEC2ERKSs
FN:38,43,_ZN5neml26OptionISt6vectorIS1_ImSaImEESaIS3_EEEC2ERKSs
FN:38,43,_ZN5neml26OptionISt6vectorISsSaISsEEEC2ERKSs
FN:38,43,_ZN5neml26OptionISt6vectorIbSaIbEEEC2ERKSs
FN:38,43,_ZN5neml26OptionISt6vectorIdSaIdEEEC2ERKSs
FN:38,43,_ZN5neml26OptionISt6vectorIiSaIiEEEC2ERKSs
FN:38,43,_ZN5neml26OptionISt6vectorIjSaIjEEEC2ERKSs
FN:38,43,_ZN5neml26OptionISt6vectorIlSaIlEEEC2ERKSs
FN:38,43,_ZN5neml26OptionISt6vectorImSaImEEEC2ERKSs
FN:38,43,_ZN5neml26OptionIbEC2ERKSs
FN:38,43,_ZN5neml26OptionIdEC2ERKSs
FN:38,43,_ZN5neml26OptionIiEC2ERKSs
FN:38,43,_ZN5neml26OptionIjEC2ERKSs
FN:38,43,_ZN5neml26OptionIlEC2ERKSs
FN:38,43,_ZN5neml26OptionImEC2ERKSs
FN:46,51,_ZN5neml26OptionIN3c106DeviceEEC2ERKSs
FN:55,62,_ZNK5neml26OptionIN3c1011SmallVectorIlLj8EEEEeqERKNS_10OptionBaseE
FN:55,62,_ZNK5neml26OptionIN3c106DeviceEEeqERKNS_10OptionBaseE
FN:55,62,_ZNK5neml26OptionINS_10TensorNameIN2at6TensorEEEEeqERKNS_10OptionBaseE
FN:55,62,_ZNK5neml26OptionINS_10TensorNameINS_10QuaternionEEEEeqERKNS_10OptionBaseE
FN:55,62,_ZNK5neml26OptionINS_10TensorNameINS_11MillerIndexEEEEeqERKNS_10OptionBaseE
FN:55,62,_ZNK5neml26OptionINS_10TensorNameINS_2R2EEEEeqERKNS_10OptionBaseE
FN:55,62,_ZNK5neml26OptionINS_10TensorNameINS_2R3EEEEeqERKNS_10OptionBaseE
FN:55,62,_ZNK5neml26OptionINS_10TensorNameINS_2R4EEEEeqERKNS_10OptionBaseE
FN:55,62,_ZNK5neml26OptionINS_10TensorNameINS_2R5EEEEeqERKNS_10OptionBaseE
FN:55,62,_ZNK5neml26OptionINS_10TensorNameINS_2R8EEEEeqERKNS_10OptionBaseE
FN:55,62,_ZNK5neml26OptionINS_10TensorNameINS_3RotEEEEeqERKNS_10OptionBaseE
FN:55,62,_ZNK5neml26OptionINS_10TensorNameINS_3SR2EEEEeqERKNS_10OptionBaseE
FN:55,62,_ZNK5neml26OptionINS_10TensorNameINS_3VecEEEEeqERKNS_10OptionBaseE
FN:55,62,_ZNK5neml26OptionINS_10TensorNameINS_3WR2EEEEeqERKNS_10OptionBaseE
FN:55,62,_ZNK5neml26OptionINS_10TensorNameINS_4SFR3EEEEeqERKNS_10OptionBaseE
FN:55,62,_ZNK5neml26OptionINS_10TensorNameINS_4SFR4EEEEeqERKNS_10OptionBaseE
FN:55,62,_ZNK5neml26OptionINS_10TensorNameINS_4SSR4EEEEeqERKNS_10OptionBaseE
FN:55,62,_ZNK5neml26OptionINS_10TensorNameINS_4SWR4EEEEeqERKNS_10OptionBaseE
FN:55,62,_ZNK5neml26OptionINS_10TensorNameINS_4WFR4EEEEeqERKNS_10OptionBaseE
FN:55,62,_ZNK5neml26OptionINS_10TensorNameINS_4WSR4EEEEeqERKNS_10OptionBaseE
FN:55,62,_ZNK5neml26OptionINS_10TensorNameINS_4WWR4EEEEeqERKNS_10OptionBaseE
FN:55,62,_ZNK5neml26OptionINS_10TensorNameINS_5SFFR4EEEEeqERKNS_10OptionBaseE
FN:55,62,_ZNK5neml26OptionINS_10TensorNameINS_5SSFR5EEEEeqERKNS_10OptionBaseE
FN:55,62,_ZNK5neml26OptionINS_10TensorNameINS_6SSSSR8EEEEeqERKNS_10OptionBaseE
FN:55,62,_ZNK5neml26OptionINS_10TensorNameINS_6ScalarEEEEeqERKNS_10OptionBaseE
FN:55,62,_ZNK5neml26OptionINS_10TensorNameINS_6TensorEEEEeqERKNS_10OptionBaseE
FN:55,62,_ZNK5neml26OptionINS_13EnumSelectionEEeqERKNS_10OptionBaseE
FN:55,62,_ZNK5neml26OptionINS_18MultiEnumSelectionEEeqERKNS_10OptionBaseE
FN:55,62,_ZNK5neml26OptionINS_19LabeledAxisAccessorEEeqERKNS_10OptionBaseE
FN:55,62,_ZNK5neml26OptionIPNS_11NEML2ObjectEEeqERKNS_10OptionBaseE
FN:55,62,_ZNK5neml26OptionISsEeqERKNS_10OptionBaseE
FN:55,62,_ZNK5neml26OptionISt6vectorIN3c1011SmallVectorIlLj8EEESaIS4_EEEeqERKNS_10OptionBaseE
FN:55,62,_ZNK5neml26OptionISt6vectorIN3c106DeviceESaIS3_EEEeqERKNS_10OptionBaseE
FN:55,62,_ZNK5neml26OptionISt6vectorINS_10TensorNameIN2at6TensorEEESaIS5_EEEeqERKNS_10OptionBaseE
FN:55,62,_ZNK5neml26OptionISt6vectorINS_10TensorNameINS_10QuaternionEEESaIS4_EEEeqERKNS_10OptionBaseE
FN:55,62,_ZNK5neml26OptionISt6vectorINS_10TensorNameINS_11MillerIndexEEESaIS4_EEEeqERKNS_10OptionBaseE
FN:55,62,_ZNK5neml26OptionISt6vectorINS_10TensorNameINS_2R2EEESaIS4_EEEeqERKNS_10OptionBaseE
FN:55,62,_ZNK5neml26OptionISt6vectorINS_10TensorNameINS_2R3EEESaIS4_EEEeqERKNS_10OptionBaseE
FN:55,62,_ZNK5neml26OptionISt6vectorINS_10TensorNameINS_2R4EEESaIS4_EEEeqERKNS_10OptionBaseE
FN:55,62,_ZNK5neml26OptionISt6vectorINS_10TensorNameINS_2R5EEESaIS4_EEEeqERKNS_10OptionBaseE
FN:55,62,_ZNK5neml26OptionISt6vectorINS_10TensorNameINS_2R8EEESaIS4_EEEeqERKNS_10OptionBaseE
FN:55,62,_ZNK5neml26OptionISt6vectorINS_10TensorNameINS_3RotEEESaIS4_EEEeqERKNS_10OptionBaseE
FN:55,62,_ZNK5neml26OptionISt6vectorINS_10TensorNameINS_3SR2EEESaIS4_EEEeqERKNS_10OptionBaseE
FN:55,62,_ZNK5neml26OptionISt6vectorINS_10TensorNameINS_3VecEEESaIS4_EEEeqERKNS_10OptionBaseE
FN:55,62,_ZNK5neml26OptionISt6vectorINS_10TensorNameINS_3WR2EEESaIS4_EEEeqERKNS_10OptionBaseE
FN:55,62,_ZNK5neml26OptionISt6vectorINS_10TensorNameINS_4SFR3EEESaIS4_EEEeqERKNS_10OptionBaseE
FN:55,62,_ZNK5neml26OptionISt6vectorINS_10TensorNameINS_4SFR4EEESaIS4_EEEeqERKNS_10OptionBaseE
FN:55,62,_ZNK5neml26OptionISt6vectorINS_10TensorNameINS_4SSR4EEESaIS4_EEEeqERKNS_10OptionBaseE
FN:55,62,_ZNK5neml26OptionISt6vectorINS_10TensorNameINS_4SWR4EEESaIS4_EEEeqERKNS_10OptionBaseE
FN:55,62,_ZNK5neml26OptionISt6vectorINS_10TensorNameINS_4WFR4EEESaIS4_EEEeqERKNS_10OptionBaseE
FN:55,62,_ZNK5neml26OptionISt6vectorINS_10TensorNameINS_4WSR4EEESaIS4_EEEeqERKNS_10OptionBaseE
FN:55,62,_ZNK5neml26OptionISt6vectorINS_10TensorNameINS_4WWR4EEESaIS4_EEEeqERKNS_10OptionBaseE
FN:55,62,_ZNK5neml26OptionISt6vectorINS_10TensorNameINS_5SFFR4EEESaIS4_EEEeqERKNS_10OptionBaseE
FN:55,62,_ZNK5neml26OptionISt6vectorINS_10TensorNameINS_5SSFR5EEESaIS4_EEEeqERKNS_10OptionBaseE
FN:55,62,_ZNK5neml26OptionISt6vectorINS_10TensorNameINS_6SSSSR8EEESaIS4_EEEeqERKNS_10OptionBaseE
FN:55,62,_ZNK5neml26OptionISt6vectorINS_10TensorNameINS_6ScalarEEESaIS4_EEEeqERKNS_10OptionBaseE
FN:55,62,_ZNK5neml26OptionISt6vectorINS_10TensorNameINS_6TensorEEESaIS4_EEEeqERKNS_10OptionBaseE
FN:55,62,_ZNK5neml26OptionISt6vectorINS_19LabeledAxisAccessorESaIS2_EEEeqERKNS_10OptionBaseE
FN:55,62,_ZNK5neml26OptionISt6vectorIS1_IN3c1011SmallVectorIlLj8EEESaIS4_EESaIS6_EEEeqERKNS_10OptionBaseE
FN:55,62,_ZNK5neml26OptionISt6vectorIS1_IN3c106DeviceESaIS3_EESaIS5_EEEeqERKNS_10OptionBaseE
FN:55,62,_ZNK5neml26OptionISt6vectorIS1_INS_10TensorNameIN2at6TensorEEESaIS5_EESaIS7_EEEeqERKNS_10OptionBaseE
FN:55,62,_ZNK5neml26OptionISt6vectorIS1_INS_10TensorNameINS_10QuaternionEEESaIS4_EESaIS6_EEEeqERKNS_10OptionBaseE
FN:55,62,_ZNK5neml26OptionISt6vectorIS1_INS_10TensorNameINS_11MillerIndexEEESaIS4_EESaIS6_EEEeqERKNS_10OptionBaseE
FN:55,62,_ZNK5neml26OptionISt6vectorIS1_INS_10TensorNameINS_2R2EEESaIS4_EESaIS6_EEEeqERKNS_10OptionBaseE
FN:55,62,_ZNK5neml26OptionISt6vectorIS1_INS_10TensorNameINS_2R3EEESaIS4_EESaIS6_EEEeqERKNS_10OptionBaseE
FN:55,62,_ZNK5neml26OptionISt6vectorIS1_INS_10TensorNameINS_2R4EEESaIS4_EESaIS6_EEEeqERKNS_10OptionBaseE
FN:55,62,_ZNK5neml26OptionISt6vectorIS1_INS_10TensorNameINS_2R5EEESaIS4_EESaIS6_EEEeqERKNS_10OptionBaseE
FN:55,62,_ZNK5neml26OptionISt6vectorIS1_INS_10TensorNameINS_2R8EEESaIS4_EESaIS6_EEEeqERKNS_10OptionBaseE
FN:55,62,_ZNK5neml26OptionISt6vectorIS1_INS_10TensorNameINS_3RotEEESaIS4_EESaIS6_EEEeqERKNS_10OptionBaseE
FN:55,62,_ZNK5neml26OptionISt6vectorIS1_INS_10TensorNameINS_3SR2EEESaIS4_EESaIS6_EEEeqERKNS_10OptionBaseE
FN:55,62,_ZNK5neml26OptionISt6vectorIS1_INS_10TensorNameINS_3VecEEESaIS4_EESaIS6_EEEeqERKNS_10OptionBaseE
FN:55,62,_ZNK5neml26OptionISt6vectorIS1_INS_10TensorNameINS_3WR2EEESaIS4_EESaIS6_EEEeqERKNS_10OptionBaseE
FN:55,62,_ZNK5neml26OptionISt6vectorIS1_INS_10TensorNameINS_4SFR3EEESaIS4_EESaIS6_EEEeqERKNS_10OptionBaseE
FN:55,62,_ZNK5neml26OptionISt6vectorIS1_INS_10TensorNameINS_4SFR4EEESaIS4_EESaIS6_EEEeqERKNS_10OptionBaseE
FN:55,62,_ZNK5neml26OptionISt6vectorIS1_INS_10TensorNameINS_4SSR4EEESaIS4_EESaIS6_EEEeqERKNS_10OptionBaseE
FN:55,62,_ZNK5neml26OptionISt6vectorIS1_INS_10TensorNameINS_4SWR4EEESaIS4_EESaIS6_EEEeqERKNS_10OptionBaseE
FN:55,62,_ZNK5neml26OptionISt6vectorIS1_INS_10TensorNameINS_4WFR4EEESaIS4_EESaIS6_EEEeqERKNS_10OptionBaseE
FN:55,62,_ZNK5neml26OptionISt6vectorIS1_INS_10TensorNameINS_4WSR4EEESaIS4_EESaIS6_EEEeqERKNS_10OptionBaseE
FN:55,62,_ZNK5neml26OptionISt6vectorIS1_INS_10TensorNameINS_4WWR4EEESaIS4_EESaIS6_EEEeqERKNS_10OptionBaseE
FN:55,62,_ZNK5neml26OptionISt6vectorIS1_INS_10TensorNameINS_5SFFR4EEESaIS4_EESaIS6_EEEeqERKNS_10OptionBaseE
FN:55,62,_ZNK5neml26OptionISt6vectorIS1_INS_10TensorNameINS_5SSFR5EEESaIS4_EESaIS6_EEEeqERKNS_10OptionBaseE
FN:55,62,_ZNK5neml26OptionISt6vectorIS1_INS_10TensorNameINS_6SSSSR8EEESaIS4_EESaIS6_EEEeqERKNS_10OptionBaseE
FN:55,62,_ZNK5neml26OptionISt6vectorIS1_INS_10TensorNameINS_6ScalarEEESaIS4_EESaIS6_EEEeqERKNS_10OptionBaseE
FN:55,62,_ZNK5neml26OptionISt6vectorIS1_INS_10TensorNameINS_6TensorEEESaIS4_EESaIS6_EEEeqERKNS_10OptionBaseE
FN:55,62,_ZNK5neml26OptionISt6vectorIS1_INS_19LabeledAxisAccessorESaIS2_EESaIS4_EEEeqERKNS_10OptionBaseE
FN:55,62,_ZNK5neml26OptionISt6vectorIS1_ISsSaISsEESaIS3_EEEeqERKNS_10OptionBaseE
FN:55,62,_ZNK5neml26OptionISt6vectorIS1_IbSaIbEESaIS3_EEEeqERKNS_10OptionBaseE
FN:55,62,_ZNK5neml26OptionISt6vectorIS1_IdSaIdEESaIS3_EEEeqERKNS_10OptionBaseE
FN:55,62,_ZNK5neml26OptionISt6vectorIS1_IiSaIiEESaIS3_EEEeqERKNS_10OptionBaseE
FN:55,62,_ZNK5neml26OptionISt6vectorIS1_IjSaIjEESaIS3_EEEeqERKNS_10OptionBaseE
FN:55,62,_ZNK5neml26OptionISt6vectorIS1_IlSaIlEESaIS3_EEEeqERKNS_10OptionBaseE
FN:55,62,_ZNK5neml26OptionISt6vectorIS1_ImSaImEESaIS3_EEEeqERKNS_10OptionBaseE
FN:55,62,_ZNK5neml26OptionISt6vectorISsSaISsEEEeqERKNS_10OptionBaseE
FN:55,62,_ZNK5neml26OptionISt6vectorIbSaIbEEEeqERKNS_10OptionBaseE
FN:55,62,_ZNK5neml26OptionISt6vectorIdSaIdEEEeqERKNS_10OptionBaseE
FN:55,62,_ZNK5neml26OptionISt6vectorIiSaIiEEEeqERKNS_10OptionBaseE
FN:55,62,_ZNK5neml26OptionISt6vectorIjSaIjEEEeqERKNS_10OptionBaseE
FN:55,62,_ZNK5neml26OptionISt6vectorIlSaIlEEEeqERKNS_10OptionBaseE
FN:55,62,_ZNK5neml26OptionISt6vectorImSaImEEEeqERKNS_10OptionBaseE
FN:55,62,_ZNK5neml26OptionIbEeqERKNS_10OptionBaseE
FN:55,62,_ZNK5neml26OptionIdEeqERKNS_10OptionBaseE
FN:55,62,_ZNK5neml26OptionIiEeqERKNS_10OptionBaseE
FN:55,62,_ZNK5neml26OptionIjEeqERKNS_10OptionBaseE
FN:55,62,_ZNK5neml26OptionIlEeqERKNS_10OptionBaseE
FN:55,62,_ZNK5neml26OptionImEeqERKNS_10OptionBaseE
FN:66,69,_ZNK5neml26OptionIN3c1011SmallVectorIlLj8EEEEneERKNS_10OptionBaseE
FN:66,69,_ZNK5neml26OptionIN3c106DeviceEEneERKNS_10OptionBaseE
FN:66,69,_ZNK5neml26OptionINS_10TensorNameIN2at6TensorEEEEneERKNS_10OptionBaseE
FN:66,69,_ZNK5neml26OptionINS_10TensorNameINS_10QuaternionEEEEneERKNS_10OptionBaseE
FN:66,69,_ZNK5neml26OptionINS_10TensorNameINS_11MillerIndexEEEEneERKNS_10OptionBaseE
FN:66,69,_ZNK5neml26OptionINS_10TensorNameINS_2R2EEEEneERKNS_10OptionBaseE
FN:66,69,_ZNK5neml26OptionINS_10TensorNameINS_2R3EEEEneERKNS_10OptionBaseE
FN:66,69,_ZNK5neml26OptionINS_10TensorNameINS_2R4EEEEneERKNS_10OptionBaseE
FN:66,69,_ZNK5neml26OptionINS_10TensorNameINS_2R5EEEEneERKNS_10OptionBaseE
FN:66,69,_ZNK5neml26OptionINS_10TensorNameINS_2R8EEEEneERKNS_10OptionBaseE
FN:66,69,_ZNK5neml26OptionINS_10TensorNameINS_3RotEEEEneERKNS_10OptionBaseE
FN:66,69,_ZNK5neml26OptionINS_10TensorNameINS_3SR2EEEEneERKNS_10OptionBaseE
FN:66,69,_ZNK5neml26OptionINS_10TensorNameINS_3VecEEEEneERKNS_10OptionBaseE
FN:66,69,_ZNK5neml26OptionINS_10TensorNameINS_3WR2EEEEneERKNS_10OptionBaseE
FN:66,69,_ZNK5neml26OptionINS_10TensorNameINS_4SFR3EEEEneERKNS_10OptionBaseE
FN:66,69,_ZNK5neml26OptionINS_10TensorNameINS_4SFR4EEEEneERKNS_10OptionBaseE
FN:66,69,_ZNK5neml26OptionINS_10TensorNameINS_4SSR4EEEEneERKNS_10OptionBaseE
FN:66,69,_ZNK5neml26OptionINS_10TensorNameINS_4SWR4EEEEneERKNS_10OptionBaseE
FN:66,69,_ZNK5neml26OptionINS_10TensorNameINS_4WFR4EEEEneERKNS_10OptionBaseE
FN:66,69,_ZNK5neml26OptionINS_10TensorNameINS_4WSR4EEEEneERKNS_10OptionBaseE
FN:66,69,_ZNK5neml26OptionINS_10TensorNameINS_4WWR4EEEEneERKNS_10OptionBaseE
FN:66,69,_ZNK5neml26OptionINS_10TensorNameINS_5SFFR4EEEEneERKNS_10OptionBaseE
FN:66,69,_ZNK5neml26OptionINS_10TensorNameINS_5SSFR5EEEEneERKNS_10OptionBaseE
FN:66,69,_ZNK5neml26OptionINS_10TensorNameINS_6SSSSR8EEEEneERKNS_10OptionBaseE
FN:66,69,_ZNK5neml26OptionINS_10TensorNameINS_6ScalarEEEEneERKNS_10OptionBaseE
FN:66,69,_ZNK5neml26OptionINS_10TensorNameINS_6TensorEEEEneERKNS_10OptionBaseE
FN:66,69,_ZNK5neml26OptionINS_13EnumSelectionEEneERKNS_10OptionBaseE
FN:66,69,_ZNK5neml26OptionINS_18MultiEnumSelectionEEneERKNS_10OptionBaseE
FN:66,69,_ZNK5neml26OptionINS_19LabeledAxisAccessorEEneERKNS_10OptionBaseE
FN:66,69,_ZNK5neml26OptionIPNS_11NEML2ObjectEEneERKNS_10OptionBaseE
FN:66,69,_ZNK5neml26OptionISsEneERKNS_10OptionBaseE
FN:66,69,_ZNK5neml26OptionISt6vectorIN3c1011SmallVectorIlLj8EEESaIS4_EEEneERKNS_10OptionBaseE
FN:66,69,_ZNK5neml26OptionISt6vectorIN3c106DeviceESaIS3_EEEneERKNS_10OptionBaseE
FN:66,69,_ZNK5neml26OptionISt6vectorINS_10TensorNameIN2at6TensorEEESaIS5_EEEneERKNS_10OptionBaseE
FN:66,69,_ZNK5neml26OptionISt6vectorINS_10TensorNameINS_10QuaternionEEESaIS4_EEEneERKNS_10OptionBaseE
FN:66,69,_ZNK5neml26OptionISt6vectorINS_10TensorNameINS_11MillerIndexEEESaIS4_EEEneERKNS_10OptionBaseE
FN:66,69,_ZNK5neml26OptionISt6vectorINS_10TensorNameINS_2R2EEESaIS4_EEEneERKNS_10OptionBaseE
FN:66,69,_ZNK5neml26OptionISt6vectorINS_10TensorNameINS_2R3EEESaIS4_EEEneERKNS_10OptionBaseE
FN:66,69,_ZNK5neml26OptionISt6vectorINS_10TensorNameINS_2R4EEESaIS4_EEEneERKNS_10OptionBaseE
FN:66,69,_ZNK5neml26OptionISt6vectorINS_10TensorNameINS_2R5EEESaIS4_EEEneERKNS_10OptionBaseE
FN:66,69,_ZNK5neml26OptionISt6vectorINS_10TensorNameINS_2R8EEESaIS4_EEEneERKNS_10OptionBaseE
FN:66,69,_ZNK5neml26OptionISt6vectorINS_10TensorNameINS_3RotEEESaIS4_EEEneERKNS_10OptionBaseE
FN:66,69,_ZNK5neml26OptionISt6vectorINS_10TensorNameINS_3SR2EEESaIS4_EEEneERKNS_10OptionBaseE
FN:66,69,_ZNK5neml26OptionISt6vectorINS_10TensorNameINS_3VecEEESaIS4_EEEneERKNS_10OptionBaseE
FN:66,69,_ZNK5neml26OptionISt6vectorINS_10TensorNameINS_3WR2EEESaIS4_EEEneERKNS_10OptionBaseE
FN:66,69,_ZNK5neml26OptionISt6vectorINS_10TensorNameINS_4SFR3EEESaIS4_EEEneERKNS_10OptionBaseE
FN:66,69,_ZNK5neml26OptionISt6vectorINS_10TensorNameINS_4SFR4EEESaIS4_EEEneERKNS_10OptionBaseE
FN:66,69,_ZNK5neml26OptionISt6vectorINS_10TensorNameINS_4SSR4EEESaIS4_EEEneERKNS_10OptionBaseE
FN:66,69,_ZNK5neml26OptionISt6vectorINS_10TensorNameINS_4SWR4EEESaIS4_EEEneERKNS_10OptionBaseE
FN:66,69,_ZNK5neml26OptionISt6vectorINS_10TensorNameINS_4WFR4EEESaIS4_EEEneERKNS_10OptionBaseE
FN:66,69,_ZNK5neml26OptionISt6vectorINS_10TensorNameINS_4WSR4EEESaIS4_EEEneERKNS_10OptionBaseE
FN:66,69,_ZNK5neml26OptionISt6vectorINS_10TensorNameINS_4WWR4EEESaIS4_EEEneERKNS_10OptionBaseE
FN:66,69,_ZNK5neml26OptionISt6vectorINS_10TensorNameINS_5SFFR4EEESaIS4_EEEneERKNS_10OptionBaseE
FN:66,69,_ZNK5neml26OptionISt6vectorINS_10TensorNameINS_5SSFR5EEESaIS4_EEEneERKNS_10OptionBaseE
FN:66,69,_ZNK5neml26OptionISt6vectorINS_10TensorNameINS_6SSSSR8EEESaIS4_EEEneERKNS_10OptionBaseE
FN:66,69,_ZNK5neml26OptionISt6vectorINS_10TensorNameINS_6ScalarEEESaIS4_EEEneERKNS_10OptionBaseE
FN:66,69,_ZNK5neml26OptionISt6vectorINS_10TensorNameINS_6TensorEEESaIS4_EEEneERKNS_10OptionBaseE
FN:66,69,_ZNK5neml26OptionISt6vectorINS_19LabeledAxisAccessorESaIS2_EEEneERKNS_10OptionBaseE
FN:66,69,_ZNK5neml26OptionISt6vectorIS1_IN3c1011SmallVectorIlLj8EEESaIS4_EESaIS6_EEEneERKNS_10OptionBaseE
FN:66,69,_ZNK5neml26OptionISt6vectorIS1_IN3c106DeviceESaIS3_EESaIS5_EEEneERKNS_10OptionBaseE
FN:66,69,_ZNK5neml26OptionISt6vectorIS1_INS_10TensorNameIN2at6TensorEEESaIS5_EESaIS7_EEEneERKNS_10OptionBaseE
FN:66,69,_ZNK5neml26OptionISt6vectorIS1_INS_10TensorNameINS_10QuaternionEEESaIS4_EESaIS6_EEEneERKNS_10OptionBaseE
FN:66,69,_ZNK5neml26OptionISt6vectorIS1_INS_10TensorNameINS_11MillerIndexEEESaIS4_EESaIS6_EEEneERKNS_10OptionBaseE
FN:66,69,_ZNK5neml26OptionISt6vectorIS1_INS_10TensorNameINS_2R2EEESaIS4_EESaIS6_EEEneERKNS_10OptionBaseE
FN:66,69,_ZNK5neml26OptionISt6vectorIS1_INS_10TensorNameINS_2R3EEESaIS4_EESaIS6_EEEneERKNS_10OptionBaseE
FN:66,69,_ZNK5neml26OptionISt6vectorIS1_INS_10TensorNameINS_2R4EEESaIS4_EESaIS6_EEEneERKNS_10OptionBaseE
FN:66,69,_ZNK5neml26OptionISt6vectorIS1_INS_10TensorNameINS_2R5EEESaIS4_EESaIS6_EEEneERKNS_10OptionBaseE
FN:66,69,_ZNK5neml26OptionISt6vectorIS1_INS_10TensorNameINS_2R8EEESaIS4_EESaIS6_EEEneERKNS_10OptionBaseE
FN:66,69,_ZNK5neml26OptionISt6vectorIS1_INS_10TensorNameINS_3RotEEESaIS4_EESaIS6_EEEneERKNS_10OptionBaseE
FN:66,69,_ZNK5neml26OptionISt6vectorIS1_INS_10TensorNameINS_3SR2EEESaIS4_EESaIS6_EEEneERKNS_10OptionBaseE
FN:66,69,_ZNK5neml26OptionISt6vectorIS1_INS_10TensorNameINS_3VecEEESaIS4_EESaIS6_EEEneERKNS_10OptionBaseE
FN:66,69,_ZNK5neml26OptionISt6vectorIS1_INS_10TensorNameINS_3WR2EEESaIS4_EESaIS6_EEEneERKNS_10OptionBaseE
FN:66,69,_ZNK5neml26OptionISt6vectorIS1_INS_10TensorNameINS_4SFR3EEESaIS4_EESaIS6_EEEneERKNS_10OptionBaseE
FN:66,69,_ZNK5neml26OptionISt6vectorIS1_INS_10TensorNameINS_4SFR4EEESaIS4_EESaIS6_EEEneERKNS_10OptionBaseE
FN:66,69,_ZNK5neml26OptionISt6vectorIS1_INS_10TensorNameINS_4SSR4EEESaIS4_EESaIS6_EEEneERKNS_10OptionBaseE
FN:66,69,_ZNK5neml26OptionISt6vectorIS1_INS_10TensorNameINS_4SWR4EEESaIS4_EESaIS6_EEEneERKNS_10OptionBaseE
FN:66,69,_ZNK5neml26OptionISt6vectorIS1_INS_10TensorNameINS_4WFR4EEESaIS4_EESaIS6_EEEneERKNS_10OptionBaseE
FN:66,69,_ZNK5neml26OptionISt6vectorIS1_INS_10TensorNameINS_4WSR4EEESaIS4_EESaIS6_EEEneERKNS_10OptionBaseE
FN:66,69,_ZNK5neml26OptionISt6vectorIS1_INS_10TensorNameINS_4WWR4EEESaIS4_EESaIS6_EEEneERKNS_10OptionBaseE
FN:66,69,_ZNK5neml26OptionISt6vectorIS1_INS_10TensorNameINS_5SFFR4EEESaIS4_EESaIS6_EEEneERKNS_10OptionBaseE
FN:66,69,_ZNK5neml26OptionISt6vectorIS1_INS_10TensorNameINS_5SSFR5EEESaIS4_EESaIS6_EEEneERKNS_10OptionBaseE
FN:66,69,_ZNK5neml26OptionISt6vectorIS1_INS_10TensorNameINS_6SSSSR8EEESaIS4_EESaIS6_EEEneERKNS_10OptionBaseE
FN:66,69,_ZNK5neml26OptionISt6vectorIS1_INS_10TensorNameINS_6ScalarEEESaIS4_EESaIS6_EEEneERKNS_10OptionBaseE
FN:66,69,_ZNK5neml26OptionISt6vectorIS1_INS_10TensorNameINS_6TensorEEESaIS4_EESaIS6_EEEneERKNS_10OptionBaseE
FN:66,69,_ZNK5neml26OptionISt6vectorIS1_INS_19LabeledAxisAccessorESaIS2_EESaIS4_EEEneERKNS_10OptionBaseE
FN:66,69,_ZNK5neml26OptionISt6vectorIS1_ISsSaISsEESaIS3_EEEneERKNS_10OptionBaseE
FN:66,69,_ZNK5neml26OptionISt6vectorIS1_IbSaIbEESaIS3_EEEneERKNS_10OptionBaseE
FN:66,69,_ZNK5neml26OptionISt6vectorIS1_IdSaIdEESaIS3_EEEneERKNS_10OptionBaseE
FN:66,69,_ZNK5neml26OptionISt6vectorIS1_IiSaIiEESaIS3_EEEneERKNS_10OptionBaseE
FN:66,69,_ZNK5neml26OptionISt6vectorIS1_IjSaIjEESaIS3_EEEneERKNS_10OptionBaseE
FN:66,69,_ZNK5neml26OptionISt6vectorIS1_IlSaIlEESaIS3_EEEneERKNS_10OptionBaseE
FN:66,69,_ZNK5neml26OptionISt6vectorIS1_ImSaImEESaIS3_EEEneERKNS_10OptionBaseE
FN:66,69,_ZNK5neml26OptionISt6vectorISsSaISsEEEneERKNS_10OptionBaseE
FN:66,69,_ZNK5neml26OptionISt6vectorIbSaIbEEEneERKNS_10OptionBaseE
FN:66,69,_ZNK5neml26OptionISt6vectorIdSaIdEEEneERKNS_10OptionBaseE
FN:66,69,_ZNK5neml26OptionISt6vectorIiSaIiEEEneERKNS_10OptionBaseE
FN:66,69,_ZNK5neml26OptionISt6vectorIjSaIjEEEneERKNS_10OptionBaseE
FN:66,69,_ZNK5neml26OptionISt6vectorIlSaIlEEEneERKNS_10OptionBaseE
FN:66,69,_ZNK5neml26OptionISt6vectorImSaImEEEneERKNS_10OptionBaseE
FN:66,69,_ZNK5neml26OptionIbEneERKNS_10OptionBaseE
FN:66,69,_ZNK5neml26OptionIdEneERKNS_10OptionBaseE
FN:66,69,_ZNK5neml26OptionIiEneERKNS_10OptionBaseE
FN:66,69,_ZNK5neml26OptionIjEneERKNS_10OptionBaseE
FN:66,69,_ZNK5neml26OptionIlEneERKNS_10OptionBaseE
FN:66,69,_ZNK5neml26OptionImEneERKNS_10OptionBaseE
FN:82,88,_ZNK5neml26OptionIN3c1011SmallVectorIlLj8EEEE5cloneEv
FN:82,88,_ZNK5neml26OptionIN3c106DeviceEE5cloneEv
FN:82,88,_ZNK5neml26OptionINS_10TensorNameIN2at6TensorEEEE5cloneEv
FN:82,88,_ZNK5neml26OptionINS_10TensorNameINS_10QuaternionEEEE5cloneEv
FN:82,88,_ZNK5neml26OptionINS_10TensorNameINS_11MillerIndexEEEE5cloneEv
FN:82,88,_ZNK5neml26OptionINS_10TensorNameINS_2R2EEEE5cloneEv
FN:82,88,_ZNK5neml26OptionINS_10TensorNameINS_2R3EEEE5cloneEv
FN:82,88,_ZNK5neml26OptionINS_10TensorNameINS_2R4EEEE5cloneEv
FN:82,88,_ZNK5neml26OptionINS_10TensorNameINS_2R5EEEE5cloneEv
FN:82,88,_ZNK5neml26OptionINS_10TensorNameINS_2R8EEEE5cloneEv
FN:82,88,_ZNK5neml26OptionINS_10TensorNameINS_3RotEEEE5cloneEv
FN:82,88,_ZNK5neml26OptionINS_10TensorNameINS_3SR2EEEE5cloneEv
FN:82,88,_ZNK5neml26OptionINS_10TensorNameINS_3VecEEEE5cloneEv
FN:82,88,_ZNK5neml26OptionINS_10TensorNameINS_3WR2EEEE5cloneEv
FN:82,88,_ZNK5neml26OptionINS_10TensorNameINS_4SFR3EEEE5cloneEv
FN:82,88,_ZNK5neml26OptionINS_10TensorNameINS_4SFR4EEEE5cloneEv
FN:82,88,_ZNK5neml26OptionINS_10TensorNameINS_4SSR4EEEE5cloneEv
FN:82,88,_ZNK5neml26OptionINS_10TensorNameINS_4SWR4EEEE5cloneEv
FN:82,88,_ZNK5neml26OptionINS_10TensorNameINS_4WFR4EEEE5cloneEv
FN:82,88,_ZNK5neml26OptionINS_10TensorNameINS_4WSR4EEEE5cloneEv
FN:82,88,_ZNK5neml26OptionINS_10TensorNameINS_4WWR4EEEE5cloneEv
FN:82,88,_ZNK5neml26OptionINS_10TensorNameINS_5SFFR4EEEE5cloneEv
FN:82,88,_ZNK5neml26OptionINS_10TensorNameINS_5SSFR5EEEE5cloneEv
FN:82,88,_ZNK5neml26OptionINS_10TensorNameINS_6SSSSR8EEEE5cloneEv
FN:82,88,_ZNK5neml26OptionINS_10TensorNameINS_6ScalarEEEE5cloneEv
FN:82,88,_ZNK5neml26OptionINS_10TensorNameINS_6TensorEEEE5cloneEv
FN:82,88,_ZNK5neml26OptionINS_13EnumSelectionEE5cloneEv
FN:82,88,_ZNK5neml26OptionINS_18MultiEnumSelectionEE5cloneEv
FN:82,88,_ZNK5neml26OptionINS_19LabeledAxisAccessorEE5cloneEv
FN:82,88,_ZNK5neml26OptionIPNS_11NEML2ObjectEE5cloneEv
FN:82,88,_ZNK5neml26OptionISsE5cloneEv
FN:82,88,_ZNK5neml26OptionISt6vectorIN3c1011SmallVectorIlLj8EEESaIS4_EEE5cloneEv
FN:82,88,_ZNK5neml26OptionISt6vectorIN3c106DeviceESaIS3_EEE5cloneEv
FN:82,88,_ZNK5neml26OptionISt6vectorINS_10TensorNameIN2at6TensorEEESaIS5_EEE5cloneEv
FN:82,88,_ZNK5neml26OptionISt6vectorINS_10TensorNameINS_10QuaternionEEESaIS4_EEE5cloneEv
FN:82,88,_ZNK5neml26OptionISt6vectorINS_10TensorNameINS_11MillerIndexEEESaIS4_EEE5cloneEv
FN:82,88,_ZNK5neml26OptionISt6vectorINS_10TensorNameINS_2R2EEESaIS4_EEE5cloneEv
FN:82,88,_ZNK5neml26OptionISt6vectorINS_10TensorNameINS_2R3EEESaIS4_EEE5cloneEv
FN:82,88,_ZNK5neml26OptionISt6vectorINS_10TensorNameINS_2R4EEESaIS4_EEE5cloneEv
FN:82,88,_ZNK5neml26OptionISt6vectorINS_10TensorNameINS_2R5EEESaIS4_EEE5cloneEv
FN:82,88,_ZNK5neml26OptionISt6vectorINS_10TensorNameINS_2R8EEESaIS4_EEE5cloneEv
FN:82,88,_ZNK5neml26OptionISt6vectorINS_10TensorNameINS_3RotEEESaIS4_EEE5cloneEv
FN:82,88,_ZNK5neml26OptionISt6vectorINS_10TensorNameINS_3SR2EEESaIS4_EEE5cloneEv
FN:82,88,_ZNK5neml26OptionISt6vectorINS_10TensorNameINS_3VecEEESaIS4_EEE5cloneEv
FN:82,88,_ZNK5neml26OptionISt6vectorINS_10TensorNameINS_3WR2EEESaIS4_EEE5cloneEv
FN:82,88,_ZNK5neml26OptionISt6vectorINS_10TensorNameINS_4SFR3EEESaIS4_EEE5cloneEv
FN:82,88,_ZNK5neml26OptionISt6vectorINS_10TensorNameINS_4SFR4EEESaIS4_EEE5cloneEv
FN:82,88,_ZNK5neml26OptionISt6vectorINS_10TensorNameINS_4SSR4EEESaIS4_EEE5cloneEv
FN:82,88,_ZNK5neml26OptionISt6vectorINS_10TensorNameINS_4SWR4EEESaIS4_EEE5cloneEv
FN:82,88,_ZNK5neml26OptionISt6vectorINS_10TensorNameINS_4WFR4EEESaIS4_EEE5cloneEv
FN:82,88,_ZNK5neml26OptionISt6vectorINS_10TensorNameINS_4WSR4EEESaIS4_EEE5cloneEv
FN:82,88,_ZNK5neml26OptionISt6vectorINS_10TensorNameINS_4WWR4EEESaIS4_EEE5cloneEv
FN:82,88,_ZNK5neml26OptionISt6vectorINS_10TensorNameINS_5SFFR4EEESaIS4_EEE5cloneEv
FN:82,88,_ZNK5neml26OptionISt6vectorINS_10TensorNameINS_5SSFR5EEESaIS4_EEE5cloneEv
FN:82,88,_ZNK5neml26OptionISt6vectorINS_10TensorNameINS_6SSSSR8EEESaIS4_EEE5cloneEv
FN:82,88,_ZNK5neml26OptionISt6vectorINS_10TensorNameINS_6ScalarEEESaIS4_EEE5cloneEv
FN:82,88,_ZNK5neml26OptionISt6vectorINS_10TensorNameINS_6TensorEEESaIS4_EEE5cloneEv
FN:82,88,_ZNK5neml26OptionISt6vectorINS_19LabeledAxisAccessorESaIS2_EEE5cloneEv
FN:82,88,_ZNK5neml26OptionISt6vectorIS1_IN3c1011SmallVectorIlLj8EEESaIS4_EESaIS6_EEE5cloneEv
FN:82,88,_ZNK5neml26OptionISt6vectorIS1_IN3c106DeviceESaIS3_EESaIS5_EEE5cloneEv
FN:82,88,_ZNK5neml26OptionISt6vectorIS1_INS_10TensorNameIN2at6TensorEEESaIS5_EESaIS7_EEE5cloneEv
FN:82,88,_ZNK5neml26OptionISt6vectorIS1_INS_10TensorNameINS_10QuaternionEEESaIS4_EESaIS6_EEE5cloneEv
FN:82,88,_ZNK5neml26OptionISt6vectorIS1_INS_10TensorNameINS_11MillerIndexEEESaIS4_EESaIS6_EEE5cloneEv
FN:82,88,_ZNK5neml26OptionISt6vectorIS1_INS_10TensorNameINS_2R2EEESaIS4_EESaIS6_EEE5cloneEv
FN:82,88,_ZNK5neml26OptionISt6vectorIS1_INS_10TensorNameINS_2R3EEESaIS4_EESaIS6_EEE5cloneEv
FN:82,88,_ZNK5neml26OptionISt6vectorIS1_INS_10TensorNameINS_2R4EEESaIS4_EESaIS6_EEE5cloneEv
FN:82,88,_ZNK5neml26OptionISt6vectorIS1_INS_10TensorNameINS_2R5EEESaIS4_EESaIS6_EEE5cloneEv
FN:82,88,_ZNK5neml26OptionISt6vectorIS1_INS_10TensorNameINS_2R8EEESaIS4_EESaIS6_EEE5cloneEv
FN:82,88,_ZNK5neml26OptionISt6vectorIS1_INS_10TensorNameINS_3RotEEESaIS4_EESaIS6_EEE5cloneEv
FN:82,88,_ZNK5neml26OptionISt6vectorIS1_INS_10TensorNameINS_3SR2EEESaIS4_EESaIS6_EEE5cloneEv
FN:82,88,_ZNK5neml26OptionISt6vectorIS1_INS_10TensorNameINS_3VecEEESaIS4_EESaIS6_EEE5cloneEv
FN:82,88,_ZNK5neml26OptionISt6vectorIS1_INS_10TensorNameINS_3WR2EEESaIS4_EESaIS6_EEE5cloneEv
FN:82,88,_ZNK5neml26OptionISt6vectorIS1_INS_10TensorNameINS_4SFR3EEESaIS4_EESaIS6_EEE5cloneEv
FN:82,88,_ZNK5neml26OptionISt6vectorIS1_INS_10TensorNameINS_4SFR4EEESaIS4_EESaIS6_EEE5cloneEv
FN:82,88,_ZNK5neml26OptionISt6vectorIS1_INS_10TensorNameINS_4SSR4EEESaIS4_EESaIS6_EEE5cloneEv
FN:82,88,_ZNK5neml26OptionISt6vectorIS1_INS_10TensorNameINS_4SWR4EEESaIS4_EESaIS6_EEE5cloneEv
FN:82,88,_ZNK5neml26OptionISt6vectorIS1_INS_10TensorNameINS_4WFR4EEESaIS4_EESaIS6_EEE5cloneEv
FN:82,88,_ZNK5neml26OptionISt6vectorIS1_INS_10TensorNameINS_4WSR4EEESaIS4_EESaIS6_EEE5cloneEv
FN:82,88,_ZNK5neml26OptionISt6vectorIS1_INS_10TensorNameINS_4WWR4EEESaIS4_EESaIS6_EEE5cloneEv
FN:82,88,_ZNK5neml26OptionISt6vectorIS1_INS_10TensorNameINS_5SFFR4EEESaIS4_EESaIS6_EEE5cloneEv
FN:82,88,_ZNK5neml26OptionISt6vectorIS1_INS_10TensorNameINS_5SSFR5EEESaIS4_EESaIS6_EEE5cloneEv
FN:82,88,_ZNK5neml26OptionISt6vectorIS1_INS_10TensorNameINS_6SSSSR8EEESaIS4_EESaIS6_EEE5cloneEv
FN:82,88,_ZNK5neml26OptionISt6vectorIS1_INS_10TensorNameINS_6ScalarEEESaIS4_EESaIS6_EEE5cloneEv
FN:82,88,_ZNK5neml26OptionISt6vectorIS1_INS_10TensorNameINS_6TensorEEESaIS4_EESaIS6_EEE5cloneEv
FN:82,88,_ZNK5neml26OptionISt6vectorIS1_INS_19LabeledAxisAccessorESaIS2_EESaIS4_EEE5cloneEv
FN:82,88,_ZNK5neml26OptionISt6vectorIS1_ISsSaISsEESaIS3_EEE5cloneEv
FN:82,88,_ZNK5neml26OptionISt6vectorIS1_IbSaIbEESaIS3_EEE5cloneEv
FN:82,88,_ZNK5neml26OptionISt6vectorIS1_IdSaIdEESaIS3_EEE5cloneEv
FN:82,88,_ZNK5neml26OptionISt6vectorIS1_IiSaIiEESaIS3_EEE5cloneEv
FN:82,88,_ZNK5neml26OptionISt6vectorIS1_IjSaIjEESaIS3_EEE5cloneEv
FN:82,88,_ZNK5neml26OptionISt6vectorIS1_IlSaIlEESaIS3_EEE5cloneEv
FN:82,88,_ZNK5neml26OptionISt6vectorIS1_ImSaImEESaIS3_EEE5cloneEv
FN:82,88,_ZNK5neml26OptionISt6vectorISsSaISsEEE5cloneEv
FN:82,88,_ZNK5neml26OptionISt6vectorIbSaIbEEE5cloneEv
FN:82,88,_ZNK5neml26OptionISt6vectorIdSaIdEEE5cloneEv
FN:82,88,_ZNK5neml26OptionISt6vectorIiSaIiEEE5cloneEv
FN:82,88,_ZNK5neml26OptionISt6vectorIjSaIjEEE5cloneEv
FN:82,88,_ZNK5neml26OptionISt6vectorIlSaIlEEE5cloneEv
FN:82,88,_ZNK5neml26OptionISt6vectorImSaImEEE5cloneEv
FN:82,88,_ZNK5neml26OptionIbE5cloneEv
FN:82,88,_ZNK5neml26OptionIdE5cloneEv
FN:82,88,_ZNK5neml26OptionIiE5cloneEv
FN:82,88,_ZNK5neml26OptionIjE5cloneEv
FN:82,88,_ZNK5neml26OptionIlE5cloneEv
FN:82,88,_ZNK5neml26OptionImE5cloneEv
FNDA:0,_ZN5neml27details13_print_helperIcEEvRSoPKT_
FNDA:0,_ZN5neml27details13_print_helperIhEEvRSoPKT_
FNDA:0,_ZN5neml27details13_print_helperIbEEvRSoPKSt6vectorIT_SaIS4_EE
FNDA:7694,_ZN5neml26OptionIN3c1011SmallVectorIlLj8EEEEC2ERKSs
FNDA:0,_ZN5neml26OptionINS_10TensorNameIN2at6TensorEEEEC2ERKSs
FNDA:30,_ZN5neml26OptionINS_10TensorNameINS_10QuaternionEEEEC2ERKSs
FNDA:364,_ZN5neml26OptionINS_10TensorNameINS_11MillerIndexEEEEC2ERKSs
FNDA:367,_ZN5neml26OptionINS_10TensorNameINS_2R2EEEEC2ERKSs
FNDA:194,_ZN5neml26OptionINS_10TensorNameINS_2R3EEEEC2ERKSs
FNDA:194,_ZN5neml26OptionINS_10TensorNameINS_2R4EEEEC2ERKSs
FNDA:194,_ZN5neml26OptionINS_10TensorNameINS_2R5EEEEC2ERKSs
FNDA:30,_ZN5neml26OptionINS_10TensorNameINS_2R8EEEEC2ERKSs
FNDA:194,_ZN5neml26OptionINS_10TensorNameINS_3RotEEEEC2ERKSs
FNDA:523,_ZN5neml26OptionINS_10TensorNameINS_3SR2EEEEC2ERKSs
FNDA:367,_ZN5neml26OptionINS_10TensorNameINS_3VecEEEEC2ERKSs
FNDA:51,_ZN5neml26OptionINS_10TensorNameINS_3WR2EEEEC2ERKSs
FNDA:194,_ZN5neml26OptionINS_10TensorNameINS_4SFR3EEEEC2ERKSs
FNDA:194,_ZN5neml26OptionINS_10TensorNameINS_4SFR4EEEEC2ERKSs
FNDA:225,_ZN5neml26OptionINS_10TensorNameINS_4SSR4EEEEC2ERKSs
FNDA:30,_ZN5neml26OptionINS_10TensorNameINS_4SWR4EEEEC2ERKSs
FNDA:194,_ZN5neml26OptionINS_10TensorNameINS_4WFR4EEEEC2ERKSs
FNDA:30,_ZN5neml26OptionINS_10TensorNameINS_4WSR4EEEEC2ERKSs
FNDA:30,_ZN5neml26OptionINS_10TensorNameINS_4WWR4EEEEC2ERKSs
FNDA:30,_ZN5neml26OptionINS_10TensorNameINS_5SFFR4EEEEC2ERKSs
FNDA:194,_ZN5neml26OptionINS_10TensorNameINS_5SSFR5EEEEC2ERKSs
FNDA:30,_ZN5neml26OptionINS_10TensorNameINS_6SSSSR8EEEEC2ERKSs
FNDA:2257,_ZN5neml26OptionINS_10TensorNameINS_6ScalarEEEEC2ERKSs
FNDA:154,_ZN5neml26OptionINS_10TensorNameINS_6TensorEEEEC2ERKSs
FNDA:1579,_ZN5neml26OptionINS_13EnumSelectionEEC2ERKSs
FNDA:146,_ZN5neml26OptionINS_18MultiEnumSelectionEEC2ERKSs
FNDA:5763,_ZN5neml26OptionINS_19LabeledAxisAccessorEEC2ERKSs
FNDA:15443,_ZN5neml26OptionIPNS_11NEML2ObjectEEC2ERKSs
FNDA:8517,_ZN5neml26OptionISsEC2ERKSs
FNDA:36,_ZN5neml26OptionISt6vectorIN3c1011SmallVectorIlLj8EEESaIS4_EEEC2ERKSs
FNDA:52,_ZN5neml26OptionISt6vectorIN3c106DeviceESaIS3_EEEC2ERKSs
FNDA:6,_ZN5neml26OptionISt6vectorINS_10TensorNameIN2at6TensorEEESaIS5_EEEC2ERKSs
FNDA:1592,_ZN5neml26OptionISt6vectorINS_10TensorNameINS_10QuaternionEEESaIS4_EEEC2ERKSs
FNDA:1592,_ZN5neml26OptionISt6vectorINS_10TensorNameINS_11MillerIndexEEESaIS4_EEEC2ERKSs
FNDA:1592,_ZN5neml26OptionISt6vectorINS_10TensorNameINS_2R2EEESaIS4_EEEC2ERKSs
FNDA:1592,_ZN5neml26OptionISt6vectorINS_10TensorNameINS_2R3EEESaIS4_EEEC2ERKSs
FNDA:1592,_ZN5neml26OptionISt6vectorINS_10TensorNameINS_2R4EEESaIS4_EEEC2ERKSs
FNDA:1592,_ZN5neml26OptionISt6vectorINS_10TensorNameINS_2R5EEESaIS4_EEEC2ERKSs
FNDA:1592,_ZN5neml26OptionISt6vectorINS_10TensorNameINS_2R8EEESaIS4_EEEC2ERKSs
FNDA:1592,_ZN5neml26OptionISt6vectorINS_10TensorNameINS_3RotEEESaIS4_EEEC2ERKSs
FNDA:1592,_ZN5neml26OptionISt6vectorINS_10TensorNameINS_3SR2EEESaIS4_EEEC2ERKSs
FNDA:1592,_ZN5neml26OptionISt6vectorINS_10TensorNameINS_3VecEEESaIS4_EEEC2ERKSs
FNDA:1592,_ZN5neml26OptionISt6vectorINS_10TensorNameINS_3WR2EEESaIS4_EEEC2ERKSs
FNDA:1592,_ZN5neml26OptionISt6vectorINS_10TensorNameINS_4SFR3EEESaIS4_EEEC2ERKSs
FNDA:1592,_ZN5neml26OptionISt6vectorINS_10TensorNameINS_4SFR4EEESaIS4_EEEC2ERKSs
FNDA:1592,_ZN5neml26OptionISt6vectorINS_10TensorNameINS_4SSR4EEESaIS4_EEEC2ERKSs
FNDA:1592,_ZN5neml26OptionISt6vectorINS_10TensorNameINS_4SWR4EEESaIS4_EEEC2ERKSs
FNDA:1592,_ZN5neml26OptionISt6vectorINS_10TensorNameINS_4WFR4EEESaIS4_EEEC2ERKSs
FNDA:1592,_ZN5neml26OptionISt6vectorINS_10TensorNameINS_4WSR4EEESaIS4_EEEC2ERKSs
FNDA:1592,_ZN5neml26OptionISt6vectorINS_10TensorNameINS_4WWR4EEESaIS4_EEEC2ERKSs
FNDA:1592,_ZN5neml26OptionISt6vectorINS_10TensorNameINS_5SFFR4EEESaIS4_EEEC2ERKSs
FNDA:1592,_ZN5neml26OptionISt6vectorINS_10TensorNameINS_5SSFR5EEESaIS4_EEEC2ERKSs
FNDA:1592,_ZN5neml26OptionISt6vectorINS_10TensorNameINS_6SSSSR8EEESaIS4_EEEC2ERKSs
FNDA:2743,_ZN5neml26OptionISt6vectorINS_10TensorNameINS_6ScalarEEESaIS4_EEEC2ERKSs
FNDA:1592,_ZN5neml26OptionISt6vectorINS_10TensorNameINS_6TensorEEESaIS4_EEEC2ERKSs
FNDA:37143,_ZN5neml26OptionISt6vectorINS_19LabeledAxisAccessorESaIS2_EEEC2ERKSs
FNDA:36,_ZN5neml26OptionISt6vectorIS1_IN3c1011SmallVectorIlLj8EEESaIS4_EESaIS6_EEEC2ERKSs
FNDA:36,_ZN5neml26OptionISt6vectorIS1_IN3c106DeviceESaIS3_EESaIS5_EEEC2ERKSs
FNDA:0,_ZN5neml26OptionISt6vectorIS1_INS_10TensorNameIN2at6TensorEEESaIS5_EESaIS7_EEEC2ERKSs
FNDA:0,_ZN5neml26OptionISt6vectorIS1_INS_10TensorNameINS_10QuaternionEEESaIS4_EESaIS6_EEEC2ERKSs
FNDA:0,_ZN5neml26OptionISt6vectorIS1_INS_10TensorNameINS_11MillerIndexEEESaIS4_EESaIS6_EEEC2ERKSs
FNDA:0,_ZN5neml26OptionISt6vectorIS1_INS_10TensorNameINS_2R2EEESaIS4_EESaIS6_EEEC2ERKSs
FNDA:0,_ZN5neml26OptionISt6vectorIS1_INS_10TensorNameINS_2R3EEESaIS4_EESaIS6_EEEC2ERKSs
FNDA:0,_ZN5neml26OptionISt6vectorIS1_INS_10TensorNameINS_2R4EEESaIS4_EESaIS6_EEEC2ERKSs
FNDA:0,_ZN5neml26OptionISt6vectorIS1_INS_10TensorNameINS_2R5EEESaIS4_EESaIS6_EEEC2ERKSs
FNDA:0,_ZN5neml26OptionISt6vectorIS1_INS_10TensorNameINS_2R8EEESaIS4_EESaIS6_EEEC2ERKSs
FNDA:0,_ZN5neml26OptionISt6vectorIS1_INS_10TensorNameINS_3RotEEESaIS4_EESaIS6_EEEC2ERKSs
FNDA:0,_ZN5neml26OptionISt6vectorIS1_INS_10TensorNameINS_3SR2EEESaIS4_EESaIS6_EEEC2ERKSs
FNDA:0,_ZN5neml26OptionISt6vectorIS1_INS_10TensorNameINS_3VecEEESaIS4_EESaIS6_EEEC2ERKSs
FNDA:0,_ZN5neml26OptionISt6vectorIS1_INS_10TensorNameINS_3WR2EEESaIS4_EESaIS6_EEEC2ERKSs
FNDA:0,_ZN5neml26OptionISt6vectorIS1_INS_10TensorNameINS_4SFR3EEESaIS4_EESaIS6_EEEC2ERKSs
FNDA:0,_ZN5neml26OptionISt6vectorIS1_INS_10TensorNameINS_4SFR4EEESaIS4_EESaIS6_EEEC2ERKSs
FNDA:0,_ZN5neml26OptionISt6vectorIS1_INS_10TensorNameINS_4SSR4EEESaIS4_EESaIS6_EEEC2ERKSs
FNDA:0,_ZN5neml26OptionISt6vectorIS1_INS_10TensorNameINS_4SWR4EEESaIS4_EESaIS6_EEEC2ERKSs
FNDA:0,_ZN5neml26OptionISt6vectorIS1_INS_10TensorNameINS_4WFR4EEESaIS4_EESaIS6_EEEC2ERKSs
FNDA:0,_ZN5neml26OptionISt6vectorIS1_INS_10TensorNameINS_4WSR4EEESaIS4_EESaIS6_EEEC2ERKSs
FNDA:0,_ZN5neml26OptionISt6vectorIS1_INS_10TensorNameINS_4WWR4EEESaIS4_EESaIS6_EEEC2ERKSs
FNDA:0,_ZN5neml26OptionISt6vectorIS1_INS_10TensorNameINS_5SFFR4EEESaIS4_EESaIS6_EEEC2ERKSs
FNDA:0,_ZN5neml26OptionISt6vectorIS1_INS_10TensorNameINS_5SSFR5EEESaIS4_EESaIS6_EEEC2ERKSs
FNDA:0,_ZN5neml26OptionISt6vectorIS1_INS_10TensorNameINS_6SSSSR8EEESaIS4_EESaIS6_EEEC2ERKSs
FNDA:0,_ZN5neml26OptionISt6vectorIS1_INS_10TensorNameINS_6ScalarEEESaIS4_EESaIS6_EEEC2ERKSs
FNDA:0,_ZN5neml26OptionISt6vectorIS1_INS_10TensorNameINS_6TensorEEESaIS4_EESaIS6_EEEC2ERKSs
FNDA:0,_ZN5neml26OptionISt6vectorIS1_INS_19LabeledAxisAccessorESaIS2_EESaIS4_EEEC2ERKSs
FNDA:36,_ZN5neml26OptionISt6vectorIS1_ISsSaISsEESaIS3_EEEC2ERKSs
FNDA:36,_ZN5neml26OptionISt6vectorIS1_IbSaIbEESaIS3_EEEC2ERKSs
FNDA:36,_ZN5neml26OptionISt6vectorIS1_IdSaIdEESaIS3_EEEC2ERKSs
FNDA:36,_ZN5neml26OptionISt6vectorIS1_IiSaIiEESaIS3_EEEC2ERKSs
FNDA:36,_ZN5neml26OptionISt6vectorIS1_IjSaIjEESaIS3_EEEC2ERKSs
FNDA:0,_ZN5neml26OptionISt6vectorIS1_IlSaIlEESaIS3_EEEC2ERKSs
FNDA:0,_ZN5neml26OptionISt6vectorIS1_ImSaImEESaIS3_EEEC2ERKSs
FNDA:2022,_ZN5neml26OptionISt6vectorISsSaISsEEEC2ERKSs
FNDA:326,_ZN5neml26OptionISt6vectorIbSaIbEEEC2ERKSs
FNDA:891,_ZN5neml26OptionISt6vectorIdSaIdEEEC2ERKSs
FNDA:36,_ZN5neml26OptionISt6vectorIiSaIiEEEC2ERKSs
FNDA:36,_ZN5neml26OptionISt6vectorIjSaIjEEEC2ERKSs
FNDA:330,_ZN5neml26OptionISt6vectorIlSaIlEEEC2ERKSs
FNDA:32,_ZN5neml26OptionISt6vectorImSaImEEEC2ERKSs
FNDA:29973,_ZN5neml26OptionIbEC2ERKSs
FNDA:17684,_ZN5neml26OptionIdEC2ERKSs
FNDA:36,_ZN5neml26OptionIiEC2ERKSs
FNDA:3636,_ZN5neml26OptionIjEC2ERKSs
FNDA:4338,_ZN5neml26OptionIlEC2ERKSs
FNDA:48,_ZN5neml26OptionImEC2ERKSs
FNDA:36,_ZN5neml26OptionIN3c106DeviceEEC2ERKSs
FNDA:0,_ZNK5neml26OptionIN3c1011SmallVectorIlLj8EEEEeqERKNS_10OptionBaseE
FNDA:0,_ZNK5neml26OptionIN3c106DeviceEEeqERKNS_10OptionBaseE
FNDA:0,_ZNK5neml26OptionINS_10TensorNameIN2at6TensorEEEEeqERKNS_10OptionBaseE
FNDA:0,_ZNK5neml26OptionINS_10TensorNameINS_10QuaternionEEEEeqERKNS_10OptionBaseE
FNDA:0,_ZNK5neml26OptionINS_10TensorNameINS_11MillerIndexEEEEeqERKNS_10OptionBaseE
FNDA:0,_ZNK5neml26OptionINS_10TensorNameINS_2R2EEEEeqERKNS_10OptionBaseE
FNDA:0,_ZNK5neml26OptionINS_10TensorNameINS_2R3EEEEeqERKNS_10OptionBaseE
FNDA:0,_ZNK5neml26OptionINS_10TensorNameINS_2R4EEEEeqERKNS_10OptionBaseE
FNDA:0,_ZNK5neml26OptionINS_10TensorNameINS_2R5EEEEeqERKNS_10OptionBaseE
FNDA:0,_ZNK5neml26OptionINS_10TensorNameINS_2R8EEEEeqERKNS_10OptionBaseE
FNDA:0,_ZNK5neml26OptionINS_10TensorNameINS_3RotEEEEeqERKNS_10OptionBaseE
FNDA:0,_ZNK5neml26OptionINS_10TensorNameINS_3SR2EEEEeqERKNS_10OptionBaseE
FNDA:0,_ZNK5neml26OptionINS_10TensorNameINS_3VecEEEEeqERKNS_10OptionBaseE
FNDA:0,_ZNK5neml26OptionINS_10TensorNameINS_3WR2EEEEeqERKNS_10OptionBaseE
FNDA:0,_ZNK5neml26OptionINS_10TensorNameINS_4SFR3EEEEeqERKNS_10OptionBaseE
FNDA:0,_ZNK5neml26OptionINS_10TensorNameINS_4SFR4EEEEeqERKNS_10OptionBaseE
FNDA:0,_ZNK5neml26OptionINS_10TensorNameINS_4SSR4EEEEeqERKNS_10OptionBaseE
FNDA:0,_ZNK5neml26OptionINS_10TensorNameINS_4SWR4EEEEeqERKNS_10OptionBaseE
FNDA:0,_ZNK5neml26OptionINS_10TensorNameINS_4WFR4EEEEeqERKNS_10OptionBaseE
FNDA:0,_ZNK5neml26OptionINS_10TensorNameINS_4WSR4EEEEeqERKNS_10OptionBaseE
FNDA:0,_ZNK5neml26OptionINS_10TensorNameINS_4WWR4EEEEeqERKNS_10OptionBaseE
FNDA:0,_ZNK5neml26OptionINS_10TensorNameINS_5SFFR4EEEEeqERKNS_10OptionBaseE
FNDA:0,_ZNK5neml26OptionINS_10TensorNameINS_5SSFR5EEEEeqERKNS_10OptionBaseE
FNDA:0,_ZNK5neml26OptionINS_10TensorNameINS_6SSSSR8EEEEeqERKNS_10OptionBaseE
FNDA:0,_ZNK5neml26OptionINS_10TensorNameINS_6ScalarEEEEeqERKNS_10OptionBaseE
FNDA:0,_ZNK5neml26OptionINS_10TensorNameINS_6TensorEEEEeqERKNS_10OptionBaseE
FNDA:0,_ZNK5neml26OptionINS_13EnumSelectionEEeqERKNS_10OptionBaseE
FNDA:0,_ZNK5neml26OptionINS_18MultiEnumSelectionEEeqERKNS_10OptionBaseE
FNDA:0,_ZNK5neml26OptionINS_19LabeledAxisAccessorEEeqERKNS_10OptionBaseE
FNDA:6,_ZNK5neml26OptionIPNS_11NEML2ObjectEEeqERKNS_10OptionBaseE
FNDA:0,_ZNK5neml26OptionISsEeqERKNS_10OptionBaseE
FNDA:0,_ZNK5neml26OptionISt6vectorIN3c1011SmallVectorIlLj8EEESaIS4_EEEeqERKNS_10OptionBaseE
FNDA:0,_ZNK5neml26OptionISt6vectorIN3c106DeviceESaIS3_EEEeqERKNS_10OptionBaseE
FNDA:0,_ZNK5neml26OptionISt6vectorINS_10TensorNameIN2at6TensorEEESaIS5_EEEeqERKNS_10OptionBaseE
FNDA:0,_ZNK5neml26OptionISt6vectorINS_10TensorNameINS_10QuaternionEEESaIS4_EEEeqERKNS_10OptionBaseE
FNDA:0,_ZNK5neml26OptionISt6vectorINS_10TensorNameINS_11MillerIndexEEESaIS4_EEEeqERKNS_10OptionBaseE
FNDA:0,_ZNK5neml26OptionISt6vectorINS_10TensorNameINS_2R2EEESaIS4_EEEeqERKNS_10OptionBaseE
FNDA:0,_ZNK5neml26OptionISt6vectorINS_10TensorNameINS_2R3EEESaIS4_EEEeqERKNS_10OptionBaseE
FNDA:0,_ZNK5neml26OptionISt6vectorINS_10TensorNameINS_2R4EEESaIS4_EEEeqERKNS_10OptionBaseE
FNDA:0,_ZNK5neml26OptionISt6vectorINS_10TensorNameINS_2R5EEESaIS4_EEEeqERKNS_10OptionBaseE
FNDA:0,_ZNK5neml26OptionISt6vectorINS_10TensorNameINS_2R8EEESaIS4_EEEeqERKNS_10OptionBaseE
FNDA:0,_ZNK5neml26OptionISt6vectorINS_10TensorNameINS_3RotEEESaIS4_EEEeqERKNS_10OptionBaseE
FNDA:0,_ZNK5neml26OptionISt6vectorINS_10TensorNameINS_3SR2EEESaIS4_EEEeqERKNS_10OptionBaseE
FNDA:0,_ZNK5neml26OptionISt6vectorINS_10TensorNameINS_3VecEEESaIS4_EEEeqERKNS_10OptionBaseE
FNDA:0,_ZNK5neml26OptionISt6vectorINS_10TensorNameINS_3WR2EEESaIS4_EEEeqERKNS_10OptionBaseE
FNDA:0,_ZNK5neml26OptionISt6vectorINS_10TensorNameINS_4SFR3EEESaIS4_EEEeqERKNS_10OptionBaseE
FNDA:0,_ZNK5neml26OptionISt6vectorINS_10TensorNameINS_4SFR4EEESaIS4_EEEeqERKNS_10OptionBaseE
FNDA:0,_ZNK5neml26OptionISt6vectorINS_10TensorNameINS_4SSR4EEESaIS4_EEEeqERKNS_10OptionBaseE
FNDA:0,_ZNK5neml26OptionISt6vectorINS_10TensorNameINS_4SWR4EEESaIS4_EEEeqERKNS_10OptionBaseE
FNDA:0,_ZNK5neml26OptionISt6vectorINS_10TensorNameINS_4WFR4EEESaIS4_EEEeqERKNS_10OptionBaseE
FNDA:0,_ZNK5neml26OptionISt6vectorINS_10TensorNameINS_4WSR4EEESaIS4_EEEeqERKNS_10OptionBaseE
FNDA:0,_ZNK5neml26OptionISt6vectorINS_10TensorNameINS_4WWR4EEESaIS4_EEEeqERKNS_10OptionBaseE
FNDA:0,_ZNK5neml26OptionISt6vectorINS_10TensorNameINS_5SFFR4EEESaIS4_EEEeqERKNS_10OptionBaseE
FNDA:0,_ZNK5neml26OptionISt6vectorINS_10TensorNameINS_5SSFR5EEESaIS4_EEEeqERKNS_10OptionBaseE
FNDA:0,_ZNK5neml26OptionISt6vectorINS_10TensorNameINS_6SSSSR8EEESaIS4_EEEeqERKNS_10OptionBaseE
FNDA:0,_ZNK5neml26OptionISt6vectorINS_10TensorNameINS_6ScalarEEESaIS4_EEEeqERKNS_10OptionBaseE
FNDA:0,_ZNK5neml26OptionISt6vectorINS_10TensorNameINS_6TensorEEESaIS4_EEEeqERKNS_10OptionBaseE
FNDA:0,_ZNK5neml26OptionISt6vectorINS_19LabeledAxisAccessorESaIS2_EEEeqERKNS_10OptionBaseE
FNDA:0,_ZNK5neml26OptionISt6vectorIS1_IN3c1011SmallVectorIlLj8EEESaIS4_EESaIS6_EEEeqERKNS_10OptionBaseE
FNDA:0,_ZNK5neml26OptionISt6vectorIS1_IN3c106DeviceESaIS3_EESaIS5_EEEeqERKNS_10OptionBaseE
FNDA:0,_ZNK5neml26OptionISt6vectorIS1_INS_10TensorNameIN2at6TensorEEESaIS5_EESaIS7_EEEeqERKNS_10OptionBaseE
FNDA:0,_ZNK5neml26OptionISt6vectorIS1_INS_10TensorNameINS_10QuaternionEEESaIS4_EESaIS6_EEEeqERKNS_10OptionBaseE
FNDA:0,_ZNK5neml26OptionISt6vectorIS1_INS_10TensorNameINS_11MillerIndexEEESaIS4_EESaIS6_EEEeqERKNS_10OptionBaseE
FNDA:0,_ZNK5neml26OptionISt6vectorIS1_INS_10TensorNameINS_2R2EEESaIS4_EESaIS6_EEEeqERKNS_10OptionBaseE
FNDA:0,_ZNK5neml26OptionISt6vectorIS1_INS_10TensorNameINS_2R3EEESaIS4_EESaIS6_EEEeqERKNS_10OptionBaseE
FNDA:0,_ZNK5neml26OptionISt6vectorIS1_INS_10TensorNameINS_2R4EEESaIS4_EESaIS6_EEEeqERKNS_10OptionBaseE
FNDA:0,_ZNK5neml26OptionISt6vectorIS1_INS_10TensorNameINS_2R5EEESaIS4_EESaIS6_EEEeqERKNS_10OptionBaseE
FNDA:0,_ZNK5neml26OptionISt6vectorIS1_INS_10TensorNameINS_2R8EEESaIS4_EESaIS6_EEEeqERKNS_10OptionBaseE
FNDA:0,_ZNK5neml26OptionISt6vectorIS1_INS_10TensorNameINS_3RotEEESaIS4_EESaIS6_EEEeqERKNS_10OptionBaseE
FNDA:0,_ZNK5neml26OptionISt6vectorIS1_INS_10TensorNameINS_3SR2EEESaIS4_EESaIS6_EEEeqERKNS_10OptionBaseE
FNDA:0,_ZNK5neml26OptionISt6vectorIS1_INS_10TensorNameINS_3VecEEESaIS4_EESaIS6_EEEeqERKNS_10OptionBaseE
FNDA:0,_ZNK5neml26OptionISt6vectorIS1_INS_10TensorNameINS_3WR2EEESaIS4_EESaIS6_EEEeqERKNS_10OptionBaseE
FNDA:0,_ZNK5neml26OptionISt6vectorIS1_INS_10TensorNameINS_4SFR3EEESaIS4_EESaIS6_EEEeqERKNS_10OptionBaseE
FNDA:0,_ZNK5neml26OptionISt6vectorIS1_INS_10TensorNameINS_4SFR4EEESaIS4_EESaIS6_EEEeqERKNS_10OptionBaseE
FNDA:0,_ZNK5neml26OptionISt6vectorIS1_INS_10TensorNameINS_4SSR4EEESaIS4_EESaIS6_EEEeqERKNS_10OptionBaseE
FNDA:0,_ZNK5neml26OptionISt6vectorIS1_INS_10TensorNameINS_4SWR4EEESaIS4_EESaIS6_EEEeqERKNS_10OptionBaseE
FNDA:0,_ZNK5neml26OptionISt6vectorIS1_INS_10TensorNameINS_4WFR4EEESaIS4_EESaIS6_EEEeqERKNS_10OptionBaseE
FNDA:0,_ZNK5neml26OptionISt6vectorIS1_INS_10TensorNameINS_4WSR4EEESaIS4_EESaIS6_EEEeqERKNS_10OptionBaseE
FNDA:0,_ZNK5neml26OptionISt6vectorIS1_INS_10TensorNameINS_4WWR4EEESaIS4_EESaIS6_EEEeqERKNS_10OptionBaseE
FNDA:0,_ZNK5neml26OptionISt6vectorIS1_INS_10TensorNameINS_5SFFR4EEESaIS4_EESaIS6_EEEeqERKNS_10OptionBaseE
FNDA:0,_ZNK5neml26OptionISt6vectorIS1_INS_10TensorNameINS_5SSFR5EEESaIS4_EESaIS6_EEEeqERKNS_10OptionBaseE
FNDA:0,_ZNK5neml26OptionISt6vectorIS1_INS_10TensorNameINS_6SSSSR8EEESaIS4_EESaIS6_EEEeqERKNS_10OptionBaseE
FNDA:0,_ZNK5neml26OptionISt6vectorIS1_INS_10TensorNameINS_6ScalarEEESaIS4_EESaIS6_EEEeqERKNS_10OptionBaseE
FNDA:0,_ZNK5neml26OptionISt6vectorIS1_INS_10TensorNameINS_6TensorEEESaIS4_EESaIS6_EEEeqERKNS_10OptionBaseE
FNDA:0,_ZNK5neml26OptionISt6vectorIS1_INS_19LabeledAxisAccessorESaIS2_EESaIS4_EEEeqERKNS_10OptionBaseE
FNDA:0,_ZNK5neml26OptionISt6vectorIS1_ISsSaISsEESaIS3_EEEeqERKNS_10OptionBaseE
FNDA:0,_ZNK5neml26OptionISt6vectorIS1_IbSaIbEESaIS3_EEEeqERKNS_10OptionBaseE
FNDA:0,_ZNK5neml26OptionISt6vectorIS1_IdSaIdEESaIS3_EEEeqERKNS_10OptionBaseE
FNDA:0,_ZNK5neml26OptionISt6vectorIS1_IiSaIiEESaIS3_EEEeqERKNS_10OptionBaseE
FNDA:0,_ZNK5neml26OptionISt6vectorIS1_IjSaIjEESaIS3_EEEeqERKNS_10OptionBaseE
FNDA:0,_ZNK5neml26OptionISt6vectorIS1_IlSaIlEESaIS3_EEEeqERKNS_10OptionBaseE
FNDA:0,_ZNK5neml26OptionISt6vectorIS1_ImSaImEESaIS3_EEEeqERKNS_10OptionBaseE
FNDA:0,_ZNK5neml26OptionISt6vectorISsSaISsEEEeqERKNS_10OptionBaseE
FNDA:0,_ZNK5neml26OptionISt6vectorIbSaIbEEEeqERKNS_10OptionBaseE
FNDA:0,_ZNK5neml26OptionISt6vectorIdSaIdEEEeqERKNS_10OptionBaseE
FNDA:0,_ZNK5neml26OptionISt6vectorIiSaIiEEEeqERKNS_10OptionBaseE
FNDA:0,_ZNK5neml26OptionISt6vectorIjSaIjEEEeqERKNS_10OptionBaseE
FNDA:0,_ZNK5neml26OptionISt6vectorIlSaIlEEEeqERKNS_10OptionBaseE
FNDA:0,_ZNK5neml26OptionISt6vectorImSaImEEEeqERKNS_10OptionBaseE
FNDA:0,_ZNK5neml26OptionIbEeqERKNS_10OptionBaseE
FNDA:0,_ZNK5neml26OptionIdEeqERKNS_10OptionBaseE
FNDA:0,_ZNK5neml26OptionIiEeqERKNS_10OptionBaseE
FNDA:0,_ZNK5neml26OptionIjEeqERKNS_10OptionBaseE
FNDA:0,_ZNK5neml26OptionIlEeqERKNS_10OptionBaseE
FNDA:0,_ZNK5neml26OptionImEeqERKNS_10OptionBaseE
FNDA:0,_ZNK5neml26OptionIN3c1011SmallVectorIlLj8EEEEneERKNS_10OptionBaseE
FNDA:0,_ZNK5neml26OptionIN3c106DeviceEEneERKNS_10OptionBaseE
FNDA:0,_ZNK5neml26OptionINS_10TensorNameIN2at6TensorEEEEneERKNS_10OptionBaseE
FNDA:0,_ZNK5neml26OptionINS_10TensorNameINS_10QuaternionEEEEneERKNS_10OptionBaseE
FNDA:0,_ZNK5neml26OptionINS_10TensorNameINS_11MillerIndexEEEEneERKNS_10OptionBaseE
FNDA:0,_ZNK5neml26OptionINS_10TensorNameINS_2R2EEEEneERKNS_10OptionBaseE
FNDA:0,_ZNK5neml26OptionINS_10TensorNameINS_2R3EEEEneERKNS_10OptionBaseE
FNDA:0,_ZNK5neml26OptionINS_10TensorNameINS_2R4EEEEneERKNS_10OptionBaseE
FNDA:0,_ZNK5neml26OptionINS_10TensorNameINS_2R5EEEEneERKNS_10OptionBaseE
FNDA:0,_ZNK5neml26OptionINS_10TensorNameINS_2R8EEEEneERKNS_10OptionBaseE
FNDA:0,_ZNK5neml26OptionINS_10TensorNameINS_3RotEEEEneERKNS_10OptionBaseE
FNDA:0,_ZNK5neml26OptionINS_10TensorNameINS_3SR2EEEEneERKNS_10OptionBaseE
FNDA:0,_ZNK5neml26OptionINS_10TensorNameINS_3VecEEEEneERKNS_10OptionBaseE
FNDA:0,_ZNK5neml26OptionINS_10TensorNameINS_3WR2EEEEneERKNS_10OptionBaseE
FNDA:0,_ZNK5neml26OptionINS_10TensorNameINS_4SFR3EEEEneERKNS_10OptionBaseE
FNDA:0,_ZNK5neml26OptionINS_10TensorNameINS_4SFR4EEEEneERKNS_10OptionBaseE
FNDA:0,_ZNK5neml26OptionINS_10TensorNameINS_4SSR4EEEEneERKNS_10OptionBaseE
FNDA:0,_ZNK5neml26OptionINS_10TensorNameINS_4SWR4EEEEneERKNS_10OptionBaseE
FNDA:0,_ZNK5neml26OptionINS_10TensorNameINS_4WFR4EEEEneERKNS_10OptionBaseE
FNDA:0,_ZNK5neml26OptionINS_10TensorNameINS_4WSR4EEEEneERKNS_10OptionBaseE
FNDA:0,_ZNK5neml26OptionINS_10TensorNameINS_4WWR4EEEEneERKNS_10OptionBaseE
FNDA:0,_ZNK5neml26OptionINS_10TensorNameINS_5SFFR4EEEEneERKNS_10OptionBaseE
FNDA:0,_ZNK5neml26OptionINS_10TensorNameINS_5SSFR5EEEEneERKNS_10OptionBaseE
FNDA:0,_ZNK5neml26OptionINS_10TensorNameINS_6SSSSR8EEEEneERKNS_10OptionBaseE
FNDA:0,_ZNK5neml26OptionINS_10TensorNameINS_6ScalarEEEEneERKNS_10OptionBaseE
FNDA:0,_ZNK5neml26OptionINS_10TensorNameINS_6TensorEEEEneERKNS_10OptionBaseE
FNDA:0,_ZNK5neml26OptionINS_13EnumSelectionEEneERKNS_10OptionBaseE
FNDA:0,_ZNK5neml26OptionINS_18MultiEnumSelectionEEneERKNS_10OptionBaseE
FNDA:0,_ZNK5neml26OptionINS_19LabeledAxisAccessorEEneERKNS_10OptionBaseE
FNDA:6,_ZNK5neml26OptionIPNS_11NEML2ObjectEEneERKNS_10OptionBaseE
FNDA:0,_ZNK5neml26OptionISsEneERKNS_10OptionBaseE
FNDA:0,_ZNK5neml26OptionISt6vectorIN3c1011SmallVectorIlLj8EEESaIS4_EEEneERKNS_10OptionBaseE
FNDA:0,_ZNK5neml26OptionISt6vectorIN3c106DeviceESaIS3_EEEneERKNS_10OptionBaseE
FNDA:0,_ZNK5neml26OptionISt6vectorINS_10TensorNameIN2at6TensorEEESaIS5_EEEneERKNS_10OptionBaseE
FNDA:0,_ZNK5neml26OptionISt6vectorINS_10TensorNameINS_10QuaternionEEESaIS4_EEEneERKNS_10OptionBaseE
FNDA:0,_ZNK5neml26OptionISt6vectorINS_10TensorNameINS_11MillerIndexEEESaIS4_EEEneERKNS_10OptionBaseE
FNDA:0,_ZNK5neml26OptionISt6vectorINS_10TensorNameINS_2R2EEESaIS4_EEEneERKNS_10OptionBaseE
FNDA:0,_ZNK5neml26OptionISt6vectorINS_10TensorNameINS_2R3EEESaIS4_EEEneERKNS_10OptionBaseE
FNDA:0,_ZNK5neml26OptionISt6vectorINS_10TensorNameINS_2R4EEESaIS4_EEEneERKNS_10OptionBaseE
FNDA:0,_ZNK5neml26OptionISt6vectorINS_10TensorNameINS_2R5EEESaIS4_EEEneERKNS_10OptionBaseE
FNDA:0,_ZNK5neml26OptionISt6vectorINS_10TensorNameINS_2R8EEESaIS4_EEEneERKNS_10OptionBaseE
FNDA:0,_ZNK5neml26OptionISt6vectorINS_10TensorNameINS_3RotEEESaIS4_EEEneERKNS_10OptionBaseE
FNDA:0,_ZNK5neml26OptionISt6vectorINS_10TensorNameINS_3SR2EEESaIS4_EEEneERKNS_10OptionBaseE
FNDA:0,_ZNK5neml26OptionISt6vectorINS_10TensorNameINS_3VecEEESaIS4_EEEneERKNS_10OptionBaseE
FNDA:0,_ZNK5neml26OptionISt6vectorINS_10TensorNameINS_3WR2EEESaIS4_EEEneERKNS_10OptionBaseE
FNDA:0,_ZNK5neml26OptionISt6vectorINS_10TensorNameINS_4SFR3EEESaIS4_EEEneERKNS_10OptionBaseE
FNDA:0,_ZNK5neml26OptionISt6vectorINS_10TensorNameINS_4SFR4EEESaIS4_EEEneERKNS_10OptionBaseE
FNDA:0,_ZNK5neml26OptionISt6vectorINS_10TensorNameINS_4SSR4EEESaIS4_EEEneERKNS_10OptionBaseE
FNDA:0,_ZNK5neml26OptionISt6vectorINS_10TensorNameINS_4SWR4EEESaIS4_EEEneERKNS_10OptionBaseE
FNDA:0,_ZNK5neml26OptionISt6vectorINS_10TensorNameINS_4WFR4EEESaIS4_EEEneERKNS_10OptionBaseE
FNDA:0,_ZNK5neml26OptionISt6vectorINS_10TensorNameINS_4WSR4EEESaIS4_EEEneERKNS_10OptionBaseE
FNDA:0,_ZNK5neml26OptionISt6vectorINS_10TensorNameINS_4WWR4EEESaIS4_EEEneERKNS_10OptionBaseE
FNDA:0,_ZNK5neml26OptionISt6vectorINS_10TensorNameINS_5SFFR4EEESaIS4_EEEneERKNS_10OptionBaseE
FNDA:0,_ZNK5neml26OptionISt6vectorINS_10TensorNameINS_5SSFR5EEESaIS4_EEEneERKNS_10OptionBaseE
FNDA:0,_ZNK5neml26OptionISt6vectorINS_10TensorNameINS_6SSSSR8EEESaIS4_EEEneERKNS_10OptionBaseE
FNDA:0,_ZNK5neml26OptionISt6vectorINS_10TensorNameINS_6ScalarEEESaIS4_EEEneERKNS_10OptionBaseE
FNDA:0,_ZNK5neml26OptionISt6vectorINS_10TensorNameINS_6TensorEEESaIS4_EEEneERKNS_10OptionBaseE
FNDA:0,_ZNK5neml26OptionISt6vectorINS_19LabeledAxisAccessorESaIS2_EEEneERKNS_10OptionBaseE
FNDA:0,_ZNK5neml26OptionISt6vectorIS1_IN3c1011SmallVectorIlLj8EEESaIS4_EESaIS6_EEEneERKNS_10OptionBaseE
FNDA:0,_ZNK5neml26OptionISt6vectorIS1_IN3c106DeviceESaIS3_EESaIS5_EEEneERKNS_10OptionBaseE
FNDA:0,_ZNK5neml26OptionISt6vectorIS1_INS_10TensorNameIN2at6TensorEEESaIS5_EESaIS7_EEEneERKNS_10OptionBaseE
FNDA:0,_ZNK5neml26OptionISt6vectorIS1_INS_10TensorNameINS_10QuaternionEEESaIS4_EESaIS6_EEEneERKNS_10OptionBaseE
FNDA:0,_ZNK5neml26OptionISt6vectorIS1_INS_10TensorNameINS_11MillerIndexEEESaIS4_EESaIS6_EEEneERKNS_10OptionBaseE
FNDA:0,_ZNK5neml26OptionISt6vectorIS1_INS_10TensorNameINS_2R2EEESaIS4_EESaIS6_EEEneERKNS_10OptionBaseE
FNDA:0,_ZNK5neml26OptionISt6vectorIS1_INS_10TensorNameINS_2R3EEESaIS4_EESaIS6_EEEneERKNS_10OptionBaseE
FNDA:0,_ZNK5neml26OptionISt6vectorIS1_INS_10TensorNameINS_2R4EEESaIS4_EESaIS6_EEEneERKNS_10OptionBaseE
FNDA:0,_ZNK5neml26OptionISt6vectorIS1_INS_10TensorNameINS_2R5EEESaIS4_EESaIS6_EEEneERKNS_10OptionBaseE
FNDA:0,_ZNK5neml26OptionISt6vectorIS1_INS_10TensorNameINS_2R8EEESaIS4_EESaIS6_EEEneERKNS_10OptionBaseE
FNDA:0,_ZNK5neml26OptionISt6vectorIS1_INS_10TensorNameINS_3RotEEESaIS4_EESaIS6_EEEneERKNS_10OptionBaseE
FNDA:0,_ZNK5neml26OptionISt6vectorIS1_INS_10TensorNameINS_3SR2EEESaIS4_EESaIS6_EEEneERKNS_10OptionBaseE
FNDA:0,_ZNK5neml26OptionISt6vectorIS1_INS_10TensorNameINS_3VecEEESaIS4_EESaIS6_EEEneERKNS_10OptionBaseE
FNDA:0,_ZNK5neml26OptionISt6vectorIS1_INS_10TensorNameINS_3WR2EEESaIS4_EESaIS6_EEEneERKNS_10OptionBaseE
FNDA:0,_ZNK5neml26OptionISt6vectorIS1_INS_10TensorNameINS_4SFR3EEESaIS4_EESaIS6_EEEneERKNS_10OptionBaseE
FNDA:0,_ZNK5neml26OptionISt6vectorIS1_INS_10TensorNameINS_4SFR4EEESaIS4_EESaIS6_EEEneERKNS_10OptionBaseE
FNDA:0,_ZNK5neml26OptionISt6vectorIS1_INS_10TensorNameINS_4SSR4EEESaIS4_EESaIS6_EEEneERKNS_10OptionBaseE
FNDA:0,_ZNK5neml26OptionISt6vectorIS1_INS_10TensorNameINS_4SWR4EEESaIS4_EESaIS6_EEEneERKNS_10OptionBaseE
FNDA:0,_ZNK5neml26OptionISt6vectorIS1_INS_10TensorNameINS_4WFR4EEESaIS4_EESaIS6_EEEneERKNS_10OptionBaseE
FNDA:0,_ZNK5neml26OptionISt6vectorIS1_INS_10TensorNameINS_4WSR4EEESaIS4_EESaIS6_EEEneERKNS_10OptionBaseE
FNDA:0,_ZNK5neml26OptionISt6vectorIS1_INS_10TensorNameINS_4WWR4EEESaIS4_EESaIS6_EEEneERKNS_10OptionBaseE
FNDA:0,_ZNK5neml26OptionISt6vectorIS1_INS_10TensorNameINS_5SFFR4EEESaIS4_EESaIS6_EEEneERKNS_10OptionBaseE
FNDA:0,_ZNK5neml26OptionISt6vectorIS1_INS_10TensorNameINS_5SSFR5EEESaIS4_EESaIS6_EEEneERKNS_10OptionBaseE
FNDA:0,_ZNK5neml26OptionISt6vectorIS1_INS_10TensorNameINS_6SSSSR8EEESaIS4_EESaIS6_EEEneERKNS_10OptionBaseE
FNDA:0,_ZNK5neml26OptionISt6vectorIS1_INS_10TensorNameINS_6ScalarEEESaIS4_EESaIS6_EEEneERKNS_10OptionBaseE
FNDA:0,_ZNK5neml26OptionISt6vectorIS1_INS_10TensorNameINS_6TensorEEESaIS4_EESaIS6_EEEneERKNS_10OptionBaseE
FNDA:0,_ZNK5neml26OptionISt6vectorIS1_INS_19LabeledAxisAccessorESaIS2_EESaIS4_EEEneERKNS_10OptionBaseE
FNDA:0,_ZNK5neml26OptionISt6vectorIS1_ISsSaISsEESaIS3_EEEneERKNS_10OptionBaseE
FNDA:0,_ZNK5neml26OptionISt6vectorIS1_IbSaIbEESaIS3_EEEneERKNS_10OptionBaseE
FNDA:0,_ZNK5neml26OptionISt6vectorIS1_IdSaIdEESaIS3_EEEneERKNS_10OptionBaseE
FNDA:0,_ZNK5neml26OptionISt6vectorIS1_IiSaIiEESaIS3_EEEneERKNS_10OptionBaseE
FNDA:0,_ZNK5neml26OptionISt6vectorIS1_IjSaIjEESaIS3_EEEneERKNS_10OptionBaseE
FNDA:0,_ZNK5neml26OptionISt6vectorIS1_IlSaIlEESaIS3_EEEneERKNS_10OptionBaseE
FNDA:0,_ZNK5neml26OptionISt6vectorIS1_ImSaImEESaIS3_EEEneERKNS_10OptionBaseE
FNDA:0,_ZNK5neml26OptionISt6vectorISsSaISsEEEneERKNS_10OptionBaseE
FNDA:0,_ZNK5neml26OptionISt6vectorIbSaIbEEEneERKNS_10OptionBaseE
FNDA:0,_ZNK5neml26OptionISt6vectorIdSaIdEEEneERKNS_10OptionBaseE
FNDA:0,_ZNK5neml26OptionISt6vectorIiSaIiEEEneERKNS_10OptionBaseE
FNDA:0,_ZNK5neml26OptionISt6vectorIjSaIjEEEneERKNS_10OptionBaseE
FNDA:0,_ZNK5neml26OptionISt6vectorIlSaIlEEEneERKNS_10OptionBaseE
FNDA:0,_ZNK5neml26OptionISt6vectorImSaImEEEneERKNS_10OptionBaseE
FNDA:0,_ZNK5neml26OptionIbEneERKNS_10OptionBaseE
FNDA:0,_ZNK5neml26OptionIdEneERKNS_10OptionBaseE
FNDA:0,_ZNK5neml26OptionIiEneERKNS_10OptionBaseE
FNDA:0,_ZNK5neml26OptionIjEneERKNS_10OptionBaseE
FNDA:0,_ZNK5neml26OptionIlEneERKNS_10OptionBaseE
FNDA:0,_ZNK5neml26OptionImEneERKNS_10OptionBaseE
FNDA:7358,_ZNK5neml26OptionIN3c1011SmallVectorIlLj8EEEE5cloneEv
FNDA:34,_ZNK5neml26OptionIN3c106DeviceEE5cloneEv
FNDA:0,_ZNK5neml26OptionINS_10TensorNameIN2at6TensorEEEE5cloneEv
FNDA:20,_ZNK5neml26OptionINS_10TensorNameINS_10QuaternionEEEE5cloneEv
FNDA:346,_ZNK5neml26OptionINS_10TensorNameINS_11MillerIndexEEEE5cloneEv
FNDA:351,_ZNK5neml26OptionINS_10TensorNameINS_2R2EEEE5cloneEv
FNDA:184,_ZNK5neml26OptionINS_10TensorNameINS_2R3EEEE5cloneEv
FNDA:184,_ZNK5neml26OptionINS_10TensorNameINS_2R4EEEE5cloneEv
FNDA:184,_ZNK5neml26OptionINS_10TensorNameINS_2R5EEEE5cloneEv
FNDA:20,_ZNK5neml26OptionINS_10TensorNameINS_2R8EEEE5cloneEv
FNDA:184,_ZNK5neml26OptionINS_10TensorNameINS_3RotEEEE5cloneEv
FNDA:495,_ZNK5neml26OptionINS_10TensorNameINS_3SR2EEEE5cloneEv
FNDA:351,_ZNK5neml26OptionINS_10TensorNameINS_3VecEEEE5cloneEv
FNDA:39,_ZNK5neml26OptionINS_10TensorNameINS_3WR2EEEE5cloneEv
FNDA:184,_ZNK5neml26OptionINS_10TensorNameINS_4SFR3EEEE5cloneEv
FNDA:184,_ZNK5neml26OptionINS_10TensorNameINS_4SFR4EEEE5cloneEv
FNDA:213,_ZNK5neml26OptionINS_10TensorNameINS_4SSR4EEEE5cloneEv
FNDA:20,_ZNK5neml26OptionINS_10TensorNameINS_4SWR4EEEE5cloneEv
FNDA:184,_ZNK5neml26OptionINS_10TensorNameINS_4WFR4EEEE5cloneEv
FNDA:20,_ZNK5neml26OptionINS_10TensorNameINS_4WSR4EEEE5cloneEv
FNDA:20,_ZNK5neml26OptionINS_10TensorNameINS_4WWR4EEEE5cloneEv
FNDA:20,_ZNK5neml26OptionINS_10TensorNameINS_5SFFR4EEEE5cloneEv
FNDA:184,_ZNK5neml26OptionINS_10TensorNameINS_5SSFR5EEEE5cloneEv
FNDA:20,_ZNK5neml26OptionINS_10TensorNameINS_6SSSSR8EEEE5cloneEv
FNDA:2089,_ZNK5neml26OptionINS_10TensorNameINS_6ScalarEEEE5cloneEv
FNDA:130,_ZNK5neml26OptionINS_10TensorNameINS_6TensorEEEE5cloneEv
FNDA:892,_ZNK5neml26OptionINS_13EnumSelectionEE5cloneEv
FNDA:138,_ZNK5neml26OptionINS_18MultiEnumSelectionEE5cloneEv
FNDA:4973,_ZNK5neml26OptionINS_19LabeledAxisAccessorEE5cloneEv
FNDA:14322,_ZNK5neml26OptionIPNS_11NEML2ObjectEE5cloneEv
FNDA:6126,_ZNK5neml26OptionISsE5cloneEv
FNDA:34,_ZNK5neml26OptionISt6vectorIN3c1011SmallVectorIlLj8EEESaIS4_EEE5cloneEv
FNDA:44,_ZNK5neml26OptionISt6vectorIN3c106DeviceESaIS3_EEE5cloneEv
FNDA:4,_ZNK5neml26OptionISt6vectorINS_10TensorNameIN2at6TensorEEESaIS5_EEE5cloneEv
FNDA:1572,_ZNK5neml26OptionISt6vectorINS_10TensorNameINS_10QuaternionEEESaIS4_EEE5cloneEv
FNDA:1572,_ZNK5neml26OptionISt6vectorINS_10TensorNameINS_11MillerIndexEEESaIS4_EEE5cloneEv
FNDA:1572,_ZNK5neml26OptionISt6vectorINS_10TensorNameINS_2R2EEESaIS4_EEE5cloneEv
FNDA:1572,_ZNK5neml26OptionISt6vectorINS_10TensorNameINS_2R3EEESaIS4_EEE5cloneEv
FNDA:1572,_ZNK5neml26OptionISt6vectorINS_10TensorNameINS_2R4EEESaIS4_EEE5cloneEv
FNDA:1572,_ZNK5neml26OptionISt6vectorINS_10TensorNameINS_2R5EEESaIS4_EEE5cloneEv
FNDA:1572,_ZNK5neml26OptionISt6vectorINS_10TensorNameINS_2R8EEESaIS4_EEE5cloneEv
FNDA:1572,_ZNK5neml26OptionISt6vectorINS_10TensorNameINS_3RotEEESaIS4_EEE5cloneEv
FNDA:1572,_ZNK5neml26OptionISt6vectorINS_10TensorNameINS_3SR2EEESaIS4_EEE5cloneEv
FNDA:1572,_ZNK5neml26OptionISt6vectorINS_10TensorNameINS_3VecEEESaIS4_EEE5cloneEv
FNDA:1572,_ZNK5neml26OptionISt6vectorINS_10TensorNameINS_3WR2EEESaIS4_EEE5cloneEv
FNDA:1572,_ZNK5neml26OptionISt6vectorINS_10TensorNameINS_4SFR3EEESaIS4_EEE5cloneEv
FNDA:1572,_ZNK5neml26OptionISt6vectorINS_10TensorNameINS_4SFR4EEESaIS4_EEE5cloneEv
FNDA:1572,_ZNK5neml26OptionISt6vectorINS_10TensorNameINS_4SSR4EEESaIS4_EEE5cloneEv
FNDA:1572,_ZNK5neml26OptionISt6vectorINS_10TensorNameINS_4SWR4EEESaIS4_EEE5cloneEv
FNDA:1572,_ZNK5neml26OptionISt6vectorINS_10TensorNameINS_4WFR4EEESaIS4_EEE5cloneEv
FNDA:1572,_ZNK5neml26OptionISt6vectorINS_10TensorNameINS_4WSR4EEESaIS4_EEE5cloneEv
FNDA:1572,_ZNK5neml26OptionISt6vectorINS_10TensorNameINS_4WWR4EEESaIS4_EEE5cloneEv
FNDA:1572,_ZNK5neml26OptionISt6vectorINS_10TensorNameINS_5SFFR4EEESaIS4_EEE5cloneEv
FNDA:1572,_ZNK5neml26OptionISt6vectorINS_10TensorNameINS_5SSFR5EEESaIS4_EEE5cloneEv
FNDA:1572,_ZNK5neml26OptionISt6vectorINS_10TensorNameINS_6SSSSR8EEESaIS4_EEE5cloneEv
FNDA:2699,_ZNK5neml26OptionISt6vectorINS_10TensorNameINS_6ScalarEEESaIS4_EEE5cloneEv
FNDA:1572,_ZNK5neml26OptionISt6vectorINS_10TensorNameINS_6TensorEEESaIS4_EEE5cloneEv
FNDA:36667,_ZNK5neml26OptionISt6vectorINS_19LabeledAxisAccessorESaIS2_EEE5cloneEv
FNDA:34,_ZNK5neml26OptionISt6vectorIS1_IN3c1011SmallVectorIlLj8EEESaIS4_EESaIS6_EEE5cloneEv
FNDA:34,_ZNK5neml26OptionISt6vectorIS1_IN3c106DeviceESaIS3_EESaIS5_EEE5cloneEv
FNDA:0,_ZNK5neml26OptionISt6vectorIS1_INS_10TensorNameIN2at6TensorEEESaIS5_EESaIS7_EEE5cloneEv
FNDA:0,_ZNK5neml26OptionISt6vectorIS1_INS_10TensorNameINS_10QuaternionEEESaIS4_EESaIS6_EEE5cloneEv
FNDA:0,_ZNK5neml26OptionISt6vectorIS1_INS_10TensorNameINS_11MillerIndexEEESaIS4_EESaIS6_EEE5cloneEv
FNDA:0,_ZNK5neml26OptionISt6vectorIS1_INS_10TensorNameINS_2R2EEESaIS4_EESaIS6_EEE5cloneEv
FNDA:0,_ZNK5neml26OptionISt6vectorIS1_INS_10TensorNameINS_2R3EEESaIS4_EESaIS6_EEE5cloneEv
FNDA:0,_ZNK5neml26OptionISt6vectorIS1_INS_10TensorNameINS_2R4EEESaIS4_EESaIS6_EEE5cloneEv
FNDA:0,_ZNK5neml26OptionISt6vectorIS1_INS_10TensorNameINS_2R5EEESaIS4_EESaIS6_EEE5cloneEv
FNDA:0,_ZNK5neml26OptionISt6vectorIS1_INS_10TensorNameINS_2R8EEESaIS4_EESaIS6_EEE5cloneEv
FNDA:0,_ZNK5neml26OptionISt6vectorIS1_INS_10TensorNameINS_3RotEEESaIS4_EESaIS6_EEE5cloneEv
FNDA:0,_ZNK5neml26OptionISt6vectorIS1_INS_10TensorNameINS_3SR2EEESaIS4_EESaIS6_EEE5cloneEv
FNDA:0,_ZNK5neml26OptionISt6vectorIS1_INS_10TensorNameINS_3VecEEESaIS4_EESaIS6_EEE5cloneEv
FNDA:0,_ZNK5neml26OptionISt6vectorIS1_INS_10TensorNameINS_3WR2EEESaIS4_EESaIS6_EEE5cloneEv
FNDA:0,_ZNK5neml26OptionISt6vectorIS1_INS_10TensorNameINS_4SFR3EEESaIS4_EESaIS6_EEE5cloneEv
FNDA:0,_ZNK5neml26OptionISt6vectorIS1_INS_10TensorNameINS_4SFR4EEESaIS4_EESaIS6_EEE5cloneEv
FNDA:0,_ZNK5neml26OptionISt6vectorIS1_INS_10TensorNameINS_4SSR4EEESaIS4_EESaIS6_EEE5cloneEv
FNDA:0,_ZNK5neml26OptionISt6vectorIS1_INS_10TensorNameINS_4SWR4EEESaIS4_EESaIS6_EEE5cloneEv
FNDA:0,_ZNK5neml26OptionISt6vectorIS1_INS_10TensorNameINS_4WFR4EEESaIS4_EESaIS6_EEE5cloneEv
FNDA:0,_ZNK5neml26OptionISt6vectorIS1_INS_10TensorNameINS_4WSR4EEESaIS4_EESaIS6_EEE5cloneEv
FNDA:0,_ZNK5neml26OptionISt6vectorIS1_INS_10TensorNameINS_4WWR4EEESaIS4_EESaIS6_EEE5cloneEv
FNDA:0,_ZNK5neml26OptionISt6vectorIS1_INS_10TensorNameINS_5SFFR4EEESaIS4_EESaIS6_EEE5cloneEv
FNDA:0,_ZNK5neml26OptionISt6vectorIS1_INS_10TensorNameINS_5SSFR5EEESaIS4_EESaIS6_EEE5cloneEv
FNDA:0,_ZNK5neml26OptionISt6vectorIS1_INS_10TensorNameINS_6SSSSR8EEESaIS4_EESaIS6_EEE5cloneEv
FNDA:0,_ZNK5neml26OptionISt6vectorIS1_INS_10TensorNameINS_6ScalarEEESaIS4_EESaIS6_EEE5cloneEv
FNDA:0,_ZNK5neml26OptionISt6vectorIS1_INS_10TensorNameINS_6TensorEEESaIS4_EESaIS6_EEE5cloneEv
FNDA:0,_ZNK5neml26OptionISt6vectorIS1_INS_19LabeledAxisAccessorESaIS2_EESaIS4_EEE5cloneEv
FNDA:34,_ZNK5neml26OptionISt6vectorIS1_ISsSaISsEESaIS3_EEE5cloneEv
FNDA:34,_ZNK5neml26OptionISt6vectorIS1_IbSaIbEESaIS3_EEE5cloneEv
FNDA:34,_ZNK5neml26OptionISt6vectorIS1_IdSaIdEESaIS3_EEE5cloneEv
FNDA:34,_ZNK5neml26OptionISt6vectorIS1_IiSaIiEESaIS3_EEE5cloneEv
FNDA:34,_ZNK5neml26OptionISt6vectorIS1_IjSaIjEESaIS3_EEE5cloneEv
FNDA:0,_ZNK5neml26OptionISt6vectorIS1_IlSaIlEESaIS3_EEE5cloneEv
FNDA:0,_ZNK5neml26OptionISt6vectorIS1_ImSaImEESaIS3_EEE5cloneEv
FNDA:1345,_ZNK5neml26OptionISt6vectorISsSaISsEEE5cloneEv
FNDA:306,_ZNK5neml26OptionISt6vectorIbSaIbEEE5cloneEv
FNDA:832,_ZNK5neml26OptionISt6vectorIdSaIdEEE5cloneEv
FNDA:34,_ZNK5neml26OptionISt6vectorIiSaIiEEE5cloneEv
FNDA:34,_ZNK5neml26OptionISt6vectorIjSaIjEEE5cloneEv
FNDA:328,_ZNK5neml26OptionISt6vectorIlSaIlEEE5cloneEv
FNDA:20,_ZNK5neml26OptionISt6vectorImSaImEEE5cloneEv
FNDA:26339,_ZNK5neml26OptionIbE5cloneEv
FNDA:15053,_ZNK5neml26OptionIdE5cloneEv
FNDA:34,_ZNK5neml26OptionIiE5cloneEv
FNDA:3205,_ZNK5neml26OptionIjE5cloneEv
FNDA:4132,_ZNK5neml26OptionIlE5cloneEv
FNDA:26,_ZNK5neml26OptionImE5cloneEv
FNF:423
FNH:156
DA:38,179856
DA:39,179856
DA:41,179856
DA:42,179856
DA:43,179856
DA:46,36
DA:47,36
DA:49,36
DA:50,36
DA:51,36
DA:55,6
DA:57,6
DA:58,6
DA:59,0
DA:61,6
DA:66,6
DA:68,6
DA:82,165427
DA:84,165427
DA:85,165427
DA:86,165427
DA:87,330854
DA:88,165427
DA:149,0
DA:151,0
DA:152,0
DA:156,0
DA:158,0
DA:159,0
DA:163,0
DA:165,0
DA:166,0
DA:167,0
LF:33
LH:22
end_of_record
TN:
SF:/home/runner/work/neml2/neml2/src/neml2/base/OptionBase.cxx
FN:30,34,_ZN5neml2lsERSoRKNS_10OptionBaseE
FNDA:0,_ZN5neml2lsERSoRKNS_10OptionBaseE
FNF:1
FNH:0
DA:30,0
DA:32,0
DA:33,0
LF:3
LH:0
end_of_record
TN:
SF:/home/runner/work/neml2/neml2/src/neml2/base/OptionCollection.cxx
FN:32,35,_ZN5neml216OptionCollectionC2Ev
FN:38,41,_ZN5neml216OptionCollectionixERKSs
FN:44,47,_ZNK5neml216OptionCollectionixERKSs
FNDA:664,_ZN5neml216OptionCollectionC2Ev
FNDA:4823,_ZN5neml216OptionCollectionixERKSs
FNDA:1,_ZNK5neml216OptionCollectionixERKSs
FNF:3
FNH:3
DA:32,664
DA:33,664
DA:35,664
DA:38,4823
DA:40,4823
DA:44,1
DA:46,1
LF:7
LH:7
end_of_record
TN:
SF:/home/runner/work/neml2/neml2/src/neml2/base/OptionSet.cxx
FN:108,114,_ZN5neml29OptionSetaSEOS0_
FN:117,121,_ZN5neml29OptionSetpLERKS0_
FN:124,128,_ZN5neml29OptionSetpLEOS0_
FN:178,181,_ZN5neml29OptionSet5beginEv
FN:184,187,_ZNK5neml29OptionSet5beginEv
FN:190,193,_ZN5neml29OptionSet3endEv
FN:196,199,_ZNK5neml29OptionSet3endEv
FN:34,44,_ZN5neml218options_compatibleERKNS_9OptionSetES2_
FN:47,50,_ZNK5neml29OptionSet8containsERKSs
FN:53,62,_ZNK5neml29OptionSet3getERKSs
FN:65,74,_ZN5neml29OptionSet3setERKSs
FN:77,80,_ZN5neml29OptionSet9set_inputERKSs
FN:83,86,_ZN5neml29OptionSet10set_outputERKSs
FN:89,92,_ZN5neml29OptionSet5clearEv
FN:94,94,_ZN5neml29OptionSetC2ERKS0_
FN:96,96,_ZN5neml29OptionSetC2EOS0_
FN:99,105,_ZN5neml29OptionSetaSERKS0_
FNDA:1160,_ZN5neml29OptionSetaSEOS0_
FNDA:16055,_ZN5neml29OptionSetpLERKS0_
FNDA:398,_ZN5neml29OptionSetpLEOS0_
FNDA:7089,_ZN5neml29OptionSet5beginEv
FNDA:8,_ZNK5neml29OptionSet5beginEv
FNDA:7089,_ZN5neml29OptionSet3endEv
FNDA:8,_ZNK5neml29OptionSet3endEv
FNDA:8,_ZN5neml218options_compatibleERKNS_9OptionSetES2_
FNDA:14324,_ZNK5neml29OptionSet8containsERKSs
FNDA:241,_ZNK5neml29OptionSet3getERKSs
FNDA:14072,_ZN5neml29OptionSet3setERKSs
FNDA:433,_ZN5neml29OptionSet9set_inputERKSs
FNDA:293,_ZN5neml29OptionSet10set_outputERKSs
FNDA:14718,_ZN5neml29OptionSet5clearEv
FNDA:9982,_ZN5neml29OptionSetC2ERKS0_
FNDA:0,_ZN5neml29OptionSetC2EOS0_
FNDA:13558,_ZN5neml29OptionSetaSERKS0_
FNF:17
FNH:16
DA:34,8
DA:36,14
DA:38,6
DA:39,0
DA:40,6
DA:41,0
DA:43,8
DA:47,14324
DA:49,14324
DA:53,241
DA:55,241
DA:61,241
DA:65,14072
DA:67,14072
DA:73,14072
DA:77,433
DA:79,433
DA:83,293
DA:85,293
DA:89,14718
DA:91,14718
DA:92,14718
DA:94,9982
DA:96,0
DA:99,13558
DA:101,13558
DA:102,13558
DA:103,13558
DA:104,13558
DA:108,1160
DA:110,1160
DA:111,1160
DA:112,1160
DA:113,1160
DA:117,16055
DA:119,180322
DA:120,164267
DA:121,16055
DA:124,398
DA:126,1558
DA:127,1160
DA:128,398
DA:178,7089
DA:180,7089
DA:184,8
DA:186,8
DA:190,7089
DA:192,7089
DA:196,8
DA:198,8
LF:50
LH:47
end_of_record
TN:
SF:/home/runner/work/neml2/neml2/src/neml2/base/Parser.cxx
FN:110,113,_ZN5neml25utils5parseIN3c106DeviceEEET_RKSs
FN:117,131,_ZN5neml25utils6parse_IN3c106DeviceEEEbRT_RKSs
FN:40,60,_ZN5neml25utils6parse_IbEEbRT_RKSs
FN:64,77,_ZN5neml25utils13parse_vector_IbEEbRSt6vectorIT_SaIS3_EERKSs
FN:81,86,_ZN5neml25utils6parse_INS_19LabeledAxisAccessorEEEbRT_RKSs
FN:90,106,_ZN5neml25utils6parse_IN3c1011SmallVectorIlLj8EEEEEbRT_RKSs
FNDA:0,_ZN5neml25utils5parseIN3c106DeviceEEET_RKSs
FNDA:90,_ZN5neml25utils6parse_IN3c106DeviceEEEbRT_RKSs
FNDA:238,_ZN5neml25utils6parse_IbEEbRT_RKSs
FNDA:50,_ZN5neml25utils13parse_vector_IbEEbRSt6vectorIT_SaIS3_EERKSs
FNDA:903,_ZN5neml25utils6parse_INS_19LabeledAxisAccessorEEEbRT_RKSs
FNDA:1562,_ZN5neml25utils6parse_IN3c1011SmallVectorIlLj8EEEEEbRT_RKSs
FNF:6
FNH:5
DA:40,238
DA:42,238
DA:43,238
DA:44,238
DA:45,0
DA:47,238
DA:49,124
DA:50,124
DA:53,114
DA:55,113
DA:56,113
DA:59,1
DA:60,238
DA:64,50
DA:66,50
DA:67,50
DA:68,184
DA:70,134
DA:71,134
DA:72,134
DA:73,0
DA:74,134
DA:76,50
DA:77,50
DA:81,903
DA:83,903
DA:84,903
DA:85,903
DA:86,903
DA:90,1562
DA:92,1562
DA:93,1
DA:95,3122
DA:96,1561
DA:98,1561
DA:99,4582
DA:101,3021
DA:102,3021
DA:103,0
DA:105,1561
DA:106,1561
DA:110,0
DA:112,0
DA:117,90
DA:119,90
DA:122,90
DA:123,90
DA:125,0
DA:128,0
DA:129,0
DA:130,0
DA:131,90
LF:52
LH:43
end_of_record
TN:
SF:/home/runner/work/neml2/neml2/src/neml2/base/Registry.cxx
FN:36,40,_ZN5neml28Registry3getEv
FN:43,67,_ZN5neml28Registry4loadERKNSt10filesystem4pathE
FN:70,73,_ZN5neml28Registry4infoEv
FN:76,84,_ZN5neml28Registry4infoERKSs
FN:87,98,_ZN5neml28Registry9add_innerERKSsS2_RKNS_9OptionSetEPFSt10shared_ptrINS_11NEML2ObjectEES5_E
FNDA:5375,_ZN5neml28Registry3getEv
FNDA:2,_ZN5neml28Registry4loadERKNSt10filesystem4pathE
FNDA:2,_ZN5neml28Registry4infoEv
FNDA:4589,_ZN5neml28Registry4infoERKSs
FNDA:783,_ZN5neml28Registry9add_innerERKSsS2_RKNS_9OptionSetEPFSt10shared_ptrINS_11NEML2ObjectEES5_E
FNF:5
FNH:5
DA:36,5375
DA:38,5375
DA:39,5375
DA:43,2
DA:48,2
DA:51,2
DA:52,2
DA:53,2
DA:54,4
DA:56,2
DA:59,2
DA:60,2
DA:62,2
DA:66,2
DA:67,2
DA:70,2
DA:72,2
DA:76,4589
DA:78,4589
DA:79,4589
DA:80,4589
DA:83,4589
DA:87,783
DA:92,783
DA:93,783
DA:97,783
DA:98,783
LF:27
LH:27
end_of_record
TN:
SF:/home/runner/work/neml2/neml2/src/neml2/base/Settings.cxx
FN:36,88,_ZN5neml28Settings16expected_optionsEv
FN:91,113,_ZN5neml28Settings5applyERKNS_9OptionSetE
FNDA:664,_ZN5neml28Settings16expected_optionsEv
FNDA:336,_ZN5neml28Settings5applyERKNS_9OptionSetE
FNF:2
FNH:2
DA:36,664
DA:38,664
DA:39,664
DA:40,664
DA:42,1328
DA:49,3984
DA:50,664
DA:51,1328
DA:52,1992
DA:54,1328
DA:55,1992
DA:56,664
DA:58,1328
DA:59,1328
DA:61,1328
DA:62,1328
DA:64,1328
DA:65,1992
DA:67,664
DA:69,1328
DA:70,1992
DA:72,664
DA:74,1328
DA:75,1992
DA:78,664
DA:80,1328
DA:81,1328
DA:85,664
DA:87,1328
DA:88,664
DA:91,336
DA:94,672
DA:97,672
DA:100,672
DA:101,672
DA:104,672
DA:105,672
DA:108,672
DA:111,673
DA:112,1
DA:113,336
LF:41
LH:41
end_of_record
TN:
SF:/home/runner/work/neml2/neml2/src/neml2/base/TensorName.cxx
FN:36,62,_ZNK5neml210TensorNameIN2at6TensorEE7resolveEv
FN:36,62,_ZNK5neml210TensorNameINS_10QuaternionEE7resolveEv
FN:36,62,_ZNK5neml210TensorNameINS_11MillerIndexEE7resolveEv
FN:36,62,_ZNK5neml210TensorNameINS_2R2EE7resolveEv
FN:36,62,_ZNK5neml210TensorNameINS_2R3EE7resolveEv
FN:36,62,_ZNK5neml210TensorNameINS_2R4EE7resolveEv
FN:36,62,_ZNK5neml210TensorNameINS_2R5EE7resolveEv
FN:36,62,_ZNK5neml210TensorNameINS_2R8EE7resolveEv
FN:36,62,_ZNK5neml210TensorNameINS_3RotEE7resolveEv
FN:36,62,_ZNK5neml210TensorNameINS_3SR2EE7resolveEv
FN:36,62,_ZNK5neml210TensorNameINS_3VecEE7resolveEv
FN:36,62,_ZNK5neml210TensorNameINS_3WR2EE7resolveEv
FN:36,62,_ZNK5neml210TensorNameINS_4SFR3EE7resolveEv
FN:36,62,_ZNK5neml210TensorNameINS_4SFR4EE7resolveEv
FN:36,62,_ZNK5neml210TensorNameINS_4SSR4EE7resolveEv
FN:36,62,_ZNK5neml210TensorNameINS_4SWR4EE7resolveEv
FN:36,62,_ZNK5neml210TensorNameINS_4WFR4EE7resolveEv
FN:36,62,_ZNK5neml210TensorNameINS_4WSR4EE7resolveEv
FN:36,62,_ZNK5neml210TensorNameINS_4WWR4EE7resolveEv
FN:36,62,_ZNK5neml210TensorNameINS_5SFFR4EE7resolveEv
FN:36,62,_ZNK5neml210TensorNameINS_5SSFR5EE7resolveEv
FN:36,62,_ZNK5neml210TensorNameINS_6SSSSR8EE7resolveEv
FN:36,62,_ZNK5neml210TensorNameINS_6ScalarEE7resolveEv
FN:36,62,_ZNK5neml210TensorNameINS_6TensorEE7resolveEv
FN:66,72,_ZNK5neml210TensorNameIN2at6TensorEE14resolve_numberEd
FN:66,72,_ZNK5neml210TensorNameINS_10QuaternionEE14resolve_numberEd
FN:66,72,_ZNK5neml210TensorNameINS_11MillerIndexEE14resolve_numberEd
FN:66,72,_ZNK5neml210TensorNameINS_2R2EE14resolve_numberEd
FN:66,72,_ZNK5neml210TensorNameINS_2R3EE14resolve_numberEd
FN:66,72,_ZNK5neml210TensorNameINS_2R4EE14resolve_numberEd
FN:66,72,_ZNK5neml210TensorNameINS_2R5EE14resolve_numberEd
FN:66,72,_ZNK5neml210TensorNameINS_2R8EE14resolve_numberEd
FN:66,72,_ZNK5neml210TensorNameINS_3RotEE14resolve_numberEd
FN:66,72,_ZNK5neml210TensorNameINS_3SR2EE14resolve_numberEd
FN:66,72,_ZNK5neml210TensorNameINS_3VecEE14resolve_numberEd
FN:66,72,_ZNK5neml210TensorNameINS_3WR2EE14resolve_numberEd
FN:66,72,_ZNK5neml210TensorNameINS_4SFR3EE14resolve_numberEd
FN:66,72,_ZNK5neml210TensorNameINS_4SFR4EE14resolve_numberEd
FN:66,72,_ZNK5neml210TensorNameINS_4SSR4EE14resolve_numberEd
FN:66,72,_ZNK5neml210TensorNameINS_4SWR4EE14resolve_numberEd
FN:66,72,_ZNK5neml210TensorNameINS_4WFR4EE14resolve_numberEd
FN:66,72,_ZNK5neml210TensorNameINS_4WSR4EE14resolve_numberEd
FN:66,72,_ZNK5neml210TensorNameINS_4WWR4EE14resolve_numberEd
FN:66,72,_ZNK5neml210TensorNameINS_5SFFR4EE14resolve_numberEd
FN:66,72,_ZNK5neml210TensorNameINS_5SSFR5EE14resolve_numberEd
FN:66,72,_ZNK5neml210TensorNameINS_6SSSSR8EE14resolve_numberEd
FN:66,72,_ZNK5neml210TensorNameINS_6ScalarEE14resolve_numberEd
FN:66,72,_ZNK5neml210TensorNameINS_6TensorEE14resolve_numberEd
FNDA:1,_ZNK5neml210TensorNameIN2at6TensorEE7resolveEv
FNDA:0,_ZNK5neml210TensorNameINS_10QuaternionEE7resolveEv
FNDA:124,_ZNK5neml210TensorNameINS_11MillerIndexEE7resolveEv
FNDA:45,_ZNK5neml210TensorNameINS_2R2EE7resolveEv
FNDA:4,_ZNK5neml210TensorNameINS_2R3EE7resolveEv
FNDA:4,_ZNK5neml210TensorNameINS_2R4EE7resolveEv
FNDA:4,_ZNK5neml210TensorNameINS_2R5EE7resolveEv
FNDA:0,_ZNK5neml210TensorNameINS_2R8EE7resolveEv
FNDA:21,_ZNK5neml210TensorNameINS_3RotEE7resolveEv
FNDA:148,_ZNK5neml210TensorNameINS_3SR2EE7resolveEv
FNDA:28,_ZNK5neml210TensorNameINS_3VecEE7resolveEv
FNDA:11,_ZNK5neml210TensorNameINS_3WR2EE7resolveEv
FNDA:4,_ZNK5neml210TensorNameINS_4SFR3EE7resolveEv
FNDA:4,_ZNK5neml210TensorNameINS_4SFR4EE7resolveEv
FNDA:15,_ZNK5neml210TensorNameINS_4SSR4EE7resolveEv
FNDA:0,_ZNK5neml210TensorNameINS_4SWR4EE7resolveEv
FNDA:4,_ZNK5neml210TensorNameINS_4WFR4EE7resolveEv
FNDA:0,_ZNK5neml210TensorNameINS_4WSR4EE7resolveEv
FNDA:0,_ZNK5neml210TensorNameINS_4WWR4EE7resolveEv
FNDA:0,_ZNK5neml210TensorNameINS_5SFFR4EE7resolveEv
FNDA:4,_ZNK5neml210TensorNameINS_5SSFR5EE7resolveEv
FNDA:0,_ZNK5neml210TensorNameINS_6SSSSR8EE7resolveEv
FNDA:1596,_ZNK5neml210TensorNameINS_6ScalarEE7resolveEv
FNDA:27,_ZNK5neml210TensorNameINS_6TensorEE7resolveEv
FNDA:1,_ZNK5neml210TensorNameIN2at6TensorEE14resolve_numberEd
FNDA:0,_ZNK5neml210TensorNameINS_10QuaternionEE14resolve_numberEd
FNDA:0,_ZNK5neml210TensorNameINS_11MillerIndexEE14resolve_numberEd
FNDA:0,_ZNK5neml210TensorNameINS_2R2EE14resolve_numberEd
FNDA:0,_ZNK5neml210TensorNameINS_2R3EE14resolve_numberEd
FNDA:0,_ZNK5neml210TensorNameINS_2R4EE14resolve_numberEd
FNDA:0,_ZNK5neml210TensorNameINS_2R5EE14resolve_numberEd
FNDA:0,_ZNK5neml210TensorNameINS_2R8EE14resolve_numberEd
FNDA:0,_ZNK5neml210TensorNameINS_3RotEE14resolve_numberEd
FNDA:14,_ZNK5neml210TensorNameINS_3SR2EE14resolve_numberEd
FNDA:0,_ZNK5neml210TensorNameINS_3VecEE14resolve_numberEd
FNDA:0,_ZNK5neml210TensorNameINS_3WR2EE14resolve_numberEd
FNDA:0,_ZNK5neml210TensorNameINS_4SFR3EE14resolve_numberEd
FNDA:0,_ZNK5neml210TensorNameINS_4SFR4EE14resolve_numberEd
FNDA:0,_ZNK5neml210TensorNameINS_4SSR4EE14resolve_numberEd
FNDA:0,_ZNK5neml210TensorNameINS_4SWR4EE14resolve_numberEd
FNDA:0,_ZNK5neml210TensorNameINS_4WFR4EE14resolve_numberEd
FNDA:0,_ZNK5neml210TensorNameINS_4WSR4EE14resolve_numberEd
FNDA:0,_ZNK5neml210TensorNameINS_4WWR4EE14resolve_numberEd
FNDA:0,_ZNK5neml210TensorNameINS_5SFFR4EE14resolve_numberEd
FNDA:0,_ZNK5neml210TensorNameINS_5SSFR5EE14resolve_numberEd
FNDA:0,_ZNK5neml210TensorNameINS_6SSSSR8EE14resolve_numberEd
FNDA:1327,_ZNK5neml210TensorNameINS_6ScalarEE14resolve_numberEd
FNDA:13,_ZNK5neml210TensorNameINS_6TensorEE14resolve_numberEd
FNF:48
FNH:21
DA:36,2044
DA:39,2044
DA:40,11
DA:41,2033
DA:42,2033
DA:43,2033
DA:44,1355
DA:47,678
DA:48,90
DA:51,1828
DA:52,524
DA:54,128
DA:56,128
DA:57,64
DA:59,64
DA:60,64
DA:66,1355
DA:69,14
DA:71,2682
LF:19
LH:19
end_of_record
TN:
SF:/home/runner/work/neml2/neml2/src/neml2/base/TracingInterface.cxx
FN:108,116,_ZN5neml211TraceWriter20trace_duration_beginERKSsS2_RKN8nlohmann16json_abi_v3_11_310basic_jsonISt3mapSt6vectorSsblmdSaNS4_14adl_serializerES7_IhSaIhEEvEEj
FN:119,127,_ZN5neml211TraceWriter18trace_duration_endERKSsS2_RKN8nlohmann16json_abi_v3_11_310basic_jsonISt3mapSt6vectorSsblmdSaNS4_14adl_serializerES7_IhSaIhEEvEEj
FN:130,140,_ZN5neml211TraceWriter13trace_instantERKSsS2_RKN8nlohmann16json_abi_v3_11_310basic_jsonISt3mapSt6vectorSsblmdSaNS4_14adl_serializerES7_IhSaIhEEvEES2_j
FN:144,151,_ZN5neml216TracingInterface16expected_optionsEv
FN:153,157,_ZN5neml216TracingInterfaceC2ESs
FN:159,162,_ZN5neml216TracingInterfaceC2ERKNS_9OptionSetE
FN:165,185,_ZN5neml216TracingInterface11init_writerESs
FN:188,193,_ZNK5neml216TracingInterface18event_trace_writerEv
FN:38,42,_ZN5neml219event_trace_writersEv
FN:44,62,_ZN5neml211TraceWriterC2ERKNSt10filesystem4pathE
FN:64,74,_ZN5neml211TraceWriterD2Ev
FN:78,95,_ZN5neml211TraceWriter18write_event_commonERN8nlohmann16json_abi_v3_11_310basic_jsonISt3mapSt6vectorSsblmdSaNS2_14adl_serializerES5_IhSaIhEEvEERKSsSC_RKS9_SC_j
FN:98,105,_ZN5neml211TraceWriter10dump_eventERKN8nlohmann16json_abi_v3_11_310basic_jsonISt3mapSt6vectorSsblmdSaNS2_14adl_serializerES5_IhSaIhEEvEEb
FNDA:7,_ZN5neml211TraceWriter20trace_duration_beginERKSsS2_RKN8nlohmann16json_abi_v3_11_310basic_jsonISt3mapSt6vectorSsblmdSaNS4_14adl_serializerES7_IhSaIhEEvEEj
FNDA:4,_ZN5neml211TraceWriter18trace_duration_endERKSsS2_RKN8nlohmann16json_abi_v3_11_310basic_jsonISt3mapSt6vectorSsblmdSaNS4_14adl_serializerES7_IhSaIhEEvEEj
FNDA:4,_ZN5neml211TraceWriter13trace_instantERKSsS2_RKN8nlohmann16json_abi_v3_11_310basic_jsonISt3mapSt6vectorSsblmdSaNS4_14adl_serializerES7_IhSaIhEEvEES2_j
FNDA:17,_ZN5neml216TracingInterface16expected_optionsEv
FNDA:15,_ZN5neml216TracingInterfaceC2ESs
FNDA:11,_ZN5neml216TracingInterfaceC2ERKNS_9OptionSetE
FNDA:4,_ZN5neml216TracingInterface11init_writerESs
FNDA:4,_ZNK5neml216TracingInterface18event_trace_writerEv
FNDA:8,_ZN5neml219event_trace_writersEv
FNDA:3,_ZN5neml211TraceWriterC2ERKNSt10filesystem4pathE
FNDA:3,_ZN5neml211TraceWriterD2Ev
FNDA:18,_ZN5neml211TraceWriter18write_event_commonERN8nlohmann16json_abi_v3_11_310basic_jsonISt3mapSt6vectorSsblmdSaNS2_14adl_serializerES5_IhSaIhEEvEERKSsSC_RKS9_SC_j
FNDA:18,_ZN5neml211TraceWriter10dump_eventERKN8nlohmann16json_abi_v3_11_310basic_jsonISt3mapSt6vectorSsblmdSaNS2_14adl_serializerES5_IhSaIhEEvEEb
FNF:13
FNH:13
DA:38,8
DA:40,8
DA:41,8
DA:44,3
DA:45,3
DA:46,3
DA:50,3
DA:51,3
DA:52,3
DA:57,3
DA:58,3
DA:60,24
DA:62,15
DA:64,6
DA:67,3
DA:68,24
DA:69,3
DA:70,3
DA:71,3
DA:72,3
DA:74,15
DA:78,18
DA:85,18
DA:86,18
DA:87,18
DA:88,36
DA:89,18
DA:90,36
DA:91,18
DA:92,18
DA:93,36
DA:94,18
DA:95,18
DA:98,18
DA:100,18
DA:101,18
DA:102,18
DA:103,15
DA:104,18
DA:105,18
DA:108,7
DA:113,7
DA:114,7
DA:115,7
DA:116,7
DA:119,4
DA:124,4
DA:125,4
DA:126,4
DA:127,4
DA:130,4
DA:136,4
DA:137,4
DA:138,4
DA:139,4
DA:140,4
DA:144,17
DA:146,17
DA:147,34
DA:148,34
DA:149,17
DA:150,17
DA:151,0
DA:153,15
DA:154,30
DA:155,15
DA:157,15
DA:159,11
DA:160,11
DA:162,11
DA:165,4
DA:172,4
DA:174,4
DA:175,4
DA:176,4
DA:177,4
DA:178,1
DA:181,3
DA:182,3
DA:183,3
DA:184,3
DA:185,4
DA:188,4
DA:190,4
DA:191,4
DA:192,4
LF:86
LH:85
end_of_record
TN:
SF:/home/runner/work/neml2/neml2/src/neml2/dispatchers/SimpleMPIScheduler.cxx
FN:111,130,_ZN5neml218SimpleMPIScheduler19determine_my_deviceEv
FN:133,141,_ZNK5neml218SimpleMPIScheduler18schedule_work_implERN3c106DeviceERm
FN:144,147,_ZN5neml218SimpleMPIScheduler20dispatched_work_implEN3c106DeviceEm
FN:150,154,_ZN5neml218SimpleMPIScheduler19completed_work_implEN3c106DeviceEm
FN:157,160,_ZNK5neml218SimpleMPIScheduler18all_work_completedEv
FN:37,53,_ZN5neml218SimpleMPIScheduler16expected_optionsEv
FN:55,69,_ZN5neml218SimpleMPISchedulerC2ERKNS_9OptionSetE
FN:72,108,_ZN5neml218SimpleMPIScheduler5setupEv
FNDA:0,_ZN5neml218SimpleMPIScheduler19determine_my_deviceEv
FNDA:0,_ZNK5neml218SimpleMPIScheduler18schedule_work_implERN3c106DeviceERm
FNDA:0,_ZN5neml218SimpleMPIScheduler20dispatched_work_implEN3c106DeviceEm
FNDA:0,_ZN5neml218SimpleMPIScheduler19completed_work_implEN3c106DeviceEm
FNDA:0,_ZNK5neml218SimpleMPIScheduler18all_work_completedEv
FNDA:2,_ZN5neml218SimpleMPIScheduler16expected_optionsEv
FNDA:0,_ZN5neml218SimpleMPISchedulerC2ERKNS_9OptionSetE
FNDA:0,_ZN5neml218SimpleMPIScheduler5setupEv
FNF:8
FNH:1
DA:37,2
DA:39,2
DA:40,2
DA:41,2
DA:43,4
DA:44,4
DA:46,4
DA:47,2
DA:49,6
DA:50,2
DA:52,2
DA:53,0
DA:55,0
DA:57,0
DA:58,0
DA:59,0
DA:60,0
DA:62,0
DA:64,0
DA:66,0
DA:67,0
DA:69,0
DA:72,0
DA:74,0
DA:79,0
DA:80,0
DA:82,0
DA:83,0
DA:84,0
DA:86,0
DA:92,0
DA:93,0
DA:95,0
DA:96,0
DA:98,0
DA:99,0
DA:100,0
DA:103,0
DA:105,0
DA:107,0
DA:108,0
DA:111,0
DA:115,0
DA:116,0
DA:117,0
DA:120,0
DA:123,0
DA:124,0
DA:126,0
DA:127,0
DA:130,0
DA:133,0
DA:135,0
DA:136,0
DA:138,0
DA:139,0
DA:140,0
DA:144,0
DA:146,0
DA:147,0
DA:150,0
DA:152,0
DA:153,0
DA:154,0
DA:157,0
DA:159,0
LF:66
LH:11
end_of_record
TN:
SF:/home/runner/work/neml2/neml2/src/neml2/dispatchers/SimpleScheduler.cxx
FN:34,50,_ZN5neml215SimpleScheduler16expected_optionsEv
FN:52,59,_ZN5neml215SimpleSchedulerC2ERKNS_9OptionSetE
FN:62,70,_ZNK5neml215SimpleScheduler18schedule_work_implERN3c106DeviceERm
FN:73,76,_ZN5neml215SimpleScheduler20dispatched_work_implEN3c106DeviceEm
FN:79,83,_ZN5neml215SimpleScheduler19completed_work_implEN3c106DeviceEm
FN:86,89,_ZNK5neml215SimpleScheduler18all_work_completedEv
FNDA:11,_ZN5neml215SimpleScheduler16expected_optionsEv
FNDA:9,_ZN5neml215SimpleSchedulerC2ERKNS_9OptionSetE
FNDA:84,_ZNK5neml215SimpleScheduler18schedule_work_implERN3c106DeviceERm
FNDA:23,_ZN5neml215SimpleScheduler20dispatched_work_implEN3c106DeviceEm
FNDA:23,_ZN5neml215SimpleScheduler19completed_work_implEN3c106DeviceEm
FNDA:12,_ZNK5neml215SimpleScheduler18all_work_completedEv
FNF:6
FNH:6
DA:34,11
DA:36,11
DA:37,11
DA:39,22
DA:40,22
DA:42,22
DA:43,22
DA:45,22
DA:46,22
DA:47,11
DA:49,11
DA:50,0
DA:52,9
DA:54,18
DA:55,18
DA:56,18
DA:57,18
DA:59,9
DA:62,84
DA:64,84
DA:65,38
DA:67,46
DA:68,46
DA:69,46
DA:73,23
DA:75,23
DA:76,23
DA:79,23
DA:81,23
DA:82,23
DA:83,23
DA:86,12
DA:88,12
LF:33
LH:32
end_of_record
TN:
SF:/home/runner/work/neml2/neml2/src/neml2/dispatchers/SliceGenerator.cxx
FN:30,39,_ZN5neml214SliceGeneratorC2Emm
FN:42,45,_ZNK5neml214SliceGenerator5totalEv
FN:48,53,_ZN5neml214SliceGenerator8generateEm
FNDA:14,_ZN5neml214SliceGeneratorC2Emm
FNDA:71,_ZNK5neml214SliceGenerator5totalEv
FNDA:57,_ZN5neml214SliceGenerator8generateEm
FNF:3
FNH:3
DA:30,14
DA:31,14
DA:32,14
DA:34,14
DA:36,14
DA:38,14
DA:39,14
DA:42,71
DA:44,71
DA:48,57
DA:50,57
DA:51,57
DA:52,114
DA:53,57
LF:14
LH:14
end_of_record
TN:
SF:/home/runner/work/neml2/neml2/src/neml2/dispatchers/StaticHybridScheduler.cxx
FN:140,143,_ZN5neml221StaticHybridScheduler27set_availability_calculatorESt8functionIFdRKNS0_12DeviceStatusEEE
FN:146,165,_ZNK5neml221StaticHybridScheduler18schedule_work_implERN3c106DeviceERm
FN:168,180,_ZN5neml221StaticHybridScheduler20dispatched_work_implEN3c106DeviceEm
FN:183,194,_ZN5neml221StaticHybridScheduler19completed_work_implEN3c106DeviceEm
FN:197,203,_ZNK5neml221StaticHybridScheduler18all_work_completedEv
FN:36,54,_ZN5neml221StaticHybridScheduler16expected_optionsEv
FN:56,60,_ZN5neml221StaticHybridSchedulerC2ERKNS_9OptionSetE
FN:63,137,_ZN5neml221StaticHybridScheduler5setupEv
FNDA:0,_ZN5neml221StaticHybridScheduler27set_availability_calculatorESt8functionIFdRKNS0_12DeviceStatusEEE
FNDA:0,_ZNK5neml221StaticHybridScheduler18schedule_work_implERN3c106DeviceERm
FNDA:5,_ZN5neml221StaticHybridScheduler20dispatched_work_implEN3c106DeviceEm
FNDA:4,_ZN5neml221StaticHybridScheduler19completed_work_implEN3c106DeviceEm
FNDA:0,_ZNK5neml221StaticHybridScheduler18all_work_completedEv
FNDA:4,_ZN5neml221StaticHybridScheduler16expected_optionsEv
FNDA:2,_ZN5neml221StaticHybridSchedulerC2ERKNS_9OptionSetE
FNDA:2,_ZN5neml221StaticHybridScheduler5setupEv
FNF:8
FNH:5
DA:36,4
DA:38,4
DA:39,4
DA:41,8
DA:42,8
DA:44,8
DA:45,4
DA:47,12
DA:48,4
DA:50,12
DA:51,4
DA:53,4
DA:54,0
DA:56,2
DA:58,6
DA:60,2
DA:63,2
DA:65,2
DA:67,4
DA:68,4
DA:69,4
DA:70,4
DA:76,6
DA:77,4
DA:79,2
DA:80,2
DA:82,2
DA:83,2
DA:85,0
DA:90,2
DA:91,2
DA:93,1
DA:94,4
DA:96,3
DA:97,1
DA:98,2
DA:99,2
DA:100,2
DA:103,2
DA:105,1
DA:108,2
DA:109,2
DA:110,1
DA:112,1
DA:116,2
DA:117,2
DA:118,0
DA:119,2
DA:120,1
DA:122,1
DA:126,2
DA:127,2
DA:128,0
DA:130,2
DA:134,6
DA:135,4
DA:136,4
DA:137,2
DA:140,0
DA:142,0
DA:143,0
DA:146,0
DA:148,0
DA:149,0
DA:151,0
DA:152,0
DA:155,0
DA:156,0
DA:158,0
DA:159,0
DA:160,0
DA:164,0
DA:168,5
DA:170,8
DA:171,8
DA:173,5
DA:175,5
DA:176,5
DA:179,0
DA:183,4
DA:185,7
DA:186,7
DA:188,4
DA:189,4
DA:190,4
DA:193,0
DA:197,0
DA:199,0
DA:200,0
DA:201,0
DA:202,0
LF:91
LH:66
end_of_record
TN:
SF:/home/runner/work/neml2/neml2/src/neml2/dispatchers/TensorLoader.cxx
FN:29,34,_ZN5neml212TensorLoaderC2ERKNS_6TensorEl
FN:37,40,_ZNK5neml212TensorLoader5totalEv
FN:43,48,_ZN5neml212TensorLoader8generateEm
FNDA:1,_ZN5neml212TensorLoaderC2ERKNS_6TensorEl
FNDA:5,_ZNK5neml212TensorLoader5totalEv
FNDA:3,_ZN5neml212TensorLoader8generateEm
FNF:3
FNH:3
DA:29,1
DA:30,1
DA:31,1
DA:32,1
DA:34,1
DA:37,5
DA:39,5
DA:43,3
DA:45,3
DA:46,3
DA:47,6
DA:48,3
LF:12
LH:12
end_of_record
TN:
SF:/home/runner/work/neml2/neml2/src/neml2/dispatchers/ValueMapLoader.cxx
FN:31,49,_ZN5neml220broadcast_batch_sizeERKSt3mapINS_19LabeledAxisAccessorENS_6TensorESt4lessIS1_ESaISt4pairIKS1_S2_EEEl
FN:51,56,_ZN5neml214ValueMapLoaderC2ERKSt3mapINS_19LabeledAxisAccessorENS_6TensorESt4lessIS2_ESaISt4pairIKS2_S3_EEEl
FN:59,62,_ZNK5neml214ValueMapLoader5totalEv
FN:65,74,_ZN5neml214ValueMapLoader8generateEm
FNDA:6,_ZN5neml220broadcast_batch_sizeERKSt3mapINS_19LabeledAxisAccessorENS_6TensorESt4lessIS1_ESaISt4pairIKS1_S2_EEEl
FNDA:6,_ZN5neml214ValueMapLoaderC2ERKSt3mapINS_19LabeledAxisAccessorENS_6TensorESt4lessIS2_ESaISt4pairIKS2_S3_EEEl
FNDA:17,_ZNK5neml214ValueMapLoader5totalEv
FNDA:13,_ZN5neml214ValueMapLoader8generateEm
FNF:4
FNH:4
DA:31,6
DA:33,6
DA:34,18
DA:35,12
DA:36,18
DA:38,12
DA:39,12
DA:48,6
DA:51,6
DA:52,6
DA:53,6
DA:54,6
DA:56,6
DA:59,17
DA:61,17
DA:65,13
DA:67,13
DA:69,13
DA:70,39
DA:71,26
DA:73,26
DA:74,13
LF:22
LH:22
end_of_record
TN:
SF:/home/runner/work/neml2/neml2/src/neml2/dispatchers/WorkScheduler.cxx
FN:105,114,_ZN5neml213WorkScheduler14completed_workEN3c106DeviceEm
FN:117,134,_ZN5neml213WorkScheduler19wait_for_completionEv
FN:128,128,_ZZN5neml213WorkScheduler19wait_for_completionEvENKUlvE_clEv
FN:32,39,_ZN5neml213WorkScheduler16expected_optionsEv
FN:41,45,_ZN5neml213WorkSchedulerC2ERKNS_9OptionSetE
FN:49,55,_ZN5neml2L7to_jsonERKN3c106DeviceERKm
FN:59,85,_ZN5neml213WorkScheduler13schedule_workERN3c106DeviceERm
FN:78,78,_ZZN5neml213WorkScheduler13schedule_workERN3c106DeviceERmENKUlvE_clEv
FN:88,102,_ZN5neml213WorkScheduler15dispatched_workEN3c106DeviceEm
FNDA:27,_ZN5neml213WorkScheduler14completed_workEN3c106DeviceEm
FNDA:4,_ZN5neml213WorkScheduler19wait_for_completionEv
FNDA:8,_ZZN5neml213WorkScheduler19wait_for_completionEvENKUlvE_clEv
FNDA:17,_ZN5neml213WorkScheduler16expected_optionsEv
FNDA:11,_ZN5neml213WorkSchedulerC2ERKNS_9OptionSetE
FNDA:0,_ZN5neml2L7to_jsonERKN3c106DeviceERKm
FNDA:46,_ZN5neml213WorkScheduler13schedule_workERN3c106DeviceERm
FNDA:38,_ZZN5neml213WorkScheduler13schedule_workERN3c106DeviceERmENKUlvE_clEv
FNDA:28,_ZN5neml213WorkScheduler15dispatched_workEN3c106DeviceEm
FNF:9
FNH:8
DA:32,17
DA:34,17
DA:35,17
DA:36,17
DA:38,17
DA:39,0
DA:41,11
DA:43,11
DA:45,11
DA:49,0
DA:51,0
DA:52,0
DA:53,0
DA:54,0
DA:55,0
DA:59,46
DA:61,46
DA:64,46
DA:65,0
DA:68,46
DA:71,27
DA:72,0
DA:73,0
DA:75,27
DA:77,19
DA:78,38
DA:81,19
DA:82,0
DA:83,0
DA:85,46
DA:88,28
DA:91,28
DA:92,0
DA:95,28
DA:96,28
DA:99,28
DA:100,0
DA:102,28
DA:105,27
DA:108,27
DA:109,0
DA:111,27
DA:112,27
DA:113,27
DA:114,27
DA:117,4
DA:119,4
DA:120,4
DA:123,0
DA:124,0
DA:126,0
DA:128,12
DA:131,4
DA:132,0
DA:134,4
LF:55
LH:36
end_of_record
TN:
SF:/home/runner/work/neml2/neml2/src/neml2/dispatchers/derivmap_helpers.cxx
FN:32,61,_ZN5neml219derivmap_cat_reduceEOSt6vectorISt3mapINS_19LabeledAxisAccessorES1_IS2_NS_6TensorESt4lessIS2_ESaISt4pairIKS2_S3_EEES5_SaIS6_IS7_SA_EEESaISD_EEl
FN:64,71,_ZN5neml220derivmap_move_deviceEOSt3mapINS_19LabeledAxisAccessorES0_IS1_NS_6TensorESt4lessIS1_ESaISt4pairIKS1_S2_EEES4_SaIS5_IS6_S9_EEEN3c106DeviceE
FN:74,77,_ZN5neml221derivmap_no_operationEOSt3mapINS_19LabeledAxisAccessorES0_IS1_NS_6TensorESt4lessIS1_ESaISt4pairIKS1_S2_EEES4_SaIS5_IS6_S9_EEE
FNDA:1,_ZN5neml219derivmap_cat_reduceEOSt6vectorISt3mapINS_19LabeledAxisAccessorES1_IS2_NS_6TensorESt4lessIS2_ESaISt4pairIKS2_S3_EEES5_SaIS6_IS7_SA_EEESaISD_EEl
FNDA:0,_ZN5neml220derivmap_move_deviceEOSt3mapINS_19LabeledAxisAccessorES0_IS1_NS_6TensorESt4lessIS1_ESaISt4pairIKS1_S2_EEES4_SaIS5_IS6_S9_EEEN3c106DeviceE
FNDA:1,_ZN5neml221derivmap_no_operationEOSt3mapINS_19LabeledAxisAccessorES0_IS1_NS_6TensorESt4lessIS1_ESaISt4pairIKS1_S2_EEES4_SaIS5_IS6_S9_EEE
FNF:3
FNH:2
DA:32,1
DA:35,1
DA:36,3
DA:37,4
DA:38,4
DA:39,2
DA:42,1
DA:43,2
DA:44,2
DA:46,1
DA:49,0
DA:50,0
DA:51,0
DA:52,0
DA:54,0
DA:57,1
DA:60,2
DA:61,1
DA:64,0
DA:67,0
DA:68,0
DA:69,0
DA:70,0
DA:74,1
DA:76,1
LF:25
LH:15
end_of_record
TN:
SF:/home/runner/work/neml2/neml2/src/neml2/dispatchers/valuemap_helpers.cxx
FN:32,46,_ZN5neml219valuemap_cat_reduceEOSt6vectorISt3mapINS_19LabeledAxisAccessorENS_6TensorESt4lessIS2_ESaISt4pairIKS2_S3_EEESaISA_EEl
FN:49,55,_ZN5neml220valuemap_move_deviceEOSt3mapINS_19LabeledAxisAccessorENS_6TensorESt4lessIS1_ESaISt4pairIKS1_S2_EEEN3c106DeviceE
FN:58,61,_ZN5neml221valuemap_no_operationEOSt3mapINS_19LabeledAxisAccessorENS_6TensorESt4lessIS1_ESaISt4pairIKS1_S2_EEE
FNDA:3,_ZN5neml219valuemap_cat_reduceEOSt6vectorISt3mapINS_19LabeledAxisAccessorENS_6TensorESt4lessIS2_ESaISt4pairIKS2_S3_EEESaISA_EEl
FNDA:10,_ZN5neml220valuemap_move_deviceEOSt3mapINS_19LabeledAxisAccessorENS_6TensorESt4lessIS1_ESaISt4pairIKS1_S2_EEEN3c106DeviceE
FNDA:11,_ZN5neml221valuemap_no_operationEOSt3mapINS_19LabeledAxisAccessorENS_6TensorESt4lessIS1_ESaISt4pairIKS1_S2_EEE
FNF:3
FNH:3
DA:32,3
DA:35,3
DA:36,15
DA:37,26
DA:38,14
DA:41,3
DA:42,7
DA:43,4
DA:45,6
DA:46,3
DA:49,10
DA:52,30
DA:53,20
DA:54,10
DA:58,11
DA:60,11
LF:16
LH:16
end_of_record
TN:
SF:/home/runner/work/neml2/neml2/src/neml2/drivers/Driver.cxx
FN:34,38,_ZN5neml210get_driverERKSs
FN:41,53,_ZN5neml26Driver16expected_optionsEv
FN:55,62,_ZN5neml26DriverC2ERKNS_9OptionSetE
FNDA:149,_ZN5neml210get_driverERKSs
FNDA:14,_ZN5neml26Driver16expected_optionsEv
FNDA:149,_ZN5neml26DriverC2ERKNS_9OptionSetE
FNF:3
FNH:3
DA:34,149
DA:36,149
DA:37,298
DA:38,149
DA:41,14
DA:43,14
DA:44,14
DA:46,28
DA:47,28
DA:49,28
DA:50,14
DA:52,14
DA:53,0
DA:55,149
DA:58,447
DA:60,298
DA:61,0
DA:62,149
LF:18
LH:16
end_of_record
TN:
SF:/home/runner/work/neml2/neml2/src/neml2/drivers/ModelDriver.cxx
FN:100,104,_ZZN5neml211ModelDriver5setupEvENKUlN3c106DeviceEE_clES2_
FN:109,120,_ZZN5neml211ModelDriver5setupEvENKUlOSt3mapINS_19LabeledAxisAccessorENS_6TensorESt4lessIS2_ESaISt4pairIKS2_S3_EEEN3c106DeviceEE_clESB_SD_
FN:142,146,_ZNK5neml211ModelDriver8diagnoseEv
FN:36,66,_ZN5neml211ModelDriver16expected_optionsEv
FN:68,84,_ZN5neml211ModelDriverC2ERKNS_9OptionSetE
FN:87,139,_ZN5neml211ModelDriver5setupEv
FN:94,95,_ZZN5neml211ModelDriver5setupEvENKUlOSt6vectorISt3mapINS_19LabeledAxisAccessorENS_6TensorESt4lessIS3_ESaISt4pairIKS3_S4_EEESaISB_EEE_clESE_
FN:97,98,_ZZN5neml211ModelDriver5setupEvENKUlOSt3mapINS_19LabeledAxisAccessorENS_6TensorESt4lessIS2_ESaISt4pairIKS2_S3_EEEE_clESB_
FNDA:0,_ZZN5neml211ModelDriver5setupEvENKUlN3c106DeviceEE_clES2_
FNDA:0,_ZZN5neml211ModelDriver5setupEvENKUlOSt3mapINS_19LabeledAxisAccessorENS_6TensorESt4lessIS2_ESaISt4pairIKS2_S3_EEEN3c106DeviceEE_clESB_SD_
FNDA:7,_ZNK5neml211ModelDriver8diagnoseEv
FNDA:8,_ZN5neml211ModelDriver16expected_optionsEv
FNDA:7,_ZN5neml211ModelDriverC2ERKNS_9OptionSetE
FNDA:7,_ZN5neml211ModelDriver5setupEv
FNDA:0,_ZZN5neml211ModelDriver5setupEvENKUlOSt6vectorISt3mapINS_19LabeledAxisAccessorENS_6TensorESt4lessIS3_ESaISt4pairIKS3_S4_EEESaISB_EEE_clESE_
FNDA:0,_ZZN5neml211ModelDriver5setupEvENKUlOSt3mapINS_19LabeledAxisAccessorENS_6TensorESt4lessIS2_ESaISt4pairIKS2_S3_EEEE_clESB_
FNF:8
FNH:4
DA:36,8
DA:38,8
DA:40,16
DA:41,16
DA:43,16
DA:44,24
DA:49,8
DA:51,16
DA:52,16
DA:53,16
DA:54,16
DA:55,16
DA:56,16
DA:59,16
DA:60,16
DA:61,16
DA:62,8
DA:65,8
DA:66,0
DA:68,7
DA:70,7
DA:71,21
DA:72,14
DA:73,14
DA:74,14
DA:77,21
DA:78,7
DA:79,7
DA:81,21
DA:84,7
DA:87,7
DA:89,7
DA:92,7
DA:94,0
DA:95,0
DA:97,0
DA:98,0
DA:100,0
DA:102,0
DA:103,0
DA:104,0
DA:106,0
DA:107,0
DA:108,0
DA:109,0
DA:111,0
DA:115,0
DA:116,0
DA:118,0
DA:119,0
DA:122,0
DA:124,0
DA:139,7
DA:142,7
DA:144,7
DA:145,7
DA:146,7
LF:57
LH:37
end_of_record
TN:
SF:/home/runner/work/neml2/neml2/src/neml2/drivers/TransientDriver.cxx
FN:104,141,_ZN5neml215TransientDriver16expected_optionsEv
FN:143,154,_ZN5neml215TransientDriverC2ERKNS_9OptionSetE
FN:157,169,_ZN5neml215TransientDriver5setupEv
FN:172,206,_ZNK5neml215TransientDriver8diagnoseEv
FN:209,217,_ZN5neml215TransientDriver3runEv
FN:220,251,_ZN5neml215TransientDriver5solveEv
FN:254,271,_ZN5neml215TransientDriver12advance_stepEv
FN:274,281,_ZN5neml215TransientDriver13update_forcesEv
FN:284,313,_ZN5neml215TransientDriver8apply_icEv
FN:316,349,_ZN5neml215TransientDriver15apply_predictorEv
FN:352,364,_ZN5neml215TransientDriver10solve_stepEv
FN:367,370,_ZN5neml215TransientDriver11store_inputEv
FN:373,376,_ZNK5neml215TransientDriver12save_as_pathEv
FN:379,407,_ZNK5neml215TransientDriver6resultEv
FN:410,431,_ZNK5neml215TransientDriver6outputEv
FN:434,437,_ZNK5neml215TransientDriver9output_ptERKNSt10filesystem4pathE
FN:45,70,_ZN5neml26set_icINS_10QuaternionEEEvRSt3mapINS_19LabeledAxisAccessorENS_6TensorESt4lessIS3_ESaISt4pairIKS3_S4_EEERKNS_9OptionSetERKSsSH_RKN3c106DeviceE
FN:45,70,_ZN5neml26set_icINS_11MillerIndexEEEvRSt3mapINS_19LabeledAxisAccessorENS_6TensorESt4lessIS3_ESaISt4pairIKS3_S4_EEERKNS_9OptionSetERKSsSH_RKN3c106DeviceE
FN:45,70,_ZN5neml26set_icINS_2R2EEEvRSt3mapINS_19LabeledAxisAccessorENS_6TensorESt4lessIS3_ESaISt4pairIKS3_S4_EEERKNS_9OptionSetERKSsSH_RKN3c106DeviceE
FN:45,70,_ZN5neml26set_icINS_2R3EEEvRSt3mapINS_19LabeledAxisAccessorENS_6TensorESt4lessIS3_ESaISt4pairIKS3_S4_EEERKNS_9OptionSetERKSsSH_RKN3c106DeviceE
FN:45,70,_ZN5neml26set_icINS_2R4EEEvRSt3mapINS_19LabeledAxisAccessorENS_6TensorESt4lessIS3_ESaISt4pairIKS3_S4_EEERKNS_9OptionSetERKSsSH_RKN3c106DeviceE
FN:45,70,_ZN5neml26set_icINS_2R5EEEvRSt3mapINS_19LabeledAxisAccessorENS_6TensorESt4lessIS3_ESaISt4pairIKS3_S4_EEERKNS_9OptionSetERKSsSH_RKN3c106DeviceE
FN:45,70,_ZN5neml26set_icINS_2R8EEEvRSt3mapINS_19LabeledAxisAccessorENS_6TensorESt4lessIS3_ESaISt4pairIKS3_S4_EEERKNS_9OptionSetERKSsSH_RKN3c106DeviceE
FN:45,70,_ZN5neml26set_icINS_3RotEEEvRSt3mapINS_19LabeledAxisAccessorENS_6TensorESt4lessIS3_ESaISt4pairIKS3_S4_EEERKNS_9OptionSetERKSsSH_RKN3c106DeviceE
FN:45,70,_ZN5neml26set_icINS_3SR2EEEvRSt3mapINS_19LabeledAxisAccessorENS_6TensorESt4lessIS3_ESaISt4pairIKS3_S4_EEERKNS_9OptionSetERKSsSH_RKN3c106DeviceE
FN:45,70,_ZN5neml26set_icINS_3VecEEEvRSt3mapINS_19LabeledAxisAccessorENS_6TensorESt4lessIS3_ESaISt4pairIKS3_S4_EEERKNS_9OptionSetERKSsSH_RKN3c106DeviceE
FN:45,70,_ZN5neml26set_icINS_3WR2EEEvRSt3mapINS_19LabeledAxisAccessorENS_6TensorESt4lessIS3_ESaISt4pairIKS3_S4_EEERKNS_9OptionSetERKSsSH_RKN3c106DeviceE
FN:45,70,_ZN5neml26set_icINS_4SFR3EEEvRSt3mapINS_19LabeledAxisAccessorENS_6TensorESt4lessIS3_ESaISt4pairIKS3_S4_EEERKNS_9OptionSetERKSsSH_RKN3c106DeviceE
FN:45,70,_ZN5neml26set_icINS_4SFR4EEEvRSt3mapINS_19LabeledAxisAccessorENS_6TensorESt4lessIS3_ESaISt4pairIKS3_S4_EEERKNS_9OptionSetERKSsSH_RKN3c106DeviceE
FN:45,70,_ZN5neml26set_icINS_4SSR4EEEvRSt3mapINS_19LabeledAxisAccessorENS_6TensorESt4lessIS3_ESaISt4pairIKS3_S4_EEERKNS_9OptionSetERKSsSH_RKN3c106DeviceE
FN:45,70,_ZN5neml26set_icINS_4SWR4EEEvRSt3mapINS_19LabeledAxisAccessorENS_6TensorESt4lessIS3_ESaISt4pairIKS3_S4_EEERKNS_9OptionSetERKSsSH_RKN3c106DeviceE
FN:45,70,_ZN5neml26set_icINS_4WFR4EEEvRSt3mapINS_19LabeledAxisAccessorENS_6TensorESt4lessIS3_ESaISt4pairIKS3_S4_EEERKNS_9OptionSetERKSsSH_RKN3c106DeviceE
FN:45,70,_ZN5neml26set_icINS_4WSR4EEEvRSt3mapINS_19LabeledAxisAccessorENS_6TensorESt4lessIS3_ESaISt4pairIKS3_S4_EEERKNS_9OptionSetERKSsSH_RKN3c106DeviceE
FN:45,70,_ZN5neml26set_icINS_4WWR4EEEvRSt3mapINS_19LabeledAxisAccessorENS_6TensorESt4lessIS3_ESaISt4pairIKS3_S4_EEERKNS_9OptionSetERKSsSH_RKN3c106DeviceE
FN:45,70,_ZN5neml26set_icINS_5SFFR4EEEvRSt3mapINS_19LabeledAxisAccessorENS_6TensorESt4lessIS3_ESaISt4pairIKS3_S4_EEERKNS_9OptionSetERKSsSH_RKN3c106DeviceE
FN:45,70,_ZN5neml26set_icINS_5SSFR5EEEvRSt3mapINS_19LabeledAxisAccessorENS_6TensorESt4lessIS3_ESaISt4pairIKS3_S4_EEERKNS_9OptionSetERKSsSH_RKN3c106DeviceE
FN:45,70,_ZN5neml26set_icINS_6SSSSR8EEEvRSt3mapINS_19LabeledAxisAccessorENS_6TensorESt4lessIS3_ESaISt4pairIKS3_S4_EEERKNS_9OptionSetERKSsSH_RKN3c106DeviceE
FN:45,70,_ZN5neml26set_icINS_6ScalarEEEvRSt3mapINS_19LabeledAxisAccessorENS_6TensorESt4lessIS3_ESaISt4pairIKS3_S4_EEERKNS_9OptionSetERKSsSH_RKN3c106DeviceE
FN:45,70,_ZN5neml26set_icINS_6TensorEEEvRSt3mapINS_19LabeledAxisAccessorES1_St4lessIS3_ESaISt4pairIKS3_S1_EEERKNS_9OptionSetERKSsSG_RKN3c106DeviceE
FN:74,101,_ZN5neml29get_forceINS_10QuaternionEEEvRSt6vectorINS_19LabeledAxisAccessorESaIS3_EERS2_INS_6TensorESaIS7_EERKNS_9OptionSetERKSsSF_RKN3c106DeviceE
FN:74,101,_ZN5neml29get_forceINS_11MillerIndexEEEvRSt6vectorINS_19LabeledAxisAccessorESaIS3_EERS2_INS_6TensorESaIS7_EERKNS_9OptionSetERKSsSF_RKN3c106DeviceE
FN:74,101,_ZN5neml29get_forceINS_2R2EEEvRSt6vectorINS_19LabeledAxisAccessorESaIS3_EERS2_INS_6TensorESaIS7_EERKNS_9OptionSetERKSsSF_RKN3c106DeviceE
FN:74,101,_ZN5neml29get_forceINS_2R3EEEvRSt6vectorINS_19LabeledAxisAccessorESaIS3_EERS2_INS_6TensorESaIS7_EERKNS_9OptionSetERKSsSF_RKN3c106DeviceE
FN:74,101,_ZN5neml29get_forceINS_2R4EEEvRSt6vectorINS_19LabeledAxisAccessorESaIS3_EERS2_INS_6TensorESaIS7_EERKNS_9OptionSetERKSsSF_RKN3c106DeviceE
FN:74,101,_ZN5neml29get_forceINS_2R5EEEvRSt6vectorINS_19LabeledAxisAccessorESaIS3_EERS2_INS_6TensorESaIS7_EERKNS_9OptionSetERKSsSF_RKN3c106DeviceE
FN:74,101,_ZN5neml29get_forceINS_2R8EEEvRSt6vectorINS_19LabeledAxisAccessorESaIS3_EERS2_INS_6TensorESaIS7_EERKNS_9OptionSetERKSsSF_RKN3c106DeviceE
FN:74,101,_ZN5neml29get_forceINS_3RotEEEvRSt6vectorINS_19LabeledAxisAccessorESaIS3_EERS2_INS_6TensorESaIS7_EERKNS_9OptionSetERKSsSF_RKN3c106DeviceE
FN:74,101,_ZN5neml29get_forceINS_3SR2EEEvRSt6vectorINS_19LabeledAxisAccessorESaIS3_EERS2_INS_6TensorESaIS7_EERKNS_9OptionSetERKSsSF_RKN3c106DeviceE
FN:74,101,_ZN5neml29get_forceINS_3VecEEEvRSt6vectorINS_19LabeledAxisAccessorESaIS3_EERS2_INS_6TensorESaIS7_EERKNS_9OptionSetERKSsSF_RKN3c106DeviceE
FN:74,101,_ZN5neml29get_forceINS_3WR2EEEvRSt6vectorINS_19LabeledAxisAccessorESaIS3_EERS2_INS_6TensorESaIS7_EERKNS_9OptionSetERKSsSF_RKN3c106DeviceE
FN:74,101,_ZN5neml29get_forceINS_4SFR3EEEvRSt6vectorINS_19LabeledAxisAccessorESaIS3_EERS2_INS_6TensorESaIS7_EERKNS_9OptionSetERKSsSF_RKN3c106DeviceE
FN:74,101,_ZN5neml29get_forceINS_4SFR4EEEvRSt6vectorINS_19LabeledAxisAccessorESaIS3_EERS2_INS_6TensorESaIS7_EERKNS_9OptionSetERKSsSF_RKN3c106DeviceE
FN:74,101,_ZN5neml29get_forceINS_4SSR4EEEvRSt6vectorINS_19LabeledAxisAccessorESaIS3_EERS2_INS_6TensorESaIS7_EERKNS_9OptionSetERKSsSF_RKN3c106DeviceE
FN:74,101,_ZN5neml29get_forceINS_4SWR4EEEvRSt6vectorINS_19LabeledAxisAccessorESaIS3_EERS2_INS_6TensorESaIS7_EERKNS_9OptionSetERKSsSF_RKN3c106DeviceE
FN:74,101,_ZN5neml29get_forceINS_4WFR4EEEvRSt6vectorINS_19LabeledAxisAccessorESaIS3_EERS2_INS_6TensorESaIS7_EERKNS_9OptionSetERKSsSF_RKN3c106DeviceE
FN:74,101,_ZN5neml29get_forceINS_4WSR4EEEvRSt6vectorINS_19LabeledAxisAccessorESaIS3_EERS2_INS_6TensorESaIS7_EERKNS_9OptionSetERKSsSF_RKN3c106DeviceE
FN:74,101,_ZN5neml29get_forceINS_4WWR4EEEvRSt6vectorINS_19LabeledAxisAccessorESaIS3_EERS2_INS_6TensorESaIS7_EERKNS_9OptionSetERKSsSF_RKN3c106DeviceE
FN:74,101,_ZN5neml29get_forceINS_5SFFR4EEEvRSt6vectorINS_19LabeledAxisAccessorESaIS3_EERS2_INS_6TensorESaIS7_EERKNS_9OptionSetERKSsSF_RKN3c106DeviceE
FN:74,101,_ZN5neml29get_forceINS_5SSFR5EEEvRSt6vectorINS_19LabeledAxisAccessorESaIS3_EERS2_INS_6TensorESaIS7_EERKNS_9OptionSetERKSsSF_RKN3c106DeviceE
FN:74,101,_ZN5neml29get_forceINS_6SSSSR8EEEvRSt6vectorINS_19LabeledAxisAccessorESaIS3_EERS2_INS_6TensorESaIS7_EERKNS_9OptionSetERKSsSF_RKN3c106DeviceE
FN:74,101,_ZN5neml29get_forceINS_6ScalarEEEvRSt6vectorINS_19LabeledAxisAccessorESaIS3_EERS2_INS_6TensorESaIS7_EERKNS_9OptionSetERKSsSF_RKN3c106DeviceE
FN:74,101,_ZN5neml29get_forceINS_6TensorEEEvRSt6vectorINS_19LabeledAxisAccessorESaIS3_EERS2_IS1_SaIS1_EERKNS_9OptionSetERKSsSE_RKN3c106DeviceE
FNDA:8,_ZN5neml215TransientDriver16expected_optionsEv
FNDA:7,_ZN5neml215TransientDriverC2ERKNS_9OptionSetE
FNDA:7,_ZN5neml215TransientDriver5setupEv
FNDA:7,_ZNK5neml215TransientDriver8diagnoseEv
FNDA:7,_ZN5neml215TransientDriver3runEv
FNDA:7,_ZN5neml215TransientDriver5solveEv
FNDA:63,_ZN5neml215TransientDriver12advance_stepEv
FNDA:70,_ZN5neml215TransientDriver13update_forcesEv
FNDA:7,_ZN5neml215TransientDriver8apply_icEv
FNDA:63,_ZN5neml215TransientDriver15apply_predictorEv
FNDA:63,_ZN5neml215TransientDriver10solve_stepEv
FNDA:70,_ZN5neml215TransientDriver11store_inputEv
FNDA:12,_ZNK5neml215TransientDriver12save_as_pathEv
FNDA:5,_ZNK5neml215TransientDriver6resultEv
FNDA:5,_ZNK5neml215TransientDriver6outputEv
FNDA:5,_ZNK5neml215TransientDriver9output_ptERKNSt10filesystem4pathE
FNDA:7,_ZN5neml26set_icINS_10QuaternionEEEvRSt3mapINS_19LabeledAxisAccessorENS_6TensorESt4lessIS3_ESaISt4pairIKS3_S4_EEERKNS_9OptionSetERKSsSH_RKN3c106DeviceE
FNDA:7,_ZN5neml26set_icINS_11MillerIndexEEEvRSt3mapINS_19LabeledAxisAccessorENS_6TensorESt4lessIS3_ESaISt4pairIKS3_S4_EEERKNS_9OptionSetERKSsSH_RKN3c106DeviceE
FNDA:7,_ZN5neml26set_icINS_2R2EEEvRSt3mapINS_19LabeledAxisAccessorENS_6TensorESt4lessIS3_ESaISt4pairIKS3_S4_EEERKNS_9OptionSetERKSsSH_RKN3c106DeviceE
FNDA:7,_ZN5neml26set_icINS_2R3EEEvRSt3mapINS_19LabeledAxisAccessorENS_6TensorESt4lessIS3_ESaISt4pairIKS3_S4_EEERKNS_9OptionSetERKSsSH_RKN3c106DeviceE
FNDA:7,_ZN5neml26set_icINS_2R4EEEvRSt3mapINS_19LabeledAxisAccessorENS_6TensorESt4lessIS3_ESaISt4pairIKS3_S4_EEERKNS_9OptionSetERKSsSH_RKN3c106DeviceE
FNDA:7,_ZN5neml26set_icINS_2R5EEEvRSt3mapINS_19LabeledAxisAccessorENS_6TensorESt4lessIS3_ESaISt4pairIKS3_S4_EEERKNS_9OptionSetERKSsSH_RKN3c106DeviceE
FNDA:7,_ZN5neml26set_icINS_2R8EEEvRSt3mapINS_19LabeledAxisAccessorENS_6TensorESt4lessIS3_ESaISt4pairIKS3_S4_EEERKNS_9OptionSetERKSsSH_RKN3c106DeviceE
FNDA:7,_ZN5neml26set_icINS_3RotEEEvRSt3mapINS_19LabeledAxisAccessorENS_6TensorESt4lessIS3_ESaISt4pairIKS3_S4_EEERKNS_9OptionSetERKSsSH_RKN3c106DeviceE
FNDA:7,_ZN5neml26set_icINS_3SR2EEEvRSt3mapINS_19LabeledAxisAccessorENS_6TensorESt4lessIS3_ESaISt4pairIKS3_S4_EEERKNS_9OptionSetERKSsSH_RKN3c106DeviceE
FNDA:7,_ZN5neml26set_icINS_3VecEEEvRSt3mapINS_19LabeledAxisAccessorENS_6TensorESt4lessIS3_ESaISt4pairIKS3_S4_EEERKNS_9OptionSetERKSsSH_RKN3c106DeviceE
FNDA:7,_ZN5neml26set_icINS_3WR2EEEvRSt3mapINS_19LabeledAxisAccessorENS_6TensorESt4lessIS3_ESaISt4pairIKS3_S4_EEERKNS_9OptionSetERKSsSH_RKN3c106DeviceE
FNDA:7,_ZN5neml26set_icINS_4SFR3EEEvRSt3mapINS_19LabeledAxisAccessorENS_6TensorESt4lessIS3_ESaISt4pairIKS3_S4_EEERKNS_9OptionSetERKSsSH_RKN3c106DeviceE
FNDA:7,_ZN5neml26set_icINS_4SFR4EEEvRSt3mapINS_19LabeledAxisAccessorENS_6TensorESt4lessIS3_ESaISt4pairIKS3_S4_EEERKNS_9OptionSetERKSsSH_RKN3c106DeviceE
FNDA:7,_ZN5neml26set_icINS_4SSR4EEEvRSt3mapINS_19LabeledAxisAccessorENS_6TensorESt4lessIS3_ESaISt4pairIKS3_S4_EEERKNS_9OptionSetERKSsSH_RKN3c106DeviceE
FNDA:7,_ZN5neml26set_icINS_4SWR4EEEvRSt3mapINS_19LabeledAxisAccessorENS_6TensorESt4lessIS3_ESaISt4pairIKS3_S4_EEERKNS_9OptionSetERKSsSH_RKN3c106DeviceE
FNDA:7,_ZN5neml26set_icINS_4WFR4EEEvRSt3mapINS_19LabeledAxisAccessorENS_6TensorESt4lessIS3_ESaISt4pairIKS3_S4_EEERKNS_9OptionSetERKSsSH_RKN3c106DeviceE
FNDA:7,_ZN5neml26set_icINS_4WSR4EEEvRSt3mapINS_19LabeledAxisAccessorENS_6TensorESt4lessIS3_ESaISt4pairIKS3_S4_EEERKNS_9OptionSetERKSsSH_RKN3c106DeviceE
FNDA:7,_ZN5neml26set_icINS_4WWR4EEEvRSt3mapINS_19LabeledAxisAccessorENS_6TensorESt4lessIS3_ESaISt4pairIKS3_S4_EEERKNS_9OptionSetERKSsSH_RKN3c106DeviceE
FNDA:7,_ZN5neml26set_icINS_5SFFR4EEEvRSt3mapINS_19LabeledAxisAccessorENS_6TensorESt4lessIS3_ESaISt4pairIKS3_S4_EEERKNS_9OptionSetERKSsSH_RKN3c106DeviceE
FNDA:7,_ZN5neml26set_icINS_5SSFR5EEEvRSt3mapINS_19LabeledAxisAccessorENS_6TensorESt4lessIS3_ESaISt4pairIKS3_S4_EEERKNS_9OptionSetERKSsSH_RKN3c106DeviceE
FNDA:7,_ZN5neml26set_icINS_6SSSSR8EEEvRSt3mapINS_19LabeledAxisAccessorENS_6TensorESt4lessIS3_ESaISt4pairIKS3_S4_EEERKNS_9OptionSetERKSsSH_RKN3c106DeviceE
FNDA:7,_ZN5neml26set_icINS_6ScalarEEEvRSt3mapINS_19LabeledAxisAccessorENS_6TensorESt4lessIS3_ESaISt4pairIKS3_S4_EEERKNS_9OptionSetERKSsSH_RKN3c106DeviceE
FNDA:7,_ZN5neml26set_icINS_6TensorEEEvRSt3mapINS_19LabeledAxisAccessorES1_St4lessIS3_ESaISt4pairIKS3_S1_EEERKNS_9OptionSetERKSsSG_RKN3c106DeviceE
FNDA:7,_ZN5neml29get_forceINS_10QuaternionEEEvRSt6vectorINS_19LabeledAxisAccessorESaIS3_EERS2_INS_6TensorESaIS7_EERKNS_9OptionSetERKSsSF_RKN3c106DeviceE
FNDA:7,_ZN5neml29get_forceINS_11MillerIndexEEEvRSt6vectorINS_19LabeledAxisAccessorESaIS3_EERS2_INS_6TensorESaIS7_EERKNS_9OptionSetERKSsSF_RKN3c106DeviceE
FNDA:7,_ZN5neml29get_forceINS_2R2EEEvRSt6vectorINS_19LabeledAxisAccessorESaIS3_EERS2_INS_6TensorESaIS7_EERKNS_9OptionSetERKSsSF_RKN3c106DeviceE
FNDA:7,_ZN5neml29get_forceINS_2R3EEEvRSt6vectorINS_19LabeledAxisAccessorESaIS3_EERS2_INS_6TensorESaIS7_EERKNS_9OptionSetERKSsSF_RKN3c106DeviceE
FNDA:7,_ZN5neml29get_forceINS_2R4EEEvRSt6vectorINS_19LabeledAxisAccessorESaIS3_EERS2_INS_6TensorESaIS7_EERKNS_9OptionSetERKSsSF_RKN3c106DeviceE
FNDA:7,_ZN5neml29get_forceINS_2R5EEEvRSt6vectorINS_19LabeledAxisAccessorESaIS3_EERS2_INS_6TensorESaIS7_EERKNS_9OptionSetERKSsSF_RKN3c106DeviceE
FNDA:7,_ZN5neml29get_forceINS_2R8EEEvRSt6vectorINS_19LabeledAxisAccessorESaIS3_EERS2_INS_6TensorESaIS7_EERKNS_9OptionSetERKSsSF_RKN3c106DeviceE
FNDA:7,_ZN5neml29get_forceINS_3RotEEEvRSt6vectorINS_19LabeledAxisAccessorESaIS3_EERS2_INS_6TensorESaIS7_EERKNS_9OptionSetERKSsSF_RKN3c106DeviceE
FNDA:7,_ZN5neml29get_forceINS_3SR2EEEvRSt6vectorINS_19LabeledAxisAccessorESaIS3_EERS2_INS_6TensorESaIS7_EERKNS_9OptionSetERKSsSF_RKN3c106DeviceE
FNDA:7,_ZN5neml29get_forceINS_3VecEEEvRSt6vectorINS_19LabeledAxisAccessorESaIS3_EERS2_INS_6TensorESaIS7_EERKNS_9OptionSetERKSsSF_RKN3c106DeviceE
FNDA:7,_ZN5neml29get_forceINS_3WR2EEEvRSt6vectorINS_19LabeledAxisAccessorESaIS3_EERS2_INS_6TensorESaIS7_EERKNS_9OptionSetERKSsSF_RKN3c106DeviceE
FNDA:7,_ZN5neml29get_forceINS_4SFR3EEEvRSt6vectorINS_19LabeledAxisAccessorESaIS3_EERS2_INS_6TensorESaIS7_EERKNS_9OptionSetERKSsSF_RKN3c106DeviceE
FNDA:7,_ZN5neml29get_forceINS_4SFR4EEEvRSt6vectorINS_19LabeledAxisAccessorESaIS3_EERS2_INS_6TensorESaIS7_EERKNS_9OptionSetERKSsSF_RKN3c106DeviceE
FNDA:7,_ZN5neml29get_forceINS_4SSR4EEEvRSt6vectorINS_19LabeledAxisAccessorESaIS3_EERS2_INS_6TensorESaIS7_EERKNS_9OptionSetERKSsSF_RKN3c106DeviceE
FNDA:7,_ZN5neml29get_forceINS_4SWR4EEEvRSt6vectorINS_19LabeledAxisAccessorESaIS3_EERS2_INS_6TensorESaIS7_EERKNS_9OptionSetERKSsSF_RKN3c106DeviceE
FNDA:7,_ZN5neml29get_forceINS_4WFR4EEEvRSt6vectorINS_19LabeledAxisAccessorESaIS3_EERS2_INS_6TensorESaIS7_EERKNS_9OptionSetERKSsSF_RKN3c106DeviceE
FNDA:7,_ZN5neml29get_forceINS_4WSR4EEEvRSt6vectorINS_19LabeledAxisAccessorESaIS3_EERS2_INS_6TensorESaIS7_EERKNS_9OptionSetERKSsSF_RKN3c106DeviceE
FNDA:7,_ZN5neml29get_forceINS_4WWR4EEEvRSt6vectorINS_19LabeledAxisAccessorESaIS3_EERS2_INS_6TensorESaIS7_EERKNS_9OptionSetERKSsSF_RKN3c106DeviceE
FNDA:7,_ZN5neml29get_forceINS_5SFFR4EEEvRSt6vectorINS_19LabeledAxisAccessorESaIS3_EERS2_INS_6TensorESaIS7_EERKNS_9OptionSetERKSsSF_RKN3c106DeviceE
FNDA:7,_ZN5neml29get_forceINS_5SSFR5EEEvRSt6vectorINS_19LabeledAxisAccessorESaIS3_EERS2_INS_6TensorESaIS7_EERKNS_9OptionSetERKSsSF_RKN3c106DeviceE
FNDA:7,_ZN5neml29get_forceINS_6SSSSR8EEEvRSt6vectorINS_19LabeledAxisAccessorESaIS3_EERS2_INS_6TensorESaIS7_EERKNS_9OptionSetERKSsSF_RKN3c106DeviceE
FNDA:7,_ZN5neml29get_forceINS_6ScalarEEEvRSt6vectorINS_19LabeledAxisAccessorESaIS3_EERS2_INS_6TensorESaIS7_EERKNS_9OptionSetERKSsSF_RKN3c106DeviceE
FNDA:7,_ZN5neml29get_forceINS_6TensorEEEvRSt6vectorINS_19LabeledAxisAccessorESaIS3_EERS2_IS1_SaIS1_EERKNS_9OptionSetERKSsSE_RKN3c106DeviceE
FNF:62
FNH:62
DA:45,161
DA:51,161
DA:52,161
DA:53,161
DA:59,161
DA:61,161
DA:63,162
DA:65,1
DA:68,1
DA:70,161
DA:74,161
DA:81,161
DA:82,161
DA:83,161
DA:89,161
DA:91,161
DA:93,161
DA:95,0
DA:98,0
DA:99,0
DA:101,161
DA:104,8
DA:106,8
DA:107,8
DA:109,24
DA:110,16
DA:111,16
DA:112,24
DA:114,8
DA:116,32
DA:117,8
DA:118,16
DA:119,16
DA:120,24
DA:127,1472
DA:134,1472
DA:136,16
DA:137,16
DA:138,8
DA:140,16
DA:141,8
DA:143,7
DA:145,7
DA:146,14
DA:147,7
DA:148,14
DA:149,14
DA:150,14
DA:151,35
DA:153,7
DA:154,7
DA:157,7
DA:159,7
DA:168,644
DA:169,7
DA:172,7
DA:174,7
DA:176,7
DA:177,7
DA:179,7
DA:181,7
DA:183,0
DA:185,0
DA:187,0
DA:188,0
DA:190,0
DA:193,0
DA:198,7
DA:199,7
DA:200,7
DA:201,20
DA:202,13
DA:206,7
DA:209,7
DA:211,7
DA:213,7
DA:214,5
DA:216,7
DA:220,7
DA:222,77
DA:224,70
DA:229,70
DA:230,63
DA:231,70
DA:232,70
DA:234,7
DA:235,7
DA:239,63
DA:240,63
DA:241,63
DA:244,70
DA:250,7
DA:254,63
DA:257,63
DA:259,63
DA:260,180
DA:261,117
DA:262,63
DA:265,63
DA:267,63
DA:268,171
DA:269,108
DA:270,63
DA:271,63
DA:274,70
DA:276,70
DA:277,140
DA:279,70
DA:280,0
DA:281,140
DA:284,7
DA:288,644
DA:291,7
DA:292,22
DA:293,15
DA:294,1
DA:295,24
DA:296,17
DA:297,7
DA:300,22
DA:301,15
DA:303,14
DA:304,14
DA:305,28
DA:306,28
DA:307,28
DA:308,42
DA:310,0
DA:311,0
DA:313,7
DA:316,63
DA:318,63
DA:319,27
DA:321,36
DA:322,117
DA:323,81
DA:325,162
DA:326,72
DA:327,18
DA:330,9
DA:331,1
DA:335,8
DA:336,8
DA:337,8
DA:338,8
DA:339,8
DA:341,8
DA:342,8
DA:343,8
DA:344,8
DA:347,0
DA:349,36
DA:352,63
DA:355,63
DA:357,0
DA:358,0
DA:359,0
DA:360,0
DA:363,63
DA:367,70
DA:369,70
DA:370,70
DA:373,12
DA:375,12
DA:379,5
DA:382,5
DA:383,55
DA:386,50
DA:387,414
DA:388,364
DA:389,50
DA:390,50
DA:393,5
DA:394,55
DA:397,50
DA:398,180
DA:399,130
DA:400,50
DA:401,50
DA:404,5
DA:405,25
DA:406,10
DA:407,10
DA:410,5
DA:412,5
DA:417,5
DA:418,5
DA:420,5
DA:421,5
DA:427,5
DA:431,5
DA:434,5
DA:436,5
DA:437,5
LF:194
LH:177
end_of_record
TN:
SF:/home/runner/work/neml2/neml2/src/neml2/drivers/solid_mechanics/LDISolidMechanicsDriver.cxx
FN:105,110,_ZN5neml223LDISolidMechanicsDriver22init_vorticity_controlERKNS_9OptionSetE
FN:113,139,_ZNK5neml223LDISolidMechanicsDriver8diagnoseEv
FN:142,146,_ZN5neml223LDISolidMechanicsDriver13update_forcesEv
FN:149,160,_ZN5neml223LDISolidMechanicsDriver15apply_predictorEv
FN:35,70,_ZN5neml223LDISolidMechanicsDriver16expected_optionsEv
FN:72,79,_ZN5neml223LDISolidMechanicsDriverC2ERKNS_9OptionSetE
FN:82,86,_ZN5neml223LDISolidMechanicsDriver5setupEv
FN:89,94,_ZN5neml223LDISolidMechanicsDriver19init_strain_controlERKNS_9OptionSetE
FN:97,102,_ZN5neml223LDISolidMechanicsDriver19init_stress_controlERKNS_9OptionSetE
FNDA:1,_ZN5neml223LDISolidMechanicsDriver22init_vorticity_controlERKNS_9OptionSetE
FNDA:1,_ZNK5neml223LDISolidMechanicsDriver8diagnoseEv
FNDA:10,_ZN5neml223LDISolidMechanicsDriver13update_forcesEv
FNDA:9,_ZN5neml223LDISolidMechanicsDriver15apply_predictorEv
FNDA:2,_ZN5neml223LDISolidMechanicsDriver16expected_optionsEv
FNDA:1,_ZN5neml223LDISolidMechanicsDriverC2ERKNS_9OptionSetE
FNDA:1,_ZN5neml223LDISolidMechanicsDriver5setupEv
FNDA:1,_ZN5neml223LDISolidMechanicsDriver19init_strain_controlERKNS_9OptionSetE
FNDA:0,_ZN5neml223LDISolidMechanicsDriver19init_stress_controlERKNS_9OptionSetE
FNF:9
FNH:8
DA:35,2
DA:37,2
DA:38,2
DA:39,2
DA:41,6
DA:42,4
DA:43,4
DA:44,4
DA:45,2
DA:47,6
DA:48,4
DA:49,4
DA:50,4
DA:51,2
DA:53,6
DA:54,4
DA:55,4
DA:56,4
DA:58,4
DA:59,6
DA:61,2
DA:62,4
DA:63,4
DA:64,2
DA:65,6
DA:66,4
DA:67,2
DA:69,2
DA:70,0
DA:72,1
DA:74,1
DA:75,2
DA:76,1
DA:77,4
DA:79,1
DA:82,1
DA:84,1
DA:85,1
DA:86,1
DA:89,1
DA:91,2
DA:92,1
DA:93,1
DA:94,1
DA:97,0
DA:99,0
DA:100,0
DA:101,0
DA:102,0
DA:105,1
DA:107,2
DA:108,1
DA:109,1
DA:110,1
DA:113,1
DA:115,1
DA:117,1
DA:119,1
DA:122,1
DA:123,1
DA:125,1
DA:127,2
DA:131,1
DA:133,1
DA:134,1
DA:136,1
DA:139,1
DA:142,10
DA:144,10
DA:145,20
DA:146,20
DA:149,9
DA:151,9
DA:153,9
DA:155,1
DA:156,1
DA:157,1
DA:158,1
DA:159,1
DA:160,9
LF:80
LH:74
end_of_record
TN:
SF:/home/runner/work/neml2/neml2/src/neml2/drivers/solid_mechanics/SDTSolidMechanicsDriver.cxx
FN:32,49,_ZN5neml223SDTSolidMechanicsDriver16expected_optionsEv
FN:51,54,_ZN5neml223SDTSolidMechanicsDriverC2ERKNS_9OptionSetE
FN:57,62,_ZN5neml223SDTSolidMechanicsDriver19init_strain_controlERKNS_9OptionSetE
FN:65,70,_ZN5neml223SDTSolidMechanicsDriver19init_stress_controlERKNS_9OptionSetE
FNDA:2,_ZN5neml223SDTSolidMechanicsDriver16expected_optionsEv
FNDA:6,_ZN5neml223SDTSolidMechanicsDriverC2ERKNS_9OptionSetE
FNDA:4,_ZN5neml223SDTSolidMechanicsDriver19init_strain_controlERKNS_9OptionSetE
FNDA:1,_ZN5neml223SDTSolidMechanicsDriver19init_stress_controlERKNS_9OptionSetE
FNF:4
FNH:4
DA:32,2
DA:34,2
DA:35,2
DA:36,2
DA:38,6
DA:39,4
DA:40,4
DA:41,2
DA:43,6
DA:44,4
DA:45,4
DA:46,2
DA:48,2
DA:49,0
DA:51,6
DA:52,6
DA:54,6
DA:57,4
DA:59,8
DA:60,4
DA:61,4
DA:62,4
DA:65,1
DA:67,2
DA:68,1
DA:69,1
DA:70,1
LF:27
LH:26
end_of_record
TN:
SF:/home/runner/work/neml2/neml2/src/neml2/drivers/solid_mechanics/SolidMechanicsDriver.cxx
FN:106,111,_ZN5neml220SolidMechanicsDriver24init_temperature_controlERKNS_9OptionSetE
FN:114,159,_ZNK5neml220SolidMechanicsDriver8diagnoseEv
FN:162,173,_ZN5neml220SolidMechanicsDriver13update_forcesEv
FN:31,64,_ZN5neml220SolidMechanicsDriver16expected_optionsEv
FN:66,71,_ZN5neml220SolidMechanicsDriverC2ERKNS_9OptionSetE
FN:74,91,_ZN5neml220SolidMechanicsDriver5setupEv
FN:94,103,_ZN5neml220SolidMechanicsDriver18init_mixed_controlERKNS_9OptionSetE
FNDA:1,_ZN5neml220SolidMechanicsDriver24init_temperature_controlERKNS_9OptionSetE
FNDA:7,_ZNK5neml220SolidMechanicsDriver8diagnoseEv
FNDA:70,_ZN5neml220SolidMechanicsDriver13update_forcesEv
FNDA:4,_ZN5neml220SolidMechanicsDriver16expected_optionsEv
FNDA:7,_ZN5neml220SolidMechanicsDriverC2ERKNS_9OptionSetE
FNDA:7,_ZN5neml220SolidMechanicsDriver5setupEv
FNDA:1,_ZN5neml220SolidMechanicsDriver18init_mixed_controlERKNS_9OptionSetE
FNF:7
FNH:7
DA:31,4
DA:33,4
DA:34,4
DA:36,16
DA:37,4
DA:38,8
DA:39,12
DA:41,12
DA:42,8
DA:43,8
DA:44,8
DA:45,4
DA:47,12
DA:48,8
DA:49,8
DA:50,8
DA:53,4
DA:55,12
DA:56,12
DA:57,4
DA:58,8
DA:59,8
DA:61,4
DA:63,8
DA:64,4
DA:66,7
DA:68,7
DA:69,28
DA:71,7
DA:74,7
DA:76,7
DA:78,14
DA:79,5
DA:80,4
DA:81,1
DA:82,2
DA:83,1
DA:89,7
DA:90,1
DA:91,7
DA:94,1
DA:96,2
DA:97,1
DA:98,1
DA:100,2
DA:101,1
DA:102,1
DA:103,1
DA:106,1
DA:108,2
DA:109,1
DA:110,1
DA:111,1
DA:114,7
DA:116,7
DA:118,7
DA:121,7
DA:123,7
DA:126,14
DA:128,14
DA:131,7
DA:133,1
DA:136,1
DA:138,1
DA:139,1
DA:141,2
DA:143,2
DA:147,14
DA:149,1
DA:152,1
DA:153,1
DA:154,1
DA:156,2
DA:159,7
DA:162,70
DA:164,70
DA:166,140
DA:168,70
DA:169,20
DA:171,140
DA:172,20
DA:173,160
LF:82
LH:82
end_of_record
TN:
SF:/home/runner/work/neml2/neml2/src/neml2/jit/TraceableSize.cxx
FN:33,36,_ZNK5neml213TraceableSize9traceableEv
FN:39,49,_ZNK5neml213TraceableSize8concreteEv
FN:52,58,_ZNK5neml213TraceableSize9as_tensorEv
FN:61,64,_ZN5neml2eqERKNS_13TraceableSizeES2_
FN:67,70,_ZN5neml2neERKNS_13TraceableSizeES2_
FN:73,77,_ZN5neml2lsERSoRKNS_13TraceableSizeE
FNDA:1784673,_ZNK5neml213TraceableSize9traceableEv
FNDA:1768657,_ZNK5neml213TraceableSize8concreteEv
FNDA:3827,_ZNK5neml213TraceableSize9as_tensorEv
FNDA:13,_ZN5neml2eqERKNS_13TraceableSizeES2_
FNDA:0,_ZN5neml2neERKNS_13TraceableSizeES2_
FNDA:0,_ZN5neml2lsERSoRKNS_13TraceableSizeE
FNF:6
FNH:4
DA:33,1784673
DA:35,1784673
DA:39,1768657
DA:41,1768657
DA:43,723691
DA:44,723691
DA:45,723691
DA:48,1044966
DA:52,3827
DA:54,3827
DA:55,593
DA:57,3234
DA:61,13
DA:63,13
DA:67,0
DA:69,0
DA:73,0
DA:75,0
DA:76,0
LF:19
LH:14
end_of_record
TN:
SF:/home/runner/work/neml2/neml2/src/neml2/jit/TraceableTensorShape.cxx
FN:105,108,_ZN5neml2neERKNS_20TraceableTensorShapeES2_
FN:32,36,_ZN5neml220TraceableTensorShapeC2ERKN3c1011SmallVectorIlLj8EEE
FN:38,42,_ZN5neml220TraceableTensorShapeC2EN3c108ArrayRefIlEE
FN:44,47,_ZN5neml220TraceableTensorShapeC2El
FN:49,56,_ZN5neml220TraceableTensorShapeC2ERKN2at6TensorE
FN:59,67,_ZNK5neml220TraceableTensorShape5sliceEll
FN:70,75,_ZNK5neml220TraceableTensorShape5sliceEl
FN:78,84,_ZNK5neml220TraceableTensorShape8concreteEv
FN:87,96,_ZNK5neml220TraceableTensorShape9as_tensorEv
FN:99,102,_ZN5neml2eqERKNS_20TraceableTensorShapeES2_
FNDA:92036,_ZN5neml2neERKNS_20TraceableTensorShapeES2_
FNDA:93078,_ZN5neml220TraceableTensorShapeC2ERKN3c1011SmallVectorIlLj8EEE
FNDA:174415,_ZN5neml220TraceableTensorShapeC2EN3c108ArrayRefIlEE
FNDA:1,_ZN5neml220TraceableTensorShapeC2El
FNDA:1281,_ZN5neml220TraceableTensorShapeC2ERKN2at6TensorE
FNDA:617160,_ZNK5neml220TraceableTensorShape5sliceEll
FNDA:0,_ZNK5neml220TraceableTensorShape5sliceEl
FNDA:5129501,_ZNK5neml220TraceableTensorShape8concreteEv
FNDA:19937,_ZNK5neml220TraceableTensorShape9as_tensorEv
FNDA:2509898,_ZN5neml2eqERKNS_20TraceableTensorShapeES2_
FNF:10
FNH:9
DA:32,93078
DA:34,142525
DA:35,49447
DA:36,93078
DA:38,174415
DA:40,239958
DA:41,65543
DA:42,174415
DA:44,1
DA:45,1
DA:47,1
DA:49,1281
DA:51,1281
DA:52,1281
DA:54,2603
DA:55,1322
DA:56,1281
DA:59,617160
DA:61,617160
DA:62,0
DA:63,617160
DA:64,60
DA:66,617160
DA:70,0
DA:72,0
DA:73,0
DA:74,0
DA:78,5129501
DA:80,5129501
DA:81,6895082
DA:82,1765581
DA:83,5129501
DA:84,0
DA:87,19937
DA:89,19937
DA:90,16158
DA:92,3779
DA:93,7606
DA:94,3827
DA:95,3779
DA:96,3779
DA:99,2509898
DA:101,2509898
DA:105,92036
DA:107,92036
LF:45
LH:39
end_of_record
TN:
SF:/home/runner/work/neml2/neml2/src/neml2/jit/utils.cxx
FN:32,35,_ZN5neml219neml_assert_tracingEv
FN:38,41,_ZN5neml223neml_assert_not_tracingEv
FN:44,49,_ZN5neml223neml_assert_tracing_dbgEv
FN:52,57,_ZN5neml227neml_assert_not_tracing_dbgEv
FN:62,75,_ZN5neml25utils19extract_batch_sizesERKN2at6TensorEl
FN:78,81,_ZN5neml25utils29last_executed_optimized_graphEv
FNDA:0,_ZN5neml219neml_assert_tracingEv
FNDA:0,_ZN5neml223neml_assert_not_tracingEv
FNDA:0,_ZN5neml223neml_assert_tracing_dbgEv
FNDA:0,_ZN5neml227neml_assert_not_tracing_dbgEv
FNDA:59521,_ZN5neml25utils19extract_batch_sizesERKN2at6TensorEl
FNDA:0,_ZN5neml25utils29last_executed_optimized_graphEv
FNF:6
FNH:1
DA:32,0
DA:34,0
DA:35,0
DA:38,0
DA:40,0
DA:41,0
DA:44,0
DA:47,0
DA:49,0
DA:52,0
DA:55,0
DA:57,0
DA:62,59521
DA:66,59521
DA:68,7331
DA:69,9652
DA:70,2321
DA:71,7331
DA:72,7331
DA:74,52190
DA:78,0
DA:80,0
LF:22
LH:8
end_of_record
TN:
SF:/home/runner/work/neml2/neml2/src/neml2/misc/defaults.cxx
FN:31,34,_ZN5neml217set_default_dtypeEN3c1010ScalarTypeE
FN:37,40,_ZN5neml217get_default_dtypeEv
FN:43,46,_ZN5neml222default_tensor_optionsEv
FN:49,52,_ZN5neml230default_integer_tensor_optionsEv
FN:55,59,_ZN5neml221default_integer_dtypeEv
FN:62,66,_ZN5neml217machine_precisionEv
FN:69,73,_ZN5neml29toleranceEv
FN:76,80,_ZN5neml217tighter_toleranceEv
FN:83,87,_ZN5neml221buffer_name_separatorEv
FN:90,94,_ZN5neml224parameter_name_separatorEv
FN:97,101,_ZN5neml224require_double_precisionEv
FNDA:2,_ZN5neml217set_default_dtypeEN3c1010ScalarTypeE
FNDA:0,_ZN5neml217get_default_dtypeEv
FNDA:5829,_ZN5neml222default_tensor_optionsEv
FNDA:81,_ZN5neml230default_integer_tensor_optionsEv
FNDA:978,_ZN5neml221default_integer_dtypeEv
FNDA:457,_ZN5neml217machine_precisionEv
FNDA:338,_ZN5neml29toleranceEv
FNDA:338,_ZN5neml217tighter_toleranceEv
FNDA:459,_ZN5neml221buffer_name_separatorEv
FNDA:415,_ZN5neml224parameter_name_separatorEv
FNDA:3166,_ZN5neml224require_double_precisionEv
FNF:11
FNH:10
DA:31,2
DA:33,2
DA:34,2
DA:37,0
DA:39,0
DA:43,5829
DA:45,5829
DA:49,81
DA:51,81
DA:55,978
DA:58,978
DA:62,457
DA:65,457
DA:69,338
DA:72,338
DA:76,338
DA:79,338
DA:83,459
DA:85,461
DA:86,459
DA:90,415
DA:92,417
DA:93,415
DA:97,3166
DA:100,3166
LF:25
LH:23
end_of_record
TN:
SF:/home/runner/work/neml2/neml2/src/neml2/misc/errors.cxx
FN:30,33,_ZNK5neml213NEMLException4whatEv
FN:36,39,_ZNK5neml214SetupException4whatEv
FNDA:21,_ZNK5neml213NEMLException4whatEv
FNDA:66,_ZNK5neml214SetupException4whatEv
FNF:2
FNH:2
DA:30,21
DA:32,21
DA:36,66
DA:38,66
LF:4
LH:4
end_of_record
TN:
SF:/home/runner/work/neml2/neml2/src/neml2/misc/string_utils.cxx
FN:32,36,_ZN5neml25utils8demangleEPKc
FN:39,49,_ZN5neml25utils4joinERKSt6vectorISsSaISsEERKSs
FN:52,70,_ZN5neml25utils5splitERKSsS2_
FN:73,80,_ZN5neml25utils4trimERKSsS2_
FN:83,86,_ZN5neml25utils10start_withESt17basic_string_viewIcSt11char_traitsIcEES4_
FN:89,93,_ZN5neml25utils8end_withESt17basic_string_viewIcSt11char_traitsIcEES4_
FNDA:396638,_ZN5neml25utils8demangleEPKc
FNDA:0,_ZN5neml25utils4joinERKSt6vectorISsSaISsEERKSs
FNDA:4130,_ZN5neml25utils5splitERKSsS2_
FNDA:14916,_ZN5neml25utils4trimERKSsS2_
FNDA:22580,_ZN5neml25utils10start_withESt17basic_string_viewIcSt11char_traitsIcEES4_
FNDA:1888,_ZN5neml25utils8end_withESt17basic_string_viewIcSt11char_traitsIcEES4_
FNF:6
FNH:5
DA:32,396638
DA:35,396638
DA:39,0
DA:41,0
DA:42,0
DA:44,0
DA:45,0
DA:46,0
DA:48,0
DA:49,0
DA:52,4130
DA:54,4130
DA:56,4130
DA:57,4130
DA:59,10360
DA:61,10341
DA:63,10341
DA:64,10341
DA:65,4111
DA:66,6230
DA:69,4130
DA:70,0
DA:73,14916
DA:75,14916
DA:76,14916
DA:77,36
DA:78,14898
DA:79,14898
DA:83,22580
DA:85,22580
DA:89,1888
DA:91,3776
DA:92,3776
LF:33
LH:24
end_of_record
TN:
SF:/home/runner/work/neml2/neml2/src/neml2/misc/types.cxx
FN:32,48,_ZN5neml2lsERSoNS_5FTypeE
FNDA:0,_ZN5neml2lsERSoNS_5FTypeE
FNF:1
FNH:0
DA:32,0
DA:34,0
DA:35,0
DA:36,0
DA:37,0
DA:38,0
DA:39,0
DA:40,0
DA:41,0
DA:42,0
DA:43,0
DA:45,0
DA:47,0
LF:13
LH:0
end_of_record
TN:
SF:/home/runner/work/neml2/neml2/src/neml2/models/ArrheniusParameter.cxx
FN:34,60,_ZN5neml218ArrheniusParameter16expected_optionsEv
FN:62,70,_ZN5neml218ArrheniusParameterC2ERKNS_9OptionSetE
FN:73,91,_ZN5neml218ArrheniusParameter9set_valueEbbb
FNDA:2,_ZN5neml218ArrheniusParameter16expected_optionsEv
FNDA:2,_ZN5neml218ArrheniusParameterC2ERKNS_9OptionSetE
FNDA:4,_ZN5neml218ArrheniusParameter9set_valueEbbb
FNF:3
FNH:3
DA:34,2
DA:36,2
DA:37,2
DA:40,2
DA:42,4
DA:44,4
DA:45,4
DA:47,4
DA:48,4
DA:50,4
DA:51,2
DA:53,6
DA:54,2
DA:56,6
DA:57,2
DA:59,2
DA:60,0
DA:62,2
DA:64,6
DA:65,10
DA:66,2
DA:67,2
DA:68,4
DA:70,2
DA:73,4
DA:75,4
DA:77,4
DA:78,2
DA:80,4
DA:81,4
DA:83,2
DA:85,2
DA:86,1
DA:88,2
DA:89,1
DA:90,2
DA:91,4
LF:37
LH:36
end_of_record
TN:
SF:/home/runner/work/neml2/neml2/src/neml2/models/Assembler.cxx
FN:107,183,_ZNK5neml215MatrixAssembler20assemble_by_variableERKSt3mapINS_19LabeledAxisAccessorES1_IS2_NS_6TensorESt4lessIS2_ESaISt4pairIKS2_S3_EEES5_SaIS6_IS7_SA_EEE
FN:186,203,_ZNK5neml215MatrixAssembler17split_by_variableERKNS_6TensorE
FN:206,223,_ZNK5neml215MatrixAssembler16split_by_subaxisERKNS_6TensorE
FN:32,76,_ZNK5neml215VectorAssembler20assemble_by_variableERKSt3mapINS_19LabeledAxisAccessorENS_6TensorESt4lessIS2_ESaISt4pairIKS2_S3_EEE
FN:79,90,_ZNK5neml215VectorAssembler17split_by_variableERKNS_6TensorE
FN:93,104,_ZNK5neml215VectorAssembler16split_by_subaxisERKNS_6TensorE
FNDA:1247,_ZNK5neml215MatrixAssembler20assemble_by_variableERKSt3mapINS_19LabeledAxisAccessorES1_IS2_NS_6TensorESt4lessIS2_ESaISt4pairIKS2_S3_EEES5_SaIS6_IS7_SA_EEE
FNDA:9,_ZNK5neml215MatrixAssembler17split_by_variableERKNS_6TensorE
FNDA:3,_ZNK5neml215MatrixAssembler16split_by_subaxisERKNS_6TensorE
FNDA:1755,_ZNK5neml215VectorAssembler20assemble_by_variableERKSt3mapINS_19LabeledAxisAccessorENS_6TensorESt4lessIS2_ESaISt4pairIKS2_S3_EEE
FNDA:1590,_ZNK5neml215VectorAssembler17split_by_variableERKNS_6TensorE
FNDA:1,_ZNK5neml215VectorAssembler16split_by_subaxisERKNS_6TensorE
FNF:6
FNH:6
DA:32,1755
DA:34,1755
DA:37,1755
DA:38,1755
DA:43,1755
DA:44,6844
DA:46,5089
DA:47,5089
DA:49,5086
DA:50,5086
DA:52,5086
DA:54,5086
DA:56,5086
DA:57,5086
DA:59,1755
DA:60,1755
DA:65,1755
DA:68,1755
DA:69,6844
DA:70,5089
DA:71,5086
DA:73,3
DA:75,3510
DA:76,1755
DA:79,1590
DA:81,1590
DA:83,1590
DA:84,1590
DA:86,6231
DA:87,4641
DA:89,3180
DA:90,1590
DA:93,1
DA:95,1
DA:97,1
DA:98,1
DA:100,3
DA:101,2
DA:103,2
DA:104,1
DA:107,1247
DA:109,1247
DA:110,1247
DA:113,1247
DA:114,1247
DA:117,1247
DA:118,4905
DA:120,3658
DA:121,3658
DA:122,0
DA:127,3658
DA:128,14831
DA:130,11173
DA:131,11173
DA:133,11161
DA:134,11161
DA:136,11161
DA:138,11161
DA:140,11161
DA:142,22322
DA:143,11161
DA:145,11161
DA:147,11161
DA:149,22322
DA:151,11161
DA:152,11161
DA:154,1247
DA:155,1247
DA:160,3658
DA:163,3658
DA:164,14831
DA:165,11173
DA:166,11161
DA:168,24
DA:169,24
DA:171,3658
DA:172,3658
DA:175,1247
DA:176,4905
DA:177,3658
DA:178,3658
DA:180,0
DA:182,2494
DA:183,1247
DA:186,9
DA:188,9
DA:190,9
DA:191,9
DA:193,9
DA:194,30
DA:196,21
DA:197,60
DA:198,78
DA:199,117
DA:200,21
DA:202,18
DA:203,9
DA:206,3
DA:208,3
DA:210,3
DA:211,3
DA:213,3
DA:214,6
DA:216,3
DA:217,15
DA:218,24
DA:219,36
DA:220,3
DA:222,6
DA:223,3
LF:110
LH:108
end_of_record
TN:
SF:/home/runner/work/neml2/neml2/src/neml2/models/BackwardEulerTimeIntegration.cxx
FN:31,52,_ZN5neml228BackwardEulerTimeIntegrationINS_2R2EE16expected_optionsEv
FN:31,52,_ZN5neml228BackwardEulerTimeIntegrationINS_3SR2EE16expected_optionsEv
FN:31,52,_ZN5neml228BackwardEulerTimeIntegrationINS_3VecEE16expected_optionsEv
FN:31,52,_ZN5neml228BackwardEulerTimeIntegrationINS_6ScalarEE16expected_optionsEv
FN:55,66,_ZN5neml228BackwardEulerTimeIntegrationINS_2R2EEC2ERKNS_9OptionSetE
FN:55,66,_ZN5neml228BackwardEulerTimeIntegrationINS_3SR2EEC2ERKNS_9OptionSetE
FN:55,66,_ZN5neml228BackwardEulerTimeIntegrationINS_3VecEEC2ERKNS_9OptionSetE
FN:55,66,_ZN5neml228BackwardEulerTimeIntegrationINS_6ScalarEEC2ERKNS_9OptionSetE
FN:70,76,_ZNK5neml228BackwardEulerTimeIntegrationINS_2R2EE8diagnoseEv
FN:70,76,_ZNK5neml228BackwardEulerTimeIntegrationINS_3SR2EE8diagnoseEv
FN:70,76,_ZNK5neml228BackwardEulerTimeIntegrationINS_3VecEE8diagnoseEv
FN:70,76,_ZNK5neml228BackwardEulerTimeIntegrationINS_6ScalarEE8diagnoseEv
FN:80,99,_ZN5neml228BackwardEulerTimeIntegrationINS_2R2EE9set_valueEbbb
FN:80,99,_ZN5neml228BackwardEulerTimeIntegrationINS_3SR2EE9set_valueEbbb
FN:80,99,_ZN5neml228BackwardEulerTimeIntegrationINS_3VecEE9set_valueEbbb
FN:80,99,_ZN5neml228BackwardEulerTimeIntegrationINS_6ScalarEE9set_valueEbbb
FNDA:2,_ZN5neml228BackwardEulerTimeIntegrationINS_2R2EE16expected_optionsEv
FNDA:2,_ZN5neml228BackwardEulerTimeIntegrationINS_3SR2EE16expected_optionsEv
FNDA:2,_ZN5neml228BackwardEulerTimeIntegrationINS_3VecEE16expected_optionsEv
FNDA:2,_ZN5neml228BackwardEulerTimeIntegrationINS_6ScalarEE16expected_optionsEv
FNDA:0,_ZN5neml228BackwardEulerTimeIntegrationINS_2R2EEC2ERKNS_9OptionSetE
FNDA:9,_ZN5neml228BackwardEulerTimeIntegrationINS_3SR2EEC2ERKNS_9OptionSetE
FNDA:0,_ZN5neml228BackwardEulerTimeIntegrationINS_3VecEEC2ERKNS_9OptionSetE
FNDA:16,_ZN5neml228BackwardEulerTimeIntegrationINS_6ScalarEEC2ERKNS_9OptionSetE
FNDA:0,_ZNK5neml228BackwardEulerTimeIntegrationINS_2R2EE8diagnoseEv
FNDA:6,_ZNK5neml228BackwardEulerTimeIntegrationINS_3SR2EE8diagnoseEv
FNDA:0,_ZNK5neml228BackwardEulerTimeIntegrationINS_3VecEE8diagnoseEv
FNDA:3,_ZNK5neml228BackwardEulerTimeIntegrationINS_6ScalarEE8diagnoseEv
FNDA:0,_ZN5neml228BackwardEulerTimeIntegrationINS_2R2EE9set_valueEbbb
FNDA:18,_ZN5neml228BackwardEulerTimeIntegrationINS_3SR2EE9set_valueEbbb
FNDA:0,_ZN5neml228BackwardEulerTimeIntegrationINS_3VecEE9set_valueEbbb
FNDA:31,_ZN5neml228BackwardEulerTimeIntegrationINS_6ScalarEE9set_valueEbbb
FNF:16
FNH:10
DA:31,8
DA:33,8
DA:34,8
DA:40,8
DA:42,16
DA:43,16
DA:45,16
DA:46,8
DA:48,24
DA:49,8
DA:51,8
DA:52,0
DA:55,25
DA:57,25
DA:58,25
DA:59,25
DA:60,98
DA:61,25
DA:62,25
DA:63,25
DA:64,50
DA:66,25
DA:70,9
DA:72,9
DA:73,9
DA:74,9
DA:75,9
DA:76,9
DA:80,49
DA:82,49
DA:83,48
DA:85,49
DA:87,28
DA:89,28
DA:90,28
DA:92,28
DA:93,15
DA:95,13
DA:96,13
DA:97,13
DA:98,28
LF:41
LH:40
end_of_record
TN:
SF:/home/runner/work/neml2/neml2/src/neml2/models/BufferStore.cxx
FN:118,139,_ZN5neml211BufferStore19assign_buffer_stackERSt6vectorIN3c106IValueESaIS3_EE
FN:142,150,_ZNK5neml211BufferStore20collect_buffer_stackEv
FN:34,37,_ZN5neml211BufferStoreC2EPNS_11NEML2ObjectE
FN:40,45,_ZN5neml211BufferStore13named_buffersEv
FN:48,53,_ZN5neml211BufferStore10get_bufferERKSs
FN:56,60,_ZN5neml211BufferStore15send_buffers_toERKN3c1013TensorOptionsE
FN:64,85,_ZN5neml211BufferStore14declare_bufferINS_10QuaternionEvEERKT_RKSsS5_
FN:64,85,_ZN5neml211BufferStore14declare_bufferINS_11MillerIndexEvEERKT_RKSsS5_
FN:64,85,_ZN5neml211BufferStore14declare_bufferINS_2R2EvEERKT_RKSsS5_
FN:64,85,_ZN5neml211BufferStore14declare_bufferINS_2R3EvEERKT_RKSsS5_
FN:64,85,_ZN5neml211BufferStore14declare_bufferINS_2R4EvEERKT_RKSsS5_
FN:64,85,_ZN5neml211BufferStore14declare_bufferINS_2R5EvEERKT_RKSsS5_
FN:64,85,_ZN5neml211BufferStore14declare_bufferINS_2R8EvEERKT_RKSsS5_
FN:64,85,_ZN5neml211BufferStore14declare_bufferINS_3RotEvEERKT_RKSsS5_
FN:64,85,_ZN5neml211BufferStore14declare_bufferINS_3SR2EvEERKT_RKSsS5_
FN:64,85,_ZN5neml211BufferStore14declare_bufferINS_3VecEvEERKT_RKSsS5_
FN:64,85,_ZN5neml211BufferStore14declare_bufferINS_3WR2EvEERKT_RKSsS5_
FN:64,85,_ZN5neml211BufferStore14declare_bufferINS_4SFR3EvEERKT_RKSsS5_
FN:64,85,_ZN5neml211BufferStore14declare_bufferINS_4SFR4EvEERKT_RKSsS5_
FN:64,85,_ZN5neml211BufferStore14declare_bufferINS_4SSR4EvEERKT_RKSsS5_
FN:64,85,_ZN5neml211BufferStore14declare_bufferINS_4SWR4EvEERKT_RKSsS5_
FN:64,85,_ZN5neml211BufferStore14declare_bufferINS_4WFR4EvEERKT_RKSsS5_
FN:64,85,_ZN5neml211BufferStore14declare_bufferINS_4WSR4EvEERKT_RKSsS5_
FN:64,85,_ZN5neml211BufferStore14declare_bufferINS_4WWR4EvEERKT_RKSsS5_
FN:64,85,_ZN5neml211BufferStore14declare_bufferINS_5SFFR4EvEERKT_RKSsS5_
FN:64,85,_ZN5neml211BufferStore14declare_bufferINS_5SSFR5EvEERKT_RKSsS5_
FN:64,85,_ZN5neml211BufferStore14declare_bufferINS_6SSSSR8EvEERKT_RKSsS5_
FN:64,85,_ZN5neml211BufferStore14declare_bufferINS_6ScalarEvEERKT_RKSsS5_
FN:64,85,_ZN5neml211BufferStore14declare_bufferINS_6TensorEvEERKT_RKSsS5_
FN:89,92,_ZN5neml211BufferStore14declare_bufferINS_10QuaternionEvEERKT_RKSsRKNS_10TensorNameIS3_EE
FN:89,92,_ZN5neml211BufferStore14declare_bufferINS_11MillerIndexEvEERKT_RKSsRKNS_10TensorNameIS3_EE
FN:89,92,_ZN5neml211BufferStore14declare_bufferINS_2R2EvEERKT_RKSsRKNS_10TensorNameIS3_EE
FN:89,92,_ZN5neml211BufferStore14declare_bufferINS_2R3EvEERKT_RKSsRKNS_10TensorNameIS3_EE
FN:89,92,_ZN5neml211BufferStore14declare_bufferINS_2R4EvEERKT_RKSsRKNS_10TensorNameIS3_EE
FN:89,92,_ZN5neml211BufferStore14declare_bufferINS_2R5EvEERKT_RKSsRKNS_10TensorNameIS3_EE
FN:89,92,_ZN5neml211BufferStore14declare_bufferINS_2R8EvEERKT_RKSsRKNS_10TensorNameIS3_EE
FN:89,92,_ZN5neml211BufferStore14declare_bufferINS_3RotEvEERKT_RKSsRKNS_10TensorNameIS3_EE
FN:89,92,_ZN5neml211BufferStore14declare_bufferINS_3SR2EvEERKT_RKSsRKNS_10TensorNameIS3_EE
FN:89,92,_ZN5neml211BufferStore14declare_bufferINS_3VecEvEERKT_RKSsRKNS_10TensorNameIS3_EE
FN:89,92,_ZN5neml211BufferStore14declare_bufferINS_3WR2EvEERKT_RKSsRKNS_10TensorNameIS3_EE
FN:89,92,_ZN5neml211BufferStore14declare_bufferINS_4SFR3EvEERKT_RKSsRKNS_10TensorNameIS3_EE
FN:89,92,_ZN5neml211BufferStore14declare_bufferINS_4SFR4EvEERKT_RKSsRKNS_10TensorNameIS3_EE
FN:89,92,_ZN5neml211BufferStore14declare_bufferINS_4SSR4EvEERKT_RKSsRKNS_10TensorNameIS3_EE
FN:89,92,_ZN5neml211BufferStore14declare_bufferINS_4SWR4EvEERKT_RKSsRKNS_10TensorNameIS3_EE
FN:89,92,_ZN5neml211BufferStore14declare_bufferINS_4WFR4EvEERKT_RKSsRKNS_10TensorNameIS3_EE
FN:89,92,_ZN5neml211BufferStore14declare_bufferINS_4WSR4EvEERKT_RKSsRKNS_10TensorNameIS3_EE
FN:89,92,_ZN5neml211BufferStore14declare_bufferINS_4WWR4EvEERKT_RKSsRKNS_10TensorNameIS3_EE
FN:89,92,_ZN5neml211BufferStore14declare_bufferINS_5SFFR4EvEERKT_RKSsRKNS_10TensorNameIS3_EE
FN:89,92,_ZN5neml211BufferStore14declare_bufferINS_5SSFR5EvEERKT_RKSsRKNS_10TensorNameIS3_EE
FN:89,92,_ZN5neml211BufferStore14declare_bufferINS_6SSSSR8EvEERKT_RKSsRKNS_10TensorNameIS3_EE
FN:89,92,_ZN5neml211BufferStore14declare_bufferINS_6ScalarEvEERKT_RKSsRKNS_10TensorNameIS3_EE
FN:89,92,_ZN5neml211BufferStore14declare_bufferINS_6TensorEvEERKT_RKSsRKNS_10TensorNameIS3_EE
FN:96,109,_ZN5neml211BufferStore14declare_bufferINS_10QuaternionEvEERKT_RKSsS7_
FN:96,109,_ZN5neml211BufferStore14declare_bufferINS_11MillerIndexEvEERKT_RKSsS7_
FN:96,109,_ZN5neml211BufferStore14declare_bufferINS_2R2EvEERKT_RKSsS7_
FN:96,109,_ZN5neml211BufferStore14declare_bufferINS_2R3EvEERKT_RKSsS7_
FN:96,109,_ZN5neml211BufferStore14declare_bufferINS_2R4EvEERKT_RKSsS7_
FN:96,109,_ZN5neml211BufferStore14declare_bufferINS_2R5EvEERKT_RKSsS7_
FN:96,109,_ZN5neml211BufferStore14declare_bufferINS_2R8EvEERKT_RKSsS7_
FN:96,109,_ZN5neml211BufferStore14declare_bufferINS_3RotEvEERKT_RKSsS7_
FN:96,109,_ZN5neml211BufferStore14declare_bufferINS_3SR2EvEERKT_RKSsS7_
FN:96,109,_ZN5neml211BufferStore14declare_bufferINS_3VecEvEERKT_RKSsS7_
FN:96,109,_ZN5neml211BufferStore14declare_bufferINS_3WR2EvEERKT_RKSsS7_
FN:96,109,_ZN5neml211BufferStore14declare_bufferINS_4SFR3EvEERKT_RKSsS7_
FN:96,109,_ZN5neml211BufferStore14declare_bufferINS_4SFR4EvEERKT_RKSsS7_
FN:96,109,_ZN5neml211BufferStore14declare_bufferINS_4SSR4EvEERKT_RKSsS7_
FN:96,109,_ZN5neml211BufferStore14declare_bufferINS_4SWR4EvEERKT_RKSsS7_
FN:96,109,_ZN5neml211BufferStore14declare_bufferINS_4WFR4EvEERKT_RKSsS7_
FN:96,109,_ZN5neml211BufferStore14declare_bufferINS_4WSR4EvEERKT_RKSsS7_
FN:96,109,_ZN5neml211BufferStore14declare_bufferINS_4WWR4EvEERKT_RKSsS7_
FN:96,109,_ZN5neml211BufferStore14declare_bufferINS_5SFFR4EvEERKT_RKSsS7_
FN:96,109,_ZN5neml211BufferStore14declare_bufferINS_5SSFR5EvEERKT_RKSsS7_
FN:96,109,_ZN5neml211BufferStore14declare_bufferINS_6SSSSR8EvEERKT_RKSsS7_
FN:96,109,_ZN5neml211BufferStore14declare_bufferINS_6ScalarEvEERKT_RKSsS7_
FN:96,109,_ZN5neml211BufferStore14declare_bufferINS_6TensorEvEERKT_RKSsS7_
FNDA:0,_ZN5neml211BufferStore19assign_buffer_stackERSt6vectorIN3c106IValueESaIS3_EE
FNDA:0,_ZNK5neml211BufferStore20collect_buffer_stackEv
FNDA:437,_ZN5neml211BufferStoreC2EPNS_11NEML2ObjectE
FNDA:142019,_ZN5neml211BufferStore13named_buffersEv
FNDA:2,_ZN5neml211BufferStore10get_bufferERKSs
FNDA:0,_ZN5neml211BufferStore15send_buffers_toERKN3c1013TensorOptionsE
FNDA:0,_ZN5neml211BufferStore14declare_bufferINS_10QuaternionEvEERKT_RKSsS5_
FNDA:80,_ZN5neml211BufferStore14declare_bufferINS_11MillerIndexEvEERKT_RKSsS5_
FNDA:40,_ZN5neml211BufferStore14declare_bufferINS_2R2EvEERKT_RKSsS5_
FNDA:0,_ZN5neml211BufferStore14declare_bufferINS_2R3EvEERKT_RKSsS5_
FNDA:0,_ZN5neml211BufferStore14declare_bufferINS_2R4EvEERKT_RKSsS5_
FNDA:0,_ZN5neml211BufferStore14declare_bufferINS_2R5EvEERKT_RKSsS5_
FNDA:0,_ZN5neml211BufferStore14declare_bufferINS_2R8EvEERKT_RKSsS5_
FNDA:0,_ZN5neml211BufferStore14declare_bufferINS_3RotEvEERKT_RKSsS5_
FNDA:40,_ZN5neml211BufferStore14declare_bufferINS_3SR2EvEERKT_RKSsS5_
FNDA:160,_ZN5neml211BufferStore14declare_bufferINS_3VecEvEERKT_RKSsS5_
FNDA:40,_ZN5neml211BufferStore14declare_bufferINS_3WR2EvEERKT_RKSsS5_
FNDA:0,_ZN5neml211BufferStore14declare_bufferINS_4SFR3EvEERKT_RKSsS5_
FNDA:0,_ZN5neml211BufferStore14declare_bufferINS_4SFR4EvEERKT_RKSsS5_
FNDA:0,_ZN5neml211BufferStore14declare_bufferINS_4SSR4EvEERKT_RKSsS5_
FNDA:0,_ZN5neml211BufferStore14declare_bufferINS_4SWR4EvEERKT_RKSsS5_
FNDA:0,_ZN5neml211BufferStore14declare_bufferINS_4WFR4EvEERKT_RKSsS5_
FNDA:0,_ZN5neml211BufferStore14declare_bufferINS_4WSR4EvEERKT_RKSsS5_
FNDA:0,_ZN5neml211BufferStore14declare_bufferINS_4WWR4EvEERKT_RKSsS5_
FNDA:0,_ZN5neml211BufferStore14declare_bufferINS_5SFFR4EvEERKT_RKSsS5_
FNDA:0,_ZN5neml211BufferStore14declare_bufferINS_5SSFR5EvEERKT_RKSsS5_
FNDA:0,_ZN5neml211BufferStore14declare_bufferINS_6SSSSR8EvEERKT_RKSsS5_
FNDA:114,_ZN5neml211BufferStore14declare_bufferINS_6ScalarEvEERKT_RKSsS5_
FNDA:0,_ZN5neml211BufferStore14declare_bufferINS_6TensorEvEERKT_RKSsS5_
FNDA:0,_ZN5neml211BufferStore14declare_bufferINS_10QuaternionEvEERKT_RKSsRKNS_10TensorNameIS3_EE
FNDA:62,_ZN5neml211BufferStore14declare_bufferINS_11MillerIndexEvEERKT_RKSsRKNS_10TensorNameIS3_EE
FNDA:0,_ZN5neml211BufferStore14declare_bufferINS_2R2EvEERKT_RKSsRKNS_10TensorNameIS3_EE
FNDA:0,_ZN5neml211BufferStore14declare_bufferINS_2R3EvEERKT_RKSsRKNS_10TensorNameIS3_EE
FNDA:0,_ZN5neml211BufferStore14declare_bufferINS_2R4EvEERKT_RKSsRKNS_10TensorNameIS3_EE
FNDA:0,_ZN5neml211BufferStore14declare_bufferINS_2R5EvEERKT_RKSsRKNS_10TensorNameIS3_EE
FNDA:0,_ZN5neml211BufferStore14declare_bufferINS_2R8EvEERKT_RKSsRKNS_10TensorNameIS3_EE
FNDA:0,_ZN5neml211BufferStore14declare_bufferINS_3RotEvEERKT_RKSsRKNS_10TensorNameIS3_EE
FNDA:0,_ZN5neml211BufferStore14declare_bufferINS_3SR2EvEERKT_RKSsRKNS_10TensorNameIS3_EE
FNDA:0,_ZN5neml211BufferStore14declare_bufferINS_3VecEvEERKT_RKSsRKNS_10TensorNameIS3_EE
FNDA:0,_ZN5neml211BufferStore14declare_bufferINS_3WR2EvEERKT_RKSsRKNS_10TensorNameIS3_EE
FNDA:0,_ZN5neml211BufferStore14declare_bufferINS_4SFR3EvEERKT_RKSsRKNS_10TensorNameIS3_EE
FNDA:0,_ZN5neml211BufferStore14declare_bufferINS_4SFR4EvEERKT_RKSsRKNS_10TensorNameIS3_EE
FNDA:0,_ZN5neml211BufferStore14declare_bufferINS_4SSR4EvEERKT_RKSsRKNS_10TensorNameIS3_EE
FNDA:0,_ZN5neml211BufferStore14declare_bufferINS_4SWR4EvEERKT_RKSsRKNS_10TensorNameIS3_EE
FNDA:0,_ZN5neml211BufferStore14declare_bufferINS_4WFR4EvEERKT_RKSsRKNS_10TensorNameIS3_EE
FNDA:0,_ZN5neml211BufferStore14declare_bufferINS_4WSR4EvEERKT_RKSsRKNS_10TensorNameIS3_EE
FNDA:0,_ZN5neml211BufferStore14declare_bufferINS_4WWR4EvEERKT_RKSsRKNS_10TensorNameIS3_EE
FNDA:0,_ZN5neml211BufferStore14declare_bufferINS_5SFFR4EvEERKT_RKSsRKNS_10TensorNameIS3_EE
FNDA:0,_ZN5neml211BufferStore14declare_bufferINS_5SSFR5EvEERKT_RKSsRKNS_10TensorNameIS3_EE
FNDA:0,_ZN5neml211BufferStore14declare_bufferINS_6SSSSR8EvEERKT_RKSsRKNS_10TensorNameIS3_EE
FNDA:43,_ZN5neml211BufferStore14declare_bufferINS_6ScalarEvEERKT_RKSsRKNS_10TensorNameIS3_EE
FNDA:0,_ZN5neml211BufferStore14declare_bufferINS_6TensorEvEERKT_RKSsRKNS_10TensorNameIS3_EE
FNDA:0,_ZN5neml211BufferStore14declare_bufferINS_10QuaternionEvEERKT_RKSsS7_
FNDA:62,_ZN5neml211BufferStore14declare_bufferINS_11MillerIndexEvEERKT_RKSsS7_
FNDA:0,_ZN5neml211BufferStore14declare_bufferINS_2R2EvEERKT_RKSsS7_
FNDA:0,_ZN5neml211BufferStore14declare_bufferINS_2R3EvEERKT_RKSsS7_
FNDA:0,_ZN5neml211BufferStore14declare_bufferINS_2R4EvEERKT_RKSsS7_
FNDA:0,_ZN5neml211BufferStore14declare_bufferINS_2R5EvEERKT_RKSsS7_
FNDA:0,_ZN5neml211BufferStore14declare_bufferINS_2R8EvEERKT_RKSsS7_
FNDA:0,_ZN5neml211BufferStore14declare_bufferINS_3RotEvEERKT_RKSsS7_
FNDA:0,_ZN5neml211BufferStore14declare_bufferINS_3SR2EvEERKT_RKSsS7_
FNDA:0,_ZN5neml211BufferStore14declare_bufferINS_3VecEvEERKT_RKSsS7_
FNDA:0,_ZN5neml211BufferStore14declare_bufferINS_3WR2EvEERKT_RKSsS7_
FNDA:0,_ZN5neml211BufferStore14declare_bufferINS_4SFR3EvEERKT_RKSsS7_
FNDA:0,_ZN5neml211BufferStore14declare_bufferINS_4SFR4EvEERKT_RKSsS7_
FNDA:0,_ZN5neml211BufferStore14declare_bufferINS_4SSR4EvEERKT_RKSsS7_
FNDA:0,_ZN5neml211BufferStore14declare_bufferINS_4SWR4EvEERKT_RKSsS7_
FNDA:0,_ZN5neml211BufferStore14declare_bufferINS_4WFR4EvEERKT_RKSsS7_
FNDA:0,_ZN5neml211BufferStore14declare_bufferINS_4WSR4EvEERKT_RKSsS7_
FNDA:0,_ZN5neml211BufferStore14declare_bufferINS_4WWR4EvEERKT_RKSsS7_
FNDA:0,_ZN5neml211BufferStore14declare_bufferINS_5SFFR4EvEERKT_RKSsS7_
FNDA:0,_ZN5neml211BufferStore14declare_bufferINS_5SSFR5EvEERKT_RKSsS7_
FNDA:0,_ZN5neml211BufferStore14declare_bufferINS_6SSSSR8EvEERKT_RKSsS7_
FNDA:7,_ZN5neml211BufferStore14declare_bufferINS_6ScalarEvEERKT_RKSsS7_
FNDA:0,_ZN5neml211BufferStore14declare_bufferINS_6TensorEvEERKT_RKSsS7_
FNF:75
FNH:13
DA:34,437
DA:35,437
DA:37,437
DA:40,142019
DA:42,142019
DA:44,142019
DA:48,2
DA:50,2
DA:51,2
DA:52,2
DA:56,0
DA:58,0
DA:59,0
DA:60,0
DA:64,474
DA:66,474
DA:67,363
DA:68,242
DA:70,353
DA:73,353
DA:74,2
DA:77,351
DA:78,351
DA:79,351
DA:80,351
DA:82,353
DA:83,353
DA:84,353
DA:89,105
DA:91,105
DA:96,69
DA:98,69
DA:99,0
DA:101,69
DA:102,69
DA:104,0
DA:118,0
DA:120,0
DA:122,0
DA:124,0
DA:126,0
DA:130,0
DA:131,0
DA:133,0
DA:134,0
DA:135,0
DA:138,0
DA:139,0
DA:142,0
DA:144,0
DA:145,0
DA:146,0
DA:147,0
DA:148,0
DA:149,0
DA:150,0
LF:56
LH:30
end_of_record
TN:
SF:/home/runner/work/neml2/neml2/src/neml2/models/ComposedModel.cxx
FN:174,177,_ZNK5neml213ComposedModel26named_nonlinear_parametersEb
FN:180,192,_ZN5neml213ComposedModel20link_input_variablesEPNS_5ModelE
FN:195,200,_ZN5neml213ComposedModel21link_output_variablesEPNS_5ModelE
FN:203,224,_ZN5neml213ComposedModel9set_valueEbbb
FN:32,60,_ZN5neml213ComposedModel16expected_optionsEv
FN:62,171,_ZN5neml213ComposedModelC2ERKNS_9OptionSetE
FNDA:20,_ZNK5neml213ComposedModel26named_nonlinear_parametersEb
FNDA:232,_ZN5neml213ComposedModel20link_input_variablesEPNS_5ModelE
FNDA:232,_ZN5neml213ComposedModel21link_output_variablesEPNS_5ModelE
FNDA:177,_ZN5neml213ComposedModel9set_valueEbbb
FNDA:2,_ZN5neml213ComposedModel16expected_optionsEv
FNDA:65,_ZN5neml213ComposedModelC2ERKNS_9OptionSetE
FNF:6
FNH:6
DA:32,2
DA:34,2
DA:35,2
DA:38,2
DA:40,2
DA:42,4
DA:43,4
DA:45,4
DA:46,6
DA:48,2
DA:50,4
DA:51,6
DA:53,2
DA:55,4
DA:56,4
DA:57,2
DA:59,2
DA:60,0
DA:62,65
DA:64,130
DA:65,195
DA:70,298
DA:71,168
DA:81,65
DA:82,65
DA:83,233
DA:84,232
DA:85,64
DA:86,128
DA:87,232
DA:90,297
DA:91,232
DA:92,67
DA:93,2
DA:96,65
DA:97,65
DA:98,65
DA:99,0
DA:102,65
DA:103,65
DA:104,65
DA:107,65
DA:110,417
DA:111,352
DA:112,282
DA:115,154
DA:116,89
DA:119,233
DA:120,232
DA:121,64
DA:122,168
DA:125,65
DA:126,297
DA:127,232
DA:129,0
DA:130,0
DA:131,0
DA:132,0
DA:136,65
DA:138,65
DA:139,297
DA:140,232
DA:142,0
DA:143,0
DA:144,0
DA:149,65
DA:151,65
DA:152,164
DA:153,143
DA:155,44
DA:156,44
DA:161,65
DA:164,65
DA:165,287
DA:166,226
DA:168,4
DA:169,4
DA:171,65
DA:174,20
DA:176,20
DA:180,232
DA:182,2149
DA:183,1917
DA:184,352
DA:186,1624
DA:187,1392
DA:189,181
DA:190,181
DA:192,232
DA:195,232
DA:197,609
DA:198,377
DA:199,89
DA:200,232
DA:203,177
DA:205,770
DA:207,593
DA:208,338
DA:209,255
DA:210,207
DA:211,48
DA:212,48
DA:214,0
DA:217,177
DA:218,131
DA:219,72
DA:221,177
DA:222,32
DA:223,16
DA:224,177
LF:110
LH:100
end_of_record
TN:
SF:/home/runner/work/neml2/neml2/src/neml2/models/ConstantParameter.cxx
FN:32,41,_ZN5neml217ConstantParameterINS_10QuaternionEE16expected_optionsEv
FN:32,41,_ZN5neml217ConstantParameterINS_11MillerIndexEE16expected_optionsEv
FN:32,41,_ZN5neml217ConstantParameterINS_2R2EE16expected_optionsEv
FN:32,41,_ZN5neml217ConstantParameterINS_2R3EE16expected_optionsEv
FN:32,41,_ZN5neml217ConstantParameterINS_2R4EE16expected_optionsEv
FN:32,41,_ZN5neml217ConstantParameterINS_2R5EE16expected_optionsEv
FN:32,41,_ZN5neml217ConstantParameterINS_2R8EE16expected_optionsEv
FN:32,41,_ZN5neml217ConstantParameterINS_3RotEE16expected_optionsEv
FN:32,41,_ZN5neml217ConstantParameterINS_3SR2EE16expected_optionsEv
FN:32,41,_ZN5neml217ConstantParameterINS_3VecEE16expected_optionsEv
FN:32,41,_ZN5neml217ConstantParameterINS_3WR2EE16expected_optionsEv
FN:32,41,_ZN5neml217ConstantParameterINS_4SFR3EE16expected_optionsEv
FN:32,41,_ZN5neml217ConstantParameterINS_4SFR4EE16expected_optionsEv
FN:32,41,_ZN5neml217ConstantParameterINS_4SSR4EE16expected_optionsEv
FN:32,41,_ZN5neml217ConstantParameterINS_4SWR4EE16expected_optionsEv
FN:32,41,_ZN5neml217ConstantParameterINS_4WFR4EE16expected_optionsEv
FN:32,41,_ZN5neml217ConstantParameterINS_4WSR4EE16expected_optionsEv
FN:32,41,_ZN5neml217ConstantParameterINS_4WWR4EE16expected_optionsEv
FN:32,41,_ZN5neml217ConstantParameterINS_5SFFR4EE16expected_optionsEv
FN:32,41,_ZN5neml217ConstantParameterINS_5SSFR5EE16expected_optionsEv
FN:32,41,_ZN5neml217ConstantParameterINS_6SSSSR8EE16expected_optionsEv
FN:32,41,_ZN5neml217ConstantParameterINS_6ScalarEE16expected_optionsEv
FN:44,49,_ZN5neml217ConstantParameterINS_10QuaternionEEC2ERKNS_9OptionSetE
FN:44,49,_ZN5neml217ConstantParameterINS_11MillerIndexEEC2ERKNS_9OptionSetE
FN:44,49,_ZN5neml217ConstantParameterINS_2R2EEC2ERKNS_9OptionSetE
FN:44,49,_ZN5neml217ConstantParameterINS_2R3EEC2ERKNS_9OptionSetE
FN:44,49,_ZN5neml217ConstantParameterINS_2R4EEC2ERKNS_9OptionSetE
FN:44,49,_ZN5neml217ConstantParameterINS_2R5EEC2ERKNS_9OptionSetE
FN:44,49,_ZN5neml217ConstantParameterINS_2R8EEC2ERKNS_9OptionSetE
FN:44,49,_ZN5neml217ConstantParameterINS_3RotEEC2ERKNS_9OptionSetE
FN:44,49,_ZN5neml217ConstantParameterINS_3SR2EEC2ERKNS_9OptionSetE
FN:44,49,_ZN5neml217ConstantParameterINS_3VecEEC2ERKNS_9OptionSetE
FN:44,49,_ZN5neml217ConstantParameterINS_3WR2EEC2ERKNS_9OptionSetE
FN:44,49,_ZN5neml217ConstantParameterINS_4SFR3EEC2ERKNS_9OptionSetE
FN:44,49,_ZN5neml217ConstantParameterINS_4SFR4EEC2ERKNS_9OptionSetE
FN:44,49,_ZN5neml217ConstantParameterINS_4SSR4EEC2ERKNS_9OptionSetE
FN:44,49,_ZN5neml217ConstantParameterINS_4SWR4EEC2ERKNS_9OptionSetE
FN:44,49,_ZN5neml217ConstantParameterINS_4WFR4EEC2ERKNS_9OptionSetE
FN:44,49,_ZN5neml217ConstantParameterINS_4WSR4EEC2ERKNS_9OptionSetE
FN:44,49,_ZN5neml217ConstantParameterINS_4WWR4EEC2ERKNS_9OptionSetE
FN:44,49,_ZN5neml217ConstantParameterINS_5SFFR4EEC2ERKNS_9OptionSetE
FN:44,49,_ZN5neml217ConstantParameterINS_5SSFR5EEC2ERKNS_9OptionSetE
FN:44,49,_ZN5neml217ConstantParameterINS_6SSSSR8EEC2ERKNS_9OptionSetE
FN:44,49,_ZN5neml217ConstantParameterINS_6ScalarEEC2ERKNS_9OptionSetE
FN:53,64,_ZN5neml217ConstantParameterINS_10QuaternionEE9set_valueEbbb
FN:53,64,_ZN5neml217ConstantParameterINS_11MillerIndexEE9set_valueEbbb
FN:53,64,_ZN5neml217ConstantParameterINS_2R2EE9set_valueEbbb
FN:53,64,_ZN5neml217ConstantParameterINS_2R3EE9set_valueEbbb
FN:53,64,_ZN5neml217ConstantParameterINS_2R4EE9set_valueEbbb
FN:53,64,_ZN5neml217ConstantParameterINS_2R5EE9set_valueEbbb
FN:53,64,_ZN5neml217ConstantParameterINS_2R8EE9set_valueEbbb
FN:53,64,_ZN5neml217ConstantParameterINS_3RotEE9set_valueEbbb
FN:53,64,_ZN5neml217ConstantParameterINS_3SR2EE9set_valueEbbb
FN:53,64,_ZN5neml217ConstantParameterINS_3VecEE9set_valueEbbb
FN:53,64,_ZN5neml217ConstantParameterINS_3WR2EE9set_valueEbbb
FN:53,64,_ZN5neml217ConstantParameterINS_4SFR3EE9set_valueEbbb
FN:53,64,_ZN5neml217ConstantParameterINS_4SFR4EE9set_valueEbbb
FN:53,64,_ZN5neml217ConstantParameterINS_4SSR4EE9set_valueEbbb
FN:53,64,_ZN5neml217ConstantParameterINS_4SWR4EE9set_valueEbbb
FN:53,64,_ZN5neml217ConstantParameterINS_4WFR4EE9set_valueEbbb
FN:53,64,_ZN5neml217ConstantParameterINS_4WSR4EE9set_valueEbbb
FN:53,64,_ZN5neml217ConstantParameterINS_4WWR4EE9set_valueEbbb
FN:53,64,_ZN5neml217ConstantParameterINS_5SFFR4EE9set_valueEbbb
FN:53,64,_ZN5neml217ConstantParameterINS_5SSFR5EE9set_valueEbbb
FN:53,64,_ZN5neml217ConstantParameterINS_6SSSSR8EE9set_valueEbbb
FN:53,64,_ZN5neml217ConstantParameterINS_6ScalarEE9set_valueEbbb
FNDA:2,_ZN5neml217ConstantParameterINS_10QuaternionEE16expected_optionsEv
FNDA:2,_ZN5neml217ConstantParameterINS_11MillerIndexEE16expected_optionsEv
FNDA:2,_ZN5neml217ConstantParameterINS_2R2EE16expected_optionsEv
FNDA:2,_ZN5neml217ConstantParameterINS_2R3EE16expected_optionsEv
FNDA:2,_ZN5neml217ConstantParameterINS_2R4EE16expected_optionsEv
FNDA:2,_ZN5neml217ConstantParameterINS_2R5EE16expected_optionsEv
FNDA:2,_ZN5neml217ConstantParameterINS_2R8EE16expected_optionsEv
FNDA:2,_ZN5neml217ConstantParameterINS_3RotEE16expected_optionsEv
FNDA:2,_ZN5neml217ConstantParameterINS_3SR2EE16expected_optionsEv
FNDA:2,_ZN5neml217ConstantParameterINS_3VecEE16expected_optionsEv
FNDA:2,_ZN5neml217ConstantParameterINS_3WR2EE16expected_optionsEv
FNDA:2,_ZN5neml217ConstantParameterINS_4SFR3EE16expected_optionsEv
FNDA:2,_ZN5neml217ConstantParameterINS_4SFR4EE16expected_optionsEv
FNDA:2,_ZN5neml217ConstantParameterINS_4SSR4EE16expected_optionsEv
FNDA:2,_ZN5neml217ConstantParameterINS_4SWR4EE16expected_optionsEv
FNDA:2,_ZN5neml217ConstantParameterINS_4WFR4EE16expected_optionsEv
FNDA:2,_ZN5neml217ConstantParameterINS_4WSR4EE16expected_optionsEv
FNDA:2,_ZN5neml217ConstantParameterINS_4WWR4EE16expected_optionsEv
FNDA:2,_ZN5neml217ConstantParameterINS_5SFFR4EE16expected_optionsEv
FNDA:2,_ZN5neml217ConstantParameterINS_5SSFR5EE16expected_optionsEv
FNDA:2,_ZN5neml217ConstantParameterINS_6SSSSR8EE16expected_optionsEv
FNDA:2,_ZN5neml217ConstantParameterINS_6ScalarEE16expected_optionsEv
FNDA:0,_ZN5neml217ConstantParameterINS_10QuaternionEEC2ERKNS_9OptionSetE
FNDA:0,_ZN5neml217ConstantParameterINS_11MillerIndexEEC2ERKNS_9OptionSetE
FNDA:0,_ZN5neml217ConstantParameterINS_2R2EEC2ERKNS_9OptionSetE
FNDA:0,_ZN5neml217ConstantParameterINS_2R3EEC2ERKNS_9OptionSetE
FNDA:0,_ZN5neml217ConstantParameterINS_2R4EEC2ERKNS_9OptionSetE
FNDA:0,_ZN5neml217ConstantParameterINS_2R5EEC2ERKNS_9OptionSetE
FNDA:0,_ZN5neml217ConstantParameterINS_2R8EEC2ERKNS_9OptionSetE
FNDA:0,_ZN5neml217ConstantParameterINS_3RotEEC2ERKNS_9OptionSetE
FNDA:1,_ZN5neml217ConstantParameterINS_3SR2EEC2ERKNS_9OptionSetE
FNDA:0,_ZN5neml217ConstantParameterINS_3VecEEC2ERKNS_9OptionSetE
FNDA:0,_ZN5neml217ConstantParameterINS_3WR2EEC2ERKNS_9OptionSetE
FNDA:0,_ZN5neml217ConstantParameterINS_4SFR3EEC2ERKNS_9OptionSetE
FNDA:0,_ZN5neml217ConstantParameterINS_4SFR4EEC2ERKNS_9OptionSetE
FNDA:0,_ZN5neml217ConstantParameterINS_4SSR4EEC2ERKNS_9OptionSetE
FNDA:0,_ZN5neml217ConstantParameterINS_4SWR4EEC2ERKNS_9OptionSetE
FNDA:0,_ZN5neml217ConstantParameterINS_4WFR4EEC2ERKNS_9OptionSetE
FNDA:0,_ZN5neml217ConstantParameterINS_4WSR4EEC2ERKNS_9OptionSetE
FNDA:0,_ZN5neml217ConstantParameterINS_4WWR4EEC2ERKNS_9OptionSetE
FNDA:0,_ZN5neml217ConstantParameterINS_5SFFR4EEC2ERKNS_9OptionSetE
FNDA:0,_ZN5neml217ConstantParameterINS_5SSFR5EEC2ERKNS_9OptionSetE
FNDA:0,_ZN5neml217ConstantParameterINS_6SSSSR8EEC2ERKNS_9OptionSetE
FNDA:4,_ZN5neml217ConstantParameterINS_6ScalarEEC2ERKNS_9OptionSetE
FNDA:0,_ZN5neml217ConstantParameterINS_10QuaternionEE9set_valueEbbb
FNDA:0,_ZN5neml217ConstantParameterINS_11MillerIndexEE9set_valueEbbb
FNDA:0,_ZN5neml217ConstantParameterINS_2R2EE9set_valueEbbb
FNDA:0,_ZN5neml217ConstantParameterINS_2R3EE9set_valueEbbb
FNDA:0,_ZN5neml217ConstantParameterINS_2R4EE9set_valueEbbb
FNDA:0,_ZN5neml217ConstantParameterINS_2R5EE9set_valueEbbb
FNDA:0,_ZN5neml217ConstantParameterINS_2R8EE9set_valueEbbb
FNDA:0,_ZN5neml217ConstantParameterINS_3RotEE9set_valueEbbb
FNDA:2,_ZN5neml217ConstantParameterINS_3SR2EE9set_valueEbbb
FNDA:0,_ZN5neml217ConstantParameterINS_3VecEE9set_valueEbbb
FNDA:0,_ZN5neml217ConstantParameterINS_3WR2EE9set_valueEbbb
FNDA:0,_ZN5neml217ConstantParameterINS_4SFR3EE9set_valueEbbb
FNDA:0,_ZN5neml217ConstantParameterINS_4SFR4EE9set_valueEbbb
FNDA:0,_ZN5neml217ConstantParameterINS_4SSR4EE9set_valueEbbb
FNDA:0,_ZN5neml217ConstantParameterINS_4SWR4EE9set_valueEbbb
FNDA:0,_ZN5neml217ConstantParameterINS_4WFR4EE9set_valueEbbb
FNDA:0,_ZN5neml217ConstantParameterINS_4WSR4EE9set_valueEbbb
FNDA:0,_ZN5neml217ConstantParameterINS_4WWR4EE9set_valueEbbb
FNDA:0,_ZN5neml217ConstantParameterINS_5SFFR4EE9set_valueEbbb
FNDA:0,_ZN5neml217ConstantParameterINS_5SSFR5EE9set_valueEbbb
FNDA:0,_ZN5neml217ConstantParameterINS_6SSSSR8EE9set_valueEbbb
FNDA:2,_ZN5neml217ConstantParameterINS_6ScalarEE9set_valueEbbb
FNF:66
FNH:26
DA:32,44
DA:34,44
DA:35,44
DA:38,88
DA:39,44
DA:40,44
DA:41,0
DA:44,5
DA:46,15
DA:47,10
DA:49,5
DA:53,4
DA:55,4
DA:56,2
DA:58,4
DA:59,6
DA:60,0
DA:64,4
LF:18
LH:16
end_of_record
TN:
SF:/home/runner/work/neml2/neml2/src/neml2/models/CopyVariable.cxx
FN:32,44,_ZN5neml212CopyVariableINS_10QuaternionEE16expected_optionsEv
FN:32,44,_ZN5neml212CopyVariableINS_11MillerIndexEE16expected_optionsEv
FN:32,44,_ZN5neml212CopyVariableINS_2R2EE16expected_optionsEv
FN:32,44,_ZN5neml212CopyVariableINS_2R3EE16expected_optionsEv
FN:32,44,_ZN5neml212CopyVariableINS_2R4EE16expected_optionsEv
FN:32,44,_ZN5neml212CopyVariableINS_2R5EE16expected_optionsEv
FN:32,44,_ZN5neml212CopyVariableINS_2R8EE16expected_optionsEv
FN:32,44,_ZN5neml212CopyVariableINS_3RotEE16expected_optionsEv
FN:32,44,_ZN5neml212CopyVariableINS_3SR2EE16expected_optionsEv
FN:32,44,_ZN5neml212CopyVariableINS_3VecEE16expected_optionsEv
FN:32,44,_ZN5neml212CopyVariableINS_3WR2EE16expected_optionsEv
FN:32,44,_ZN5neml212CopyVariableINS_4SFR3EE16expected_optionsEv
FN:32,44,_ZN5neml212CopyVariableINS_4SFR4EE16expected_optionsEv
FN:32,44,_ZN5neml212CopyVariableINS_4SSR4EE16expected_optionsEv
FN:32,44,_ZN5neml212CopyVariableINS_4SWR4EE16expected_optionsEv
FN:32,44,_ZN5neml212CopyVariableINS_4WFR4EE16expected_optionsEv
FN:32,44,_ZN5neml212CopyVariableINS_4WSR4EE16expected_optionsEv
FN:32,44,_ZN5neml212CopyVariableINS_4WWR4EE16expected_optionsEv
FN:32,44,_ZN5neml212CopyVariableINS_5SFFR4EE16expected_optionsEv
FN:32,44,_ZN5neml212CopyVariableINS_5SSFR5EE16expected_optionsEv
FN:32,44,_ZN5neml212CopyVariableINS_6SSSSR8EE16expected_optionsEv
FN:32,44,_ZN5neml212CopyVariableINS_6ScalarEE16expected_optionsEv
FN:47,52,_ZN5neml212CopyVariableINS_10QuaternionEEC2ERKNS_9OptionSetE
FN:47,52,_ZN5neml212CopyVariableINS_11MillerIndexEEC2ERKNS_9OptionSetE
FN:47,52,_ZN5neml212CopyVariableINS_2R2EEC2ERKNS_9OptionSetE
FN:47,52,_ZN5neml212CopyVariableINS_2R3EEC2ERKNS_9OptionSetE
FN:47,52,_ZN5neml212CopyVariableINS_2R4EEC2ERKNS_9OptionSetE
FN:47,52,_ZN5neml212CopyVariableINS_2R5EEC2ERKNS_9OptionSetE
FN:47,52,_ZN5neml212CopyVariableINS_2R8EEC2ERKNS_9OptionSetE
FN:47,52,_ZN5neml212CopyVariableINS_3RotEEC2ERKNS_9OptionSetE
FN:47,52,_ZN5neml212CopyVariableINS_3SR2EEC2ERKNS_9OptionSetE
FN:47,52,_ZN5neml212CopyVariableINS_3VecEEC2ERKNS_9OptionSetE
FN:47,52,_ZN5neml212CopyVariableINS_3WR2EEC2ERKNS_9OptionSetE
FN:47,52,_ZN5neml212CopyVariableINS_4SFR3EEC2ERKNS_9OptionSetE
FN:47,52,_ZN5neml212CopyVariableINS_4SFR4EEC2ERKNS_9OptionSetE
FN:47,52,_ZN5neml212CopyVariableINS_4SSR4EEC2ERKNS_9OptionSetE
FN:47,52,_ZN5neml212CopyVariableINS_4SWR4EEC2ERKNS_9OptionSetE
FN:47,52,_ZN5neml212CopyVariableINS_4WFR4EEC2ERKNS_9OptionSetE
FN:47,52,_ZN5neml212CopyVariableINS_4WSR4EEC2ERKNS_9OptionSetE
FN:47,52,_ZN5neml212CopyVariableINS_4WWR4EEC2ERKNS_9OptionSetE
FN:47,52,_ZN5neml212CopyVariableINS_5SFFR4EEC2ERKNS_9OptionSetE
FN:47,52,_ZN5neml212CopyVariableINS_5SSFR5EEC2ERKNS_9OptionSetE
FN:47,52,_ZN5neml212CopyVariableINS_6SSSSR8EEC2ERKNS_9OptionSetE
FN:47,52,_ZN5neml212CopyVariableINS_6ScalarEEC2ERKNS_9OptionSetE
FN:56,69,_ZN5neml212CopyVariableINS_10QuaternionEE9set_valueEbbb
FN:56,69,_ZN5neml212CopyVariableINS_11MillerIndexEE9set_valueEbbb
FN:56,69,_ZN5neml212CopyVariableINS_2R2EE9set_valueEbbb
FN:56,69,_ZN5neml212CopyVariableINS_2R3EE9set_valueEbbb
FN:56,69,_ZN5neml212CopyVariableINS_2R4EE9set_valueEbbb
FN:56,69,_ZN5neml212CopyVariableINS_2R5EE9set_valueEbbb
FN:56,69,_ZN5neml212CopyVariableINS_2R8EE9set_valueEbbb
FN:56,69,_ZN5neml212CopyVariableINS_3RotEE9set_valueEbbb
FN:56,69,_ZN5neml212CopyVariableINS_3SR2EE9set_valueEbbb
FN:56,69,_ZN5neml212CopyVariableINS_3VecEE9set_valueEbbb
FN:56,69,_ZN5neml212CopyVariableINS_3WR2EE9set_valueEbbb
FN:56,69,_ZN5neml212CopyVariableINS_4SFR3EE9set_valueEbbb
FN:56,69,_ZN5neml212CopyVariableINS_4SFR4EE9set_valueEbbb
FN:56,69,_ZN5neml212CopyVariableINS_4SSR4EE9set_valueEbbb
FN:56,69,_ZN5neml212CopyVariableINS_4SWR4EE9set_valueEbbb
FN:56,69,_ZN5neml212CopyVariableINS_4WFR4EE9set_valueEbbb
FN:56,69,_ZN5neml212CopyVariableINS_4WSR4EE9set_valueEbbb
FN:56,69,_ZN5neml212CopyVariableINS_4WWR4EE9set_valueEbbb
FN:56,69,_ZN5neml212CopyVariableINS_5SFFR4EE9set_valueEbbb
FN:56,69,_ZN5neml212CopyVariableINS_5SSFR5EE9set_valueEbbb
FN:56,69,_ZN5neml212CopyVariableINS_6SSSSR8EE9set_valueEbbb
FN:56,69,_ZN5neml212CopyVariableINS_6ScalarEE9set_valueEbbb
FNDA:2,_ZN5neml212CopyVariableINS_10QuaternionEE16expected_optionsEv
FNDA:2,_ZN5neml212CopyVariableINS_11MillerIndexEE16expected_optionsEv
FNDA:2,_ZN5neml212CopyVariableINS_2R2EE16expected_optionsEv
FNDA:2,_ZN5neml212CopyVariableINS_2R3EE16expected_optionsEv
FNDA:2,_ZN5neml212CopyVariableINS_2R4EE16expected_optionsEv
FNDA:2,_ZN5neml212CopyVariableINS_2R5EE16expected_optionsEv
FNDA:2,_ZN5neml212CopyVariableINS_2R8EE16expected_optionsEv
FNDA:2,_ZN5neml212CopyVariableINS_3RotEE16expected_optionsEv
FNDA:2,_ZN5neml212CopyVariableINS_3SR2EE16expected_optionsEv
FNDA:2,_ZN5neml212CopyVariableINS_3VecEE16expected_optionsEv
FNDA:2,_ZN5neml212CopyVariableINS_3WR2EE16expected_optionsEv
FNDA:2,_ZN5neml212CopyVariableINS_4SFR3EE16expected_optionsEv
FNDA:2,_ZN5neml212CopyVariableINS_4SFR4EE16expected_optionsEv
FNDA:2,_ZN5neml212CopyVariableINS_4SSR4EE16expected_optionsEv
FNDA:2,_ZN5neml212CopyVariableINS_4SWR4EE16expected_optionsEv
FNDA:2,_ZN5neml212CopyVariableINS_4WFR4EE16expected_optionsEv
FNDA:2,_ZN5neml212CopyVariableINS_4WSR4EE16expected_optionsEv
FNDA:2,_ZN5neml212CopyVariableINS_4WWR4EE16expected_optionsEv
FNDA:2,_ZN5neml212CopyVariableINS_5SFFR4EE16expected_optionsEv
FNDA:2,_ZN5neml212CopyVariableINS_5SSFR5EE16expected_optionsEv
FNDA:2,_ZN5neml212CopyVariableINS_6SSSSR8EE16expected_optionsEv
FNDA:2,_ZN5neml212CopyVariableINS_6ScalarEE16expected_optionsEv
FNDA:0,_ZN5neml212CopyVariableINS_10QuaternionEEC2ERKNS_9OptionSetE
FNDA:0,_ZN5neml212CopyVariableINS_11MillerIndexEEC2ERKNS_9OptionSetE
FNDA:0,_ZN5neml212CopyVariableINS_2R2EEC2ERKNS_9OptionSetE
FNDA:0,_ZN5neml212CopyVariableINS_2R3EEC2ERKNS_9OptionSetE
FNDA:0,_ZN5neml212CopyVariableINS_2R4EEC2ERKNS_9OptionSetE
FNDA:0,_ZN5neml212CopyVariableINS_2R5EEC2ERKNS_9OptionSetE
FNDA:0,_ZN5neml212CopyVariableINS_2R8EEC2ERKNS_9OptionSetE
FNDA:0,_ZN5neml212CopyVariableINS_3RotEEC2ERKNS_9OptionSetE
FNDA:1,_ZN5neml212CopyVariableINS_3SR2EEC2ERKNS_9OptionSetE
FNDA:0,_ZN5neml212CopyVariableINS_3VecEEC2ERKNS_9OptionSetE
FNDA:0,_ZN5neml212CopyVariableINS_3WR2EEC2ERKNS_9OptionSetE
FNDA:0,_ZN5neml212CopyVariableINS_4SFR3EEC2ERKNS_9OptionSetE
FNDA:0,_ZN5neml212CopyVariableINS_4SFR4EEC2ERKNS_9OptionSetE
FNDA:0,_ZN5neml212CopyVariableINS_4SSR4EEC2ERKNS_9OptionSetE
FNDA:0,_ZN5neml212CopyVariableINS_4SWR4EEC2ERKNS_9OptionSetE
FNDA:0,_ZN5neml212CopyVariableINS_4WFR4EEC2ERKNS_9OptionSetE
FNDA:0,_ZN5neml212CopyVariableINS_4WSR4EEC2ERKNS_9OptionSetE
FNDA:0,_ZN5neml212CopyVariableINS_4WWR4EEC2ERKNS_9OptionSetE
FNDA:0,_ZN5neml212CopyVariableINS_5SFFR4EEC2ERKNS_9OptionSetE
FNDA:0,_ZN5neml212CopyVariableINS_5SSFR5EEC2ERKNS_9OptionSetE
FNDA:0,_ZN5neml212CopyVariableINS_6SSSSR8EEC2ERKNS_9OptionSetE
FNDA:4,_ZN5neml212CopyVariableINS_6ScalarEEC2ERKNS_9OptionSetE
FNDA:0,_ZN5neml212CopyVariableINS_10QuaternionEE9set_valueEbbb
FNDA:0,_ZN5neml212CopyVariableINS_11MillerIndexEE9set_valueEbbb
FNDA:0,_ZN5neml212CopyVariableINS_2R2EE9set_valueEbbb
FNDA:0,_ZN5neml212CopyVariableINS_2R3EE9set_valueEbbb
FNDA:0,_ZN5neml212CopyVariableINS_2R4EE9set_valueEbbb
FNDA:0,_ZN5neml212CopyVariableINS_2R5EE9set_valueEbbb
FNDA:0,_ZN5neml212CopyVariableINS_2R8EE9set_valueEbbb
FNDA:0,_ZN5neml212CopyVariableINS_3RotEE9set_valueEbbb
FNDA:2,_ZN5neml212CopyVariableINS_3SR2EE9set_valueEbbb
FNDA:0,_ZN5neml212CopyVariableINS_3VecEE9set_valueEbbb
FNDA:0,_ZN5neml212CopyVariableINS_3WR2EE9set_valueEbbb
FNDA:0,_ZN5neml212CopyVariableINS_4SFR3EE9set_valueEbbb
FNDA:0,_ZN5neml212CopyVariableINS_4SFR4EE9set_valueEbbb
FNDA:0,_ZN5neml212CopyVariableINS_4SSR4EE9set_valueEbbb
FNDA:0,_ZN5neml212CopyVariableINS_4SWR4EE9set_valueEbbb
FNDA:0,_ZN5neml212CopyVariableINS_4WFR4EE9set_valueEbbb
FNDA:0,_ZN5neml212CopyVariableINS_4WSR4EE9set_valueEbbb
FNDA:0,_ZN5neml212CopyVariableINS_4WWR4EE9set_valueEbbb
FNDA:0,_ZN5neml212CopyVariableINS_5SFFR4EE9set_valueEbbb
FNDA:0,_ZN5neml212CopyVariableINS_5SSFR5EE9set_valueEbbb
FNDA:0,_ZN5neml212CopyVariableINS_6SSSSR8EE9set_valueEbbb
FNDA:3,_ZN5neml212CopyVariableINS_6ScalarEE9set_valueEbbb
FNF:66
FNH:26
DA:32,44
DA:34,44
DA:35,44
DA:37,88
DA:38,88
DA:40,88
DA:41,44
DA:43,44
DA:44,0
DA:47,5
DA:49,5
DA:50,10
DA:52,5
DA:56,5
DA:58,5
DA:59,5
DA:61,5
DA:62,5
DA:63,3
DA:69,5
LF:20
LH:19
end_of_record
TN:
SF:/home/runner/work/neml2/neml2/src/neml2/models/Data.cxx
FN:31,36,_ZN5neml24Data16expected_optionsEv
FN:38,42,_ZN5neml24DataC2ERKNS_9OptionSetE
FNDA:385,_ZN5neml24Data16expected_optionsEv
FNDA:437,_ZN5neml24DataC2ERKNS_9OptionSetE
FNF:2
FNH:2
DA:31,385
DA:33,385
DA:34,385
DA:35,385
DA:36,0
DA:38,437
DA:40,437
DA:42,437
LF:8
LH:7
end_of_record
TN:
SF:/home/runner/work/neml2/neml2/src/neml2/models/FischerBurmeister.cxx
FN:33,66,_ZN5neml217FischerBurmeister16expected_optionsEv
FN:68,76,_ZN5neml217FischerBurmeisterC2ERKNS_9OptionSetE
FN:79,101,_ZN5neml217FischerBurmeister9set_valueEbbb
FNDA:2,_ZN5neml217FischerBurmeister16expected_optionsEv
FNDA:3,_ZN5neml217FischerBurmeisterC2ERKNS_9OptionSetE
FNDA:6,_ZN5neml217FischerBurmeister9set_valueEbbb
FNF:3
FNH:3
DA:33,2
DA:35,2
DA:36,2
DA:42,2
DA:44,6
DA:45,2
DA:47,6
DA:48,4
DA:50,8
DA:51,2
DA:52,4
DA:53,4
DA:54,6
DA:56,8
DA:57,2
DA:58,4
DA:59,4
DA:60,6
DA:62,6
DA:63,2
DA:65,4
DA:66,2
DA:68,3
DA:70,3
DA:71,3
DA:72,6
DA:73,6
DA:74,6
DA:76,3
DA:79,6
DA:81,6
DA:83,6
DA:84,12
DA:85,4
DA:87,6
DA:88,12
DA:89,2
DA:91,6
DA:93,3
DA:96,6
DA:98,3
DA:99,3
DA:101,6
LF:43
LH:43
end_of_record
TN:
SF:/home/runner/work/neml2/neml2/src/neml2/models/ForwardEulerTimeIntegration.cxx
FN:35,54,_ZN5neml227ForwardEulerTimeIntegrationINS_3SR2EE16expected_optionsEv
FN:35,54,_ZN5neml227ForwardEulerTimeIntegrationINS_3VecEE16expected_optionsEv
FN:35,54,_ZN5neml227ForwardEulerTimeIntegrationINS_6ScalarEE16expected_optionsEv
FN:57,67,_ZN5neml227ForwardEulerTimeIntegrationINS_3SR2EEC2ERKNS_9OptionSetE
FN:57,67,_ZN5neml227ForwardEulerTimeIntegrationINS_3VecEEC2ERKNS_9OptionSetE
FN:57,67,_ZN5neml227ForwardEulerTimeIntegrationINS_6ScalarEEC2ERKNS_9OptionSetE
FN:71,77,_ZNK5neml227ForwardEulerTimeIntegrationINS_3SR2EE8diagnoseEv
FN:71,77,_ZNK5neml227ForwardEulerTimeIntegrationINS_3VecEE8diagnoseEv
FN:71,77,_ZNK5neml227ForwardEulerTimeIntegrationINS_6ScalarEE8diagnoseEv
FN:81,99,_ZN5neml227ForwardEulerTimeIntegrationINS_3SR2EE9set_valueEbbb
FN:81,99,_ZN5neml227ForwardEulerTimeIntegrationINS_3VecEE9set_valueEbbb
FN:81,99,_ZN5neml227ForwardEulerTimeIntegrationINS_6ScalarEE9set_valueEbbb
FNDA:2,_ZN5neml227ForwardEulerTimeIntegrationINS_3SR2EE16expected_optionsEv
FNDA:2,_ZN5neml227ForwardEulerTimeIntegrationINS_3VecEE16expected_optionsEv
FNDA:2,_ZN5neml227ForwardEulerTimeIntegrationINS_6ScalarEE16expected_optionsEv
FNDA:3,_ZN5neml227ForwardEulerTimeIntegrationINS_3SR2EEC2ERKNS_9OptionSetE
FNDA:0,_ZN5neml227ForwardEulerTimeIntegrationINS_3VecEEC2ERKNS_9OptionSetE
FNDA:1,_ZN5neml227ForwardEulerTimeIntegrationINS_6ScalarEEC2ERKNS_9OptionSetE
FNDA:3,_ZNK5neml227ForwardEulerTimeIntegrationINS_3SR2EE8diagnoseEv
FNDA:0,_ZNK5neml227ForwardEulerTimeIntegrationINS_3VecEE8diagnoseEv
FNDA:0,_ZNK5neml227ForwardEulerTimeIntegrationINS_6ScalarEE8diagnoseEv
FNDA:3,_ZN5neml227ForwardEulerTimeIntegrationINS_3SR2EE9set_valueEbbb
FNDA:0,_ZN5neml227ForwardEulerTimeIntegrationINS_3VecEE9set_valueEbbb
FNDA:2,_ZN5neml227ForwardEulerTimeIntegrationINS_6ScalarEE9set_valueEbbb
FNF:12
FNH:8
DA:35,6
DA:37,6
DA:38,6
DA:44,12
DA:45,12
DA:47,12
DA:48,6
DA:50,18
DA:51,6
DA:53,6
DA:54,0
DA:57,4
DA:59,4
DA:60,4
DA:61,4
DA:62,16
DA:63,4
DA:64,4
DA:65,8
DA:67,4
DA:71,3
DA:73,3
DA:74,3
DA:75,3
DA:76,3
DA:77,3
DA:81,5
DA:83,5
DA:84,4
DA:86,5
DA:88,1
DA:90,1
DA:92,1
DA:93,0
DA:95,1
DA:96,1
DA:97,1
DA:98,1
LF:38
LH:36
end_of_record
TN:
SF:/home/runner/work/neml2/neml2/src/neml2/models/HermiteSmoothStep.cxx
FN:34,55,_ZN5neml217HermiteSmoothStep16expected_optionsEv
FN:57,65,_ZN5neml217HermiteSmoothStepC2ERKNS_9OptionSetE
FN:68,88,_ZN5neml217HermiteSmoothStep9set_valueEbbb
FNDA:2,_ZN5neml217HermiteSmoothStep16expected_optionsEv
FNDA:2,_ZN5neml217HermiteSmoothStepC2ERKNS_9OptionSetE
FNDA:4,_ZN5neml217HermiteSmoothStep9set_valueEbbb
FNF:3
FNH:3
DA:34,2
DA:36,2
DA:37,2
DA:39,4
DA:40,4
DA:42,4
DA:43,4
DA:45,4
DA:46,4
DA:48,4
DA:49,4
DA:51,4
DA:52,2
DA:54,2
DA:55,0
DA:57,2
DA:59,2
DA:60,2
DA:61,8
DA:62,10
DA:63,4
DA:65,2
DA:68,4
DA:70,4
DA:72,4
DA:74,4
DA:77,2
DA:78,2
DA:79,1
DA:82,4
DA:84,2
DA:85,2
DA:86,1
DA:88,4
LF:34
LH:33
end_of_record
TN:
SF:/home/runner/work/neml2/neml2/src/neml2/models/ImplicitUpdate.cxx
FN:101,106,_ZN5neml214ImplicitUpdate21link_output_variablesEv
FN:109,168,_ZN5neml214ImplicitUpdate9set_valueEbbb
FN:37,55,_ZN5neml214ImplicitUpdate16expected_optionsEv
FN:57,76,_ZN5neml214ImplicitUpdateC2ERKNS_9OptionSetE
FN:79,98,_ZNK5neml214ImplicitUpdate8diagnoseEv
FNDA:9,_ZN5neml214ImplicitUpdate21link_output_variablesEv
FNDA:189,_ZN5neml214ImplicitUpdate9set_valueEbbb
FNDA:2,_ZN5neml214ImplicitUpdate16expected_optionsEv
FNDA:9,_ZN5neml214ImplicitUpdateC2ERKNS_9OptionSetE
FNDA:5,_ZNK5neml214ImplicitUpdate8diagnoseEv
FNF:5
FNH:5
DA:37,2
DA:39,2
DA:40,2
DA:41,2
DA:43,4
DA:44,6
DA:45,2
DA:47,4
DA:48,4
DA:51,4
DA:52,2
DA:54,2
DA:55,0
DA:57,9
DA:59,9
DA:61,54
DA:63,9
DA:65,9
DA:67,9
DA:74,29
DA:75,20
DA:76,9
DA:79,5
DA:81,5
DA:82,5
DA:84,5
DA:85,5
DA:87,5
DA:88,5
DA:90,5
DA:91,15
DA:92,5
DA:95,5
DA:97,5
DA:98,5
DA:101,9
DA:103,9
DA:104,29
DA:105,20
DA:106,9
DA:109,189
DA:112,189
DA:113,189
DA:118,189
DA:121,189
DA:123,189
DA:124,189
DA:125,189
DA:126,189
DA:128,189
DA:140,187
DA:141,26
DA:145,189
DA:148,3
DA:149,3
DA:150,3
DA:151,3
DA:152,3
DA:155,3
DA:158,15
DA:160,12
DA:161,3
DA:163,9
DA:164,9
DA:165,18
DA:167,3
DA:168,189
LF:67
LH:66
end_of_record
TN:
SF:/home/runner/work/neml2/neml2/src/neml2/models/IncrementToRate.cxx
FN:37,55,_ZN5neml215IncrementToRateINS_2R2EE16expected_optionsEv
FN:37,55,_ZN5neml215IncrementToRateINS_3SR2EE16expected_optionsEv
FN:37,55,_ZN5neml215IncrementToRateINS_3VecEE16expected_optionsEv
FN:37,55,_ZN5neml215IncrementToRateINS_6ScalarEE16expected_optionsEv
FN:58,67,_ZN5neml215IncrementToRateINS_2R2EEC2ERKNS_9OptionSetE
FN:58,67,_ZN5neml215IncrementToRateINS_3SR2EEC2ERKNS_9OptionSetE
FN:58,67,_ZN5neml215IncrementToRateINS_3VecEEC2ERKNS_9OptionSetE
FN:58,67,_ZN5neml215IncrementToRateINS_6ScalarEEC2ERKNS_9OptionSetE
FN:71,87,_ZN5neml215IncrementToRateINS_2R2EE9set_valueEbbb
FN:71,87,_ZN5neml215IncrementToRateINS_3SR2EE9set_valueEbbb
FN:71,87,_ZN5neml215IncrementToRateINS_3VecEE9set_valueEbbb
FN:71,87,_ZN5neml215IncrementToRateINS_6ScalarEE9set_valueEbbb
FNDA:2,_ZN5neml215IncrementToRateINS_2R2EE16expected_optionsEv
FNDA:2,_ZN5neml215IncrementToRateINS_3SR2EE16expected_optionsEv
FNDA:2,_ZN5neml215IncrementToRateINS_3VecEE16expected_optionsEv
FNDA:2,_ZN5neml215IncrementToRateINS_6ScalarEE16expected_optionsEv
FNDA:1,_ZN5neml215IncrementToRateINS_2R2EEC2ERKNS_9OptionSetE
FNDA:1,_ZN5neml215IncrementToRateINS_3SR2EEC2ERKNS_9OptionSetE
FNDA:1,_ZN5neml215IncrementToRateINS_3VecEEC2ERKNS_9OptionSetE
FNDA:1,_ZN5neml215IncrementToRateINS_6ScalarEEC2ERKNS_9OptionSetE
FNDA:2,_ZN5neml215IncrementToRateINS_2R2EE9set_valueEbbb
FNDA:2,_ZN5neml215IncrementToRateINS_3SR2EE9set_valueEbbb
FNDA:2,_ZN5neml215IncrementToRateINS_3VecEE9set_valueEbbb
FNDA:2,_ZN5neml215IncrementToRateINS_6ScalarEE9set_valueEbbb
FNF:12
FNH:12
DA:37,8
DA:39,8
DA:40,8
DA:45,16
DA:46,16
DA:48,16
DA:49,8
DA:51,24
DA:52,8
DA:54,8
DA:55,0
DA:58,4
DA:60,4
DA:61,4
DA:62,4
DA:63,4
DA:64,8
DA:65,8
DA:67,4
DA:71,8
DA:73,8
DA:75,8
DA:76,4
DA:78,8
DA:80,4
DA:81,4
DA:82,4
DA:83,4
DA:84,4
DA:85,4
DA:87,8
LF:31
LH:30
end_of_record
TN:
SF:/home/runner/work/neml2/neml2/src/neml2/models/InputParameter.cxx
FN:33,49,_ZN5neml214InputParameterINS_10QuaternionEE16expected_optionsEv
FN:33,49,_ZN5neml214InputParameterINS_11MillerIndexEE16expected_optionsEv
FN:33,49,_ZN5neml214InputParameterINS_2R2EE16expected_optionsEv
FN:33,49,_ZN5neml214InputParameterINS_2R3EE16expected_optionsEv
FN:33,49,_ZN5neml214InputParameterINS_2R4EE16expected_optionsEv
FN:33,49,_ZN5neml214InputParameterINS_2R5EE16expected_optionsEv
FN:33,49,_ZN5neml214InputParameterINS_2R8EE16expected_optionsEv
FN:33,49,_ZN5neml214InputParameterINS_3RotEE16expected_optionsEv
FN:33,49,_ZN5neml214InputParameterINS_3SR2EE16expected_optionsEv
FN:33,49,_ZN5neml214InputParameterINS_3VecEE16expected_optionsEv
FN:33,49,_ZN5neml214InputParameterINS_3WR2EE16expected_optionsEv
FN:33,49,_ZN5neml214InputParameterINS_4SFR3EE16expected_optionsEv
FN:33,49,_ZN5neml214InputParameterINS_4SFR4EE16expected_optionsEv
FN:33,49,_ZN5neml214InputParameterINS_4SSR4EE16expected_optionsEv
FN:33,49,_ZN5neml214InputParameterINS_4SWR4EE16expected_optionsEv
FN:33,49,_ZN5neml214InputParameterINS_4WFR4EE16expected_optionsEv
FN:33,49,_ZN5neml214InputParameterINS_4WSR4EE16expected_optionsEv
FN:33,49,_ZN5neml214InputParameterINS_4WWR4EE16expected_optionsEv
FN:33,49,_ZN5neml214InputParameterINS_5SFFR4EE16expected_optionsEv
FN:33,49,_ZN5neml214InputParameterINS_5SSFR5EE16expected_optionsEv
FN:33,49,_ZN5neml214InputParameterINS_6SSSSR8EE16expected_optionsEv
FN:33,49,_ZN5neml214InputParameterINS_6ScalarEE16expected_optionsEv
FN:52,59,_ZN5neml214InputParameterINS_10QuaternionEEC2ERKNS_9OptionSetE
FN:52,59,_ZN5neml214InputParameterINS_11MillerIndexEEC2ERKNS_9OptionSetE
FN:52,59,_ZN5neml214InputParameterINS_2R2EEC2ERKNS_9OptionSetE
FN:52,59,_ZN5neml214InputParameterINS_2R3EEC2ERKNS_9OptionSetE
FN:52,59,_ZN5neml214InputParameterINS_2R4EEC2ERKNS_9OptionSetE
FN:52,59,_ZN5neml214InputParameterINS_2R5EEC2ERKNS_9OptionSetE
FN:52,59,_ZN5neml214InputParameterINS_2R8EEC2ERKNS_9OptionSetE
FN:52,59,_ZN5neml214InputParameterINS_3RotEEC2ERKNS_9OptionSetE
FN:52,59,_ZN5neml214InputParameterINS_3SR2EEC2ERKNS_9OptionSetE
FN:52,59,_ZN5neml214InputParameterINS_3VecEEC2ERKNS_9OptionSetE
FN:52,59,_ZN5neml214InputParameterINS_3WR2EEC2ERKNS_9OptionSetE
FN:52,59,_ZN5neml214InputParameterINS_4SFR3EEC2ERKNS_9OptionSetE
FN:52,59,_ZN5neml214InputParameterINS_4SFR4EEC2ERKNS_9OptionSetE
FN:52,59,_ZN5neml214InputParameterINS_4SSR4EEC2ERKNS_9OptionSetE
FN:52,59,_ZN5neml214InputParameterINS_4SWR4EEC2ERKNS_9OptionSetE
FN:52,59,_ZN5neml214InputParameterINS_4WFR4EEC2ERKNS_9OptionSetE
FN:52,59,_ZN5neml214InputParameterINS_4WSR4EEC2ERKNS_9OptionSetE
FN:52,59,_ZN5neml214InputParameterINS_4WWR4EEC2ERKNS_9OptionSetE
FN:52,59,_ZN5neml214InputParameterINS_5SFFR4EEC2ERKNS_9OptionSetE
FN:52,59,_ZN5neml214InputParameterINS_5SSFR5EEC2ERKNS_9OptionSetE
FN:52,59,_ZN5neml214InputParameterINS_6SSSSR8EEC2ERKNS_9OptionSetE
FN:52,59,_ZN5neml214InputParameterINS_6ScalarEEC2ERKNS_9OptionSetE
FN:63,71,_ZN5neml214InputParameterINS_10QuaternionEE9set_valueEbbb
FN:63,71,_ZN5neml214InputParameterINS_11MillerIndexEE9set_valueEbbb
FN:63,71,_ZN5neml214InputParameterINS_2R2EE9set_valueEbbb
FN:63,71,_ZN5neml214InputParameterINS_2R3EE9set_valueEbbb
FN:63,71,_ZN5neml214InputParameterINS_2R4EE9set_valueEbbb
FN:63,71,_ZN5neml214InputParameterINS_2R5EE9set_valueEbbb
FN:63,71,_ZN5neml214InputParameterINS_2R8EE9set_valueEbbb
FN:63,71,_ZN5neml214InputParameterINS_3RotEE9set_valueEbbb
FN:63,71,_ZN5neml214InputParameterINS_3SR2EE9set_valueEbbb
FN:63,71,_ZN5neml214InputParameterINS_3VecEE9set_valueEbbb
FN:63,71,_ZN5neml214InputParameterINS_3WR2EE9set_valueEbbb
FN:63,71,_ZN5neml214InputParameterINS_4SFR3EE9set_valueEbbb
FN:63,71,_ZN5neml214InputParameterINS_4SFR4EE9set_valueEbbb
FN:63,71,_ZN5neml214InputParameterINS_4SSR4EE9set_valueEbbb
FN:63,71,_ZN5neml214InputParameterINS_4SWR4EE9set_valueEbbb
FN:63,71,_ZN5neml214InputParameterINS_4WFR4EE9set_valueEbbb
FN:63,71,_ZN5neml214InputParameterINS_4WSR4EE9set_valueEbbb
FN:63,71,_ZN5neml214InputParameterINS_4WWR4EE9set_valueEbbb
FN:63,71,_ZN5neml214InputParameterINS_5SFFR4EE9set_valueEbbb
FN:63,71,_ZN5neml214InputParameterINS_5SSFR5EE9set_valueEbbb
FN:63,71,_ZN5neml214InputParameterINS_6SSSSR8EE9set_valueEbbb
FN:63,71,_ZN5neml214InputParameterINS_6ScalarEE9set_valueEbbb
FNDA:2,_ZN5neml214InputParameterINS_10QuaternionEE16expected_optionsEv
FNDA:2,_ZN5neml214InputParameterINS_11MillerIndexEE16expected_optionsEv
FNDA:2,_ZN5neml214InputParameterINS_2R2EE16expected_optionsEv
FNDA:2,_ZN5neml214InputParameterINS_2R3EE16expected_optionsEv
FNDA:2,_ZN5neml214InputParameterINS_2R4EE16expected_optionsEv
FNDA:2,_ZN5neml214InputParameterINS_2R5EE16expected_optionsEv
FNDA:2,_ZN5neml214InputParameterINS_2R8EE16expected_optionsEv
FNDA:2,_ZN5neml214InputParameterINS_3RotEE16expected_optionsEv
FNDA:2,_ZN5neml214InputParameterINS_3SR2EE16expected_optionsEv
FNDA:2,_ZN5neml214InputParameterINS_3VecEE16expected_optionsEv
FNDA:2,_ZN5neml214InputParameterINS_3WR2EE16expected_optionsEv
FNDA:2,_ZN5neml214InputParameterINS_4SFR3EE16expected_optionsEv
FNDA:2,_ZN5neml214InputParameterINS_4SFR4EE16expected_optionsEv
FNDA:2,_ZN5neml214InputParameterINS_4SSR4EE16expected_optionsEv
FNDA:2,_ZN5neml214InputParameterINS_4SWR4EE16expected_optionsEv
FNDA:2,_ZN5neml214InputParameterINS_4WFR4EE16expected_optionsEv
FNDA:2,_ZN5neml214InputParameterINS_4WSR4EE16expected_optionsEv
FNDA:2,_ZN5neml214InputParameterINS_4WWR4EE16expected_optionsEv
FNDA:2,_ZN5neml214InputParameterINS_5SFFR4EE16expected_optionsEv
FNDA:2,_ZN5neml214InputParameterINS_5SSFR5EE16expected_optionsEv
FNDA:2,_ZN5neml214InputParameterINS_6SSSSR8EE16expected_optionsEv
FNDA:56,_ZN5neml214InputParameterINS_6ScalarEE16expected_optionsEv
FNDA:0,_ZN5neml214InputParameterINS_10QuaternionEEC2ERKNS_9OptionSetE
FNDA:0,_ZN5neml214InputParameterINS_11MillerIndexEEC2ERKNS_9OptionSetE
FNDA:0,_ZN5neml214InputParameterINS_2R2EEC2ERKNS_9OptionSetE
FNDA:0,_ZN5neml214InputParameterINS_2R3EEC2ERKNS_9OptionSetE
FNDA:0,_ZN5neml214InputParameterINS_2R4EEC2ERKNS_9OptionSetE
FNDA:0,_ZN5neml214InputParameterINS_2R5EEC2ERKNS_9OptionSetE
FNDA:0,_ZN5neml214InputParameterINS_2R8EEC2ERKNS_9OptionSetE
FNDA:0,_ZN5neml214InputParameterINS_3RotEEC2ERKNS_9OptionSetE
FNDA:0,_ZN5neml214InputParameterINS_3SR2EEC2ERKNS_9OptionSetE
FNDA:0,_ZN5neml214InputParameterINS_3VecEEC2ERKNS_9OptionSetE
FNDA:0,_ZN5neml214InputParameterINS_3WR2EEC2ERKNS_9OptionSetE
FNDA:0,_ZN5neml214InputParameterINS_4SFR3EEC2ERKNS_9OptionSetE
FNDA:0,_ZN5neml214InputParameterINS_4SFR4EEC2ERKNS_9OptionSetE
FNDA:2,_ZN5neml214InputParameterINS_4SSR4EEC2ERKNS_9OptionSetE
FNDA:0,_ZN5neml214InputParameterINS_4SWR4EEC2ERKNS_9OptionSetE
FNDA:0,_ZN5neml214InputParameterINS_4WFR4EEC2ERKNS_9OptionSetE
FNDA:0,_ZN5neml214InputParameterINS_4WSR4EEC2ERKNS_9OptionSetE
FNDA:0,_ZN5neml214InputParameterINS_4WWR4EEC2ERKNS_9OptionSetE
FNDA:0,_ZN5neml214InputParameterINS_5SFFR4EEC2ERKNS_9OptionSetE
FNDA:0,_ZN5neml214InputParameterINS_5SSFR5EEC2ERKNS_9OptionSetE
FNDA:0,_ZN5neml214InputParameterINS_6SSSSR8EEC2ERKNS_9OptionSetE
FNDA:54,_ZN5neml214InputParameterINS_6ScalarEEC2ERKNS_9OptionSetE
FNDA:0,_ZN5neml214InputParameterINS_10QuaternionEE9set_valueEbbb
FNDA:0,_ZN5neml214InputParameterINS_11MillerIndexEE9set_valueEbbb
FNDA:0,_ZN5neml214InputParameterINS_2R2EE9set_valueEbbb
FNDA:0,_ZN5neml214InputParameterINS_2R3EE9set_valueEbbb
FNDA:0,_ZN5neml214InputParameterINS_2R4EE9set_valueEbbb
FNDA:0,_ZN5neml214InputParameterINS_2R5EE9set_valueEbbb
FNDA:0,_ZN5neml214InputParameterINS_2R8EE9set_valueEbbb
FNDA:0,_ZN5neml214InputParameterINS_3RotEE9set_valueEbbb
FNDA:0,_ZN5neml214InputParameterINS_3SR2EE9set_valueEbbb
FNDA:0,_ZN5neml214InputParameterINS_3VecEE9set_valueEbbb
FNDA:0,_ZN5neml214InputParameterINS_3WR2EE9set_valueEbbb
FNDA:0,_ZN5neml214InputParameterINS_4SFR3EE9set_valueEbbb
FNDA:0,_ZN5neml214InputParameterINS_4SFR4EE9set_valueEbbb
FNDA:4,_ZN5neml214InputParameterINS_4SSR4EE9set_valueEbbb
FNDA:0,_ZN5neml214InputParameterINS_4SWR4EE9set_valueEbbb
FNDA:0,_ZN5neml214InputParameterINS_4WFR4EE9set_valueEbbb
FNDA:0,_ZN5neml214InputParameterINS_4WSR4EE9set_valueEbbb
FNDA:0,_ZN5neml214InputParameterINS_4WWR4EE9set_valueEbbb
FNDA:0,_ZN5neml214InputParameterINS_5SFFR4EE9set_valueEbbb
FNDA:0,_ZN5neml214InputParameterINS_5SSFR5EE9set_valueEbbb
FNDA:0,_ZN5neml214InputParameterINS_6SSSSR8EE9set_valueEbbb
FNDA:123,_ZN5neml214InputParameterINS_6ScalarEE9set_valueEbbb
FNF:66
FNH:26
DA:33,98
DA:35,98
DA:36,98
DA:40,196
DA:42,196
DA:43,196
DA:45,196
DA:46,98
DA:48,98
DA:49,0
DA:52,56
DA:54,56
DA:55,56
DA:56,56
DA:57,112
DA:59,56
DA:63,127
DA:65,127
DA:66,127
DA:68,127
DA:69,71
DA:70,71
DA:71,127
LF:23
LH:22
end_of_record
TN:
SF:/home/runner/work/neml2/neml2/src/neml2/models/Interpolation.cxx
FN:33,54,_ZN5neml213InterpolationINS_10QuaternionEE16expected_optionsEv
FN:33,54,_ZN5neml213InterpolationINS_11MillerIndexEE16expected_optionsEv
FN:33,54,_ZN5neml213InterpolationINS_2R2EE16expected_optionsEv
FN:33,54,_ZN5neml213InterpolationINS_2R3EE16expected_optionsEv
FN:33,54,_ZN5neml213InterpolationINS_2R4EE16expected_optionsEv
FN:33,54,_ZN5neml213InterpolationINS_2R5EE16expected_optionsEv
FN:33,54,_ZN5neml213InterpolationINS_2R8EE16expected_optionsEv
FN:33,54,_ZN5neml213InterpolationINS_3RotEE16expected_optionsEv
FN:33,54,_ZN5neml213InterpolationINS_3SR2EE16expected_optionsEv
FN:33,54,_ZN5neml213InterpolationINS_3VecEE16expected_optionsEv
FN:33,54,_ZN5neml213InterpolationINS_3WR2EE16expected_optionsEv
FN:33,54,_ZN5neml213InterpolationINS_4SFR3EE16expected_optionsEv
FN:33,54,_ZN5neml213InterpolationINS_4SFR4EE16expected_optionsEv
FN:33,54,_ZN5neml213InterpolationINS_4SSR4EE16expected_optionsEv
FN:33,54,_ZN5neml213InterpolationINS_4SWR4EE16expected_optionsEv
FN:33,54,_ZN5neml213InterpolationINS_4WFR4EE16expected_optionsEv
FN:33,54,_ZN5neml213InterpolationINS_4WSR4EE16expected_optionsEv
FN:33,54,_ZN5neml213InterpolationINS_4WWR4EE16expected_optionsEv
FN:33,54,_ZN5neml213InterpolationINS_5SFFR4EE16expected_optionsEv
FN:33,54,_ZN5neml213InterpolationINS_5SSFR5EE16expected_optionsEv
FN:33,54,_ZN5neml213InterpolationINS_6SSSSR8EE16expected_optionsEv
FN:33,54,_ZN5neml213InterpolationINS_6ScalarEE16expected_optionsEv
FN:57,64,_ZN5neml213InterpolationINS_10QuaternionEEC2ERKNS_9OptionSetE
FN:57,64,_ZN5neml213InterpolationINS_11MillerIndexEEC2ERKNS_9OptionSetE
FN:57,64,_ZN5neml213InterpolationINS_2R2EEC2ERKNS_9OptionSetE
FN:57,64,_ZN5neml213InterpolationINS_2R3EEC2ERKNS_9OptionSetE
FN:57,64,_ZN5neml213InterpolationINS_2R4EEC2ERKNS_9OptionSetE
FN:57,64,_ZN5neml213InterpolationINS_2R5EEC2ERKNS_9OptionSetE
FN:57,64,_ZN5neml213InterpolationINS_2R8EEC2ERKNS_9OptionSetE
FN:57,64,_ZN5neml213InterpolationINS_3RotEEC2ERKNS_9OptionSetE
FN:57,64,_ZN5neml213InterpolationINS_3SR2EEC2ERKNS_9OptionSetE
FN:57,64,_ZN5neml213InterpolationINS_3VecEEC2ERKNS_9OptionSetE
FN:57,64,_ZN5neml213InterpolationINS_3WR2EEC2ERKNS_9OptionSetE
FN:57,64,_ZN5neml213InterpolationINS_4SFR3EEC2ERKNS_9OptionSetE
FN:57,64,_ZN5neml213InterpolationINS_4SFR4EEC2ERKNS_9OptionSetE
FN:57,64,_ZN5neml213InterpolationINS_4SSR4EEC2ERKNS_9OptionSetE
FN:57,64,_ZN5neml213InterpolationINS_4SWR4EEC2ERKNS_9OptionSetE
FN:57,64,_ZN5neml213InterpolationINS_4WFR4EEC2ERKNS_9OptionSetE
FN:57,64,_ZN5neml213InterpolationINS_4WSR4EEC2ERKNS_9OptionSetE
FN:57,64,_ZN5neml213InterpolationINS_4WWR4EEC2ERKNS_9OptionSetE
FN:57,64,_ZN5neml213InterpolationINS_5SFFR4EEC2ERKNS_9OptionSetE
FN:57,64,_ZN5neml213InterpolationINS_5SSFR5EEC2ERKNS_9OptionSetE
FN:57,64,_ZN5neml213InterpolationINS_6SSSSR8EEC2ERKNS_9OptionSetE
FN:57,64,_ZN5neml213InterpolationINS_6ScalarEEC2ERKNS_9OptionSetE
FNDA:0,_ZN5neml213InterpolationINS_10QuaternionEE16expected_optionsEv
FNDA:0,_ZN5neml213InterpolationINS_11MillerIndexEE16expected_optionsEv
FNDA:0,_ZN5neml213InterpolationINS_2R2EE16expected_optionsEv
FNDA:0,_ZN5neml213InterpolationINS_2R3EE16expected_optionsEv
FNDA:0,_ZN5neml213InterpolationINS_2R4EE16expected_optionsEv
FNDA:0,_ZN5neml213InterpolationINS_2R5EE16expected_optionsEv
FNDA:0,_ZN5neml213InterpolationINS_2R8EE16expected_optionsEv
FNDA:0,_ZN5neml213InterpolationINS_3RotEE16expected_optionsEv
FNDA:2,_ZN5neml213InterpolationINS_3SR2EE16expected_optionsEv
FNDA:2,_ZN5neml213InterpolationINS_3VecEE16expected_optionsEv
FNDA:0,_ZN5neml213InterpolationINS_3WR2EE16expected_optionsEv
FNDA:0,_ZN5neml213InterpolationINS_4SFR3EE16expected_optionsEv
FNDA:0,_ZN5neml213InterpolationINS_4SFR4EE16expected_optionsEv
FNDA:0,_ZN5neml213InterpolationINS_4SSR4EE16expected_optionsEv
FNDA:0,_ZN5neml213InterpolationINS_4SWR4EE16expected_optionsEv
FNDA:0,_ZN5neml213InterpolationINS_4WFR4EE16expected_optionsEv
FNDA:0,_ZN5neml213InterpolationINS_4WSR4EE16expected_optionsEv
FNDA:0,_ZN5neml213InterpolationINS_4WWR4EE16expected_optionsEv
FNDA:0,_ZN5neml213InterpolationINS_5SFFR4EE16expected_optionsEv
FNDA:0,_ZN5neml213InterpolationINS_5SSFR5EE16expected_optionsEv
FNDA:0,_ZN5neml213InterpolationINS_6SSSSR8EE16expected_optionsEv
FNDA:2,_ZN5neml213InterpolationINS_6ScalarEE16expected_optionsEv
FNDA:0,_ZN5neml213InterpolationINS_10QuaternionEEC2ERKNS_9OptionSetE
FNDA:0,_ZN5neml213InterpolationINS_11MillerIndexEEC2ERKNS_9OptionSetE
FNDA:0,_ZN5neml213InterpolationINS_2R2EEC2ERKNS_9OptionSetE
FNDA:0,_ZN5neml213InterpolationINS_2R3EEC2ERKNS_9OptionSetE
FNDA:0,_ZN5neml213InterpolationINS_2R4EEC2ERKNS_9OptionSetE
FNDA:0,_ZN5neml213InterpolationINS_2R5EEC2ERKNS_9OptionSetE
FNDA:0,_ZN5neml213InterpolationINS_2R8EEC2ERKNS_9OptionSetE
FNDA:0,_ZN5neml213InterpolationINS_3RotEEC2ERKNS_9OptionSetE
FNDA:4,_ZN5neml213InterpolationINS_3SR2EEC2ERKNS_9OptionSetE
FNDA:0,_ZN5neml213InterpolationINS_3VecEEC2ERKNS_9OptionSetE
FNDA:0,_ZN5neml213InterpolationINS_3WR2EEC2ERKNS_9OptionSetE
FNDA:0,_ZN5neml213InterpolationINS_4SFR3EEC2ERKNS_9OptionSetE
FNDA:0,_ZN5neml213InterpolationINS_4SFR4EEC2ERKNS_9OptionSetE
FNDA:0,_ZN5neml213InterpolationINS_4SSR4EEC2ERKNS_9OptionSetE
FNDA:0,_ZN5neml213InterpolationINS_4SWR4EEC2ERKNS_9OptionSetE
FNDA:0,_ZN5neml213InterpolationINS_4WFR4EEC2ERKNS_9OptionSetE
FNDA:0,_ZN5neml213InterpolationINS_4WSR4EEC2ERKNS_9OptionSetE
FNDA:0,_ZN5neml213InterpolationINS_4WWR4EEC2ERKNS_9OptionSetE
FNDA:0,_ZN5neml213InterpolationINS_5SFFR4EEC2ERKNS_9OptionSetE
FNDA:0,_ZN5neml213InterpolationINS_5SSFR5EEC2ERKNS_9OptionSetE
FNDA:0,_ZN5neml213InterpolationINS_6SSSSR8EEC2ERKNS_9OptionSetE
FNDA:7,_ZN5neml213InterpolationINS_6ScalarEEC2ERKNS_9OptionSetE
FNF:44
FNH:5
DA:33,6
DA:37,6
DA:39,6
DA:40,6
DA:44,12
DA:45,12
DA:47,12
DA:48,12
DA:50,6
DA:51,18
DA:53,12
DA:54,6
DA:57,11
DA:59,33
DA:60,44
DA:61,11
DA:62,22
DA:64,11
LF:18
LH:18
end_of_record
TN:
SF:/home/runner/work/neml2/neml2/src/neml2/models/LinearCombination.cxx
FN:114,141,_ZN5neml217LinearCombinationINS_3SR2EE9set_valueEbbb
FN:114,141,_ZN5neml217LinearCombinationINS_3VecEE9set_valueEbbb
FN:114,141,_ZN5neml217LinearCombinationINS_6ScalarEE9set_valueEbbb
FN:36,69,_ZN5neml217LinearCombinationINS_3SR2EE16expected_optionsEv
FN:36,69,_ZN5neml217LinearCombinationINS_3VecEE16expected_optionsEv
FN:36,69,_ZN5neml217LinearCombinationINS_6ScalarEE16expected_optionsEv
FN:72,110,_ZN5neml217LinearCombinationINS_3SR2EEC2ERKNS_9OptionSetE
FN:72,110,_ZN5neml217LinearCombinationINS_3VecEEC2ERKNS_9OptionSetE
FN:72,110,_ZN5neml217LinearCombinationINS_6ScalarEEC2ERKNS_9OptionSetE
FNDA:24,_ZN5neml217LinearCombinationINS_3SR2EE9set_valueEbbb
FNDA:0,_ZN5neml217LinearCombinationINS_3VecEE9set_valueEbbb
FNDA:14,_ZN5neml217LinearCombinationINS_6ScalarEE9set_valueEbbb
FNDA:2,_ZN5neml217LinearCombinationINS_3SR2EE16expected_optionsEv
FNDA:2,_ZN5neml217LinearCombinationINS_3VecEE16expected_optionsEv
FNDA:4,_ZN5neml217LinearCombinationINS_6ScalarEE16expected_optionsEv
FNDA:11,_ZN5neml217LinearCombinationINS_3SR2EEC2ERKNS_9OptionSetE
FNDA:0,_ZN5neml217LinearCombinationINS_3VecEEC2ERKNS_9OptionSetE
FNDA:10,_ZN5neml217LinearCombinationINS_6ScalarEEC2ERKNS_9OptionSetE
FNF:9
FNH:7
DA:36,8
DA:40,8
DA:42,8
DA:43,8
DA:47,16
DA:49,8
DA:50,24
DA:52,16
DA:53,8
DA:55,24
DA:57,8
DA:62,24
DA:63,8
DA:68,16
DA:69,40
DA:72,21
DA:74,21
DA:76,86
DA:77,44
DA:79,21
DA:80,21
DA:82,21
DA:84,21
DA:88,21
DA:89,17
DA:91,21
DA:92,21
DA:94,21
DA:96,21
DA:100,21
DA:101,65
DA:103,44
DA:104,44
DA:105,16
DA:106,8
DA:108,36
DA:110,21
DA:114,38
DA:116,38
DA:118,36
DA:119,74
DA:120,38
DA:121,36
DA:122,36
DA:124,38
DA:126,22
DA:127,67
DA:129,45
DA:130,43
DA:132,45
DA:133,5
DA:135,22
DA:141,38
LF:53
LH:53
end_of_record
TN:
SF:/home/runner/work/neml2/neml2/src/neml2/models/LinearInterpolation.cxx
FN:35,41,_ZN5neml219LinearInterpolationINS_3SR2EE16expected_optionsEv
FN:35,41,_ZN5neml219LinearInterpolationINS_3VecEE16expected_optionsEv
FN:35,41,_ZN5neml219LinearInterpolationINS_6ScalarEE16expected_optionsEv
FN:44,47,_ZN5neml219LinearInterpolationINS_3SR2EEC2ERKNS_9OptionSetE
FN:44,47,_ZN5neml219LinearInterpolationINS_3VecEEC2ERKNS_9OptionSetE
FN:44,47,_ZN5neml219LinearInterpolationINS_6ScalarEEC2ERKNS_9OptionSetE
FN:51,82,_ZN5neml219LinearInterpolationINS_3SR2EE9set_valueEbbb
FN:51,82,_ZN5neml219LinearInterpolationINS_3VecEE9set_valueEbbb
FN:51,82,_ZN5neml219LinearInterpolationINS_6ScalarEE9set_valueEbbb
FNDA:2,_ZN5neml219LinearInterpolationINS_3SR2EE16expected_optionsEv
FNDA:2,_ZN5neml219LinearInterpolationINS_3VecEE16expected_optionsEv
FNDA:2,_ZN5neml219LinearInterpolationINS_6ScalarEE16expected_optionsEv
FNDA:4,_ZN5neml219LinearInterpolationINS_3SR2EEC2ERKNS_9OptionSetE
FNDA:0,_ZN5neml219LinearInterpolationINS_3VecEEC2ERKNS_9OptionSetE
FNDA:7,_ZN5neml219LinearInterpolationINS_6ScalarEEC2ERKNS_9OptionSetE
FNDA:12,_ZN5neml219LinearInterpolationINS_3SR2EE9set_valueEbbb
FNDA:0,_ZN5neml219LinearInterpolationINS_3VecEE9set_valueEbbb
FNDA:17,_ZN5neml219LinearInterpolationINS_6ScalarEE9set_valueEbbb
FNF:9
FNH:7
DA:35,6
DA:37,6
DA:38,6
DA:39,6
DA:40,6
DA:41,0
DA:44,11
DA:45,11
DA:47,11
DA:51,29
DA:53,58
DA:54,58
DA:55,116
DA:57,116
DA:59,116
DA:62,29
DA:63,29
DA:65,29
DA:67,29
DA:69,13
DA:70,13
DA:71,13
DA:72,13
DA:74,29
DA:75,11
DA:76,11
DA:82,203
LF:27
LH:26
end_of_record
TN:
SF:/home/runner/work/neml2/neml2/src/neml2/models/Model.cxx
FN:110,123,_ZN5neml25ModelC2ERKNS_9OptionSetE
FN:126,137,_ZN5neml25Model2toERKN3c1013TensorOptionsE
FN:140,151,_ZN5neml25Model5setupEv
FN:154,167,_ZNK5neml25Model8diagnoseEv
FN:170,191,_ZNK5neml25Model15diagnose_nl_sysEv
FN:194,197,_ZNK5neml25Model23diagnostic_assert_stateERKNS_12VariableBaseE
FN:200,204,_ZNK5neml25Model27diagnostic_assert_old_stateERKNS_12VariableBaseE
FN:207,210,_ZNK5neml25Model23diagnostic_assert_forceERKNS_12VariableBaseE
FN:213,217,_ZNK5neml25Model27diagnostic_assert_old_forceERKNS_12VariableBaseE
FN:220,224,_ZNK5neml25Model26diagnostic_assert_residualERKNS_12VariableBaseE
FN:227,246,_ZNK5neml25Model31diagnostic_check_input_variableERKNS_12VariableBaseE
FN:249,263,_ZNK5neml25Model32diagnostic_check_output_variableERKNS_12VariableBaseE
FN:266,273,_ZN5neml25Model20link_input_variablesEv
FN:276,280,_ZN5neml25Model20link_input_variablesEPS0_
FN:283,290,_ZN5neml25Model21link_output_variablesEv
FN:293,295,_ZN5neml25Model21link_output_variablesEPS0_
FN:298,309,_ZN5neml25Model10request_ADERNS_12VariableBaseERKS1_
FN:312,323,_ZN5neml25Model10request_ADERNS_12VariableBaseERKS1_S4_
FN:326,331,_ZN5neml25Model11clear_inputEv
FN:334,339,_ZN5neml25Model12clear_outputEv
FN:342,347,_ZN5neml25Model10zero_inputEv
FN:350,355,_ZN5neml25Model11zero_outputEv
FN:358,369,_ZNK5neml25Model20compute_trace_schemaEv
FN:372,375,_ZNK5neml25Model22forward_operator_indexEbbb
FN:378,404,_ZN5neml25Model7forwardEbbb
FN:407,459,_ZN5neml25Model17forward_maybe_jitEbbb
FN:41,45,_ZN5neml29get_modelERKSs
FN:436,441,_ZZN5neml25Model17forward_maybe_jitEbbbENKUlSt6vectorIN3c106IValueESaIS3_EEE_clES5_
FN:445,445,_ZZN5neml25Model17forward_maybe_jitEbbbENKUlRKN2at6TensorEE_clES4_
FN:462,489,_ZN5neml25Model20variable_name_lookupERKN2at6TensorE
FN:48,52,_ZN5neml210load_modelERKNSt10filesystem4pathERKSs
FN:492,502,_ZN5neml215check_precisionEv
FN:505,513,_ZN5neml25Model5valueERKSt3mapINS_19LabeledAxisAccessorENS_6TensorESt4lessIS2_ESaISt4pairIKS2_S3_EEE
FN:516,524,_ZN5neml25Model5valueEOSt3mapINS_19LabeledAxisAccessorENS_6TensorESt4lessIS2_ESaISt4pairIKS2_S3_EEE
FN:527,536,_ZN5neml25Model16value_and_dvalueERKSt3mapINS_19LabeledAxisAccessorENS_6TensorESt4lessIS2_ESaISt4pairIKS2_S3_EEE
FN:539,548,_ZN5neml25Model16value_and_dvalueEOSt3mapINS_19LabeledAxisAccessorENS_6TensorESt4lessIS2_ESaISt4pairIKS2_S3_EEE
FN:55,59,_ZN5neml212reload_modelERKNSt10filesystem4pathERKSs
FN:551,559,_ZN5neml25Model6dvalueERKSt3mapINS_19LabeledAxisAccessorENS_6TensorESt4lessIS2_ESaISt4pairIKS2_S3_EEE
FN:562,570,_ZN5neml25Model6dvalueEOSt3mapINS_19LabeledAxisAccessorENS_6TensorESt4lessIS2_ESaISt4pairIKS2_S3_EEE
FN:573,583,_ZN5neml25Model28value_and_dvalue_and_d2valueERKSt3mapINS_19LabeledAxisAccessorENS_6TensorESt4lessIS2_ESaISt4pairIKS2_S3_EEE
FN:586,596,_ZN5neml25Model28value_and_dvalue_and_d2valueEOSt3mapINS_19LabeledAxisAccessorENS_6TensorESt4lessIS2_ESaISt4pairIKS2_S3_EEE
FN:599,608,_ZN5neml25Model18dvalue_and_d2valueERKSt3mapINS_19LabeledAxisAccessorENS_6TensorESt4lessIS2_ESaISt4pairIKS2_S3_EEE
FN:611,620,_ZN5neml25Model18dvalue_and_d2valueEOSt3mapINS_19LabeledAxisAccessorENS_6TensorESt4lessIS2_ESaISt4pairIKS2_S3_EEE
FN:62,65,_ZNK5neml25Model11TraceSchemaeqERKS1_
FN:623,631,_ZN5neml25Model7d2valueERKSt3mapINS_19LabeledAxisAccessorENS_6TensorESt4lessIS2_ESaISt4pairIKS2_S3_EEE
FN:634,642,_ZN5neml25Model7d2valueEOSt3mapINS_19LabeledAxisAccessorENS_6TensorESt4lessIS2_ESaISt4pairIKS2_S3_EEE
FN:645,653,_ZNK5neml25Model16registered_modelERKSs
FN:656,663,_ZN5neml25Model28register_nonlinear_parameterERKSsRKNS_18NonlinearParameterE
FN:666,676,_ZNK5neml25Model12has_nl_paramEb
FN:679,682,_ZNK5neml25Model8nl_paramERKSs
FN:68,73,_ZNK5neml25Model11TraceSchemaltERKS1_
FN:685,701,_ZNK5neml25Model26named_nonlinear_parametersEb
FN:704,708,_ZNK5neml25Model14consumed_itemsEv
FN:711,715,_ZNK5neml25Model14provided_itemsEv
FN:718,733,_ZN5neml25Model18assign_input_stackERSt6vectorIN3c106IValueESaIS3_EE
FN:736,746,_ZNK5neml25Model19collect_input_stackEv
FN:749,753,_ZN5neml25Model9set_guessERKNS_15NonlinearSystem3SolILb0EEE
FN:756,771,_ZN5neml25Model8assembleEPNS_15NonlinearSystem3ResILb0EEEPNS1_3JacILb0EEE
FN:76,108,_ZN5neml25Model16expected_optionsEv
FN:774,787,_ZNK5neml25Model13AD_need_valueEbb
FN:790,794,_ZN5neml25Model9enable_ADEv
FN:797,871,_ZN5neml25Model22extract_AD_derivativesEbb
FNDA:406,_ZN5neml25ModelC2ERKNS_9OptionSetE
FNDA:0,_ZN5neml25Model2toERKN3c1013TensorOptionsE
FNDA:406,_ZN5neml25Model5setupEv
FNDA:96,_ZNK5neml25Model8diagnoseEv
FNDA:72,_ZNK5neml25Model15diagnose_nl_sysEv
FNDA:26,_ZNK5neml25Model23diagnostic_assert_stateERKNS_12VariableBaseE
FNDA:0,_ZNK5neml25Model27diagnostic_assert_old_stateERKNS_12VariableBaseE
FNDA:19,_ZNK5neml25Model23diagnostic_assert_forceERKNS_12VariableBaseE
FNDA:0,_ZNK5neml25Model27diagnostic_assert_old_forceERKNS_12VariableBaseE
FNDA:0,_ZNK5neml25Model26diagnostic_assert_residualERKNS_12VariableBaseE
FNDA:295,_ZNK5neml25Model31diagnostic_check_input_variableERKNS_12VariableBaseE
FNDA:117,_ZNK5neml25Model32diagnostic_check_output_variableERKNS_12VariableBaseE
FNDA:407,_ZN5neml25Model20link_input_variablesEv
FNDA:13,_ZN5neml25Model20link_input_variablesEPS0_
FNDA:407,_ZN5neml25Model21link_output_variablesEv
FNDA:13,_ZN5neml25Model21link_output_variablesEPS0_
FNDA:14,_ZN5neml25Model10request_ADERNS_12VariableBaseERKS1_
FNDA:48,_ZN5neml25Model10request_ADERNS_12VariableBaseERKS1_S4_
FNDA:7944,_ZN5neml25Model11clear_inputEv
FNDA:7944,_ZN5neml25Model12clear_outputEv
FNDA:7944,_ZN5neml25Model10zero_inputEv
FNDA:7944,_ZN5neml25Model11zero_outputEv
FNDA:5871,_ZNK5neml25Model20compute_trace_schemaEv
FNDA:5871,_ZNK5neml25Model22forward_operator_indexEbbb
FNDA:1042,_ZN5neml25Model7forwardEbbb
FNDA:6576,_ZN5neml25Model17forward_maybe_jitEbbb
FNDA:163,_ZN5neml29get_modelERKSs
FNDA:337,_ZZN5neml25Model17forward_maybe_jitEbbbENKUlSt6vectorIN3c106IValueESaIS3_EEE_clES5_
FNDA:27191,_ZZN5neml25Model17forward_maybe_jitEbbbENKUlRKN2at6TensorEE_clES4_
FNDA:144152,_ZN5neml25Model20variable_name_lookupERKN2at6TensorE
FNDA:1,_ZN5neml210load_modelERKNSt10filesystem4pathERKSs
FNDA:2828,_ZN5neml215check_precisionEv
FNDA:2164,_ZN5neml25Model5valueERKSt3mapINS_19LabeledAxisAccessorENS_6TensorESt4lessIS2_ESaISt4pairIKS2_S3_EEE
FNDA:1,_ZN5neml25Model5valueEOSt3mapINS_19LabeledAxisAccessorENS_6TensorESt4lessIS2_ESaISt4pairIKS2_S3_EEE
FNDA:0,_ZN5neml25Model16value_and_dvalueERKSt3mapINS_19LabeledAxisAccessorENS_6TensorESt4lessIS2_ESaISt4pairIKS2_S3_EEE
FNDA:0,_ZN5neml25Model16value_and_dvalueEOSt3mapINS_19LabeledAxisAccessorENS_6TensorESt4lessIS2_ESaISt4pairIKS2_S3_EEE
FNDA:10,_ZN5neml212reload_modelERKNSt10filesystem4pathERKSs
FNDA:629,_ZN5neml25Model6dvalueERKSt3mapINS_19LabeledAxisAccessorENS_6TensorESt4lessIS2_ESaISt4pairIKS2_S3_EEE
FNDA:0,_ZN5neml25Model6dvalueEOSt3mapINS_19LabeledAxisAccessorENS_6TensorESt4lessIS2_ESaISt4pairIKS2_S3_EEE
FNDA:0,_ZN5neml25Model28value_and_dvalue_and_d2valueERKSt3mapINS_19LabeledAxisAccessorENS_6TensorESt4lessIS2_ESaISt4pairIKS2_S3_EEE
FNDA:0,_ZN5neml25Model28value_and_dvalue_and_d2valueEOSt3mapINS_19LabeledAxisAccessorENS_6TensorESt4lessIS2_ESaISt4pairIKS2_S3_EEE
FNDA:0,_ZN5neml25Model18dvalue_and_d2valueERKSt3mapINS_19LabeledAxisAccessorENS_6TensorESt4lessIS2_ESaISt4pairIKS2_S3_EEE
FNDA:0,_ZN5neml25Model18dvalue_and_d2valueEOSt3mapINS_19LabeledAxisAccessorENS_6TensorESt4lessIS2_ESaISt4pairIKS2_S3_EEE
FNDA:0,_ZNK5neml25Model11TraceSchemaeqERKS1_
FNDA:34,_ZN5neml25Model7d2valueERKSt3mapINS_19LabeledAxisAccessorENS_6TensorESt4lessIS2_ESaISt4pairIKS2_S3_EEE
FNDA:0,_ZN5neml25Model7d2valueEOSt3mapINS_19LabeledAxisAccessorENS_6TensorESt4lessIS2_ESaISt4pairIKS2_S3_EEE
FNDA:0,_ZNK5neml25Model16registered_modelERKSs
FNDA:64,_ZN5neml25Model28register_nonlinear_parameterERKSsRKNS_18NonlinearParameterE
FNDA:0,_ZNK5neml25Model12has_nl_paramEb
FNDA:310,_ZNK5neml25Model8nl_paramERKSs
FNDA:11068,_ZNK5neml25Model11TraceSchemaltERKS1_
FNDA:458,_ZNK5neml25Model26named_nonlinear_parametersEb
FNDA:232,_ZNK5neml25Model14consumed_itemsEv
FNDA:232,_ZNK5neml25Model14provided_itemsEv
FNDA:337,_ZN5neml25Model18assign_input_stackERSt6vectorIN3c106IValueESaIS3_EE
FNDA:5871,_ZNK5neml25Model19collect_input_stackEv
FNDA:1563,_ZN5neml25Model9set_guessERKNS_15NonlinearSystem3SolILb0EEE
FNDA:2807,_ZN5neml25Model8assembleEPNS_15NonlinearSystem3ResILb0EEEPNS1_3JacILb0EEE
FNDA:381,_ZN5neml25Model16expected_optionsEv
FNDA:194,_ZNK5neml25Model13AD_need_valueEbb
FNDA:449,_ZN5neml25Model9enable_ADEv
FNDA:449,_ZN5neml25Model22extract_AD_derivativesEbb
FNF:62
FNH:47
DA:41,163
DA:43,163
DA:44,326
DA:45,163
DA:48,1
DA:50,1
DA:51,1
DA:55,10
DA:57,10
DA:58,10
DA:62,0
DA:64,0
DA:68,11068
DA:70,11068
DA:71,0
DA:72,11068
DA:76,381
DA:78,381
DA:79,381
DA:80,381
DA:82,381
DA:85,762
DA:86,762
DA:87,762
DA:88,1143
DA:89,762
DA:90,762
DA:95,762
DA:96,762
DA:98,762
DA:99,762
DA:101,762
DA:102,762
DA:105,381
DA:107,381
DA:108,0
DA:110,406
DA:116,812
DA:117,812
DA:118,812
DA:119,406
DA:120,812
DA:121,1624
DA:123,406
DA:126,0
DA:128,0
DA:129,0
DA:130,0
DA:132,0
DA:133,0
DA:135,0
DA:136,0
DA:137,0
DA:140,406
DA:142,406
DA:144,406
DA:146,162
DA:147,162
DA:150,406
DA:151,406
DA:154,96
DA:156,182
DA:157,86
DA:160,391
DA:161,295
DA:162,213
DA:163,117
DA:165,96
DA:166,5
DA:167,96
DA:170,72
DA:172,139
DA:173,67
DA:176,72
DA:177,253
DA:178,181
DA:179,109
DA:182,72
DA:183,145
DA:184,76
DA:185,76
DA:191,72
DA:194,26
DA:196,26
DA:197,26
DA:200,0
DA:202,0
DA:203,0
DA:204,0
DA:207,19
DA:209,19
DA:210,19
DA:213,0
DA:215,0
DA:216,0
DA:217,0
DA:220,0
DA:222,0
DA:223,0
DA:224,0
DA:227,295
DA:229,753
DA:230,458
DA:232,295
DA:246,295
DA:249,117
DA:251,117
DA:253,117
DA:263,117
DA:266,407
DA:268,652
DA:270,245
DA:271,245
DA:273,407
DA:276,13
DA:278,88
DA:279,75
DA:280,13
DA:283,407
DA:285,652
DA:287,245
DA:288,245
DA:290,407
DA:293,13
DA:295,13
DA:298,14
DA:300,14
DA:302,14
DA:305,14
DA:306,14
DA:308,14
DA:309,14
DA:312,48
DA:314,48
DA:316,48
DA:319,48
DA:320,48
DA:322,48
DA:323,48
DA:326,7944
DA:328,7944
DA:329,13060
DA:330,5116
DA:331,7944
DA:334,7944
DA:336,7944
DA:337,13060
DA:338,5116
DA:339,7944
DA:342,7944
DA:344,7944
DA:345,13060
DA:346,5116
DA:347,7944
DA:350,7944
DA:352,7944
DA:353,13060
DA:354,5116
DA:355,7944
DA:358,5871
DA:360,5871
DA:361,40341
DA:362,34470
DA:363,20831
DA:364,14960
DA:366,5871
DA:368,11742
DA:369,5871
DA:372,5871
DA:374,5871
DA:378,1042
DA:380,1042
DA:382,1042
DA:384,1042
DA:386,1042
DA:388,1042
DA:390,1042
DA:393,1042
DA:395,1042
DA:396,449
DA:398,1042
DA:400,1042
DA:401,449
DA:403,2084
DA:404,1042
DA:407,6576
DA:409,6576
DA:411,705
DA:412,705
DA:416,5871
DA:418,5871
DA:419,5871
DA:420,5871
DA:422,5871
DA:424,5534
DA:425,5534
DA:426,5534
DA:427,5534
DA:428,5534
DA:429,5534
DA:435,337
DA:436,337
DA:438,337
DA:439,337
DA:440,337
DA:441,337
DA:442,1685
DA:443,674
DA:445,27865
DA:447,337
DA:448,337
DA:450,674
DA:451,337
DA:452,0
DA:453,674
DA:454,337
DA:457,337
DA:458,337
DA:459,5871
DA:462,144152
DA:465,523430
DA:466,380556
DA:467,1278
DA:468,300611
DA:469,158071
DA:470,334
DA:473,1054410
DA:474,912391
DA:475,521
DA:476,798235
DA:477,656359
DA:478,143
DA:481,258447
DA:483,116961
DA:484,116961
DA:485,390
DA:486,116961
DA:488,282972
DA:492,2828
DA:494,2828
DA:495,2828
DA:496,5656
DA:502,2828
DA:505,2164
DA:507,2164
DA:509,2164
DA:510,2164
DA:511,2164
DA:512,2164
DA:513,0
DA:516,1
DA:518,1
DA:520,1
DA:521,1
DA:522,1
DA:523,1
DA:524,0
DA:527,0
DA:529,0
DA:531,0
DA:532,0
DA:533,0
DA:534,0
DA:535,0
DA:536,0
DA:539,0
DA:541,0
DA:543,0
DA:544,0
DA:545,0
DA:546,0
DA:547,0
DA:548,0
DA:551,629
DA:553,629
DA:555,629
DA:556,629
DA:557,629
DA:558,629
DA:559,0
DA:562,0
DA:564,0
DA:566,0
DA:567,0
DA:568,0
DA:569,0
DA:570,0
DA:573,0
DA:575,0
DA:577,0
DA:578,0
DA:579,0
DA:580,0
DA:581,0
DA:582,0
DA:583,0
DA:586,0
DA:588,0
DA:590,0
DA:591,0
DA:592,0
DA:593,0
DA:594,0
DA:595,0
DA:596,0
DA:599,0
DA:601,0
DA:603,0
DA:604,0
DA:605,0
DA:606,0
DA:607,0
DA:608,0
DA:611,0
DA:613,0
DA:615,0
DA:616,0
DA:617,0
DA:618,0
DA:619,0
DA:620,0
DA:623,34
DA:625,34
DA:627,34
DA:628,34
DA:629,34
DA:630,34
DA:631,0
DA:634,0
DA:636,0
DA:638,0
DA:639,0
DA:640,0
DA:641,0
DA:642,0
DA:645,0
DA:647,0
DA:648,0
DA:649,0
DA:651,0
DA:652,0
DA:656,64
DA:658,64
DA:662,64
DA:663,64
DA:666,0
DA:668,0
DA:669,0
DA:671,0
DA:672,0
DA:673,0
DA:675,0
DA:679,310
DA:681,310
DA:685,458
DA:687,458
DA:688,0
DA:690,458
DA:692,586
DA:693,128
DA:694,128
DA:696,472
DA:697,14
DA:698,14
DA:700,458
DA:701,458
DA:704,232
DA:706,232
DA:707,464
DA:708,232
DA:711,232
DA:713,232
DA:714,464
DA:715,232
DA:718,337
DA:721,337
DA:722,337
DA:723,337
DA:725,337
DA:731,337
DA:732,337
DA:733,337
DA:736,5871
DA:738,5871
DA:739,5871
DA:744,5871
DA:745,11742
DA:746,5871
DA:749,1563
DA:751,1563
DA:752,1563
DA:753,1563
DA:756,2807
DA:758,2807
DA:760,2807
DA:762,1563
DA:763,1563
DA:765,2807
DA:768,1244
DA:769,1244
DA:771,2807
DA:774,194
DA:776,194
DA:777,159
DA:778,2
DA:780,192
DA:781,38
DA:782,0
DA:783,0
DA:784,0
DA:786,192
DA:790,449
DA:792,455
DA:793,6
DA:794,449
DA:797,449
DA:799,449
DA:801,453
DA:803,4
DA:804,0
DA:805,0
DA:808,4
DA:809,18
DA:810,14
DA:811,14
DA:814,4
DA:815,18
DA:816,14
DA:817,14
DA:818,0
DA:819,0
DA:821,4
DA:825,4
DA:827,4
DA:828,18
DA:829,14
DA:831,14
DA:832,14
DA:833,14
DA:835,4
DA:837,449
DA:839,86
DA:840,0
DA:842,0
DA:843,0
DA:845,0
DA:847,0
DA:848,0
DA:850,0
DA:851,0
DA:852,0
DA:853,0
DA:859,0
DA:861,0
DA:862,0
DA:863,0
DA:865,0
DA:866,0
DA:867,0
DA:869,0
DA:871,449
LF:461
LH:328
end_of_record
TN:
SF:/home/runner/work/neml2/neml2/src/neml2/models/ParameterStore.cxx
FN:107,253,_ZN5neml219resolve_tensor_nameINS_10QuaternionEEERKT_RKNS_10TensorNameIS2_EEPNS_5ModelERKSs
FN:107,253,_ZN5neml219resolve_tensor_nameINS_11MillerIndexEEERKT_RKNS_10TensorNameIS2_EEPNS_5ModelERKSs
FN:107,253,_ZN5neml219resolve_tensor_nameINS_2R2EEERKT_RKNS_10TensorNameIS2_EEPNS_5ModelERKSs
FN:107,253,_ZN5neml219resolve_tensor_nameINS_2R3EEERKT_RKNS_10TensorNameIS2_EEPNS_5ModelERKSs
FN:107,253,_ZN5neml219resolve_tensor_nameINS_2R4EEERKT_RKNS_10TensorNameIS2_EEPNS_5ModelERKSs
FN:107,253,_ZN5neml219resolve_tensor_nameINS_2R5EEERKT_RKNS_10TensorNameIS2_EEPNS_5ModelERKSs
FN:107,253,_ZN5neml219resolve_tensor_nameINS_2R8EEERKT_RKNS_10TensorNameIS2_EEPNS_5ModelERKSs
FN:107,253,_ZN5neml219resolve_tensor_nameINS_3RotEEERKT_RKNS_10TensorNameIS2_EEPNS_5ModelERKSs
FN:107,253,_ZN5neml219resolve_tensor_nameINS_3SR2EEERKT_RKNS_10TensorNameIS2_EEPNS_5ModelERKSs
FN:107,253,_ZN5neml219resolve_tensor_nameINS_3VecEEERKT_RKNS_10TensorNameIS2_EEPNS_5ModelERKSs
FN:107,253,_ZN5neml219resolve_tensor_nameINS_3WR2EEERKT_RKNS_10TensorNameIS2_EEPNS_5ModelERKSs
FN:107,253,_ZN5neml219resolve_tensor_nameINS_4SFR3EEERKT_RKNS_10TensorNameIS2_EEPNS_5ModelERKSs
FN:107,253,_ZN5neml219resolve_tensor_nameINS_4SFR4EEERKT_RKNS_10TensorNameIS2_EEPNS_5ModelERKSs
FN:107,253,_ZN5neml219resolve_tensor_nameINS_4SSR4EEERKT_RKNS_10TensorNameIS2_EEPNS_5ModelERKSs
FN:107,253,_ZN5neml219resolve_tensor_nameINS_4SWR4EEERKT_RKNS_10TensorNameIS2_EEPNS_5ModelERKSs
FN:107,253,_ZN5neml219resolve_tensor_nameINS_4WFR4EEERKT_RKNS_10TensorNameIS2_EEPNS_5ModelERKSs
FN:107,253,_ZN5neml219resolve_tensor_nameINS_4WSR4EEERKT_RKNS_10TensorNameIS2_EEPNS_5ModelERKSs
FN:107,253,_ZN5neml219resolve_tensor_nameINS_4WWR4EEERKT_RKNS_10TensorNameIS2_EEPNS_5ModelERKSs
FN:107,253,_ZN5neml219resolve_tensor_nameINS_5SFFR4EEERKT_RKNS_10TensorNameIS2_EEPNS_5ModelERKSs
FN:107,253,_ZN5neml219resolve_tensor_nameINS_5SSFR5EEERKT_RKNS_10TensorNameIS2_EEPNS_5ModelERKSs
FN:107,253,_ZN5neml219resolve_tensor_nameINS_6SSSSR8EEERKT_RKNS_10TensorNameIS2_EEPNS_5ModelERKSs
FN:107,253,_ZN5neml219resolve_tensor_nameINS_6ScalarEEERKT_RKNS_10TensorNameIS2_EEPNS_5ModelERKSs
FN:257,286,_ZN5neml214ParameterStore17declare_parameterINS_10QuaternionEvEERKT_RKSsRKNS_10TensorNameIS3_EEb
FN:257,286,_ZN5neml214ParameterStore17declare_parameterINS_11MillerIndexEvEERKT_RKSsRKNS_10TensorNameIS3_EEb
FN:257,286,_ZN5neml214ParameterStore17declare_parameterINS_2R2EvEERKT_RKSsRKNS_10TensorNameIS3_EEb
FN:257,286,_ZN5neml214ParameterStore17declare_parameterINS_2R3EvEERKT_RKSsRKNS_10TensorNameIS3_EEb
FN:257,286,_ZN5neml214ParameterStore17declare_parameterINS_2R4EvEERKT_RKSsRKNS_10TensorNameIS3_EEb
FN:257,286,_ZN5neml214ParameterStore17declare_parameterINS_2R5EvEERKT_RKSsRKNS_10TensorNameIS3_EEb
FN:257,286,_ZN5neml214ParameterStore17declare_parameterINS_2R8EvEERKT_RKSsRKNS_10TensorNameIS3_EEb
FN:257,286,_ZN5neml214ParameterStore17declare_parameterINS_3RotEvEERKT_RKSsRKNS_10TensorNameIS3_EEb
FN:257,286,_ZN5neml214ParameterStore17declare_parameterINS_3SR2EvEERKT_RKSsRKNS_10TensorNameIS3_EEb
FN:257,286,_ZN5neml214ParameterStore17declare_parameterINS_3VecEvEERKT_RKSsRKNS_10TensorNameIS3_EEb
FN:257,286,_ZN5neml214ParameterStore17declare_parameterINS_3WR2EvEERKT_RKSsRKNS_10TensorNameIS3_EEb
FN:257,286,_ZN5neml214ParameterStore17declare_parameterINS_4SFR3EvEERKT_RKSsRKNS_10TensorNameIS3_EEb
FN:257,286,_ZN5neml214ParameterStore17declare_parameterINS_4SFR4EvEERKT_RKSsRKNS_10TensorNameIS3_EEb
FN:257,286,_ZN5neml214ParameterStore17declare_parameterINS_4SSR4EvEERKT_RKSsRKNS_10TensorNameIS3_EEb
FN:257,286,_ZN5neml214ParameterStore17declare_parameterINS_4SWR4EvEERKT_RKSsRKNS_10TensorNameIS3_EEb
FN:257,286,_ZN5neml214ParameterStore17declare_parameterINS_4WFR4EvEERKT_RKSsRKNS_10TensorNameIS3_EEb
FN:257,286,_ZN5neml214ParameterStore17declare_parameterINS_4WSR4EvEERKT_RKSsRKNS_10TensorNameIS3_EEb
FN:257,286,_ZN5neml214ParameterStore17declare_parameterINS_4WWR4EvEERKT_RKSsRKNS_10TensorNameIS3_EEb
FN:257,286,_ZN5neml214ParameterStore17declare_parameterINS_5SFFR4EvEERKT_RKSsRKNS_10TensorNameIS3_EEb
FN:257,286,_ZN5neml214ParameterStore17declare_parameterINS_5SSFR5EvEERKT_RKSsRKNS_10TensorNameIS3_EEb
FN:257,286,_ZN5neml214ParameterStore17declare_parameterINS_6SSSSR8EvEERKT_RKSsRKNS_10TensorNameIS3_EEb
FN:257,286,_ZN5neml214ParameterStore17declare_parameterINS_6ScalarEvEERKT_RKSsRKNS_10TensorNameIS3_EEb
FN:290,306,_ZN5neml214ParameterStore17declare_parameterINS_10QuaternionEvEERKT_RKSsS7_b
FN:290,306,_ZN5neml214ParameterStore17declare_parameterINS_11MillerIndexEvEERKT_RKSsS7_b
FN:290,306,_ZN5neml214ParameterStore17declare_parameterINS_2R2EvEERKT_RKSsS7_b
FN:290,306,_ZN5neml214ParameterStore17declare_parameterINS_2R3EvEERKT_RKSsS7_b
FN:290,306,_ZN5neml214ParameterStore17declare_parameterINS_2R4EvEERKT_RKSsS7_b
FN:290,306,_ZN5neml214ParameterStore17declare_parameterINS_2R5EvEERKT_RKSsS7_b
FN:290,306,_ZN5neml214ParameterStore17declare_parameterINS_2R8EvEERKT_RKSsS7_b
FN:290,306,_ZN5neml214ParameterStore17declare_parameterINS_3RotEvEERKT_RKSsS7_b
FN:290,306,_ZN5neml214ParameterStore17declare_parameterINS_3SR2EvEERKT_RKSsS7_b
FN:290,306,_ZN5neml214ParameterStore17declare_parameterINS_3VecEvEERKT_RKSsS7_b
FN:290,306,_ZN5neml214ParameterStore17declare_parameterINS_3WR2EvEERKT_RKSsS7_b
FN:290,306,_ZN5neml214ParameterStore17declare_parameterINS_4SFR3EvEERKT_RKSsS7_b
FN:290,306,_ZN5neml214ParameterStore17declare_parameterINS_4SFR4EvEERKT_RKSsS7_b
FN:290,306,_ZN5neml214ParameterStore17declare_parameterINS_4SSR4EvEERKT_RKSsS7_b
FN:290,306,_ZN5neml214ParameterStore17declare_parameterINS_4SWR4EvEERKT_RKSsS7_b
FN:290,306,_ZN5neml214ParameterStore17declare_parameterINS_4WFR4EvEERKT_RKSsS7_b
FN:290,306,_ZN5neml214ParameterStore17declare_parameterINS_4WSR4EvEERKT_RKSsS7_b
FN:290,306,_ZN5neml214ParameterStore17declare_parameterINS_4WWR4EvEERKT_RKSsS7_b
FN:290,306,_ZN5neml214ParameterStore17declare_parameterINS_5SFFR4EvEERKT_RKSsS7_b
FN:290,306,_ZN5neml214ParameterStore17declare_parameterINS_5SSFR5EvEERKT_RKSsS7_b
FN:290,306,_ZN5neml214ParameterStore17declare_parameterINS_6SSSSR8EvEERKT_RKSsS7_b
FN:290,306,_ZN5neml214ParameterStore17declare_parameterINS_6ScalarEvEERKT_RKSsS7_b
FN:320,341,_ZN5neml214ParameterStore22assign_parameter_stackERSt6vectorIN3c106IValueESaIS3_EE
FN:344,352,_ZNK5neml214ParameterStore23collect_parameter_stackEv
FN:36,39,_ZN5neml214ParameterStoreC2EPNS_5ModelE
FN:42,46,_ZN5neml214ParameterStore18send_parameters_toERKN3c1013TensorOptionsE
FN:49,54,_ZN5neml214ParameterStore13set_parameterERKSsRKNS_6TensorE
FN:57,62,_ZN5neml214ParameterStore13get_parameterERKSs
FN:65,69,_ZN5neml214ParameterStore14set_parametersERKSt3mapISsNS_6TensorESt4lessISsESaISt4pairIKSsS2_EEE
FN:72,77,_ZN5neml214ParameterStore16named_parametersEv
FN:81,103,_ZN5neml214ParameterStore17declare_parameterINS_10QuaternionEvEERKT_RKSsS5_
FN:81,103,_ZN5neml214ParameterStore17declare_parameterINS_11MillerIndexEvEERKT_RKSsS5_
FN:81,103,_ZN5neml214ParameterStore17declare_parameterINS_2R2EvEERKT_RKSsS5_
FN:81,103,_ZN5neml214ParameterStore17declare_parameterINS_2R3EvEERKT_RKSsS5_
FN:81,103,_ZN5neml214ParameterStore17declare_parameterINS_2R4EvEERKT_RKSsS5_
FN:81,103,_ZN5neml214ParameterStore17declare_parameterINS_2R5EvEERKT_RKSsS5_
FN:81,103,_ZN5neml214ParameterStore17declare_parameterINS_2R8EvEERKT_RKSsS5_
FN:81,103,_ZN5neml214ParameterStore17declare_parameterINS_3RotEvEERKT_RKSsS5_
FN:81,103,_ZN5neml214ParameterStore17declare_parameterINS_3SR2EvEERKT_RKSsS5_
FN:81,103,_ZN5neml214ParameterStore17declare_parameterINS_3VecEvEERKT_RKSsS5_
FN:81,103,_ZN5neml214ParameterStore17declare_parameterINS_3WR2EvEERKT_RKSsS5_
FN:81,103,_ZN5neml214ParameterStore17declare_parameterINS_4SFR3EvEERKT_RKSsS5_
FN:81,103,_ZN5neml214ParameterStore17declare_parameterINS_4SFR4EvEERKT_RKSsS5_
FN:81,103,_ZN5neml214ParameterStore17declare_parameterINS_4SSR4EvEERKT_RKSsS5_
FN:81,103,_ZN5neml214ParameterStore17declare_parameterINS_4SWR4EvEERKT_RKSsS5_
FN:81,103,_ZN5neml214ParameterStore17declare_parameterINS_4WFR4EvEERKT_RKSsS5_
FN:81,103,_ZN5neml214ParameterStore17declare_parameterINS_4WSR4EvEERKT_RKSsS5_
FN:81,103,_ZN5neml214ParameterStore17declare_parameterINS_4WWR4EvEERKT_RKSsS5_
FN:81,103,_ZN5neml214ParameterStore17declare_parameterINS_5SFFR4EvEERKT_RKSsS5_
FN:81,103,_ZN5neml214ParameterStore17declare_parameterINS_5SSFR5EvEERKT_RKSsS5_
FN:81,103,_ZN5neml214ParameterStore17declare_parameterINS_6SSSSR8EvEERKT_RKSsS5_
FN:81,103,_ZN5neml214ParameterStore17declare_parameterINS_6ScalarEvEERKT_RKSsS5_
FN:81,103,_ZN5neml214ParameterStore17declare_parameterINS_6TensorEvEERKT_RKSsS5_
FNDA:0,_ZN5neml219resolve_tensor_nameINS_10QuaternionEEERKT_RKNS_10TensorNameIS2_EEPNS_5ModelERKSs
FNDA:0,_ZN5neml219resolve_tensor_nameINS_11MillerIndexEEERKT_RKNS_10TensorNameIS2_EEPNS_5ModelERKSs
FNDA:0,_ZN5neml219resolve_tensor_nameINS_2R2EEERKT_RKNS_10TensorNameIS2_EEPNS_5ModelERKSs
FNDA:0,_ZN5neml219resolve_tensor_nameINS_2R3EEERKT_RKNS_10TensorNameIS2_EEPNS_5ModelERKSs
FNDA:0,_ZN5neml219resolve_tensor_nameINS_2R4EEERKT_RKNS_10TensorNameIS2_EEPNS_5ModelERKSs
FNDA:0,_ZN5neml219resolve_tensor_nameINS_2R5EEERKT_RKNS_10TensorNameIS2_EEPNS_5ModelERKSs
FNDA:0,_ZN5neml219resolve_tensor_nameINS_2R8EEERKT_RKNS_10TensorNameIS2_EEPNS_5ModelERKSs
FNDA:0,_ZN5neml219resolve_tensor_nameINS_3RotEEERKT_RKNS_10TensorNameIS2_EEPNS_5ModelERKSs
FNDA:0,_ZN5neml219resolve_tensor_nameINS_3SR2EEERKT_RKNS_10TensorNameIS2_EEPNS_5ModelERKSs
FNDA:0,_ZN5neml219resolve_tensor_nameINS_3VecEEERKT_RKNS_10TensorNameIS2_EEPNS_5ModelERKSs
FNDA:0,_ZN5neml219resolve_tensor_nameINS_3WR2EEERKT_RKNS_10TensorNameIS2_EEPNS_5ModelERKSs
FNDA:0,_ZN5neml219resolve_tensor_nameINS_4SFR3EEERKT_RKNS_10TensorNameIS2_EEPNS_5ModelERKSs
FNDA:0,_ZN5neml219resolve_tensor_nameINS_4SFR4EEERKT_RKNS_10TensorNameIS2_EEPNS_5ModelERKSs
FNDA:2,_ZN5neml219resolve_tensor_nameINS_4SSR4EEERKT_RKNS_10TensorNameIS2_EEPNS_5ModelERKSs
FNDA:0,_ZN5neml219resolve_tensor_nameINS_4SWR4EEERKT_RKNS_10TensorNameIS2_EEPNS_5ModelERKSs
FNDA:0,_ZN5neml219resolve_tensor_nameINS_4WFR4EEERKT_RKNS_10TensorNameIS2_EEPNS_5ModelERKSs
FNDA:0,_ZN5neml219resolve_tensor_nameINS_4WSR4EEERKT_RKNS_10TensorNameIS2_EEPNS_5ModelERKSs
FNDA:0,_ZN5neml219resolve_tensor_nameINS_4WWR4EEERKT_RKNS_10TensorNameIS2_EEPNS_5ModelERKSs
FNDA:0,_ZN5neml219resolve_tensor_nameINS_5SFFR4EEERKT_RKNS_10TensorNameIS2_EEPNS_5ModelERKSs
FNDA:0,_ZN5neml219resolve_tensor_nameINS_5SSFR5EEERKT_RKNS_10TensorNameIS2_EEPNS_5ModelERKSs
FNDA:0,_ZN5neml219resolve_tensor_nameINS_6SSSSR8EEERKT_RKNS_10TensorNameIS2_EEPNS_5ModelERKSs
FNDA:62,_ZN5neml219resolve_tensor_nameINS_6ScalarEEERKT_RKNS_10TensorNameIS2_EEPNS_5ModelERKSs
FNDA:0,_ZN5neml214ParameterStore17declare_parameterINS_10QuaternionEvEERKT_RKSsRKNS_10TensorNameIS3_EEb
FNDA:0,_ZN5neml214ParameterStore17declare_parameterINS_11MillerIndexEvEERKT_RKSsRKNS_10TensorNameIS3_EEb
FNDA:0,_ZN5neml214ParameterStore17declare_parameterINS_2R2EvEERKT_RKSsRKNS_10TensorNameIS3_EEb
FNDA:0,_ZN5neml214ParameterStore17declare_parameterINS_2R3EvEERKT_RKSsRKNS_10TensorNameIS3_EEb
FNDA:0,_ZN5neml214ParameterStore17declare_parameterINS_2R4EvEERKT_RKSsRKNS_10TensorNameIS3_EEb
FNDA:0,_ZN5neml214ParameterStore17declare_parameterINS_2R5EvEERKT_RKSsRKNS_10TensorNameIS3_EEb
FNDA:0,_ZN5neml214ParameterStore17declare_parameterINS_2R8EvEERKT_RKSsRKNS_10TensorNameIS3_EEb
FNDA:0,_ZN5neml214ParameterStore17declare_parameterINS_3RotEvEERKT_RKSsRKNS_10TensorNameIS3_EEb
FNDA:5,_ZN5neml214ParameterStore17declare_parameterINS_3SR2EvEERKT_RKSsRKNS_10TensorNameIS3_EEb
FNDA:0,_ZN5neml214ParameterStore17declare_parameterINS_3VecEvEERKT_RKSsRKNS_10TensorNameIS3_EEb
FNDA:0,_ZN5neml214ParameterStore17declare_parameterINS_3WR2EvEERKT_RKSsRKNS_10TensorNameIS3_EEb
FNDA:0,_ZN5neml214ParameterStore17declare_parameterINS_4SFR3EvEERKT_RKSsRKNS_10TensorNameIS3_EEb
FNDA:0,_ZN5neml214ParameterStore17declare_parameterINS_4SFR4EvEERKT_RKSsRKNS_10TensorNameIS3_EEb
FNDA:5,_ZN5neml214ParameterStore17declare_parameterINS_4SSR4EvEERKT_RKSsRKNS_10TensorNameIS3_EEb
FNDA:0,_ZN5neml214ParameterStore17declare_parameterINS_4SWR4EvEERKT_RKSsRKNS_10TensorNameIS3_EEb
FNDA:0,_ZN5neml214ParameterStore17declare_parameterINS_4WFR4EvEERKT_RKSsRKNS_10TensorNameIS3_EEb
FNDA:0,_ZN5neml214ParameterStore17declare_parameterINS_4WSR4EvEERKT_RKSsRKNS_10TensorNameIS3_EEb
FNDA:0,_ZN5neml214ParameterStore17declare_parameterINS_4WWR4EvEERKT_RKSsRKNS_10TensorNameIS3_EEb
FNDA:0,_ZN5neml214ParameterStore17declare_parameterINS_5SFFR4EvEERKT_RKSsRKNS_10TensorNameIS3_EEb
FNDA:0,_ZN5neml214ParameterStore17declare_parameterINS_5SSFR5EvEERKT_RKSsRKNS_10TensorNameIS3_EEb
FNDA:0,_ZN5neml214ParameterStore17declare_parameterINS_6SSSSR8EvEERKT_RKSsRKNS_10TensorNameIS3_EEb
FNDA:220,_ZN5neml214ParameterStore17declare_parameterINS_6ScalarEvEERKT_RKSsRKNS_10TensorNameIS3_EEb
FNDA:0,_ZN5neml214ParameterStore17declare_parameterINS_10QuaternionEvEERKT_RKSsS7_b
FNDA:0,_ZN5neml214ParameterStore17declare_parameterINS_11MillerIndexEvEERKT_RKSsS7_b
FNDA:0,_ZN5neml214ParameterStore17declare_parameterINS_2R2EvEERKT_RKSsS7_b
FNDA:0,_ZN5neml214ParameterStore17declare_parameterINS_2R3EvEERKT_RKSsS7_b
FNDA:0,_ZN5neml214ParameterStore17declare_parameterINS_2R4EvEERKT_RKSsS7_b
FNDA:0,_ZN5neml214ParameterStore17declare_parameterINS_2R5EvEERKT_RKSsS7_b
FNDA:0,_ZN5neml214ParameterStore17declare_parameterINS_2R8EvEERKT_RKSsS7_b
FNDA:0,_ZN5neml214ParameterStore17declare_parameterINS_3RotEvEERKT_RKSsS7_b
FNDA:5,_ZN5neml214ParameterStore17declare_parameterINS_3SR2EvEERKT_RKSsS7_b
FNDA:0,_ZN5neml214ParameterStore17declare_parameterINS_3VecEvEERKT_RKSsS7_b
FNDA:0,_ZN5neml214ParameterStore17declare_parameterINS_3WR2EvEERKT_RKSsS7_b
FNDA:0,_ZN5neml214ParameterStore17declare_parameterINS_4SFR3EvEERKT_RKSsS7_b
FNDA:0,_ZN5neml214ParameterStore17declare_parameterINS_4SFR4EvEERKT_RKSsS7_b
FNDA:5,_ZN5neml214ParameterStore17declare_parameterINS_4SSR4EvEERKT_RKSsS7_b
FNDA:0,_ZN5neml214ParameterStore17declare_parameterINS_4SWR4EvEERKT_RKSsS7_b
FNDA:0,_ZN5neml214ParameterStore17declare_parameterINS_4WFR4EvEERKT_RKSsS7_b
FNDA:0,_ZN5neml214ParameterStore17declare_parameterINS_4WSR4EvEERKT_RKSsS7_b
FNDA:0,_ZN5neml214ParameterStore17declare_parameterINS_4WWR4EvEERKT_RKSsS7_b
FNDA:0,_ZN5neml214ParameterStore17declare_parameterINS_5SFFR4EvEERKT_RKSsS7_b
FNDA:0,_ZN5neml214ParameterStore17declare_parameterINS_5SSFR5EvEERKT_RKSsS7_b
FNDA:0,_ZN5neml214ParameterStore17declare_parameterINS_6SSSSR8EvEERKT_RKSsS7_b
FNDA:160,_ZN5neml214ParameterStore17declare_parameterINS_6ScalarEvEERKT_RKSsS7_b
FNDA:337,_ZN5neml214ParameterStore22assign_parameter_stackERSt6vectorIN3c106IValueESaIS3_EE
FNDA:5871,_ZNK5neml214ParameterStore23collect_parameter_stackEv
FNDA:406,_ZN5neml214ParameterStoreC2EPNS_5ModelE
FNDA:0,_ZN5neml214ParameterStore18send_parameters_toERKN3c1013TensorOptionsE
FNDA:616,_ZN5neml214ParameterStore13set_parameterERKSsRKNS_6TensorE
FNDA:7,_ZN5neml214ParameterStore13get_parameterERKSs
FNDA:0,_ZN5neml214ParameterStore14set_parametersERKSt3mapISsNS_6TensorESt4lessISsESaISt4pairIKSsS2_EEE
FNDA:156580,_ZN5neml214ParameterStore16named_parametersEv
FNDA:0,_ZN5neml214ParameterStore17declare_parameterINS_10QuaternionEvEERKT_RKSsS5_
FNDA:0,_ZN5neml214ParameterStore17declare_parameterINS_11MillerIndexEvEERKT_RKSsS5_
FNDA:0,_ZN5neml214ParameterStore17declare_parameterINS_2R2EvEERKT_RKSsS5_
FNDA:0,_ZN5neml214ParameterStore17declare_parameterINS_2R3EvEERKT_RKSsS5_
FNDA:0,_ZN5neml214ParameterStore17declare_parameterINS_2R4EvEERKT_RKSsS5_
FNDA:0,_ZN5neml214ParameterStore17declare_parameterINS_2R5EvEERKT_RKSsS5_
FNDA:0,_ZN5neml214ParameterStore17declare_parameterINS_2R8EvEERKT_RKSsS5_
FNDA:0,_ZN5neml214ParameterStore17declare_parameterINS_3RotEvEERKT_RKSsS5_
FNDA:5,_ZN5neml214ParameterStore17declare_parameterINS_3SR2EvEERKT_RKSsS5_
FNDA:0,_ZN5neml214ParameterStore17declare_parameterINS_3VecEvEERKT_RKSsS5_
FNDA:0,_ZN5neml214ParameterStore17declare_parameterINS_3WR2EvEERKT_RKSsS5_
FNDA:0,_ZN5neml214ParameterStore17declare_parameterINS_4SFR3EvEERKT_RKSsS5_
FNDA:0,_ZN5neml214ParameterStore17declare_parameterINS_4SFR4EvEERKT_RKSsS5_
FNDA:3,_ZN5neml214ParameterStore17declare_parameterINS_4SSR4EvEERKT_RKSsS5_
FNDA:0,_ZN5neml214ParameterStore17declare_parameterINS_4SWR4EvEERKT_RKSsS5_
FNDA:0,_ZN5neml214ParameterStore17declare_parameterINS_4WFR4EvEERKT_RKSsS5_
FNDA:0,_ZN5neml214ParameterStore17declare_parameterINS_4WSR4EvEERKT_RKSsS5_
FNDA:0,_ZN5neml214ParameterStore17declare_parameterINS_4WWR4EvEERKT_RKSsS5_
FNDA:0,_ZN5neml214ParameterStore17declare_parameterINS_5SFFR4EvEERKT_RKSsS5_
FNDA:0,_ZN5neml214ParameterStore17declare_parameterINS_5SSFR5EvEERKT_RKSsS5_
FNDA:0,_ZN5neml214ParameterStore17declare_parameterINS_6SSSSR8EvEERKT_RKSsS5_
FNDA:259,_ZN5neml214ParameterStore17declare_parameterINS_6ScalarEvEERKT_RKSsS5_
FNDA:0,_ZN5neml214ParameterStore17declare_parameterINS_6TensorEvEERKT_RKSsS5_
FNF:97
FNH:17
DA:36,406
DA:37,406
DA:39,406
DA:42,0
DA:44,0
DA:45,0
DA:46,0
DA:49,616
DA:51,616
DA:52,616
DA:53,616
DA:54,616
DA:57,7
DA:59,7
DA:60,7
DA:61,7
DA:65,0
DA:67,0
DA:68,0
DA:69,0
DA:72,156580
DA:74,156580
DA:76,156580
DA:81,267
DA:83,267
DA:84,231
DA:85,154
DA:87,190
DA:90,190
DA:91,5
DA:95,185
DA:96,185
DA:97,185
DA:98,185
DA:100,190
DA:101,190
DA:102,190
DA:107,64
DA:109,64
DA:110,0
DA:120,64
DA:121,128
DA:127,64
DA:128,64
DA:132,64
DA:133,64
DA:134,0
DA:140,64
DA:143,64
DA:147,118
DA:150,10
DA:151,10
DA:152,0
DA:153,0
DA:155,10
DA:156,0
DA:157,0
DA:163,0
DA:166,10
DA:169,108
DA:171,54
DA:172,54
DA:173,0
DA:174,0
DA:179,0
DA:182,54
DA:183,54
DA:184,54
DA:185,108
DA:186,108
DA:187,108
DA:188,216
DA:189,54
DA:190,54
DA:191,54
DA:192,162
DA:194,0
DA:195,0
DA:196,0
DA:202,162
DA:206,54
DA:209,54
DA:210,54
DA:215,0
DA:218,0
DA:221,0
DA:222,0
DA:223,0
DA:225,0
DA:226,0
DA:232,64
DA:235,64
DA:236,64
DA:237,64
DA:238,0
DA:248,64
DA:251,128
DA:252,64
DA:253,64
DA:257,230
DA:263,230
DA:265,128
DA:267,64
DA:270,64
DA:272,0
DA:274,0
DA:277,0
DA:280,0
DA:281,0
DA:290,170
DA:294,170
DA:295,0
DA:297,170
DA:298,170
DA:299,340
DA:301,0
DA:320,337
DA:322,337
DA:324,337
DA:326,337
DA:328,337
DA:332,337
DA:333,732
DA:335,395
DA:336,395
DA:337,395
DA:340,337
DA:341,337
DA:344,5871
DA:346,5871
DA:347,5871
DA:348,5871
DA:349,20831
DA:350,14960
DA:351,5871
DA:352,0
LF:136
LH:99
end_of_record
TN:
SF:/home/runner/work/neml2/neml2/src/neml2/models/R2Multiplication.cxx
FN:32,60,_ZN5neml216R2Multiplication16expected_optionsEv
FN:62,72,_ZN5neml216R2MultiplicationC2ERKNS_9OptionSetE
FN:75,132,_ZN5neml216R2Multiplication9set_valueEbbb
FNDA:2,_ZN5neml216R2Multiplication16expected_optionsEv
FNDA:4,_ZN5neml216R2MultiplicationC2ERKNS_9OptionSetE
FNDA:8,_ZN5neml216R2Multiplication9set_valueEbbb
FNF:3
FNH:3
DA:32,2
DA:34,2
DA:35,2
DA:36,2
DA:38,4
DA:39,4
DA:41,4
DA:42,4
DA:44,4
DA:45,4
DA:47,4
DA:48,4
DA:50,4
DA:51,4
DA:53,4
DA:54,4
DA:56,4
DA:57,2
DA:59,2
DA:60,0
DA:62,4
DA:64,4
DA:65,4
DA:66,4
DA:67,8
DA:68,8
DA:69,8
DA:70,8
DA:72,4
DA:75,8
DA:77,8
DA:78,8
DA:79,0
DA:81,8
DA:82,8
DA:83,0
DA:85,8
DA:87,8
DA:88,4
DA:90,8
DA:92,4
DA:94,4
DA:96,2
DA:97,0
DA:98,0
DA:100,4
DA:101,6
DA:105,2
DA:106,0
DA:107,0
DA:109,4
DA:110,6
DA:113,4
DA:115,2
DA:116,0
DA:117,0
DA:119,4
DA:120,6
DA:124,2
DA:125,0
DA:126,0
DA:128,4
DA:129,6
DA:131,4
DA:132,8
LF:65
LH:54
end_of_record
TN:
SF:/home/runner/work/neml2/neml2/src/neml2/models/R2toSR2.cxx
FN:36,50,_ZN5neml27R2toSR216expected_optionsEv
FN:52,57,_ZN5neml27R2toSR2C2ERKNS_9OptionSetE
FN:60,72,_ZN5neml27R2toSR29set_valueEbbb
FNDA:2,_ZN5neml27R2toSR216expected_optionsEv
FNDA:1,_ZN5neml27R2toSR2C2ERKNS_9OptionSetE
FNDA:3,_ZN5neml27R2toSR29set_valueEbbb
FNF:3
FNH:3
DA:36,2
DA:38,2
DA:39,2
DA:41,4
DA:43,4
DA:44,4
DA:46,4
DA:47,2
DA:49,2
DA:50,0
DA:52,1
DA:54,1
DA:55,2
DA:57,1
DA:60,3
DA:62,3
DA:64,3
DA:65,1
DA:67,3
DA:68,1
DA:72,3
LF:21
LH:20
end_of_record
TN:
SF:/home/runner/work/neml2/neml2/src/neml2/models/R2toWR2.cxx
FN:35,49,_ZN5neml27R2toWR216expected_optionsEv
FN:51,56,_ZN5neml27R2toWR2C2ERKNS_9OptionSetE
FN:59,73,_ZN5neml27R2toWR29set_valueEbbb
FNDA:2,_ZN5neml27R2toWR216expected_optionsEv
FNDA:1,_ZN5neml27R2toWR2C2ERKNS_9OptionSetE
FNDA:3,_ZN5neml27R2toWR29set_valueEbbb
FNF:3
FNH:3
DA:35,2
DA:37,2
DA:38,2
DA:40,4
DA:42,4
DA:43,4
DA:45,4
DA:46,2
DA:48,2
DA:49,0
DA:51,1
DA:53,1
DA:54,2
DA:56,1
DA:59,3
DA:61,3
DA:63,3
DA:64,1
DA:66,3
DA:68,1
DA:73,3
LF:21
LH:20
end_of_record
TN:
SF:/home/runner/work/neml2/neml2/src/neml2/models/RotationMatrix.cxx
FN:35,48,_ZN5neml214RotationMatrix16expected_optionsEv
FN:50,55,_ZN5neml214RotationMatrixC2ERKNS_9OptionSetE
FN:58,66,_ZN5neml214RotationMatrix9set_valueEbbb
FNDA:2,_ZN5neml214RotationMatrix16expected_optionsEv
FNDA:5,_ZN5neml214RotationMatrixC2ERKNS_9OptionSetE
FNDA:10,_ZN5neml214RotationMatrix9set_valueEbbb
FNF:3
FNH:3
DA:35,2
DA:37,2
DA:38,2
DA:39,2
DA:41,4
DA:42,4
DA:44,4
DA:45,2
DA:47,2
DA:48,0
DA:50,5
DA:52,5
DA:53,10
DA:55,5
DA:58,10
DA:60,10
DA:61,10
DA:63,10
DA:64,5
DA:65,5
DA:66,10
LF:21
LH:20
end_of_record
TN:
SF:/home/runner/work/neml2/neml2/src/neml2/models/SR2Invariant.cxx
FN:36,61,_ZN5neml212SR2Invariant16expected_optionsEv
FN:63,69,_ZN5neml212SR2InvariantC2ERKNS_9OptionSetE
FN:72,166,_ZN5neml212SR2Invariant9set_valueEbbb
FNDA:2,_ZN5neml212SR2Invariant16expected_optionsEv
FNDA:21,_ZN5neml212SR2InvariantC2ERKNS_9OptionSetE
FNDA:52,_ZN5neml212SR2Invariant9set_valueEbbb
FNF:3
FNH:3
DA:36,2
DA:38,2
DA:39,2
DA:41,4
DA:43,4
DA:44,4
DA:46,4
DA:47,4
DA:55,12
DA:56,2
DA:57,4
DA:58,6
DA:60,4
DA:61,2
DA:63,21
DA:65,21
DA:66,21
DA:67,42
DA:69,21
DA:72,52
DA:74,52
DA:76,52
DA:78,8
DA:79,6
DA:81,8
DA:82,0
DA:84,8
DA:85,4
DA:92,44
DA:94,3
DA:95,1
DA:97,3
DA:98,0
DA:100,3
DA:102,2
DA:104,2
DA:105,1
DA:107,2
DA:109,1
DA:110,1
DA:111,1
DA:112,1
DA:113,2
DA:115,41
DA:117,38
DA:118,38
DA:120,38
DA:121,36
DA:123,38
DA:124,0
DA:126,38
DA:128,27
DA:130,27
DA:131,26
DA:133,27
DA:135,12
DA:136,12
DA:137,12
DA:138,12
DA:139,27
DA:140,38
DA:141,3
DA:143,3
DA:145,3
DA:146,1
DA:148,3
DA:149,0
DA:151,3
DA:153,2
DA:155,2
DA:156,1
DA:158,2
DA:159,2
DA:160,3
DA:161,2
DA:162,3
DA:164,0
DA:165,0
DA:166,52
LF:79
LH:73
end_of_record
TN:
SF:/home/runner/work/neml2/neml2/src/neml2/models/SR2toR2.cxx
FN:36,50,_ZN5neml27SR2toR216expected_optionsEv
FN:52,57,_ZN5neml27SR2toR2C2ERKNS_9OptionSetE
FN:60,72,_ZN5neml27SR2toR29set_valueEbbb
FNDA:2,_ZN5neml27SR2toR216expected_optionsEv
FNDA:1,_ZN5neml27SR2toR2C2ERKNS_9OptionSetE
FNDA:3,_ZN5neml27SR2toR29set_valueEbbb
FNF:3
FNH:3
DA:36,2
DA:38,2
DA:39,2
DA:41,4
DA:43,4
DA:44,4
DA:46,4
DA:47,2
DA:49,2
DA:50,0
DA:52,1
DA:54,1
DA:55,2
DA:57,1
DA:60,3
DA:62,3
DA:64,3
DA:65,1
DA:67,3
DA:68,1
DA:72,3
LF:21
LH:20
end_of_record
TN:
SF:/home/runner/work/neml2/neml2/src/neml2/models/ScalarMultiplication.cxx
FN:33,57,_ZN5neml220ScalarMultiplication16expected_optionsEv
FN:59,78,_ZN5neml220ScalarMultiplicationC2ERKNS_9OptionSetE
FN:81,94,_ZN5neml220ScalarMultiplication9set_valueEbbb
FNDA:2,_ZN5neml220ScalarMultiplication16expected_optionsEv
FNDA:3,_ZN5neml220ScalarMultiplicationC2ERKNS_9OptionSetE
FNDA:6,_ZN5neml220ScalarMultiplication9set_valueEbbb
FNF:3
FNH:3
DA:33,2
DA:36,2
DA:37,2
DA:39,2
DA:41,4
DA:42,4
DA:44,4
DA:45,4
DA:47,8
DA:48,2
DA:50,6
DA:51,4
DA:54,2
DA:56,2
DA:57,0
DA:59,3
DA:61,3
DA:62,18
DA:64,18
DA:65,12
DA:67,3
DA:68,3
DA:70,3
DA:72,3
DA:76,3
DA:77,2
DA:78,3
DA:81,6
DA:83,6
DA:84,24
DA:85,18
DA:87,6
DA:88,3
DA:90,6
DA:91,15
DA:92,12
DA:93,12
DA:94,6
LF:38
LH:37
end_of_record
TN:
SF:/home/runner/work/neml2/neml2/src/neml2/models/Variable.cxx
FN:101,104,_ZNK5neml212VariableBase12is_dependentEv
FN:107,110,_ZNK5neml212VariableBase7optionsEv
FN:113,116,_ZNK5neml212VariableBase11scalar_typeEv
FN:119,122,_ZNK5neml212VariableBase6deviceEv
FN:125,128,_ZNK5neml212VariableBase3dimEv
FN:131,134,_ZNK5neml212VariableBase5sizesEv
FN:137,140,_ZNK5neml212VariableBase4sizeEl
FN:143,146,_ZNK5neml212VariableBase7batchedEv
FN:149,152,_ZNK5neml212VariableBase9batch_dimEv
FN:155,158,_ZNK5neml212VariableBase8list_dimEv
FN:161,164,_ZNK5neml212VariableBase8base_dimEv
FN:167,170,_ZNK5neml212VariableBase11batch_sizesEv
FN:173,176,_ZNK5neml212VariableBase10list_sizesEv
FN:179,182,_ZNK5neml212VariableBase10batch_sizeEl
FN:185,188,_ZNK5neml212VariableBase9base_sizeEl
FN:191,194,_ZNK5neml212VariableBase9list_sizeEl
FN:197,200,_ZNK5neml212VariableBase12base_storageEv
FN:203,206,_ZNK5neml212VariableBase16assembly_storageEv
FN:209,212,_ZNK5neml212VariableBase13requires_gradEv
FN:215,224,_ZN5neml212VariableBase1dERKS0_
FN:227,239,_ZN5neml212VariableBase1dERKS0_S2_
FN:242,245,_ZN5neml212VariableBase10request_ADERKS0_
FN:248,255,_ZN5neml212VariableBase10request_ADERKSt6vectorIPKS0_SaIS3_EE
FN:258,261,_ZN5neml212VariableBase10request_ADERKS0_S2_
FN:264,274,_ZN5neml212VariableBase10request_ADERKSt6vectorIPKS0_SaIS3_EES7_
FN:277,282,_ZN5neml212VariableBase5clearEv
FN:285,293,_ZN5neml212VariableBase16apply_chain_ruleERKNS_18DependencyResolverINS_5ModelENS_19LabeledAxisAccessorEEE
FN:296,304,_ZN5neml212VariableBase29apply_second_order_chain_ruleERKNS_18DependencyResolverINS_5ModelENS_19LabeledAxisAccessorEEE
FN:307,313,_ZN5neml213assign_or_addERNS_6TensorERKS0_
FN:316,333,_ZNK5neml212VariableBase17total_derivativesERKNS_18DependencyResolverINS_5ModelENS_19LabeledAxisAccessorEEEPS2_RKS3_
FN:336,380,_ZNK5neml212VariableBase24total_second_derivativesERKNS_18DependencyResolverINS_5ModelENS_19LabeledAxisAccessorEEEPS2_RKS3_
FN:37,42,_ZN5neml212VariableBaseC2ENS_19LabeledAxisAccessorEPNS_5ModelEN3c108ArrayRefIlEE
FN:384,387,_ZNK5neml28VariableINS_10QuaternionEE4typeEv
FN:384,387,_ZNK5neml28VariableINS_11MillerIndexEE4typeEv
FN:384,387,_ZNK5neml28VariableINS_2R2EE4typeEv
FN:384,387,_ZNK5neml28VariableINS_2R3EE4typeEv
FN:384,387,_ZNK5neml28VariableINS_2R4EE4typeEv
FN:384,387,_ZNK5neml28VariableINS_2R5EE4typeEv
FN:384,387,_ZNK5neml28VariableINS_2R8EE4typeEv
FN:384,387,_ZNK5neml28VariableINS_3RotEE4typeEv
FN:384,387,_ZNK5neml28VariableINS_3SR2EE4typeEv
FN:384,387,_ZNK5neml28VariableINS_3VecEE4typeEv
FN:384,387,_ZNK5neml28VariableINS_3WR2EE4typeEv
FN:384,387,_ZNK5neml28VariableINS_4SFR3EE4typeEv
FN:384,387,_ZNK5neml28VariableINS_4SFR4EE4typeEv
FN:384,387,_ZNK5neml28VariableINS_4SSR4EE4typeEv
FN:384,387,_ZNK5neml28VariableINS_4SWR4EE4typeEv
FN:384,387,_ZNK5neml28VariableINS_4WFR4EE4typeEv
FN:384,387,_ZNK5neml28VariableINS_4WSR4EE4typeEv
FN:384,387,_ZNK5neml28VariableINS_4WWR4EE4typeEv
FN:384,387,_ZNK5neml28VariableINS_5SFFR4EE4typeEv
FN:384,387,_ZNK5neml28VariableINS_5SSFR5EE4typeEv
FN:384,387,_ZNK5neml28VariableINS_6SSSSR8EE4typeEv
FN:384,387,_ZNK5neml28VariableINS_6ScalarEE4typeEv
FN:391,403,_ZNK5neml28VariableINS_10QuaternionEE5cloneERKNS_19LabeledAxisAccessorEPNS_5ModelE
FN:391,403,_ZNK5neml28VariableINS_11MillerIndexEE5cloneERKNS_19LabeledAxisAccessorEPNS_5ModelE
FN:391,403,_ZNK5neml28VariableINS_2R2EE5cloneERKNS_19LabeledAxisAccessorEPNS_5ModelE
FN:391,403,_ZNK5neml28VariableINS_2R3EE5cloneERKNS_19LabeledAxisAccessorEPNS_5ModelE
FN:391,403,_ZNK5neml28VariableINS_2R4EE5cloneERKNS_19LabeledAxisAccessorEPNS_5ModelE
FN:391,403,_ZNK5neml28VariableINS_2R5EE5cloneERKNS_19LabeledAxisAccessorEPNS_5ModelE
FN:391,403,_ZNK5neml28VariableINS_2R8EE5cloneERKNS_19LabeledAxisAccessorEPNS_5ModelE
FN:391,403,_ZNK5neml28VariableINS_3RotEE5cloneERKNS_19LabeledAxisAccessorEPNS_5ModelE
FN:391,403,_ZNK5neml28VariableINS_3SR2EE5cloneERKNS_19LabeledAxisAccessorEPNS_5ModelE
FN:391,403,_ZNK5neml28VariableINS_3VecEE5cloneERKNS_19LabeledAxisAccessorEPNS_5ModelE
FN:391,403,_ZNK5neml28VariableINS_3WR2EE5cloneERKNS_19LabeledAxisAccessorEPNS_5ModelE
FN:391,403,_ZNK5neml28VariableINS_4SFR3EE5cloneERKNS_19LabeledAxisAccessorEPNS_5ModelE
FN:391,403,_ZNK5neml28VariableINS_4SFR4EE5cloneERKNS_19LabeledAxisAccessorEPNS_5ModelE
FN:391,403,_ZNK5neml28VariableINS_4SSR4EE5cloneERKNS_19LabeledAxisAccessorEPNS_5ModelE
FN:391,403,_ZNK5neml28VariableINS_4SWR4EE5cloneERKNS_19LabeledAxisAccessorEPNS_5ModelE
FN:391,403,_ZNK5neml28VariableINS_4WFR4EE5cloneERKNS_19LabeledAxisAccessorEPNS_5ModelE
FN:391,403,_ZNK5neml28VariableINS_4WSR4EE5cloneERKNS_19LabeledAxisAccessorEPNS_5ModelE
FN:391,403,_ZNK5neml28VariableINS_4WWR4EE5cloneERKNS_19LabeledAxisAccessorEPNS_5ModelE
FN:391,403,_ZNK5neml28VariableINS_5SFFR4EE5cloneERKNS_19LabeledAxisAccessorEPNS_5ModelE
FN:391,403,_ZNK5neml28VariableINS_5SSFR5EE5cloneERKNS_19LabeledAxisAccessorEPNS_5ModelE
FN:391,403,_ZNK5neml28VariableINS_6SSSSR8EE5cloneERKNS_19LabeledAxisAccessorEPNS_5ModelE
FN:391,403,_ZNK5neml28VariableINS_6ScalarEE5cloneERKNS_19LabeledAxisAccessorEPNS_5ModelE
FN:407,431,_ZN5neml28VariableINS_10QuaternionEE3refERKNS_12VariableBaseEb
FN:407,431,_ZN5neml28VariableINS_11MillerIndexEE3refERKNS_12VariableBaseEb
FN:407,431,_ZN5neml28VariableINS_2R2EE3refERKNS_12VariableBaseEb
FN:407,431,_ZN5neml28VariableINS_2R3EE3refERKNS_12VariableBaseEb
FN:407,431,_ZN5neml28VariableINS_2R4EE3refERKNS_12VariableBaseEb
FN:407,431,_ZN5neml28VariableINS_2R5EE3refERKNS_12VariableBaseEb
FN:407,431,_ZN5neml28VariableINS_2R8EE3refERKNS_12VariableBaseEb
FN:407,431,_ZN5neml28VariableINS_3RotEE3refERKNS_12VariableBaseEb
FN:407,431,_ZN5neml28VariableINS_3SR2EE3refERKNS_12VariableBaseEb
FN:407,431,_ZN5neml28VariableINS_3VecEE3refERKNS_12VariableBaseEb
FN:407,431,_ZN5neml28VariableINS_3WR2EE3refERKNS_12VariableBaseEb
FN:407,431,_ZN5neml28VariableINS_4SFR3EE3refERKNS_12VariableBaseEb
FN:407,431,_ZN5neml28VariableINS_4SFR4EE3refERKNS_12VariableBaseEb
FN:407,431,_ZN5neml28VariableINS_4SSR4EE3refERKNS_12VariableBaseEb
FN:407,431,_ZN5neml28VariableINS_4SWR4EE3refERKNS_12VariableBaseEb
FN:407,431,_ZN5neml28VariableINS_4WFR4EE3refERKNS_12VariableBaseEb
FN:407,431,_ZN5neml28VariableINS_4WSR4EE3refERKNS_12VariableBaseEb
FN:407,431,_ZN5neml28VariableINS_4WWR4EE3refERKNS_12VariableBaseEb
FN:407,431,_ZN5neml28VariableINS_5SFFR4EE3refERKNS_12VariableBaseEb
FN:407,431,_ZN5neml28VariableINS_5SSFR5EE3refERKNS_12VariableBaseEb
FN:407,431,_ZN5neml28VariableINS_6SSSSR8EE3refERKNS_12VariableBaseEb
FN:407,431,_ZN5neml28VariableINS_6ScalarEE3refERKNS_12VariableBaseEb
FN:435,457,_ZN5neml28VariableINS_10QuaternionEE4zeroERKN3c1013TensorOptionsE
FN:435,457,_ZN5neml28VariableINS_11MillerIndexEE4zeroERKN3c1013TensorOptionsE
FN:435,457,_ZN5neml28VariableINS_2R2EE4zeroERKN3c1013TensorOptionsE
FN:435,457,_ZN5neml28VariableINS_2R3EE4zeroERKN3c1013TensorOptionsE
FN:435,457,_ZN5neml28VariableINS_2R4EE4zeroERKN3c1013TensorOptionsE
FN:435,457,_ZN5neml28VariableINS_2R5EE4zeroERKN3c1013TensorOptionsE
FN:435,457,_ZN5neml28VariableINS_2R8EE4zeroERKN3c1013TensorOptionsE
FN:435,457,_ZN5neml28VariableINS_3RotEE4zeroERKN3c1013TensorOptionsE
FN:435,457,_ZN5neml28VariableINS_3SR2EE4zeroERKN3c1013TensorOptionsE
FN:435,457,_ZN5neml28VariableINS_3VecEE4zeroERKN3c1013TensorOptionsE
FN:435,457,_ZN5neml28VariableINS_3WR2EE4zeroERKN3c1013TensorOptionsE
FN:435,457,_ZN5neml28VariableINS_4SFR3EE4zeroERKN3c1013TensorOptionsE
FN:435,457,_ZN5neml28VariableINS_4SFR4EE4zeroERKN3c1013TensorOptionsE
FN:435,457,_ZN5neml28VariableINS_4SSR4EE4zeroERKN3c1013TensorOptionsE
FN:435,457,_ZN5neml28VariableINS_4SWR4EE4zeroERKN3c1013TensorOptionsE
FN:435,457,_ZN5neml28VariableINS_4WFR4EE4zeroERKN3c1013TensorOptionsE
FN:435,457,_ZN5neml28VariableINS_4WSR4EE4zeroERKN3c1013TensorOptionsE
FN:435,457,_ZN5neml28VariableINS_4WWR4EE4zeroERKN3c1013TensorOptionsE
FN:435,457,_ZN5neml28VariableINS_5SFFR4EE4zeroERKN3c1013TensorOptionsE
FN:435,457,_ZN5neml28VariableINS_5SSFR5EE4zeroERKN3c1013TensorOptionsE
FN:435,457,_ZN5neml28VariableINS_6SSSSR8EE4zeroERKN3c1013TensorOptionsE
FN:435,457,_ZN5neml28VariableINS_6ScalarEE4zeroERKN3c1013TensorOptionsE
FN:45,49,_ZNK5neml212VariableBase5ownerEv
FN:461,479,_ZN5neml28VariableINS_10QuaternionEE3setERKNS_6TensorE
FN:461,479,_ZN5neml28VariableINS_11MillerIndexEE3setERKNS_6TensorE
FN:461,479,_ZN5neml28VariableINS_2R2EE3setERKNS_6TensorE
FN:461,479,_ZN5neml28VariableINS_2R3EE3setERKNS_6TensorE
FN:461,479,_ZN5neml28VariableINS_2R4EE3setERKNS_6TensorE
FN:461,479,_ZN5neml28VariableINS_2R5EE3setERKNS_6TensorE
FN:461,479,_ZN5neml28VariableINS_2R8EE3setERKNS_6TensorE
FN:461,479,_ZN5neml28VariableINS_3RotEE3setERKNS_6TensorE
FN:461,479,_ZN5neml28VariableINS_3SR2EE3setERKNS_6TensorE
FN:461,479,_ZN5neml28VariableINS_3VecEE3setERKNS_6TensorE
FN:461,479,_ZN5neml28VariableINS_3WR2EE3setERKNS_6TensorE
FN:461,479,_ZN5neml28VariableINS_4SFR3EE3setERKNS_6TensorE
FN:461,479,_ZN5neml28VariableINS_4SFR4EE3setERKNS_6TensorE
FN:461,479,_ZN5neml28VariableINS_4SSR4EE3setERKNS_6TensorE
FN:461,479,_ZN5neml28VariableINS_4SWR4EE3setERKNS_6TensorE
FN:461,479,_ZN5neml28VariableINS_4WFR4EE3setERKNS_6TensorE
FN:461,479,_ZN5neml28VariableINS_4WSR4EE3setERKNS_6TensorE
FN:461,479,_ZN5neml28VariableINS_4WWR4EE3setERKNS_6TensorE
FN:461,479,_ZN5neml28VariableINS_5SFFR4EE3setERKNS_6TensorE
FN:461,479,_ZN5neml28VariableINS_5SSFR5EE3setERKNS_6TensorE
FN:461,479,_ZN5neml28VariableINS_6SSSSR8EE3setERKNS_6TensorE
FN:461,479,_ZN5neml28VariableINS_6ScalarEE3setERKNS_6TensorE
FN:483,505,_ZN5neml28VariableINS_10QuaternionEE3setERKN2at6TensorEb
FN:483,505,_ZN5neml28VariableINS_11MillerIndexEE3setERKN2at6TensorEb
FN:483,505,_ZN5neml28VariableINS_2R2EE3setERKN2at6TensorEb
FN:483,505,_ZN5neml28VariableINS_2R3EE3setERKN2at6TensorEb
FN:483,505,_ZN5neml28VariableINS_2R4EE3setERKN2at6TensorEb
FN:483,505,_ZN5neml28VariableINS_2R5EE3setERKN2at6TensorEb
FN:483,505,_ZN5neml28VariableINS_2R8EE3setERKN2at6TensorEb
FN:483,505,_ZN5neml28VariableINS_3RotEE3setERKN2at6TensorEb
FN:483,505,_ZN5neml28VariableINS_3SR2EE3setERKN2at6TensorEb
FN:483,505,_ZN5neml28VariableINS_3VecEE3setERKN2at6TensorEb
FN:483,505,_ZN5neml28VariableINS_3WR2EE3setERKN2at6TensorEb
FN:483,505,_ZN5neml28VariableINS_4SFR3EE3setERKN2at6TensorEb
FN:483,505,_ZN5neml28VariableINS_4SFR4EE3setERKN2at6TensorEb
FN:483,505,_ZN5neml28VariableINS_4SSR4EE3setERKN2at6TensorEb
FN:483,505,_ZN5neml28VariableINS_4SWR4EE3setERKN2at6TensorEb
FN:483,505,_ZN5neml28VariableINS_4WFR4EE3setERKN2at6TensorEb
FN:483,505,_ZN5neml28VariableINS_4WSR4EE3setERKN2at6TensorEb
FN:483,505,_ZN5neml28VariableINS_4WWR4EE3setERKN2at6TensorEb
FN:483,505,_ZN5neml28VariableINS_5SFFR4EE3setERKN2at6TensorEb
FN:483,505,_ZN5neml28VariableINS_5SSFR5EE3setERKN2at6TensorEb
FN:483,505,_ZN5neml28VariableINS_6SSSSR8EE3setERKN2at6TensorEb
FN:483,505,_ZN5neml28VariableINS_6ScalarEE3setERKN2at6TensorEb
FN:509,512,_ZNK5neml28VariableINS_10QuaternionEE3getEv
FN:509,512,_ZNK5neml28VariableINS_11MillerIndexEE3getEv
FN:509,512,_ZNK5neml28VariableINS_2R2EE3getEv
FN:509,512,_ZNK5neml28VariableINS_2R3EE3getEv
FN:509,512,_ZNK5neml28VariableINS_2R4EE3getEv
FN:509,512,_ZNK5neml28VariableINS_2R5EE3getEv
FN:509,512,_ZNK5neml28VariableINS_2R8EE3getEv
FN:509,512,_ZNK5neml28VariableINS_3RotEE3getEv
FN:509,512,_ZNK5neml28VariableINS_3SR2EE3getEv
FN:509,512,_ZNK5neml28VariableINS_3VecEE3getEv
FN:509,512,_ZNK5neml28VariableINS_3WR2EE3getEv
FN:509,512,_ZNK5neml28VariableINS_4SFR3EE3getEv
FN:509,512,_ZNK5neml28VariableINS_4SFR4EE3getEv
FN:509,512,_ZNK5neml28VariableINS_4SSR4EE3getEv
FN:509,512,_ZNK5neml28VariableINS_4SWR4EE3getEv
FN:509,512,_ZNK5neml28VariableINS_4WFR4EE3getEv
FN:509,512,_ZNK5neml28VariableINS_4WSR4EE3getEv
FN:509,512,_ZNK5neml28VariableINS_4WWR4EE3getEv
FN:509,512,_ZNK5neml28VariableINS_5SFFR4EE3getEv
FN:509,512,_ZNK5neml28VariableINS_5SSFR5EE3getEv
FN:509,512,_ZNK5neml28VariableINS_6SSSSR8EE3getEv
FN:509,512,_ZNK5neml28VariableINS_6ScalarEE3getEv
FN:516,526,_ZNK5neml28VariableINS_10QuaternionEE6tensorEv
FN:516,526,_ZNK5neml28VariableINS_11MillerIndexEE6tensorEv
FN:516,526,_ZNK5neml28VariableINS_2R2EE6tensorEv
FN:516,526,_ZNK5neml28VariableINS_2R3EE6tensorEv
FN:516,526,_ZNK5neml28VariableINS_2R4EE6tensorEv
FN:516,526,_ZNK5neml28VariableINS_2R5EE6tensorEv
FN:516,526,_ZNK5neml28VariableINS_2R8EE6tensorEv
FN:516,526,_ZNK5neml28VariableINS_3RotEE6tensorEv
FN:516,526,_ZNK5neml28VariableINS_3SR2EE6tensorEv
FN:516,526,_ZNK5neml28VariableINS_3VecEE6tensorEv
FN:516,526,_ZNK5neml28VariableINS_3WR2EE6tensorEv
FN:516,526,_ZNK5neml28VariableINS_4SFR3EE6tensorEv
FN:516,526,_ZNK5neml28VariableINS_4SFR4EE6tensorEv
FN:516,526,_ZNK5neml28VariableINS_4SSR4EE6tensorEv
FN:516,526,_ZNK5neml28VariableINS_4SWR4EE6tensorEv
FN:516,526,_ZNK5neml28VariableINS_4WFR4EE6tensorEv
FN:516,526,_ZNK5neml28VariableINS_4WSR4EE6tensorEv
FN:516,526,_ZNK5neml28VariableINS_4WWR4EE6tensorEv
FN:516,526,_ZNK5neml28VariableINS_5SFFR4EE6tensorEv
FN:516,526,_ZNK5neml28VariableINS_5SSFR5EE6tensorEv
FN:516,526,_ZNK5neml28VariableINS_6SSSSR8EE6tensorEv
FN:516,526,_ZNK5neml28VariableINS_6ScalarEE6tensorEv
FN:52,56,_ZN5neml212VariableBase5ownerEv
FN:530,537,_ZN5neml28VariableINS_10QuaternionEE14requires_grad_Eb
FN:530,537,_ZN5neml28VariableINS_11MillerIndexEE14requires_grad_Eb
FN:530,537,_ZN5neml28VariableINS_2R2EE14requires_grad_Eb
FN:530,537,_ZN5neml28VariableINS_2R3EE14requires_grad_Eb
FN:530,537,_ZN5neml28VariableINS_2R4EE14requires_grad_Eb
FN:530,537,_ZN5neml28VariableINS_2R5EE14requires_grad_Eb
FN:530,537,_ZN5neml28VariableINS_2R8EE14requires_grad_Eb
FN:530,537,_ZN5neml28VariableINS_3RotEE14requires_grad_Eb
FN:530,537,_ZN5neml28VariableINS_3SR2EE14requires_grad_Eb
FN:530,537,_ZN5neml28VariableINS_3VecEE14requires_grad_Eb
FN:530,537,_ZN5neml28VariableINS_3WR2EE14requires_grad_Eb
FN:530,537,_ZN5neml28VariableINS_4SFR3EE14requires_grad_Eb
FN:530,537,_ZN5neml28VariableINS_4SFR4EE14requires_grad_Eb
FN:530,537,_ZN5neml28VariableINS_4SSR4EE14requires_grad_Eb
FN:530,537,_ZN5neml28VariableINS_4SWR4EE14requires_grad_Eb
FN:530,537,_ZN5neml28VariableINS_4WFR4EE14requires_grad_Eb
FN:530,537,_ZN5neml28VariableINS_4WSR4EE14requires_grad_Eb
FN:530,537,_ZN5neml28VariableINS_4WWR4EE14requires_grad_Eb
FN:530,537,_ZN5neml28VariableINS_5SFFR4EE14requires_grad_Eb
FN:530,537,_ZN5neml28VariableINS_5SSFR5EE14requires_grad_Eb
FN:530,537,_ZN5neml28VariableINS_6SSSSR8EE14requires_grad_Eb
FN:530,537,_ZN5neml28VariableINS_6ScalarEE14requires_grad_Eb
FN:541,558,_ZN5neml28VariableINS_10QuaternionEEaSERKNS_6TensorE
FN:541,558,_ZN5neml28VariableINS_11MillerIndexEEaSERKNS_6TensorE
FN:541,558,_ZN5neml28VariableINS_2R2EEaSERKNS_6TensorE
FN:541,558,_ZN5neml28VariableINS_2R3EEaSERKNS_6TensorE
FN:541,558,_ZN5neml28VariableINS_2R4EEaSERKNS_6TensorE
FN:541,558,_ZN5neml28VariableINS_2R5EEaSERKNS_6TensorE
FN:541,558,_ZN5neml28VariableINS_2R8EEaSERKNS_6TensorE
FN:541,558,_ZN5neml28VariableINS_3RotEEaSERKNS_6TensorE
FN:541,558,_ZN5neml28VariableINS_3SR2EEaSERKNS_6TensorE
FN:541,558,_ZN5neml28VariableINS_3VecEEaSERKNS_6TensorE
FN:541,558,_ZN5neml28VariableINS_3WR2EEaSERKNS_6TensorE
FN:541,558,_ZN5neml28VariableINS_4SFR3EEaSERKNS_6TensorE
FN:541,558,_ZN5neml28VariableINS_4SFR4EEaSERKNS_6TensorE
FN:541,558,_ZN5neml28VariableINS_4SSR4EEaSERKNS_6TensorE
FN:541,558,_ZN5neml28VariableINS_4SWR4EEaSERKNS_6TensorE
FN:541,558,_ZN5neml28VariableINS_4WFR4EEaSERKNS_6TensorE
FN:541,558,_ZN5neml28VariableINS_4WSR4EEaSERKNS_6TensorE
FN:541,558,_ZN5neml28VariableINS_4WWR4EEaSERKNS_6TensorE
FN:541,558,_ZN5neml28VariableINS_5SFFR4EEaSERKNS_6TensorE
FN:541,558,_ZN5neml28VariableINS_5SSFR5EEaSERKNS_6TensorE
FN:541,558,_ZN5neml28VariableINS_6SSSSR8EEaSERKNS_6TensorE
FN:541,558,_ZN5neml28VariableINS_6ScalarEEaSERKNS_6TensorE
FN:562,582,_ZN5neml28VariableINS_10QuaternionEE5clearEv
FN:562,582,_ZN5neml28VariableINS_11MillerIndexEE5clearEv
FN:562,582,_ZN5neml28VariableINS_2R2EE5clearEv
FN:562,582,_ZN5neml28VariableINS_2R3EE5clearEv
FN:562,582,_ZN5neml28VariableINS_2R4EE5clearEv
FN:562,582,_ZN5neml28VariableINS_2R5EE5clearEv
FN:562,582,_ZN5neml28VariableINS_2R8EE5clearEv
FN:562,582,_ZN5neml28VariableINS_3RotEE5clearEv
FN:562,582,_ZN5neml28VariableINS_3SR2EE5clearEv
FN:562,582,_ZN5neml28VariableINS_3VecEE5clearEv
FN:562,582,_ZN5neml28VariableINS_3WR2EE5clearEv
FN:562,582,_ZN5neml28VariableINS_4SFR3EE5clearEv
FN:562,582,_ZN5neml28VariableINS_4SFR4EE5clearEv
FN:562,582,_ZN5neml28VariableINS_4SSR4EE5clearEv
FN:562,582,_ZN5neml28VariableINS_4SWR4EE5clearEv
FN:562,582,_ZN5neml28VariableINS_4WFR4EE5clearEv
FN:562,582,_ZN5neml28VariableINS_4WSR4EE5clearEv
FN:562,582,_ZN5neml28VariableINS_4WWR4EE5clearEv
FN:562,582,_ZN5neml28VariableINS_5SFFR4EE5clearEv
FN:562,582,_ZN5neml28VariableINS_5SSFR5EE5clearEv
FN:562,582,_ZN5neml28VariableINS_6SSSSR8EE5clearEv
FN:562,582,_ZN5neml28VariableINS_6ScalarEE5clearEv
FN:588,592,_ZN5neml210DerivativeaSERKNS_6TensorE
FN:59,62,_ZNK5neml212VariableBase8is_stateEv
FN:65,68,_ZNK5neml212VariableBase12is_old_stateEv
FN:71,74,_ZNK5neml212VariableBase8is_forceEv
FN:77,80,_ZNK5neml212VariableBase12is_old_forceEv
FN:83,86,_ZNK5neml212VariableBase11is_residualEv
FN:89,92,_ZNK5neml212VariableBase12is_parameterEv
FN:95,98,_ZNK5neml212VariableBase18is_solve_dependentEv
FNDA:1115,_ZNK5neml212VariableBase12is_dependentEv
FNDA:284,_ZNK5neml212VariableBase7optionsEv
FNDA:0,_ZNK5neml212VariableBase11scalar_typeEv
FNDA:0,_ZNK5neml212VariableBase6deviceEv
FNDA:0,_ZNK5neml212VariableBase3dimEv
FNDA:0,_ZNK5neml212VariableBase5sizesEv
FNDA:0,_ZNK5neml212VariableBase4sizeEl
FNDA:0,_ZNK5neml212VariableBase7batchedEv
FNDA:34484,_ZNK5neml212VariableBase9batch_dimEv
FNDA:617100,_ZNK5neml212VariableBase8list_dimEv
FNDA:0,_ZNK5neml212VariableBase8base_dimEv
FNDA:1,_ZNK5neml212VariableBase11batch_sizesEv
FNDA:663727,_ZNK5neml212VariableBase10list_sizesEv
FNDA:0,_ZNK5neml212VariableBase10batch_sizeEl
FNDA:0,_ZNK5neml212VariableBase9base_sizeEl
FNDA:1,_ZNK5neml212VariableBase9list_sizeEl
FNDA:0,_ZNK5neml212VariableBase12base_storageEv
FNDA:2225,_ZNK5neml212VariableBase16assembly_storageEv
FNDA:0,_ZNK5neml212VariableBase13requires_gradEv
FNDA:702,_ZN5neml212VariableBase1dERKS0_
FNDA:116,_ZN5neml212VariableBase1dERKS0_S2_
FNDA:0,_ZN5neml212VariableBase10request_ADERKS0_
FNDA:4,_ZN5neml212VariableBase10request_ADERKSt6vectorIPKS0_SaIS3_EE
FNDA:0,_ZN5neml212VariableBase10request_ADERKS0_S2_
FNDA:3,_ZN5neml212VariableBase10request_ADERKSt6vectorIPKS0_SaIS3_EES7_
FNDA:16524,_ZN5neml212VariableBase5clearEv
FNDA:72,_ZN5neml212VariableBase16apply_chain_ruleERKNS_18DependencyResolverINS_5ModelENS_19LabeledAxisAccessorEEE
FNDA:16,_ZN5neml212VariableBase29apply_second_order_chain_ruleERKNS_18DependencyResolverINS_5ModelENS_19LabeledAxisAccessorEEE
FNDA:967,_ZN5neml213assign_or_addERNS_6TensorERKS0_
FNDA:390,_ZNK5neml212VariableBase17total_derivativesERKNS_18DependencyResolverINS_5ModelENS_19LabeledAxisAccessorEEEPS2_RKS3_
FNDA:48,_ZNK5neml212VariableBase24total_second_derivativesERKNS_18DependencyResolverINS_5ModelENS_19LabeledAxisAccessorEEEPS2_RKS3_
FNDA:1511,_ZN5neml212VariableBaseC2ENS_19LabeledAxisAccessorEPNS_5ModelEN3c108ArrayRefIlEE
FNDA:0,_ZNK5neml28VariableINS_10QuaternionEE4typeEv
FNDA:0,_ZNK5neml28VariableINS_11MillerIndexEE4typeEv
FNDA:16,_ZNK5neml28VariableINS_2R2EE4typeEv
FNDA:0,_ZNK5neml28VariableINS_2R3EE4typeEv
FNDA:0,_ZNK5neml28VariableINS_2R4EE4typeEv
FNDA:0,_ZNK5neml28VariableINS_2R5EE4typeEv
FNDA:0,_ZNK5neml28VariableINS_2R8EE4typeEv
FNDA:32,_ZNK5neml28VariableINS_3RotEE4typeEv
FNDA:464,_ZNK5neml28VariableINS_3SR2EE4typeEv
FNDA:0,_ZNK5neml28VariableINS_3VecEE4typeEv
FNDA:14,_ZNK5neml28VariableINS_3WR2EE4typeEv
FNDA:0,_ZNK5neml28VariableINS_4SFR3EE4typeEv
FNDA:0,_ZNK5neml28VariableINS_4SFR4EE4typeEv
FNDA:16,_ZNK5neml28VariableINS_4SSR4EE4typeEv
FNDA:0,_ZNK5neml28VariableINS_4SWR4EE4typeEv
FNDA:0,_ZNK5neml28VariableINS_4WFR4EE4typeEv
FNDA:0,_ZNK5neml28VariableINS_4WSR4EE4typeEv
FNDA:0,_ZNK5neml28VariableINS_4WWR4EE4typeEv
FNDA:0,_ZNK5neml28VariableINS_5SFFR4EE4typeEv
FNDA:0,_ZNK5neml28VariableINS_5SSFR5EE4typeEv
FNDA:0,_ZNK5neml28VariableINS_6SSSSR8EE4typeEv
FNDA:912,_ZNK5neml28VariableINS_6ScalarEE4typeEv
FNDA:0,_ZNK5neml28VariableINS_10QuaternionEE5cloneERKNS_19LabeledAxisAccessorEPNS_5ModelE
FNDA:0,_ZNK5neml28VariableINS_11MillerIndexEE5cloneERKNS_19LabeledAxisAccessorEPNS_5ModelE
FNDA:1,_ZNK5neml28VariableINS_2R2EE5cloneERKNS_19LabeledAxisAccessorEPNS_5ModelE
FNDA:0,_ZNK5neml28VariableINS_2R3EE5cloneERKNS_19LabeledAxisAccessorEPNS_5ModelE
FNDA:0,_ZNK5neml28VariableINS_2R4EE5cloneERKNS_19LabeledAxisAccessorEPNS_5ModelE
FNDA:0,_ZNK5neml28VariableINS_2R5EE5cloneERKNS_19LabeledAxisAccessorEPNS_5ModelE
FNDA:0,_ZNK5neml28VariableINS_2R8EE5cloneERKNS_19LabeledAxisAccessorEPNS_5ModelE
FNDA:15,_ZNK5neml28VariableINS_3RotEE5cloneERKNS_19LabeledAxisAccessorEPNS_5ModelE
FNDA:164,_ZNK5neml28VariableINS_3SR2EE5cloneERKNS_19LabeledAxisAccessorEPNS_5ModelE
FNDA:0,_ZNK5neml28VariableINS_3VecEE5cloneERKNS_19LabeledAxisAccessorEPNS_5ModelE
FNDA:4,_ZNK5neml28VariableINS_3WR2EE5cloneERKNS_19LabeledAxisAccessorEPNS_5ModelE
FNDA:0,_ZNK5neml28VariableINS_4SFR3EE5cloneERKNS_19LabeledAxisAccessorEPNS_5ModelE
FNDA:0,_ZNK5neml28VariableINS_4SFR4EE5cloneERKNS_19LabeledAxisAccessorEPNS_5ModelE
FNDA:6,_ZNK5neml28VariableINS_4SSR4EE5cloneERKNS_19LabeledAxisAccessorEPNS_5ModelE
FNDA:0,_ZNK5neml28VariableINS_4SWR4EE5cloneERKNS_19LabeledAxisAccessorEPNS_5ModelE
FNDA:0,_ZNK5neml28VariableINS_4WFR4EE5cloneERKNS_19LabeledAxisAccessorEPNS_5ModelE
FNDA:0,_ZNK5neml28VariableINS_4WSR4EE5cloneERKNS_19LabeledAxisAccessorEPNS_5ModelE
FNDA:0,_ZNK5neml28VariableINS_4WWR4EE5cloneERKNS_19LabeledAxisAccessorEPNS_5ModelE
FNDA:0,_ZNK5neml28VariableINS_5SFFR4EE5cloneERKNS_19LabeledAxisAccessorEPNS_5ModelE
FNDA:0,_ZNK5neml28VariableINS_5SSFR5EE5cloneERKNS_19LabeledAxisAccessorEPNS_5ModelE
FNDA:0,_ZNK5neml28VariableINS_6SSSSR8EE5cloneERKNS_19LabeledAxisAccessorEPNS_5ModelE
FNDA:283,_ZNK5neml28VariableINS_6ScalarEE5cloneERKNS_19LabeledAxisAccessorEPNS_5ModelE
FNDA:0,_ZN5neml28VariableINS_10QuaternionEE3refERKNS_12VariableBaseEb
FNDA:0,_ZN5neml28VariableINS_11MillerIndexEE3refERKNS_12VariableBaseEb
FNDA:8,_ZN5neml28VariableINS_2R2EE3refERKNS_12VariableBaseEb
FNDA:0,_ZN5neml28VariableINS_2R3EE3refERKNS_12VariableBaseEb
FNDA:0,_ZN5neml28VariableINS_2R4EE3refERKNS_12VariableBaseEb
FNDA:0,_ZN5neml28VariableINS_2R5EE3refERKNS_12VariableBaseEb
FNDA:0,_ZN5neml28VariableINS_2R8EE3refERKNS_12VariableBaseEb
FNDA:16,_ZN5neml28VariableINS_3RotEE3refERKNS_12VariableBaseEb
FNDA:230,_ZN5neml28VariableINS_3SR2EE3refERKNS_12VariableBaseEb
FNDA:0,_ZN5neml28VariableINS_3VecEE3refERKNS_12VariableBaseEb
FNDA:7,_ZN5neml28VariableINS_3WR2EE3refERKNS_12VariableBaseEb
FNDA:0,_ZN5neml28VariableINS_4SFR3EE3refERKNS_12VariableBaseEb
FNDA:0,_ZN5neml28VariableINS_4SFR4EE3refERKNS_12VariableBaseEb
FNDA:8,_ZN5neml28VariableINS_4SSR4EE3refERKNS_12VariableBaseEb
FNDA:0,_ZN5neml28VariableINS_4SWR4EE3refERKNS_12VariableBaseEb
FNDA:0,_ZN5neml28VariableINS_4WFR4EE3refERKNS_12VariableBaseEb
FNDA:0,_ZN5neml28VariableINS_4WSR4EE3refERKNS_12VariableBaseEb
FNDA:0,_ZN5neml28VariableINS_4WWR4EE3refERKNS_12VariableBaseEb
FNDA:0,_ZN5neml28VariableINS_5SFFR4EE3refERKNS_12VariableBaseEb
FNDA:0,_ZN5neml28VariableINS_5SSFR5EE3refERKNS_12VariableBaseEb
FNDA:0,_ZN5neml28VariableINS_6SSSSR8EE3refERKNS_12VariableBaseEb
FNDA:448,_ZN5neml28VariableINS_6ScalarEE3refERKNS_12VariableBaseEb
FNDA:0,_ZN5neml28VariableINS_10QuaternionEE4zeroERKN3c1013TensorOptionsE
FNDA:0,_ZN5neml28VariableINS_11MillerIndexEE4zeroERKN3c1013TensorOptionsE
FNDA:492,_ZN5neml28VariableINS_2R2EE4zeroERKN3c1013TensorOptionsE
FNDA:0,_ZN5neml28VariableINS_2R3EE4zeroERKN3c1013TensorOptionsE
FNDA:0,_ZN5neml28VariableINS_2R4EE4zeroERKN3c1013TensorOptionsE
FNDA:0,_ZN5neml28VariableINS_2R5EE4zeroERKN3c1013TensorOptionsE
FNDA:0,_ZN5neml28VariableINS_2R8EE4zeroERKN3c1013TensorOptionsE
FNDA:457,_ZN5neml28VariableINS_3RotEE4zeroERKN3c1013TensorOptionsE
FNDA:4391,_ZN5neml28VariableINS_3SR2EE4zeroERKN3c1013TensorOptionsE
FNDA:22,_ZN5neml28VariableINS_3VecEE4zeroERKN3c1013TensorOptionsE
FNDA:208,_ZN5neml28VariableINS_3WR2EE4zeroERKN3c1013TensorOptionsE
FNDA:0,_ZN5neml28VariableINS_4SFR3EE4zeroERKN3c1013TensorOptionsE
FNDA:0,_ZN5neml28VariableINS_4SFR4EE4zeroERKN3c1013TensorOptionsE
FNDA:236,_ZN5neml28VariableINS_4SSR4EE4zeroERKN3c1013TensorOptionsE
FNDA:0,_ZN5neml28VariableINS_4SWR4EE4zeroERKN3c1013TensorOptionsE
FNDA:0,_ZN5neml28VariableINS_4WFR4EE4zeroERKN3c1013TensorOptionsE
FNDA:0,_ZN5neml28VariableINS_4WSR4EE4zeroERKN3c1013TensorOptionsE
FNDA:0,_ZN5neml28VariableINS_4WWR4EE4zeroERKN3c1013TensorOptionsE
FNDA:0,_ZN5neml28VariableINS_5SFFR4EE4zeroERKN3c1013TensorOptionsE
FNDA:0,_ZN5neml28VariableINS_5SSFR5EE4zeroERKN3c1013TensorOptionsE
FNDA:0,_ZN5neml28VariableINS_6SSSSR8EE4zeroERKN3c1013TensorOptionsE
FNDA:10718,_ZN5neml28VariableINS_6ScalarEE4zeroERKN3c1013TensorOptionsE
FNDA:10430,_ZNK5neml212VariableBase5ownerEv
FNDA:0,_ZN5neml28VariableINS_10QuaternionEE3setERKNS_6TensorE
FNDA:0,_ZN5neml28VariableINS_11MillerIndexEE3setERKNS_6TensorE
FNDA:262,_ZN5neml28VariableINS_2R2EE3setERKNS_6TensorE
FNDA:0,_ZN5neml28VariableINS_2R3EE3setERKNS_6TensorE
FNDA:0,_ZN5neml28VariableINS_2R4EE3setERKNS_6TensorE
FNDA:0,_ZN5neml28VariableINS_2R5EE3setERKNS_6TensorE
FNDA:0,_ZN5neml28VariableINS_2R8EE3setERKNS_6TensorE
FNDA:861,_ZN5neml28VariableINS_3RotEE3setERKNS_6TensorE
FNDA:5761,_ZN5neml28VariableINS_3SR2EE3setERKNS_6TensorE
FNDA:11,_ZN5neml28VariableINS_3VecEE3setERKNS_6TensorE
FNDA:121,_ZN5neml28VariableINS_3WR2EE3setERKNS_6TensorE
FNDA:0,_ZN5neml28VariableINS_4SFR3EE3setERKNS_6TensorE
FNDA:0,_ZN5neml28VariableINS_4SFR4EE3setERKNS_6TensorE
FNDA:102,_ZN5neml28VariableINS_4SSR4EE3setERKNS_6TensorE
FNDA:0,_ZN5neml28VariableINS_4SWR4EE3setERKNS_6TensorE
FNDA:0,_ZN5neml28VariableINS_4WFR4EE3setERKNS_6TensorE
FNDA:0,_ZN5neml28VariableINS_4WSR4EE3setERKNS_6TensorE
FNDA:0,_ZN5neml28VariableINS_4WWR4EE3setERKNS_6TensorE
FNDA:0,_ZN5neml28VariableINS_5SFFR4EE3setERKNS_6TensorE
FNDA:0,_ZN5neml28VariableINS_5SSFR5EE3setERKNS_6TensorE
FNDA:0,_ZN5neml28VariableINS_6SSSSR8EE3setERKNS_6TensorE
FNDA:11214,_ZN5neml28VariableINS_6ScalarEE3setERKNS_6TensorE
FNDA:0,_ZN5neml28VariableINS_10QuaternionEE3setERKN2at6TensorEb
FNDA:0,_ZN5neml28VariableINS_11MillerIndexEE3setERKN2at6TensorEb
FNDA:177,_ZN5neml28VariableINS_2R2EE3setERKN2at6TensorEb
FNDA:0,_ZN5neml28VariableINS_2R3EE3setERKN2at6TensorEb
FNDA:0,_ZN5neml28VariableINS_2R4EE3setERKN2at6TensorEb
FNDA:0,_ZN5neml28VariableINS_2R5EE3setERKN2at6TensorEb
FNDA:0,_ZN5neml28VariableINS_2R8EE3setERKN2at6TensorEb
FNDA:526,_ZN5neml28VariableINS_3RotEE3setERKN2at6TensorEb
FNDA:5076,_ZN5neml28VariableINS_3SR2EE3setERKN2at6TensorEb
FNDA:12,_ZN5neml28VariableINS_3VecEE3setERKN2at6TensorEb
FNDA:88,_ZN5neml28VariableINS_3WR2EE3setERKN2at6TensorEb
FNDA:0,_ZN5neml28VariableINS_4SFR3EE3setERKN2at6TensorEb
FNDA:0,_ZN5neml28VariableINS_4SFR4EE3setERKN2at6TensorEb
FNDA:60,_ZN5neml28VariableINS_4SSR4EE3setERKN2at6TensorEb
FNDA:0,_ZN5neml28VariableINS_4SWR4EE3setERKN2at6TensorEb
FNDA:0,_ZN5neml28VariableINS_4WFR4EE3setERKN2at6TensorEb
FNDA:0,_ZN5neml28VariableINS_4WSR4EE3setERKN2at6TensorEb
FNDA:0,_ZN5neml28VariableINS_4WWR4EE3setERKN2at6TensorEb
FNDA:0,_ZN5neml28VariableINS_5SFFR4EE3setERKN2at6TensorEb
FNDA:0,_ZN5neml28VariableINS_5SSFR5EE3setERKN2at6TensorEb
FNDA:0,_ZN5neml28VariableINS_6SSSSR8EE3setERKN2at6TensorEb
FNDA:7294,_ZN5neml28VariableINS_6ScalarEE3setERKN2at6TensorEb
FNDA:0,_ZNK5neml28VariableINS_10QuaternionEE3getEv
FNDA:0,_ZNK5neml28VariableINS_11MillerIndexEE3getEv
FNDA:0,_ZNK5neml28VariableINS_2R2EE3getEv
FNDA:0,_ZNK5neml28VariableINS_2R3EE3getEv
FNDA:0,_ZNK5neml28VariableINS_2R4EE3getEv
FNDA:0,_ZNK5neml28VariableINS_2R5EE3getEv
FNDA:0,_ZNK5neml28VariableINS_2R8EE3getEv
FNDA:0,_ZNK5neml28VariableINS_3RotEE3getEv
FNDA:0,_ZNK5neml28VariableINS_3SR2EE3getEv
FNDA:0,_ZNK5neml28VariableINS_3VecEE3getEv
FNDA:0,_ZNK5neml28VariableINS_3WR2EE3getEv
FNDA:0,_ZNK5neml28VariableINS_4SFR3EE3getEv
FNDA:0,_ZNK5neml28VariableINS_4SFR4EE3getEv
FNDA:0,_ZNK5neml28VariableINS_4SSR4EE3getEv
FNDA:0,_ZNK5neml28VariableINS_4SWR4EE3getEv
FNDA:0,_ZNK5neml28VariableINS_4WFR4EE3getEv
FNDA:0,_ZNK5neml28VariableINS_4WSR4EE3getEv
FNDA:0,_ZNK5neml28VariableINS_4WWR4EE3getEv
FNDA:0,_ZNK5neml28VariableINS_5SFFR4EE3getEv
FNDA:0,_ZNK5neml28VariableINS_5SSFR5EE3getEv
FNDA:0,_ZNK5neml28VariableINS_6SSSSR8EE3getEv
FNDA:0,_ZNK5neml28VariableINS_6ScalarEE3getEv
FNDA:0,_ZNK5neml28VariableINS_10QuaternionEE6tensorEv
FNDA:0,_ZNK5neml28VariableINS_11MillerIndexEE6tensorEv
FNDA:25637,_ZNK5neml28VariableINS_2R2EE6tensorEv
FNDA:0,_ZNK5neml28VariableINS_2R3EE6tensorEv
FNDA:0,_ZNK5neml28VariableINS_2R4EE6tensorEv
FNDA:0,_ZNK5neml28VariableINS_2R5EE6tensorEv
FNDA:0,_ZNK5neml28VariableINS_2R8EE6tensorEv
FNDA:48412,_ZNK5neml28VariableINS_3RotEE6tensorEv
FNDA:384372,_ZNK5neml28VariableINS_3SR2EE6tensorEv
FNDA:88,_ZNK5neml28VariableINS_3VecEE6tensorEv
FNDA:30490,_ZNK5neml28VariableINS_3WR2EE6tensorEv
FNDA:0,_ZNK5neml28VariableINS_4SFR3EE6tensorEv
FNDA:0,_ZNK5neml28VariableINS_4SFR4EE6tensorEv
FNDA:17186,_ZNK5neml28VariableINS_4SSR4EE6tensorEv
FNDA:0,_ZNK5neml28VariableINS_4SWR4EE6tensorEv
FNDA:0,_ZNK5neml28VariableINS_4WFR4EE6tensorEv
FNDA:0,_ZNK5neml28VariableINS_4WSR4EE6tensorEv
FNDA:0,_ZNK5neml28VariableINS_4WWR4EE6tensorEv
FNDA:0,_ZNK5neml28VariableINS_5SFFR4EE6tensorEv
FNDA:0,_ZNK5neml28VariableINS_5SSFR5EE6tensorEv
FNDA:0,_ZNK5neml28VariableINS_6SSSSR8EE6tensorEv
FNDA:521656,_ZNK5neml28VariableINS_6ScalarEE6tensorEv
FNDA:10019,_ZN5neml212VariableBase5ownerEv
FNDA:0,_ZN5neml28VariableINS_10QuaternionEE14requires_grad_Eb
FNDA:0,_ZN5neml28VariableINS_11MillerIndexEE14requires_grad_Eb
FNDA:0,_ZN5neml28VariableINS_2R2EE14requires_grad_Eb
FNDA:0,_ZN5neml28VariableINS_2R3EE14requires_grad_Eb
FNDA:0,_ZN5neml28VariableINS_2R4EE14requires_grad_Eb
FNDA:0,_ZN5neml28VariableINS_2R5EE14requires_grad_Eb
FNDA:0,_ZN5neml28VariableINS_2R8EE14requires_grad_Eb
FNDA:0,_ZN5neml28VariableINS_3RotEE14requires_grad_Eb
FNDA:1,_ZN5neml28VariableINS_3SR2EE14requires_grad_Eb
FNDA:0,_ZN5neml28VariableINS_3VecEE14requires_grad_Eb
FNDA:0,_ZN5neml28VariableINS_3WR2EE14requires_grad_Eb
FNDA:0,_ZN5neml28VariableINS_4SFR3EE14requires_grad_Eb
FNDA:0,_ZN5neml28VariableINS_4SFR4EE14requires_grad_Eb
FNDA:0,_ZN5neml28VariableINS_4SSR4EE14requires_grad_Eb
FNDA:0,_ZN5neml28VariableINS_4SWR4EE14requires_grad_Eb
FNDA:0,_ZN5neml28VariableINS_4WFR4EE14requires_grad_Eb
FNDA:0,_ZN5neml28VariableINS_4WSR4EE14requires_grad_Eb
FNDA:0,_ZN5neml28VariableINS_4WWR4EE14requires_grad_Eb
FNDA:0,_ZN5neml28VariableINS_5SFFR4EE14requires_grad_Eb
FNDA:0,_ZN5neml28VariableINS_5SSFR5EE14requires_grad_Eb
FNDA:0,_ZN5neml28VariableINS_6SSSSR8EE14requires_grad_Eb
FNDA:5,_ZN5neml28VariableINS_6ScalarEE14requires_grad_Eb
FNDA:0,_ZN5neml28VariableINS_10QuaternionEEaSERKNS_6TensorE
FNDA:0,_ZN5neml28VariableINS_11MillerIndexEEaSERKNS_6TensorE
FNDA:18,_ZN5neml28VariableINS_2R2EEaSERKNS_6TensorE
FNDA:0,_ZN5neml28VariableINS_2R3EEaSERKNS_6TensorE
FNDA:0,_ZN5neml28VariableINS_2R4EEaSERKNS_6TensorE
FNDA:0,_ZN5neml28VariableINS_2R5EEaSERKNS_6TensorE
FNDA:0,_ZN5neml28VariableINS_2R8EEaSERKNS_6TensorE
FNDA:5,_ZN5neml28VariableINS_3RotEEaSERKNS_6TensorE
FNDA:158,_ZN5neml28VariableINS_3SR2EEaSERKNS_6TensorE
FNDA:1,_ZN5neml28VariableINS_3VecEEaSERKNS_6TensorE
FNDA:8,_ZN5neml28VariableINS_3WR2EEaSERKNS_6TensorE
FNDA:0,_ZN5neml28VariableINS_4SFR3EEaSERKNS_6TensorE
FNDA:0,_ZN5neml28VariableINS_4SFR4EEaSERKNS_6TensorE
FNDA:12,_ZN5neml28VariableINS_4SSR4EEaSERKNS_6TensorE
FNDA:0,_ZN5neml28VariableINS_4SWR4EEaSERKNS_6TensorE
FNDA:0,_ZN5neml28VariableINS_4WFR4EEaSERKNS_6TensorE
FNDA:0,_ZN5neml28VariableINS_4WSR4EEaSERKNS_6TensorE
FNDA:0,_ZN5neml28VariableINS_4WWR4EEaSERKNS_6TensorE
FNDA:0,_ZN5neml28VariableINS_5SFFR4EEaSERKNS_6TensorE
FNDA:0,_ZN5neml28VariableINS_5SSFR5EEaSERKNS_6TensorE
FNDA:0,_ZN5neml28VariableINS_6SSSSR8EEaSERKNS_6TensorE
FNDA:383,_ZN5neml28VariableINS_6ScalarEEaSERKNS_6TensorE
FNDA:0,_ZN5neml28VariableINS_10QuaternionEE5clearEv
FNDA:0,_ZN5neml28VariableINS_11MillerIndexEE5clearEv
FNDA:492,_ZN5neml28VariableINS_2R2EE5clearEv
FNDA:0,_ZN5neml28VariableINS_2R3EE5clearEv
FNDA:0,_ZN5neml28VariableINS_2R4EE5clearEv
FNDA:0,_ZN5neml28VariableINS_2R5EE5clearEv
FNDA:0,_ZN5neml28VariableINS_2R8EE5clearEv
FNDA:457,_ZN5neml28VariableINS_3RotEE5clearEv
FNDA:4391,_ZN5neml28VariableINS_3SR2EE5clearEv
FNDA:22,_ZN5neml28VariableINS_3VecEE5clearEv
FNDA:208,_ZN5neml28VariableINS_3WR2EE5clearEv
FNDA:0,_ZN5neml28VariableINS_4SFR3EE5clearEv
FNDA:0,_ZN5neml28VariableINS_4SFR4EE5clearEv
FNDA:236,_ZN5neml28VariableINS_4SSR4EE5clearEv
FNDA:0,_ZN5neml28VariableINS_4SWR4EE5clearEv
FNDA:0,_ZN5neml28VariableINS_4WFR4EE5clearEv
FNDA:0,_ZN5neml28VariableINS_4WSR4EE5clearEv
FNDA:0,_ZN5neml28VariableINS_4WWR4EE5clearEv
FNDA:0,_ZN5neml28VariableINS_5SFFR4EE5clearEv
FNDA:0,_ZN5neml28VariableINS_5SSFR5EE5clearEv
FNDA:0,_ZN5neml28VariableINS_6SSSSR8EE5clearEv
FNDA:10718,_ZN5neml28VariableINS_6ScalarEE5clearEv
FNDA:818,_ZN5neml210DerivativeaSERKNS_6TensorE
FNDA:826,_ZNK5neml212VariableBase8is_stateEv
FNDA:163,_ZNK5neml212VariableBase12is_old_stateEv
FNDA:167,_ZNK5neml212VariableBase8is_forceEv
FNDA:47,_ZNK5neml212VariableBase12is_old_forceEv
FNDA:134,_ZNK5neml212VariableBase11is_residualEv
FNDA:88,_ZNK5neml212VariableBase12is_parameterEv
FNDA:388,_ZNK5neml212VariableBase18is_solve_dependentEv
FNF:284
FNH:91
DA:37,1511
DA:38,1511
DA:39,1511
DA:40,3022
DA:42,1511
DA:45,10430
DA:47,10430
DA:48,10430
DA:52,10019
DA:54,10019
DA:55,10019
DA:59,826
DA:61,826
DA:65,163
DA:67,163
DA:71,167
DA:73,167
DA:77,47
DA:79,47
DA:83,134
DA:85,134
DA:89,88
DA:91,88
DA:95,388
DA:97,388
DA:101,1115
DA:103,1115
DA:107,284
DA:109,284
DA:113,0
DA:115,0
DA:119,0
DA:121,0
DA:125,0
DA:127,0
DA:131,0
DA:133,0
DA:137,0
DA:139,0
DA:143,0
DA:145,0
DA:149,34484
DA:151,34484
DA:155,617100
DA:157,617100
DA:161,0
DA:163,0
DA:167,1
DA:169,1
DA:173,663727
DA:175,663727
DA:179,0
DA:181,0
DA:185,0
DA:187,0
DA:191,1
DA:193,1
DA:197,0
DA:199,0
DA:203,2225
DA:205,2225
DA:209,0
DA:211,0
DA:215,702
DA:217,702
DA:219,702
DA:221,702
DA:223,702
DA:227,116
DA:229,116
DA:231,116
DA:233,116
DA:235,116
DA:237,464
DA:238,116
DA:242,0
DA:244,0
DA:245,0
DA:248,4
DA:250,18
DA:252,14
DA:253,14
DA:255,4
DA:258,0
DA:260,0
DA:261,0
DA:264,3
DA:267,15
DA:268,60
DA:270,48
DA:271,48
DA:272,48
DA:274,3
DA:277,16524
DA:279,16524
DA:280,16524
DA:281,16524
DA:282,16524
DA:285,72
DA:287,93
DA:288,93
DA:290,72
DA:291,72
DA:296,16
DA:298,16
DA:299,16
DA:301,16
DA:302,16
DA:307,967
DA:309,967
DA:310,69
DA:312,898
DA:313,967
DA:316,390
DA:320,390
DA:322,1040
DA:324,650
DA:325,441
DA:327,418
DA:328,604
DA:329,604
DA:332,390
DA:333,0
DA:336,48
DA:340,48
DA:342,83
DA:343,131
DA:345,96
DA:346,25
DA:347,71
DA:348,38
DA:349,38
DA:350,19
DA:351,95
DA:352,19
DA:353,52
DA:354,36
DA:355,36
DA:356,18
DA:357,90
DA:358,18
DA:360,68
DA:361,72
DA:362,76
DA:363,84
DA:364,46
DA:365,46
DA:366,276
DA:367,72
DA:370,124
DA:371,76
DA:372,64
DA:373,47
DA:374,38
DA:375,23
DA:376,115
DA:377,32
DA:379,48
DA:380,106
DA:384,1454
DA:386,1454
DA:391,473
DA:400,1419
DA:401,1892
DA:407,717
DA:409,717
DA:411,717
DA:413,717
DA:414,717
DA:416,717
DA:418,717
DA:419,717
DA:421,717
DA:423,717
DA:425,717
DA:427,717
DA:429,717
DA:430,717
DA:431,717
DA:435,16524
DA:437,16524
DA:442,16524
DA:446,0
DA:448,0
DA:450,0
DA:452,0
DA:455,0
DA:457,16524
DA:461,18332
DA:463,18332
DA:464,13695
DA:465,27390
DA:468,4637
DA:470,4637
DA:472,4637
DA:474,4637
DA:477,4637
DA:479,18332
DA:483,13233
DA:485,13233
DA:490,7913
DA:494,5320
DA:496,5320
DA:498,5320
DA:500,5320
DA:503,5320
DA:505,13233
DA:509,0
DA:511,0
DA:516,1027841
DA:518,1027841
DA:520,617100
DA:521,617100
DA:522,617100
DA:523,617100
DA:525,410741
DA:530,6
DA:532,6
DA:533,6
DA:536,0
DA:537,6
DA:541,585
DA:543,585
DA:544,585
DA:547,0
DA:549,0
DA:551,0
DA:553,0
DA:556,0
DA:558,585
DA:562,16524
DA:564,16524
DA:566,16524
DA:567,16524
DA:571,0
DA:573,0
DA:575,0
DA:577,0
DA:580,0
DA:582,16524
DA:588,818
DA:590,818
DA:591,818
LF:243
LH:196
end_of_record
TN:
SF:/home/runner/work/neml2/neml2/src/neml2/models/VariableRate.cxx
FN:35,52,_ZN5neml212VariableRateINS_3SR2EE16expected_optionsEv
FN:35,52,_ZN5neml212VariableRateINS_3VecEE16expected_optionsEv
FN:35,52,_ZN5neml212VariableRateINS_6ScalarEE16expected_optionsEv
FN:55,65,_ZN5neml212VariableRateINS_3SR2EEC2ERKNS_9OptionSetE
FN:55,65,_ZN5neml212VariableRateINS_3VecEEC2ERKNS_9OptionSetE
FN:55,65,_ZN5neml212VariableRateINS_6ScalarEEC2ERKNS_9OptionSetE
FN:69,73,_ZNK5neml212VariableRateINS_3SR2EE8diagnoseEv
FN:69,73,_ZNK5neml212VariableRateINS_3VecEE8diagnoseEv
FN:69,73,_ZNK5neml212VariableRateINS_6ScalarEE8diagnoseEv
FN:77,101,_ZN5neml212VariableRateINS_3SR2EE9set_valueEbbb
FN:77,101,_ZN5neml212VariableRateINS_3VecEE9set_valueEbbb
FN:77,101,_ZN5neml212VariableRateINS_6ScalarEE9set_valueEbbb
FNDA:2,_ZN5neml212VariableRateINS_3SR2EE16expected_optionsEv
FNDA:2,_ZN5neml212VariableRateINS_3VecEE16expected_optionsEv
FNDA:2,_ZN5neml212VariableRateINS_6ScalarEE16expected_optionsEv
FNDA:6,_ZN5neml212VariableRateINS_3SR2EEC2ERKNS_9OptionSetE
FNDA:0,_ZN5neml212VariableRateINS_3VecEEC2ERKNS_9OptionSetE
FNDA:2,_ZN5neml212VariableRateINS_6ScalarEEC2ERKNS_9OptionSetE
FNDA:6,_ZNK5neml212VariableRateINS_3SR2EE8diagnoseEv
FNDA:0,_ZNK5neml212VariableRateINS_3VecEE8diagnoseEv
FNDA:0,_ZNK5neml212VariableRateINS_6ScalarEE8diagnoseEv
FNDA:9,_ZN5neml212VariableRateINS_3SR2EE9set_valueEbbb
FNDA:0,_ZN5neml212VariableRateINS_3VecEE9set_valueEbbb
FNDA:4,_ZN5neml212VariableRateINS_6ScalarEE9set_valueEbbb
FNF:12
FNH:8
DA:35,6
DA:37,6
DA:38,6
DA:42,12
DA:43,12
DA:45,12
DA:46,6
DA:48,18
DA:49,6
DA:51,6
DA:52,0
DA:55,8
DA:57,8
DA:58,8
DA:59,8
DA:60,8
DA:61,8
DA:62,18
DA:63,16
DA:65,8
DA:69,6
DA:71,6
DA:72,6
DA:73,6
DA:77,13
DA:79,13
DA:80,13
DA:82,13
DA:83,11
DA:85,13
DA:87,5
DA:89,5
DA:90,3
DA:92,5
DA:93,2
DA:95,5
DA:96,3
DA:98,2
DA:99,2
DA:100,5
DA:101,16
LF:41
LH:40
end_of_record
TN:
SF:/home/runner/work/neml2/neml2/src/neml2/models/VariableStore.cxx
FN:104,112,_ZN5neml213VariableStore23declare_output_variableINS_10QuaternionEEERNS_8VariableIT_EERKNS_19LabeledAxisAccessorEN3c108ArrayRefIlEE
FN:104,112,_ZN5neml213VariableStore23declare_output_variableINS_11MillerIndexEEERNS_8VariableIT_EERKNS_19LabeledAxisAccessorEN3c108ArrayRefIlEE
FN:104,112,_ZN5neml213VariableStore23declare_output_variableINS_2R2EEERNS_8VariableIT_EERKNS_19LabeledAxisAccessorEN3c108ArrayRefIlEE
FN:104,112,_ZN5neml213VariableStore23declare_output_variableINS_2R3EEERNS_8VariableIT_EERKNS_19LabeledAxisAccessorEN3c108ArrayRefIlEE
FN:104,112,_ZN5neml213VariableStore23declare_output_variableINS_2R4EEERNS_8VariableIT_EERKNS_19LabeledAxisAccessorEN3c108ArrayRefIlEE
FN:104,112,_ZN5neml213VariableStore23declare_output_variableINS_2R5EEERNS_8VariableIT_EERKNS_19LabeledAxisAccessorEN3c108ArrayRefIlEE
FN:104,112,_ZN5neml213VariableStore23declare_output_variableINS_2R8EEERNS_8VariableIT_EERKNS_19LabeledAxisAccessorEN3c108ArrayRefIlEE
FN:104,112,_ZN5neml213VariableStore23declare_output_variableINS_3RotEEERNS_8VariableIT_EERKNS_19LabeledAxisAccessorEN3c108ArrayRefIlEE
FN:104,112,_ZN5neml213VariableStore23declare_output_variableINS_3SR2EEERNS_8VariableIT_EERKNS_19LabeledAxisAccessorEN3c108ArrayRefIlEE
FN:104,112,_ZN5neml213VariableStore23declare_output_variableINS_3VecEEERNS_8VariableIT_EERKNS_19LabeledAxisAccessorEN3c108ArrayRefIlEE
FN:104,112,_ZN5neml213VariableStore23declare_output_variableINS_3WR2EEERNS_8VariableIT_EERKNS_19LabeledAxisAccessorEN3c108ArrayRefIlEE
FN:104,112,_ZN5neml213VariableStore23declare_output_variableINS_4SFR3EEERNS_8VariableIT_EERKNS_19LabeledAxisAccessorEN3c108ArrayRefIlEE
FN:104,112,_ZN5neml213VariableStore23declare_output_variableINS_4SFR4EEERNS_8VariableIT_EERKNS_19LabeledAxisAccessorEN3c108ArrayRefIlEE
FN:104,112,_ZN5neml213VariableStore23declare_output_variableINS_4SSR4EEERNS_8VariableIT_EERKNS_19LabeledAxisAccessorEN3c108ArrayRefIlEE
FN:104,112,_ZN5neml213VariableStore23declare_output_variableINS_4SWR4EEERNS_8VariableIT_EERKNS_19LabeledAxisAccessorEN3c108ArrayRefIlEE
FN:104,112,_ZN5neml213VariableStore23declare_output_variableINS_4WFR4EEERNS_8VariableIT_EERKNS_19LabeledAxisAccessorEN3c108ArrayRefIlEE
FN:104,112,_ZN5neml213VariableStore23declare_output_variableINS_4WSR4EEERNS_8VariableIT_EERKNS_19LabeledAxisAccessorEN3c108ArrayRefIlEE
FN:104,112,_ZN5neml213VariableStore23declare_output_variableINS_4WWR4EEERNS_8VariableIT_EERKNS_19LabeledAxisAccessorEN3c108ArrayRefIlEE
FN:104,112,_ZN5neml213VariableStore23declare_output_variableINS_5SFFR4EEERNS_8VariableIT_EERKNS_19LabeledAxisAccessorEN3c108ArrayRefIlEE
FN:104,112,_ZN5neml213VariableStore23declare_output_variableINS_5SSFR5EEERNS_8VariableIT_EERKNS_19LabeledAxisAccessorEN3c108ArrayRefIlEE
FN:104,112,_ZN5neml213VariableStore23declare_output_variableINS_6SSSSR8EEERNS_8VariableIT_EERKNS_19LabeledAxisAccessorEN3c108ArrayRefIlEE
FN:104,112,_ZN5neml213VariableStore23declare_output_variableINS_6ScalarEEERNS_8VariableIT_EERKNS_19LabeledAxisAccessorEN3c108ArrayRefIlEE
FN:120,132,_ZN5neml213VariableStore20clone_input_variableERKNS_12VariableBaseERKNS_19LabeledAxisAccessorE
FN:135,147,_ZN5neml213VariableStore21clone_output_variableERKNS_12VariableBaseERKNS_19LabeledAxisAccessorE
FN:151,174,_ZN5neml213VariableStore15create_variableINS_10QuaternionEEEPNS_8VariableIT_EERSt3mapINS_19LabeledAxisAccessorESt10unique_ptrINS_12VariableBaseESt14default_deleteISA_EESt4lessIS8_ESaISt4pairIKS8_SD_EEERSH_N3c108ArrayRefIlEE
FN:151,174,_ZN5neml213VariableStore15create_variableINS_11MillerIndexEEEPNS_8VariableIT_EERSt3mapINS_19LabeledAxisAccessorESt10unique_ptrINS_12VariableBaseESt14default_deleteISA_EESt4lessIS8_ESaISt4pairIKS8_SD_EEERSH_N3c108ArrayRefIlEE
FN:151,174,_ZN5neml213VariableStore15create_variableINS_2R2EEEPNS_8VariableIT_EERSt3mapINS_19LabeledAxisAccessorESt10unique_ptrINS_12VariableBaseESt14default_deleteISA_EESt4lessIS8_ESaISt4pairIKS8_SD_EEERSH_N3c108ArrayRefIlEE
FN:151,174,_ZN5neml213VariableStore15create_variableINS_2R3EEEPNS_8VariableIT_EERSt3mapINS_19LabeledAxisAccessorESt10unique_ptrINS_12VariableBaseESt14default_deleteISA_EESt4lessIS8_ESaISt4pairIKS8_SD_EEERSH_N3c108ArrayRefIlEE
FN:151,174,_ZN5neml213VariableStore15create_variableINS_2R4EEEPNS_8VariableIT_EERSt3mapINS_19LabeledAxisAccessorESt10unique_ptrINS_12VariableBaseESt14default_deleteISA_EESt4lessIS8_ESaISt4pairIKS8_SD_EEERSH_N3c108ArrayRefIlEE
FN:151,174,_ZN5neml213VariableStore15create_variableINS_2R5EEEPNS_8VariableIT_EERSt3mapINS_19LabeledAxisAccessorESt10unique_ptrINS_12VariableBaseESt14default_deleteISA_EESt4lessIS8_ESaISt4pairIKS8_SD_EEERSH_N3c108ArrayRefIlEE
FN:151,174,_ZN5neml213VariableStore15create_variableINS_2R8EEEPNS_8VariableIT_EERSt3mapINS_19LabeledAxisAccessorESt10unique_ptrINS_12VariableBaseESt14default_deleteISA_EESt4lessIS8_ESaISt4pairIKS8_SD_EEERSH_N3c108ArrayRefIlEE
FN:151,174,_ZN5neml213VariableStore15create_variableINS_3RotEEEPNS_8VariableIT_EERSt3mapINS_19LabeledAxisAccessorESt10unique_ptrINS_12VariableBaseESt14default_deleteISA_EESt4lessIS8_ESaISt4pairIKS8_SD_EEERSH_N3c108ArrayRefIlEE
FN:151,174,_ZN5neml213VariableStore15create_variableINS_3SR2EEEPNS_8VariableIT_EERSt3mapINS_19LabeledAxisAccessorESt10unique_ptrINS_12VariableBaseESt14default_deleteISA_EESt4lessIS8_ESaISt4pairIKS8_SD_EEERSH_N3c108ArrayRefIlEE
FN:151,174,_ZN5neml213VariableStore15create_variableINS_3VecEEEPNS_8VariableIT_EERSt3mapINS_19LabeledAxisAccessorESt10unique_ptrINS_12VariableBaseESt14default_deleteISA_EESt4lessIS8_ESaISt4pairIKS8_SD_EEERSH_N3c108ArrayRefIlEE
FN:151,174,_ZN5neml213VariableStore15create_variableINS_3WR2EEEPNS_8VariableIT_EERSt3mapINS_19LabeledAxisAccessorESt10unique_ptrINS_12VariableBaseESt14default_deleteISA_EESt4lessIS8_ESaISt4pairIKS8_SD_EEERSH_N3c108ArrayRefIlEE
FN:151,174,_ZN5neml213VariableStore15create_variableINS_4SFR3EEEPNS_8VariableIT_EERSt3mapINS_19LabeledAxisAccessorESt10unique_ptrINS_12VariableBaseESt14default_deleteISA_EESt4lessIS8_ESaISt4pairIKS8_SD_EEERSH_N3c108ArrayRefIlEE
FN:151,174,_ZN5neml213VariableStore15create_variableINS_4SFR4EEEPNS_8VariableIT_EERSt3mapINS_19LabeledAxisAccessorESt10unique_ptrINS_12VariableBaseESt14default_deleteISA_EESt4lessIS8_ESaISt4pairIKS8_SD_EEERSH_N3c108ArrayRefIlEE
FN:151,174,_ZN5neml213VariableStore15create_variableINS_4SSR4EEEPNS_8VariableIT_EERSt3mapINS_19LabeledAxisAccessorESt10unique_ptrINS_12VariableBaseESt14default_deleteISA_EESt4lessIS8_ESaISt4pairIKS8_SD_EEERSH_N3c108ArrayRefIlEE
FN:151,174,_ZN5neml213VariableStore15create_variableINS_4SWR4EEEPNS_8VariableIT_EERSt3mapINS_19LabeledAxisAccessorESt10unique_ptrINS_12VariableBaseESt14default_deleteISA_EESt4lessIS8_ESaISt4pairIKS8_SD_EEERSH_N3c108ArrayRefIlEE
FN:151,174,_ZN5neml213VariableStore15create_variableINS_4WFR4EEEPNS_8VariableIT_EERSt3mapINS_19LabeledAxisAccessorESt10unique_ptrINS_12VariableBaseESt14default_deleteISA_EESt4lessIS8_ESaISt4pairIKS8_SD_EEERSH_N3c108ArrayRefIlEE
FN:151,174,_ZN5neml213VariableStore15create_variableINS_4WSR4EEEPNS_8VariableIT_EERSt3mapINS_19LabeledAxisAccessorESt10unique_ptrINS_12VariableBaseESt14default_deleteISA_EESt4lessIS8_ESaISt4pairIKS8_SD_EEERSH_N3c108ArrayRefIlEE
FN:151,174,_ZN5neml213VariableStore15create_variableINS_4WWR4EEEPNS_8VariableIT_EERSt3mapINS_19LabeledAxisAccessorESt10unique_ptrINS_12VariableBaseESt14default_deleteISA_EESt4lessIS8_ESaISt4pairIKS8_SD_EEERSH_N3c108ArrayRefIlEE
FN:151,174,_ZN5neml213VariableStore15create_variableINS_5SFFR4EEEPNS_8VariableIT_EERSt3mapINS_19LabeledAxisAccessorESt10unique_ptrINS_12VariableBaseESt14default_deleteISA_EESt4lessIS8_ESaISt4pairIKS8_SD_EEERSH_N3c108ArrayRefIlEE
FN:151,174,_ZN5neml213VariableStore15create_variableINS_5SSFR5EEEPNS_8VariableIT_EERSt3mapINS_19LabeledAxisAccessorESt10unique_ptrINS_12VariableBaseESt14default_deleteISA_EESt4lessIS8_ESaISt4pairIKS8_SD_EEERSH_N3c108ArrayRefIlEE
FN:151,174,_ZN5neml213VariableStore15create_variableINS_6SSSSR8EEEPNS_8VariableIT_EERSt3mapINS_19LabeledAxisAccessorESt10unique_ptrINS_12VariableBaseESt14default_deleteISA_EESt4lessIS8_ESaISt4pairIKS8_SD_EEERSH_N3c108ArrayRefIlEE
FN:151,174,_ZN5neml213VariableStore15create_variableINS_6ScalarEEEPNS_8VariableIT_EERSt3mapINS_19LabeledAxisAccessorESt10unique_ptrINS_12VariableBaseESt14default_deleteISA_EESt4lessIS8_ESaISt4pairIKS8_SD_EEERSH_N3c108ArrayRefIlEE
FN:181,190,_ZN5neml213VariableStore14input_variableERKNS_19LabeledAxisAccessorE
FN:193,197,_ZNK5neml213VariableStore14input_variableERKNS_19LabeledAxisAccessorE
FN:200,209,_ZN5neml213VariableStore15output_variableERKNS_19LabeledAxisAccessorE
FN:212,216,_ZNK5neml213VariableStore15output_variableERKNS_19LabeledAxisAccessorE
FN:219,222,_ZN5neml213VariableStore17send_variables_toERKN3c1013TensorOptionsE
FN:225,230,_ZN5neml213VariableStore11clear_inputEv
FN:233,238,_ZN5neml213VariableStore12clear_outputEv
FN:241,246,_ZN5neml213VariableStore10zero_inputEv
FN:249,254,_ZN5neml213VariableStore11zero_outputEv
FN:257,262,_ZN5neml213VariableStore12assign_inputERKSt3mapINS_19LabeledAxisAccessorENS_6TensorESt4lessIS2_ESaISt4pairIKS2_S3_EEE
FN:265,270,_ZN5neml213VariableStore12assign_inputEOSt3mapINS_19LabeledAxisAccessorENS_6TensorESt4lessIS2_ESaISt4pairIKS2_S3_EEE
FN:273,277,_ZN5neml213VariableStore13assign_outputERKSt3mapINS_19LabeledAxisAccessorENS_6TensorESt4lessIS2_ESaISt4pairIKS2_S3_EEE
FN:280,288,_ZN5neml213VariableStore25assign_output_derivativesERKSt3mapINS_19LabeledAxisAccessorES1_IS2_NS_6TensorESt4lessIS2_ESaISt4pairIKS2_S3_EEES5_SaIS6_IS7_SA_EEE
FN:291,307,_ZN5neml213VariableStore18assign_input_stackERSt6vectorIN3c106IValueESaIS3_EE
FN:310,395,_ZN5neml213VariableStore19assign_output_stackERSt6vectorIN3c106IValueESaIS3_EEbbb
FN:36,42,_ZN5neml213VariableStoreC2EPNS_5ModelE
FN:398,404,_ZNK5neml213VariableStore13collect_inputEv
FN:407,413,_ZNK5neml213VariableStore14collect_outputEv
FN:416,422,_ZNK5neml213VariableStore26collect_output_derivativesEv
FN:425,431,_ZNK5neml213VariableStore33collect_output_second_derivativesEv
FN:434,442,_ZNK5neml213VariableStore19collect_input_stackEv
FN:445,512,_ZNK5neml213VariableStore20collect_output_stackEbbb
FN:45,55,_ZN5neml213VariableStore12declare_axisERKSs
FN:58,62,_ZN5neml213VariableStore12setup_layoutEv
FN:66,72,_ZN5neml213VariableStore22declare_input_variableINS_10QuaternionEEERKNS_8VariableIT_EEPKcN3c108ArrayRefIlEE
FN:66,72,_ZN5neml213VariableStore22declare_input_variableINS_11MillerIndexEEERKNS_8VariableIT_EEPKcN3c108ArrayRefIlEE
FN:66,72,_ZN5neml213VariableStore22declare_input_variableINS_2R2EEERKNS_8VariableIT_EEPKcN3c108ArrayRefIlEE
FN:66,72,_ZN5neml213VariableStore22declare_input_variableINS_2R3EEERKNS_8VariableIT_EEPKcN3c108ArrayRefIlEE
FN:66,72,_ZN5neml213VariableStore22declare_input_variableINS_2R4EEERKNS_8VariableIT_EEPKcN3c108ArrayRefIlEE
FN:66,72,_ZN5neml213VariableStore22declare_input_variableINS_2R5EEERKNS_8VariableIT_EEPKcN3c108ArrayRefIlEE
FN:66,72,_ZN5neml213VariableStore22declare_input_variableINS_2R8EEERKNS_8VariableIT_EEPKcN3c108ArrayRefIlEE
FN:66,72,_ZN5neml213VariableStore22declare_input_variableINS_3RotEEERKNS_8VariableIT_EEPKcN3c108ArrayRefIlEE
FN:66,72,_ZN5neml213VariableStore22declare_input_variableINS_3SR2EEERKNS_8VariableIT_EEPKcN3c108ArrayRefIlEE
FN:66,72,_ZN5neml213VariableStore22declare_input_variableINS_3VecEEERKNS_8VariableIT_EEPKcN3c108ArrayRefIlEE
FN:66,72,_ZN5neml213VariableStore22declare_input_variableINS_3WR2EEERKNS_8VariableIT_EEPKcN3c108ArrayRefIlEE
FN:66,72,_ZN5neml213VariableStore22declare_input_variableINS_4SFR3EEERKNS_8VariableIT_EEPKcN3c108ArrayRefIlEE
FN:66,72,_ZN5neml213VariableStore22declare_input_variableINS_4SFR4EEERKNS_8VariableIT_EEPKcN3c108ArrayRefIlEE
FN:66,72,_ZN5neml213VariableStore22declare_input_variableINS_4SSR4EEERKNS_8VariableIT_EEPKcN3c108ArrayRefIlEE
FN:66,72,_ZN5neml213VariableStore22declare_input_variableINS_4SWR4EEERKNS_8VariableIT_EEPKcN3c108ArrayRefIlEE
FN:66,72,_ZN5neml213VariableStore22declare_input_variableINS_4WFR4EEERKNS_8VariableIT_EEPKcN3c108ArrayRefIlEE
FN:66,72,_ZN5neml213VariableStore22declare_input_variableINS_4WSR4EEERKNS_8VariableIT_EEPKcN3c108ArrayRefIlEE
FN:66,72,_ZN5neml213VariableStore22declare_input_variableINS_4WWR4EEERKNS_8VariableIT_EEPKcN3c108ArrayRefIlEE
FN:66,72,_ZN5neml213VariableStore22declare_input_variableINS_5SFFR4EEERKNS_8VariableIT_EEPKcN3c108ArrayRefIlEE
FN:66,72,_ZN5neml213VariableStore22declare_input_variableINS_5SSFR5EEERKNS_8VariableIT_EEPKcN3c108ArrayRefIlEE
FN:66,72,_ZN5neml213VariableStore22declare_input_variableINS_6SSSSR8EEERKNS_8VariableIT_EEPKcN3c108ArrayRefIlEE
FN:66,72,_ZN5neml213VariableStore22declare_input_variableINS_6ScalarEEERKNS_8VariableIT_EEPKcN3c108ArrayRefIlEE
FN:76,84,_ZN5neml213VariableStore22declare_input_variableINS_10QuaternionEEERKNS_8VariableIT_EERKNS_19LabeledAxisAccessorEN3c108ArrayRefIlEE
FN:76,84,_ZN5neml213VariableStore22declare_input_variableINS_11MillerIndexEEERKNS_8VariableIT_EERKNS_19LabeledAxisAccessorEN3c108ArrayRefIlEE
FN:76,84,_ZN5neml213VariableStore22declare_input_variableINS_2R2EEERKNS_8VariableIT_EERKNS_19LabeledAxisAccessorEN3c108ArrayRefIlEE
FN:76,84,_ZN5neml213VariableStore22declare_input_variableINS_2R3EEERKNS_8VariableIT_EERKNS_19LabeledAxisAccessorEN3c108ArrayRefIlEE
FN:76,84,_ZN5neml213VariableStore22declare_input_variableINS_2R4EEERKNS_8VariableIT_EERKNS_19LabeledAxisAccessorEN3c108ArrayRefIlEE
FN:76,84,_ZN5neml213VariableStore22declare_input_variableINS_2R5EEERKNS_8VariableIT_EERKNS_19LabeledAxisAccessorEN3c108ArrayRefIlEE
FN:76,84,_ZN5neml213VariableStore22declare_input_variableINS_2R8EEERKNS_8VariableIT_EERKNS_19LabeledAxisAccessorEN3c108ArrayRefIlEE
FN:76,84,_ZN5neml213VariableStore22declare_input_variableINS_3RotEEERKNS_8VariableIT_EERKNS_19LabeledAxisAccessorEN3c108ArrayRefIlEE
FN:76,84,_ZN5neml213VariableStore22declare_input_variableINS_3SR2EEERKNS_8VariableIT_EERKNS_19LabeledAxisAccessorEN3c108ArrayRefIlEE
FN:76,84,_ZN5neml213VariableStore22declare_input_variableINS_3VecEEERKNS_8VariableIT_EERKNS_19LabeledAxisAccessorEN3c108ArrayRefIlEE
FN:76,84,_ZN5neml213VariableStore22declare_input_variableINS_3WR2EEERKNS_8VariableIT_EERKNS_19LabeledAxisAccessorEN3c108ArrayRefIlEE
FN:76,84,_ZN5neml213VariableStore22declare_input_variableINS_4SFR3EEERKNS_8VariableIT_EERKNS_19LabeledAxisAccessorEN3c108ArrayRefIlEE
FN:76,84,_ZN5neml213VariableStore22declare_input_variableINS_4SFR4EEERKNS_8VariableIT_EERKNS_19LabeledAxisAccessorEN3c108ArrayRefIlEE
FN:76,84,_ZN5neml213VariableStore22declare_input_variableINS_4SSR4EEERKNS_8VariableIT_EERKNS_19LabeledAxisAccessorEN3c108ArrayRefIlEE
FN:76,84,_ZN5neml213VariableStore22declare_input_variableINS_4SWR4EEERKNS_8VariableIT_EERKNS_19LabeledAxisAccessorEN3c108ArrayRefIlEE
FN:76,84,_ZN5neml213VariableStore22declare_input_variableINS_4WFR4EEERKNS_8VariableIT_EERKNS_19LabeledAxisAccessorEN3c108ArrayRefIlEE
FN:76,84,_ZN5neml213VariableStore22declare_input_variableINS_4WSR4EEERKNS_8VariableIT_EERKNS_19LabeledAxisAccessorEN3c108ArrayRefIlEE
FN:76,84,_ZN5neml213VariableStore22declare_input_variableINS_4WWR4EEERKNS_8VariableIT_EERKNS_19LabeledAxisAccessorEN3c108ArrayRefIlEE
FN:76,84,_ZN5neml213VariableStore22declare_input_variableINS_5SFFR4EEERKNS_8VariableIT_EERKNS_19LabeledAxisAccessorEN3c108ArrayRefIlEE
FN:76,84,_ZN5neml213VariableStore22declare_input_variableINS_5SSFR5EEERKNS_8VariableIT_EERKNS_19LabeledAxisAccessorEN3c108ArrayRefIlEE
FN:76,84,_ZN5neml213VariableStore22declare_input_variableINS_6SSSSR8EEERKNS_8VariableIT_EERKNS_19LabeledAxisAccessorEN3c108ArrayRefIlEE
FN:76,84,_ZN5neml213VariableStore22declare_input_variableINS_6ScalarEEERKNS_8VariableIT_EERKNS_19LabeledAxisAccessorEN3c108ArrayRefIlEE
FN:94,100,_ZN5neml213VariableStore23declare_output_variableINS_10QuaternionEEERNS_8VariableIT_EEPKcN3c108ArrayRefIlEE
FN:94,100,_ZN5neml213VariableStore23declare_output_variableINS_11MillerIndexEEERNS_8VariableIT_EEPKcN3c108ArrayRefIlEE
FN:94,100,_ZN5neml213VariableStore23declare_output_variableINS_2R2EEERNS_8VariableIT_EEPKcN3c108ArrayRefIlEE
FN:94,100,_ZN5neml213VariableStore23declare_output_variableINS_2R3EEERNS_8VariableIT_EEPKcN3c108ArrayRefIlEE
FN:94,100,_ZN5neml213VariableStore23declare_output_variableINS_2R4EEERNS_8VariableIT_EEPKcN3c108ArrayRefIlEE
FN:94,100,_ZN5neml213VariableStore23declare_output_variableINS_2R5EEERNS_8VariableIT_EEPKcN3c108ArrayRefIlEE
FN:94,100,_ZN5neml213VariableStore23declare_output_variableINS_2R8EEERNS_8VariableIT_EEPKcN3c108ArrayRefIlEE
FN:94,100,_ZN5neml213VariableStore23declare_output_variableINS_3RotEEERNS_8VariableIT_EEPKcN3c108ArrayRefIlEE
FN:94,100,_ZN5neml213VariableStore23declare_output_variableINS_3SR2EEERNS_8VariableIT_EEPKcN3c108ArrayRefIlEE
FN:94,100,_ZN5neml213VariableStore23declare_output_variableINS_3VecEEERNS_8VariableIT_EEPKcN3c108ArrayRefIlEE
FN:94,100,_ZN5neml213VariableStore23declare_output_variableINS_3WR2EEERNS_8VariableIT_EEPKcN3c108ArrayRefIlEE
FN:94,100,_ZN5neml213VariableStore23declare_output_variableINS_4SFR3EEERNS_8VariableIT_EEPKcN3c108ArrayRefIlEE
FN:94,100,_ZN5neml213VariableStore23declare_output_variableINS_4SFR4EEERNS_8VariableIT_EEPKcN3c108ArrayRefIlEE
FN:94,100,_ZN5neml213VariableStore23declare_output_variableINS_4SSR4EEERNS_8VariableIT_EEPKcN3c108ArrayRefIlEE
FN:94,100,_ZN5neml213VariableStore23declare_output_variableINS_4SWR4EEERNS_8VariableIT_EEPKcN3c108ArrayRefIlEE
FN:94,100,_ZN5neml213VariableStore23declare_output_variableINS_4WFR4EEERNS_8VariableIT_EEPKcN3c108ArrayRefIlEE
FN:94,100,_ZN5neml213VariableStore23declare_output_variableINS_4WSR4EEERNS_8VariableIT_EEPKcN3c108ArrayRefIlEE
FN:94,100,_ZN5neml213VariableStore23declare_output_variableINS_4WWR4EEERNS_8VariableIT_EEPKcN3c108ArrayRefIlEE
FN:94,100,_ZN5neml213VariableStore23declare_output_variableINS_5SFFR4EEERNS_8VariableIT_EEPKcN3c108ArrayRefIlEE
FN:94,100,_ZN5neml213VariableStore23declare_output_variableINS_5SSFR5EEERNS_8VariableIT_EEPKcN3c108ArrayRefIlEE
FN:94,100,_ZN5neml213VariableStore23declare_output_variableINS_6SSSSR8EEERNS_8VariableIT_EEPKcN3c108ArrayRefIlEE
FN:94,100,_ZN5neml213VariableStore23declare_output_variableINS_6ScalarEEERNS_8VariableIT_EEPKcN3c108ArrayRefIlEE
FNDA:0,_ZN5neml213VariableStore23declare_output_variableINS_10QuaternionEEERNS_8VariableIT_EERKNS_19LabeledAxisAccessorEN3c108ArrayRefIlEE
FNDA:0,_ZN5neml213VariableStore23declare_output_variableINS_11MillerIndexEEERNS_8VariableIT_EERKNS_19LabeledAxisAccessorEN3c108ArrayRefIlEE
FNDA:12,_ZN5neml213VariableStore23declare_output_variableINS_2R2EEERNS_8VariableIT_EERKNS_19LabeledAxisAccessorEN3c108ArrayRefIlEE
FNDA:0,_ZN5neml213VariableStore23declare_output_variableINS_2R3EEERNS_8VariableIT_EERKNS_19LabeledAxisAccessorEN3c108ArrayRefIlEE
FNDA:0,_ZN5neml213VariableStore23declare_output_variableINS_2R4EEERNS_8VariableIT_EERKNS_19LabeledAxisAccessorEN3c108ArrayRefIlEE
FNDA:0,_ZN5neml213VariableStore23declare_output_variableINS_2R5EEERNS_8VariableIT_EERKNS_19LabeledAxisAccessorEN3c108ArrayRefIlEE
FNDA:0,_ZN5neml213VariableStore23declare_output_variableINS_2R8EEERNS_8VariableIT_EERKNS_19LabeledAxisAccessorEN3c108ArrayRefIlEE
FNDA:4,_ZN5neml213VariableStore23declare_output_variableINS_3RotEEERNS_8VariableIT_EERKNS_19LabeledAxisAccessorEN3c108ArrayRefIlEE
FNDA:105,_ZN5neml213VariableStore23declare_output_variableINS_3SR2EEERNS_8VariableIT_EERKNS_19LabeledAxisAccessorEN3c108ArrayRefIlEE
FNDA:1,_ZN5neml213VariableStore23declare_output_variableINS_3VecEEERNS_8VariableIT_EERKNS_19LabeledAxisAccessorEN3c108ArrayRefIlEE
FNDA:5,_ZN5neml213VariableStore23declare_output_variableINS_3WR2EEERNS_8VariableIT_EERKNS_19LabeledAxisAccessorEN3c108ArrayRefIlEE
FNDA:0,_ZN5neml213VariableStore23declare_output_variableINS_4SFR3EEERNS_8VariableIT_EERKNS_19LabeledAxisAccessorEN3c108ArrayRefIlEE
FNDA:0,_ZN5neml213VariableStore23declare_output_variableINS_4SFR4EEERNS_8VariableIT_EERKNS_19LabeledAxisAccessorEN3c108ArrayRefIlEE
FNDA:6,_ZN5neml213VariableStore23declare_output_variableINS_4SSR4EEERNS_8VariableIT_EERKNS_19LabeledAxisAccessorEN3c108ArrayRefIlEE
FNDA:0,_ZN5neml213VariableStore23declare_output_variableINS_4SWR4EEERNS_8VariableIT_EERKNS_19LabeledAxisAccessorEN3c108ArrayRefIlEE
FNDA:0,_ZN5neml213VariableStore23declare_output_variableINS_4WFR4EEERNS_8VariableIT_EERKNS_19LabeledAxisAccessorEN3c108ArrayRefIlEE
FNDA:0,_ZN5neml213VariableStore23declare_output_variableINS_4WSR4EEERNS_8VariableIT_EERKNS_19LabeledAxisAccessorEN3c108ArrayRefIlEE
FNDA:0,_ZN5neml213VariableStore23declare_output_variableINS_4WWR4EEERNS_8VariableIT_EERKNS_19LabeledAxisAccessorEN3c108ArrayRefIlEE
FNDA:0,_ZN5neml213VariableStore23declare_output_variableINS_5SFFR4EEERNS_8VariableIT_EERKNS_19LabeledAxisAccessorEN3c108ArrayRefIlEE
FNDA:0,_ZN5neml213VariableStore23declare_output_variableINS_5SSFR5EEERNS_8VariableIT_EERKNS_19LabeledAxisAccessorEN3c108ArrayRefIlEE
FNDA:0,_ZN5neml213VariableStore23declare_output_variableINS_6SSSSR8EEERNS_8VariableIT_EERKNS_19LabeledAxisAccessorEN3c108ArrayRefIlEE
FNDA:215,_ZN5neml213VariableStore23declare_output_variableINS_6ScalarEEERNS_8VariableIT_EERKNS_19LabeledAxisAccessorEN3c108ArrayRefIlEE
FNDA:357,_ZN5neml213VariableStore20clone_input_variableERKNS_12VariableBaseERKNS_19LabeledAxisAccessorE
FNDA:116,_ZN5neml213VariableStore21clone_output_variableERKNS_12VariableBaseERKNS_19LabeledAxisAccessorE
FNDA:0,_ZN5neml213VariableStore15create_variableINS_10QuaternionEEEPNS_8VariableIT_EERSt3mapINS_19LabeledAxisAccessorESt10unique_ptrINS_12VariableBaseESt14default_deleteISA_EESt4lessIS8_ESaISt4pairIKS8_SD_EEERSH_N3c108ArrayRefIlEE
FNDA:0,_ZN5neml213VariableStore15create_variableINS_11MillerIndexEEEPNS_8VariableIT_EERSt3mapINS_19LabeledAxisAccessorESt10unique_ptrINS_12VariableBaseESt14default_deleteISA_EESt4lessIS8_ESaISt4pairIKS8_SD_EEERSH_N3c108ArrayRefIlEE
FNDA:31,_ZN5neml213VariableStore15create_variableINS_2R2EEEPNS_8VariableIT_EERSt3mapINS_19LabeledAxisAccessorESt10unique_ptrINS_12VariableBaseESt14default_deleteISA_EESt4lessIS8_ESaISt4pairIKS8_SD_EEERSH_N3c108ArrayRefIlEE
FNDA:0,_ZN5neml213VariableStore15create_variableINS_2R3EEEPNS_8VariableIT_EERSt3mapINS_19LabeledAxisAccessorESt10unique_ptrINS_12VariableBaseESt14default_deleteISA_EESt4lessIS8_ESaISt4pairIKS8_SD_EEERSH_N3c108ArrayRefIlEE
FNDA:0,_ZN5neml213VariableStore15create_variableINS_2R4EEEPNS_8VariableIT_EERSt3mapINS_19LabeledAxisAccessorESt10unique_ptrINS_12VariableBaseESt14default_deleteISA_EESt4lessIS8_ESaISt4pairIKS8_SD_EEERSH_N3c108ArrayRefIlEE
FNDA:0,_ZN5neml213VariableStore15create_variableINS_2R5EEEPNS_8VariableIT_EERSt3mapINS_19LabeledAxisAccessorESt10unique_ptrINS_12VariableBaseESt14default_deleteISA_EESt4lessIS8_ESaISt4pairIKS8_SD_EEERSH_N3c108ArrayRefIlEE
FNDA:0,_ZN5neml213VariableStore15create_variableINS_2R8EEEPNS_8VariableIT_EERSt3mapINS_19LabeledAxisAccessorESt10unique_ptrINS_12VariableBaseESt14default_deleteISA_EESt4lessIS8_ESaISt4pairIKS8_SD_EEERSH_N3c108ArrayRefIlEE
FNDA:20,_ZN5neml213VariableStore15create_variableINS_3RotEEEPNS_8VariableIT_EERSt3mapINS_19LabeledAxisAccessorESt10unique_ptrINS_12VariableBaseESt14default_deleteISA_EESt4lessIS8_ESaISt4pairIKS8_SD_EEERSH_N3c108ArrayRefIlEE
FNDA:278,_ZN5neml213VariableStore15create_variableINS_3SR2EEEPNS_8VariableIT_EERSt3mapINS_19LabeledAxisAccessorESt10unique_ptrINS_12VariableBaseESt14default_deleteISA_EESt4lessIS8_ESaISt4pairIKS8_SD_EEERSH_N3c108ArrayRefIlEE
FNDA:2,_ZN5neml213VariableStore15create_variableINS_3VecEEEPNS_8VariableIT_EERSt3mapINS_19LabeledAxisAccessorESt10unique_ptrINS_12VariableBaseESt14default_deleteISA_EESt4lessIS8_ESaISt4pairIKS8_SD_EEERSH_N3c108ArrayRefIlEE
FNDA:14,_ZN5neml213VariableStore15create_variableINS_3WR2EEEPNS_8VariableIT_EERSt3mapINS_19LabeledAxisAccessorESt10unique_ptrINS_12VariableBaseESt14default_deleteISA_EESt4lessIS8_ESaISt4pairIKS8_SD_EEERSH_N3c108ArrayRefIlEE
FNDA:0,_ZN5neml213VariableStore15create_variableINS_4SFR3EEEPNS_8VariableIT_EERSt3mapINS_19LabeledAxisAccessorESt10unique_ptrINS_12VariableBaseESt14default_deleteISA_EESt4lessIS8_ESaISt4pairIKS8_SD_EEERSH_N3c108ArrayRefIlEE
FNDA:0,_ZN5neml213VariableStore15create_variableINS_4SFR4EEEPNS_8VariableIT_EERSt3mapINS_19LabeledAxisAccessorESt10unique_ptrINS_12VariableBaseESt14default_deleteISA_EESt4lessIS8_ESaISt4pairIKS8_SD_EEERSH_N3c108ArrayRefIlEE
FNDA:10,_ZN5neml213VariableStore15create_variableINS_4SSR4EEEPNS_8VariableIT_EERSt3mapINS_19LabeledAxisAccessorESt10unique_ptrINS_12VariableBaseESt14default_deleteISA_EESt4lessIS8_ESaISt4pairIKS8_SD_EEERSH_N3c108ArrayRefIlEE
FNDA:0,_ZN5neml213VariableStore15create_variableINS_4SWR4EEEPNS_8VariableIT_EERSt3mapINS_19LabeledAxisAccessorESt10unique_ptrINS_12VariableBaseESt14default_deleteISA_EESt4lessIS8_ESaISt4pairIKS8_SD_EEERSH_N3c108ArrayRefIlEE
FNDA:0,_ZN5neml213VariableStore15create_variableINS_4WFR4EEEPNS_8VariableIT_EERSt3mapINS_19LabeledAxisAccessorESt10unique_ptrINS_12VariableBaseESt14default_deleteISA_EESt4lessIS8_ESaISt4pairIKS8_SD_EEERSH_N3c108ArrayRefIlEE
FNDA:0,_ZN5neml213VariableStore15create_variableINS_4WSR4EEEPNS_8VariableIT_EERSt3mapINS_19LabeledAxisAccessorESt10unique_ptrINS_12VariableBaseESt14default_deleteISA_EESt4lessIS8_ESaISt4pairIKS8_SD_EEERSH_N3c108ArrayRefIlEE
FNDA:0,_ZN5neml213VariableStore15create_variableINS_4WWR4EEEPNS_8VariableIT_EERSt3mapINS_19LabeledAxisAccessorESt10unique_ptrINS_12VariableBaseESt14default_deleteISA_EESt4lessIS8_ESaISt4pairIKS8_SD_EEERSH_N3c108ArrayRefIlEE
FNDA:0,_ZN5neml213VariableStore15create_variableINS_5SFFR4EEEPNS_8VariableIT_EERSt3mapINS_19LabeledAxisAccessorESt10unique_ptrINS_12VariableBaseESt14default_deleteISA_EESt4lessIS8_ESaISt4pairIKS8_SD_EEERSH_N3c108ArrayRefIlEE
FNDA:0,_ZN5neml213VariableStore15create_variableINS_5SSFR5EEEPNS_8VariableIT_EERSt3mapINS_19LabeledAxisAccessorESt10unique_ptrINS_12VariableBaseESt14default_deleteISA_EESt4lessIS8_ESaISt4pairIKS8_SD_EEERSH_N3c108ArrayRefIlEE
FNDA:0,_ZN5neml213VariableStore15create_variableINS_6SSSSR8EEEPNS_8VariableIT_EERSt3mapINS_19LabeledAxisAccessorESt10unique_ptrINS_12VariableBaseESt14default_deleteISA_EESt4lessIS8_ESaISt4pairIKS8_SD_EEERSH_N3c108ArrayRefIlEE
FNDA:683,_ZN5neml213VariableStore15create_variableINS_6ScalarEEEPNS_8VariableIT_EERSt3mapINS_19LabeledAxisAccessorESt10unique_ptrINS_12VariableBaseESt14default_deleteISA_EESt4lessIS8_ESaISt4pairIKS8_SD_EEERSH_N3c108ArrayRefIlEE
FNDA:50848,_ZN5neml213VariableStore14input_variableERKNS_19LabeledAxisAccessorE
FNDA:35066,_ZNK5neml213VariableStore14input_variableERKNS_19LabeledAxisAccessorE
FNDA:12847,_ZN5neml213VariableStore15output_variableERKNS_19LabeledAxisAccessorE
FNDA:378,_ZNK5neml213VariableStore15output_variableERKNS_19LabeledAxisAccessorE
FNDA:0,_ZN5neml213VariableStore17send_variables_toERKN3c1013TensorOptionsE
FNDA:7944,_ZN5neml213VariableStore11clear_inputEv
FNDA:7944,_ZN5neml213VariableStore12clear_outputEv
FNDA:7944,_ZN5neml213VariableStore10zero_inputEv
FNDA:7944,_ZN5neml213VariableStore11zero_outputEv
FNDA:2827,_ZN5neml213VariableStore12assign_inputERKSt3mapINS_19LabeledAxisAccessorENS_6TensorESt4lessIS2_ESaISt4pairIKS2_S3_EEE
FNDA:1564,_ZN5neml213VariableStore12assign_inputEOSt3mapINS_19LabeledAxisAccessorENS_6TensorESt4lessIS2_ESaISt4pairIKS2_S3_EEE
FNDA:26,_ZN5neml213VariableStore13assign_outputERKSt3mapINS_19LabeledAxisAccessorENS_6TensorESt4lessIS2_ESaISt4pairIKS2_S3_EEE
FNDA:9,_ZN5neml213VariableStore25assign_output_derivativesERKSt3mapINS_19LabeledAxisAccessorES1_IS2_NS_6TensorESt4lessIS2_ESaISt4pairIKS2_S3_EEES5_SaIS6_IS7_SA_EEE
FNDA:337,_ZN5neml213VariableStore18assign_input_stackERSt6vectorIN3c106IValueESaIS3_EE
FNDA:5534,_ZN5neml213VariableStore19assign_output_stackERSt6vectorIN3c106IValueESaIS3_EEbbb
FNDA:406,_ZN5neml213VariableStoreC2EPNS_5ModelE
FNDA:189,_ZNK5neml213VariableStore13collect_inputEv
FNDA:3728,_ZNK5neml213VariableStore14collect_outputEv
FNDA:1876,_ZNK5neml213VariableStore26collect_output_derivativesEv
FNDA:34,_ZNK5neml213VariableStore33collect_output_second_derivativesEv
FNDA:5871,_ZNK5neml213VariableStore19collect_input_stackEv
FNDA:337,_ZNK5neml213VariableStore20collect_output_stackEbbb
FNDA:812,_ZN5neml213VariableStore12declare_axisERKSs
FNDA:406,_ZN5neml213VariableStore12setup_layoutEv
FNDA:0,_ZN5neml213VariableStore22declare_input_variableINS_10QuaternionEEERKNS_8VariableIT_EEPKcN3c108ArrayRefIlEE
FNDA:0,_ZN5neml213VariableStore22declare_input_variableINS_11MillerIndexEEERKNS_8VariableIT_EEPKcN3c108ArrayRefIlEE
FNDA:19,_ZN5neml213VariableStore22declare_input_variableINS_2R2EEERKNS_8VariableIT_EEPKcN3c108ArrayRefIlEE
FNDA:0,_ZN5neml213VariableStore22declare_input_variableINS_2R3EEERKNS_8VariableIT_EEPKcN3c108ArrayRefIlEE
FNDA:0,_ZN5neml213VariableStore22declare_input_variableINS_2R4EEERKNS_8VariableIT_EEPKcN3c108ArrayRefIlEE
FNDA:0,_ZN5neml213VariableStore22declare_input_variableINS_2R5EEERKNS_8VariableIT_EEPKcN3c108ArrayRefIlEE
FNDA:0,_ZN5neml213VariableStore22declare_input_variableINS_2R8EEERKNS_8VariableIT_EEPKcN3c108ArrayRefIlEE
FNDA:13,_ZN5neml213VariableStore22declare_input_variableINS_3RotEEERKNS_8VariableIT_EEPKcN3c108ArrayRefIlEE
FNDA:88,_ZN5neml213VariableStore22declare_input_variableINS_3SR2EEERKNS_8VariableIT_EEPKcN3c108ArrayRefIlEE
FNDA:1,_ZN5neml213VariableStore22declare_input_variableINS_3VecEEERKNS_8VariableIT_EEPKcN3c108ArrayRefIlEE
FNDA:6,_ZN5neml213VariableStore22declare_input_variableINS_3WR2EEERKNS_8VariableIT_EEPKcN3c108ArrayRefIlEE
FNDA:0,_ZN5neml213VariableStore22declare_input_variableINS_4SFR3EEERKNS_8VariableIT_EEPKcN3c108ArrayRefIlEE
FNDA:0,_ZN5neml213VariableStore22declare_input_variableINS_4SFR4EEERKNS_8VariableIT_EEPKcN3c108ArrayRefIlEE
FNDA:2,_ZN5neml213VariableStore22declare_input_variableINS_4SSR4EEERKNS_8VariableIT_EEPKcN3c108ArrayRefIlEE
FNDA:0,_ZN5neml213VariableStore22declare_input_variableINS_4SWR4EEERKNS_8VariableIT_EEPKcN3c108ArrayRefIlEE
FNDA:0,_ZN5neml213VariableStore22declare_input_variableINS_4WFR4EEERKNS_8VariableIT_EEPKcN3c108ArrayRefIlEE
FNDA:0,_ZN5neml213VariableStore22declare_input_variableINS_4WSR4EEERKNS_8VariableIT_EEPKcN3c108ArrayRefIlEE
FNDA:0,_ZN5neml213VariableStore22declare_input_variableINS_4WWR4EEERKNS_8VariableIT_EEPKcN3c108ArrayRefIlEE
FNDA:0,_ZN5neml213VariableStore22declare_input_variableINS_5SFFR4EEERKNS_8VariableIT_EEPKcN3c108ArrayRefIlEE
FNDA:0,_ZN5neml213VariableStore22declare_input_variableINS_5SSFR5EEERKNS_8VariableIT_EEPKcN3c108ArrayRefIlEE
FNDA:0,_ZN5neml213VariableStore22declare_input_variableINS_6SSSSR8EEERKNS_8VariableIT_EEPKcN3c108ArrayRefIlEE
FNDA:268,_ZN5neml213VariableStore22declare_input_variableINS_6ScalarEEERKNS_8VariableIT_EEPKcN3c108ArrayRefIlEE
FNDA:0,_ZN5neml213VariableStore22declare_input_variableINS_10QuaternionEEERKNS_8VariableIT_EERKNS_19LabeledAxisAccessorEN3c108ArrayRefIlEE
FNDA:0,_ZN5neml213VariableStore22declare_input_variableINS_11MillerIndexEEERKNS_8VariableIT_EERKNS_19LabeledAxisAccessorEN3c108ArrayRefIlEE
FNDA:19,_ZN5neml213VariableStore22declare_input_variableINS_2R2EEERKNS_8VariableIT_EERKNS_19LabeledAxisAccessorEN3c108ArrayRefIlEE
FNDA:0,_ZN5neml213VariableStore22declare_input_variableINS_2R3EEERKNS_8VariableIT_EERKNS_19LabeledAxisAccessorEN3c108ArrayRefIlEE
FNDA:0,_ZN5neml213VariableStore22declare_input_variableINS_2R4EEERKNS_8VariableIT_EERKNS_19LabeledAxisAccessorEN3c108ArrayRefIlEE
FNDA:0,_ZN5neml213VariableStore22declare_input_variableINS_2R5EEERKNS_8VariableIT_EERKNS_19LabeledAxisAccessorEN3c108ArrayRefIlEE
FNDA:0,_ZN5neml213VariableStore22declare_input_variableINS_2R8EEERKNS_8VariableIT_EERKNS_19LabeledAxisAccessorEN3c108ArrayRefIlEE
FNDA:16,_ZN5neml213VariableStore22declare_input_variableINS_3RotEEERKNS_8VariableIT_EERKNS_19LabeledAxisAccessorEN3c108ArrayRefIlEE
FNDA:173,_ZN5neml213VariableStore22declare_input_variableINS_3SR2EEERKNS_8VariableIT_EERKNS_19LabeledAxisAccessorEN3c108ArrayRefIlEE
FNDA:1,_ZN5neml213VariableStore22declare_input_variableINS_3VecEEERKNS_8VariableIT_EERKNS_19LabeledAxisAccessorEN3c108ArrayRefIlEE
FNDA:9,_ZN5neml213VariableStore22declare_input_variableINS_3WR2EEERKNS_8VariableIT_EERKNS_19LabeledAxisAccessorEN3c108ArrayRefIlEE
FNDA:0,_ZN5neml213VariableStore22declare_input_variableINS_4SFR3EEERKNS_8VariableIT_EERKNS_19LabeledAxisAccessorEN3c108ArrayRefIlEE
FNDA:0,_ZN5neml213VariableStore22declare_input_variableINS_4SFR4EEERKNS_8VariableIT_EERKNS_19LabeledAxisAccessorEN3c108ArrayRefIlEE
FNDA:4,_ZN5neml213VariableStore22declare_input_variableINS_4SSR4EEERKNS_8VariableIT_EERKNS_19LabeledAxisAccessorEN3c108ArrayRefIlEE
FNDA:0,_ZN5neml213VariableStore22declare_input_variableINS_4SWR4EEERKNS_8VariableIT_EERKNS_19LabeledAxisAccessorEN3c108ArrayRefIlEE
FNDA:0,_ZN5neml213VariableStore22declare_input_variableINS_4WFR4EEERKNS_8VariableIT_EERKNS_19LabeledAxisAccessorEN3c108ArrayRefIlEE
FNDA:0,_ZN5neml213VariableStore22declare_input_variableINS_4WSR4EEERKNS_8VariableIT_EERKNS_19LabeledAxisAccessorEN3c108ArrayRefIlEE
FNDA:0,_ZN5neml213VariableStore22declare_input_variableINS_4WWR4EEERKNS_8VariableIT_EERKNS_19LabeledAxisAccessorEN3c108ArrayRefIlEE
FNDA:0,_ZN5neml213VariableStore22declare_input_variableINS_5SFFR4EEERKNS_8VariableIT_EERKNS_19LabeledAxisAccessorEN3c108ArrayRefIlEE
FNDA:0,_ZN5neml213VariableStore22declare_input_variableINS_5SSFR5EEERKNS_8VariableIT_EERKNS_19LabeledAxisAccessorEN3c108ArrayRefIlEE
FNDA:0,_ZN5neml213VariableStore22declare_input_variableINS_6SSSSR8EEERKNS_8VariableIT_EERKNS_19LabeledAxisAccessorEN3c108ArrayRefIlEE
FNDA:468,_ZN5neml213VariableStore22declare_input_variableINS_6ScalarEEERKNS_8VariableIT_EERKNS_19LabeledAxisAccessorEN3c108ArrayRefIlEE
FNDA:0,_ZN5neml213VariableStore23declare_output_variableINS_10QuaternionEEERNS_8VariableIT_EEPKcN3c108ArrayRefIlEE
FNDA:0,_ZN5neml213VariableStore23declare_output_variableINS_11MillerIndexEEERNS_8VariableIT_EEPKcN3c108ArrayRefIlEE
FNDA:12,_ZN5neml213VariableStore23declare_output_variableINS_2R2EEERNS_8VariableIT_EEPKcN3c108ArrayRefIlEE
FNDA:0,_ZN5neml213VariableStore23declare_output_variableINS_2R3EEERNS_8VariableIT_EEPKcN3c108ArrayRefIlEE
FNDA:0,_ZN5neml213VariableStore23declare_output_variableINS_2R4EEERNS_8VariableIT_EEPKcN3c108ArrayRefIlEE
FNDA:0,_ZN5neml213VariableStore23declare_output_variableINS_2R5EEERNS_8VariableIT_EEPKcN3c108ArrayRefIlEE
FNDA:0,_ZN5neml213VariableStore23declare_output_variableINS_2R8EEERNS_8VariableIT_EEPKcN3c108ArrayRefIlEE
FNDA:2,_ZN5neml213VariableStore23declare_output_variableINS_3RotEEERNS_8VariableIT_EEPKcN3c108ArrayRefIlEE
FNDA:50,_ZN5neml213VariableStore23declare_output_variableINS_3SR2EEERNS_8VariableIT_EEPKcN3c108ArrayRefIlEE
FNDA:1,_ZN5neml213VariableStore23declare_output_variableINS_3VecEEERNS_8VariableIT_EEPKcN3c108ArrayRefIlEE
FNDA:5,_ZN5neml213VariableStore23declare_output_variableINS_3WR2EEERNS_8VariableIT_EEPKcN3c108ArrayRefIlEE
FNDA:0,_ZN5neml213VariableStore23declare_output_variableINS_4SFR3EEERNS_8VariableIT_EEPKcN3c108ArrayRefIlEE
FNDA:0,_ZN5neml213VariableStore23declare_output_variableINS_4SFR4EEERNS_8VariableIT_EEPKcN3c108ArrayRefIlEE
FNDA:0,_ZN5neml213VariableStore23declare_output_variableINS_4SSR4EEERNS_8VariableIT_EEPKcN3c108ArrayRefIlEE
FNDA:0,_ZN5neml213VariableStore23declare_output_variableINS_4SWR4EEERNS_8VariableIT_EEPKcN3c108ArrayRefIlEE
FNDA:0,_ZN5neml213VariableStore23declare_output_variableINS_4WFR4EEERNS_8VariableIT_EEPKcN3c108ArrayRefIlEE
FNDA:0,_ZN5neml213VariableStore23declare_output_variableINS_4WSR4EEERNS_8VariableIT_EEPKcN3c108ArrayRefIlEE
FNDA:0,_ZN5neml213VariableStore23declare_output_variableINS_4WWR4EEERNS_8VariableIT_EEPKcN3c108ArrayRefIlEE
FNDA:0,_ZN5neml213VariableStore23declare_output_variableINS_5SFFR4EEERNS_8VariableIT_EEPKcN3c108ArrayRefIlEE
FNDA:0,_ZN5neml213VariableStore23declare_output_variableINS_5SSFR5EEERNS_8VariableIT_EEPKcN3c108ArrayRefIlEE
FNDA:0,_ZN5neml213VariableStore23declare_output_variableINS_6SSSSR8EEERNS_8VariableIT_EEPKcN3c108ArrayRefIlEE
FNDA:158,_ZN5neml213VariableStore23declare_output_variableINS_6ScalarEEERNS_8VariableIT_EEPKcN3c108ArrayRefIlEE
FNF:136
FNH:59
DA:36,406
DA:37,406
DA:38,812
DA:39,406
DA:40,812
DA:42,406
DA:45,812
DA:47,812
DA:52,812
DA:53,812
DA:54,1624
DA:55,812
DA:58,406
DA:60,406
DA:61,406
DA:62,406
DA:66,397
DA:68,1191
DA:69,1191
DA:71,0
DA:76,690
DA:78,690
DA:79,690
DA:80,690
DA:82,690
DA:83,690
DA:94,228
DA:96,684
DA:97,684
DA:99,0
DA:104,348
DA:106,348
DA:107,348
DA:108,348
DA:110,348
DA:111,348
DA:120,357
DA:122,357
DA:124,357
DA:125,357
DA:126,357
DA:127,357
DA:129,357
DA:130,357
DA:131,714
DA:132,357
DA:135,116
DA:137,116
DA:139,116
DA:140,116
DA:141,116
DA:142,116
DA:144,116
DA:145,116
DA:146,232
DA:147,116
DA:151,1038
DA:156,1038
DA:162,1038
DA:163,1038
DA:164,1038
DA:165,1038
DA:168,1038
DA:169,1038
DA:170,0
DA:173,1038
DA:174,1038
DA:181,50848
DA:183,50848
DA:184,50848
DA:188,50848
DA:189,101696
DA:193,35066
DA:196,35066
DA:200,12847
DA:202,12847
DA:203,12847
DA:207,12847
DA:208,25694
DA:212,378
DA:215,378
DA:219,0
DA:221,0
DA:222,0
DA:225,7944
DA:227,31198
DA:228,23254
DA:229,9440
DA:230,7944
DA:233,7944
DA:235,17339
DA:236,9395
DA:237,7084
DA:238,7944
DA:241,7944
DA:243,31198
DA:244,23254
DA:245,9440
DA:246,7944
DA:249,7944
DA:251,17339
DA:252,9395
DA:253,7084
DA:254,7944
DA:257,2827
DA:259,11884
DA:260,9057
DA:261,9057
DA:262,2827
DA:265,1564
DA:267,6124
DA:268,4560
DA:269,4560
DA:270,1564
DA:273,26
DA:275,104
DA:276,78
DA:277,26
DA:280,9
DA:282,30
DA:284,21
DA:285,60
DA:286,39
DA:288,9
DA:291,337
DA:293,337
DA:294,337
DA:296,337
DA:298,337
DA:302,1215
DA:303,878
DA:306,337
DA:307,337
DA:310,5534
DA:312,5534
DA:315,5534
DA:316,5534
DA:319,5534
DA:320,5534
DA:322,11068
DA:324,11068
DA:326,5534
DA:328,5534
DA:329,5534
DA:331,5534
DA:332,5534
DA:334,5534
DA:336,10663
DA:338,7035
DA:339,7035
DA:343,5534
DA:345,6167
DA:347,4293
DA:348,40684
DA:350,36391
DA:352,13407
DA:353,13407
DA:359,13407
DA:361,13407
DA:367,5534
DA:369,68
DA:371,34
DA:372,93
DA:373,232
DA:375,173
DA:377,114
DA:378,114
DA:386,114
DA:388,114
DA:394,5534
DA:395,5534
DA:398,189
DA:400,189
DA:401,1826
DA:402,1637
DA:403,189
DA:404,0
DA:407,3728
DA:409,3728
DA:410,11134
DA:411,7406
DA:412,3728
DA:413,0
DA:416,1876
DA:418,1876
DA:419,6173
DA:420,4297
DA:421,1876
DA:422,0
DA:425,34
DA:427,34
DA:428,68
DA:429,34
DA:430,34
DA:431,0
DA:434,5871
DA:436,5871
DA:437,5871
DA:438,5871
DA:439,40341
DA:440,34470
DA:441,5871
DA:442,0
DA:445,337
DA:447,337
DA:450,337
DA:451,337
DA:453,337
DA:454,337
DA:456,337
DA:458,155
DA:459,328
DA:460,173
DA:463,337
DA:465,321
DA:467,171
DA:468,739
DA:470,568
DA:471,568
DA:472,568
DA:473,439
DA:478,337
DA:480,68
DA:482,34
DA:483,93
DA:485,59
DA:486,59
DA:487,195
DA:489,152
DA:490,152
DA:491,152
DA:493,152
DA:494,114
DA:497,16
DA:502,337
DA:503,337
DA:504,337
DA:508,337
DA:509,337
DA:511,1348
DA:512,674
LF:241
LH:230
end_of_record
TN:
SF:/home/runner/work/neml2/neml2/src/neml2/models/WR2ExplicitExponentialTimeIntegration.cxx
FN:36,53,_ZN5neml237WR2ExplicitExponentialTimeIntegration16expected_optionsEv
FN:55,66,_ZN5neml237WR2ExplicitExponentialTimeIntegrationC2ERKNS_9OptionSetE
FN:69,75,_ZNK5neml237WR2ExplicitExponentialTimeIntegration8diagnoseEv
FN:78,100,_ZN5neml237WR2ExplicitExponentialTimeIntegration9set_valueEbbb
FNDA:2,_ZN5neml237WR2ExplicitExponentialTimeIntegration16expected_optionsEv
FNDA:1,_ZN5neml237WR2ExplicitExponentialTimeIntegrationC2ERKNS_9OptionSetE
FNDA:0,_ZNK5neml237WR2ExplicitExponentialTimeIntegration8diagnoseEv
FNDA:2,_ZN5neml237WR2ExplicitExponentialTimeIntegration9set_valueEbbb
FNF:4
FNH:3
DA:36,2
DA:38,2
DA:39,2
DA:41,2
DA:43,4
DA:44,4
DA:46,4
DA:47,2
DA:49,6
DA:50,2
DA:52,2
DA:53,0
DA:55,1
DA:56,1
DA:58,1
DA:59,1
DA:60,1
DA:61,4
DA:62,1
DA:63,1
DA:64,2
DA:66,1
DA:69,0
DA:71,0
DA:72,0
DA:73,0
DA:74,0
DA:75,0
DA:78,2
DA:80,2
DA:83,2
DA:85,2
DA:86,1
DA:88,2
DA:90,1
DA:91,1
DA:93,1
DA:94,0
DA:96,1
DA:97,1
DA:98,1
DA:99,1
DA:100,2
LF:43
LH:35
end_of_record
TN:
SF:/home/runner/work/neml2/neml2/src/neml2/models/WR2ImplicitExponentialTimeIntegration.cxx
FN:38,58,_ZN5neml237WR2ImplicitExponentialTimeIntegration16expected_optionsEv
FN:60,72,_ZN5neml237WR2ImplicitExponentialTimeIntegrationC2ERKNS_9OptionSetE
FN:75,81,_ZNK5neml237WR2ImplicitExponentialTimeIntegration8diagnoseEv
FN:84,105,_ZN5neml237WR2ImplicitExponentialTimeIntegration9set_valueEbbb
FNDA:2,_ZN5neml237WR2ImplicitExponentialTimeIntegration16expected_optionsEv
FNDA:2,_ZN5neml237WR2ImplicitExponentialTimeIntegrationC2ERKNS_9OptionSetE
FNDA:1,_ZNK5neml237WR2ImplicitExponentialTimeIntegration8diagnoseEv
FNDA:4,_ZN5neml237WR2ImplicitExponentialTimeIntegration9set_valueEbbb
FNF:4
FNH:4
DA:38,2
DA:40,2
DA:41,2
DA:44,2
DA:46,2
DA:48,4
DA:49,4
DA:51,4
DA:52,2
DA:54,6
DA:55,2
DA:57,2
DA:58,0
DA:60,2
DA:61,2
DA:63,2
DA:64,2
DA:65,2
DA:66,8
DA:67,2
DA:68,2
DA:69,2
DA:70,4
DA:72,2
DA:75,1
DA:77,1
DA:78,1
DA:79,1
DA:80,1
DA:81,1
DA:84,4
DA:86,4
DA:87,4
DA:89,4
DA:90,3
DA:92,4
DA:94,2
DA:95,2
DA:96,2
DA:98,2
DA:99,1
DA:101,1
DA:102,1
DA:103,1
DA:104,2
DA:105,5
LF:46
LH:45
end_of_record
TN:
SF:/home/runner/work/neml2/neml2/src/neml2/models/crystallography/CrystalGeometry.cxx
FN:118,121,_ZNK5neml215crystallography15CrystalGeometry2a1Ev
FN:124,127,_ZNK5neml215crystallography15CrystalGeometry2a2Ev
FN:130,133,_ZNK5neml215crystallography15CrystalGeometry2a3Ev
FN:136,139,_ZNK5neml215crystallography15CrystalGeometry2b1Ev
FN:142,145,_ZNK5neml215crystallography15CrystalGeometry2b2Ev
FN:148,151,_ZNK5neml215crystallography15CrystalGeometry2b3Ev
FN:154,157,_ZNK5neml215crystallography15CrystalGeometry5nslipEv
FN:160,164,_ZNK5neml215crystallography15CrystalGeometry12nslip_groupsEv
FN:167,171,_ZNK5neml215crystallography15CrystalGeometry14nslip_in_groupEl
FN:174,185,_ZN5neml215crystallography15CrystalGeometry23make_reciprocal_latticeERKNS_3VecE
FN:188,192,_ZN5neml215crystallography15CrystalGeometry19miller_to_cartesianERKNS_3VecERKNS_11MillerIndexE
FN:195,253,_ZN5neml215crystallography15CrystalGeometry20setup_schmid_tensorsERKNS_3VecERKNS_2R2ERKNS_11MillerIndexESA_
FN:44,65,_ZN5neml215crystallography15CrystalGeometry16expected_optionsEv
FN:67,77,_ZN5neml215crystallography15CrystalGeometryC2ERKNS_9OptionSetE
FN:79,91,_ZN5neml215crystallography15CrystalGeometryC2ERKNS_9OptionSetERKNS_2R2ERKNS_3VecE
FN:93,115,_ZN5neml215crystallography15CrystalGeometryC2ERKNS_9OptionSetERKNS_2R2ERKNS_3VecESt5tupleIJS8_S8_NS_6ScalarESt6vectorIlSaIlEEEE
FNDA:2,_ZNK5neml215crystallography15CrystalGeometry2a1Ev
FNDA:2,_ZNK5neml215crystallography15CrystalGeometry2a2Ev
FNDA:2,_ZNK5neml215crystallography15CrystalGeometry2a3Ev
FNDA:2,_ZNK5neml215crystallography15CrystalGeometry2b1Ev
FNDA:2,_ZNK5neml215crystallography15CrystalGeometry2b2Ev
FNDA:2,_ZNK5neml215crystallography15CrystalGeometry2b3Ev
FNDA:25,_ZNK5neml215crystallography15CrystalGeometry5nslipEv
FNDA:6,_ZNK5neml215crystallography15CrystalGeometry12nslip_groupsEv
FNDA:2,_ZNK5neml215crystallography15CrystalGeometry14nslip_in_groupEl
FNDA:62,_ZN5neml215crystallography15CrystalGeometry23make_reciprocal_latticeERKNS_3VecE
FNDA:62,_ZN5neml215crystallography15CrystalGeometry19miller_to_cartesianERKNS_3VecERKNS_11MillerIndexE
FNDA:31,_ZN5neml215crystallography15CrystalGeometry20setup_schmid_tensorsERKNS_3VecERKNS_2R2ERKNS_11MillerIndexESA_
FNDA:4,_ZN5neml215crystallography15CrystalGeometry16expected_optionsEv
FNDA:11,_ZN5neml215crystallography15CrystalGeometryC2ERKNS_9OptionSetE
FNDA:20,_ZN5neml215crystallography15CrystalGeometryC2ERKNS_9OptionSetERKNS_2R2ERKNS_3VecE
FNDA:31,_ZN5neml215crystallography15CrystalGeometryC2ERKNS_9OptionSetERKNS_2R2ERKNS_3VecESt5tupleIJS8_S8_NS_6ScalarESt6vectorIlSaIlEEEE
FNF:16
FNH:16
DA:44,4
DA:46,4
DA:48,4
DA:49,4
DA:51,8
DA:52,8
DA:54,8
DA:55,12
DA:56,4
DA:58,8
DA:59,8
DA:61,8
DA:62,4
DA:64,4
DA:65,0
DA:67,11
DA:70,22
DA:71,22
DA:72,55
DA:73,22
DA:74,22
DA:75,44
DA:77,11
DA:79,20
DA:81,20
DA:86,60
DA:88,40
DA:89,60
DA:91,20
DA:93,31
DA:96,31
DA:98,31
DA:99,31
DA:100,31
DA:101,62
DA:102,124
DA:103,124
DA:104,31
DA:105,62
DA:106,62
DA:107,62
DA:108,31
DA:109,31
DA:110,62
DA:111,62
DA:112,93
DA:113,124
DA:115,31
DA:118,2
DA:120,6
DA:121,2
DA:124,2
DA:126,6
DA:127,2
DA:130,2
DA:132,6
DA:133,2
DA:136,2
DA:138,6
DA:139,2
DA:142,2
DA:144,6
DA:145,2
DA:148,2
DA:150,6
DA:151,2
DA:154,25
DA:156,25
DA:160,6
DA:163,6
DA:167,2
DA:169,2
DA:170,2
DA:174,62
DA:176,124
DA:177,124
DA:178,124
DA:180,434
DA:181,124
DA:182,186
DA:184,124
DA:185,496
DA:188,62
DA:191,62
DA:195,31
DA:201,31
DA:204,31
DA:205,0
DA:207,31
DA:208,31
DA:211,31
DA:212,31
DA:213,31
DA:214,62
DA:216,62
DA:219,93
DA:220,93
DA:223,31
DA:224,31
DA:229,31
DA:230,217
DA:232,558
DA:233,186
DA:234,186
DA:236,558
DA:238,744
DA:239,1116
DA:240,372
DA:241,372
DA:242,372
DA:243,372
DA:244,372
DA:245,186
DA:246,31
DA:247,31
DA:249,62
DA:250,62
DA:251,62
DA:252,62
DA:253,1023
LF:120
LH:118
end_of_record
TN:
SF:/home/runner/work/neml2/neml2/src/neml2/models/crystallography/CubicCrystal.cxx
FN:37,50,_ZN5neml215crystallography12CubicCrystal16expected_optionsEv
FN:52,58,_ZN5neml215crystallography12CubicCrystalC2ERKNS_9OptionSetE
FNDA:2,_ZN5neml215crystallography12CubicCrystal16expected_optionsEv
FNDA:20,_ZN5neml215crystallography12CubicCrystalC2ERKNS_9OptionSetE
FNF:2
FNH:2
DA:37,2
DA:39,2
DA:40,2
DA:41,2
DA:43,4
DA:44,4
DA:46,4
DA:47,2
DA:49,2
DA:50,0
DA:52,20
DA:55,80
DA:56,80
DA:58,20
LF:14
LH:13
end_of_record
TN:
SF:/home/runner/work/neml2/neml2/src/neml2/models/pyrolysis/AvramiErofeevNucleation.cxx
FN:34,49,_ZN5neml223AvramiErofeevNucleation16expected_optionsEv
FN:51,56,_ZN5neml223AvramiErofeevNucleationC2ERKNS_9OptionSetE
FN:59,72,_ZN5neml223AvramiErofeevNucleation9set_valueEbbb
FNDA:2,_ZN5neml223AvramiErofeevNucleation16expected_optionsEv
FNDA:1,_ZN5neml223AvramiErofeevNucleationC2ERKNS_9OptionSetE
FNDA:2,_ZN5neml223AvramiErofeevNucleation9set_valueEbbb
FNF:3
FNH:3
DA:34,2
DA:36,2
DA:37,2
DA:40,2
DA:42,4
DA:43,4
DA:45,4
DA:46,2
DA:48,2
DA:49,0
DA:51,1
DA:53,3
DA:54,5
DA:56,1
DA:59,2
DA:61,2
DA:63,2
DA:65,1
DA:68,2
DA:70,1
DA:72,2
LF:21
LH:20
end_of_record
TN:
SF:/home/runner/work/neml2/neml2/src/neml2/models/pyrolysis/ChemicalReactionMechanism.cxx
FN:33,48,_ZN5neml225ChemicalReactionMechanism16expected_optionsEv
FN:50,55,_ZN5neml225ChemicalReactionMechanismC2ERKNS_9OptionSetE
FN:58,71,_ZN5neml225ChemicalReactionMechanism9set_valueEbbb
FNDA:2,_ZN5neml225ChemicalReactionMechanism16expected_optionsEv
FNDA:1,_ZN5neml225ChemicalReactionMechanismC2ERKNS_9OptionSetE
FNDA:2,_ZN5neml225ChemicalReactionMechanism9set_valueEbbb
FNF:3
FNH:3
DA:33,2
DA:35,2
DA:36,2
DA:39,2
DA:41,4
DA:42,4
DA:44,4
DA:45,2
DA:47,2
DA:48,0
DA:50,1
DA:52,3
DA:53,5
DA:55,1
DA:58,2
DA:60,2
DA:62,2
DA:64,1
DA:67,2
DA:69,1
DA:71,2
LF:21
LH:20
end_of_record
TN:
SF:/home/runner/work/neml2/neml2/src/neml2/models/pyrolysis/PyrolysisConversionAmount.cxx
FN:32,56,_ZN5neml225PyrolysisConversionAmount16expected_optionsEv
FN:58,66,_ZN5neml225PyrolysisConversionAmountC2ERKNS_9OptionSetE
FN:69,84,_ZN5neml225PyrolysisConversionAmount9set_valueEbbb
FNDA:2,_ZN5neml225PyrolysisConversionAmount16expected_optionsEv
FNDA:1,_ZN5neml225PyrolysisConversionAmountC2ERKNS_9OptionSetE
FNDA:2,_ZN5neml225PyrolysisConversionAmount9set_valueEbbb
FNF:3
FNH:3
DA:32,2
DA:34,2
DA:35,2
DA:37,2
DA:39,4
DA:40,4
DA:42,4
DA:43,4
DA:45,4
DA:46,4
DA:47,2
DA:49,6
DA:50,2
DA:52,6
DA:53,2
DA:55,2
DA:56,0
DA:58,1
DA:60,3
DA:61,4
DA:62,4
DA:63,1
DA:64,2
DA:66,1
DA:69,2
DA:71,2
DA:73,2
DA:75,2
DA:77,1
DA:80,2
DA:82,1
DA:84,2
LF:32
LH:31
end_of_record
TN:
SF:/home/runner/work/neml2/neml2/src/neml2/models/pyrolysis/PyrolysisKinetics.cxx
FN:33,61,_ZN5neml217PyrolysisKinetics16expected_optionsEv
FN:63,72,_ZN5neml217PyrolysisKineticsC2ERKNS_9OptionSetE
FN:75,89,_ZN5neml217PyrolysisKinetics9set_valueEbbb
FNDA:2,_ZN5neml217PyrolysisKinetics16expected_optionsEv
FNDA:1,_ZN5neml217PyrolysisKineticsC2ERKNS_9OptionSetE
FNDA:2,_ZN5neml217PyrolysisKinetics9set_valueEbbb
FNF:3
FNH:3
DA:33,2
DA:35,2
DA:36,2
DA:40,2
DA:42,4
DA:43,4
DA:45,4
DA:46,4
DA:48,4
DA:49,2
DA:51,6
DA:52,2
DA:54,6
DA:55,2
DA:57,6
DA:58,2
DA:60,2
DA:61,0
DA:63,1
DA:65,3
DA:66,4
DA:67,4
DA:68,1
DA:69,1
DA:70,2
DA:72,1
DA:75,2
DA:77,2
DA:79,2
DA:81,1
DA:84,2
DA:86,1
DA:87,1
DA:89,2
LF:34
LH:33
end_of_record
TN:
SF:/home/runner/work/neml2/neml2/src/neml2/models/pyrolysis/ReactionMechanism.cxx
FN:30,42,_ZN5neml217ReactionMechanism16expected_optionsEv
FN:44,49,_ZN5neml217ReactionMechanismC2ERKNS_9OptionSetE
FNDA:4,_ZN5neml217ReactionMechanism16expected_optionsEv
FNDA:2,_ZN5neml217ReactionMechanismC2ERKNS_9OptionSetE
FNF:2
FNH:2
DA:30,4
DA:32,4
DA:33,4
DA:35,12
DA:36,4
DA:38,12
DA:39,4
DA:41,4
DA:42,0
DA:44,2
DA:46,2
DA:47,4
DA:49,2
LF:13
LH:12
end_of_record
TN:
SF:/home/runner/work/neml2/neml2/src/neml2/models/reactive_infiltration/DiffusionLimitedReaction.cxx
FN:33,61,_ZN5neml224DiffusionLimitedReaction16expected_optionsEv
FN:63,74,_ZN5neml224DiffusionLimitedReactionC2ERKNS_9OptionSetE
FN:77,98,_ZN5neml224DiffusionLimitedReaction9set_valueEbbb
FNDA:2,_ZN5neml224DiffusionLimitedReaction16expected_optionsEv
FNDA:1,_ZN5neml224DiffusionLimitedReactionC2ERKNS_9OptionSetE
FNDA:2,_ZN5neml224DiffusionLimitedReaction9set_valueEbbb
FNF:3
FNH:3
DA:33,2
DA:35,2
DA:36,2
DA:38,6
DA:39,2
DA:40,6
DA:41,4
DA:42,4
DA:43,2
DA:45,6
DA:46,2
DA:47,6
DA:48,2
DA:50,6
DA:51,4
DA:53,4
DA:54,6
DA:55,2
DA:57,4
DA:58,2
DA:60,2
DA:61,0
DA:63,1
DA:65,1
DA:66,1
DA:67,1
DA:68,1
DA:69,1
DA:70,1
DA:71,5
DA:72,2
DA:74,1
DA:77,2
DA:79,2
DA:81,2
DA:82,2
DA:84,2
DA:86,1
DA:89,2
DA:91,1
DA:93,1
DA:94,1
DA:95,1
DA:96,1
DA:97,1
DA:98,2
LF:46
LH:45
end_of_record
TN:
SF:/home/runner/work/neml2/neml2/src/neml2/models/reactive_infiltration/ProductGeometry.cxx
FN:36,52,_ZN5neml215ProductGeometry16expected_optionsEv
FN:54,61,_ZN5neml215ProductGeometryC2ERKNS_9OptionSetE
FN:64,84,_ZN5neml215ProductGeometry9set_valueEbbb
FNDA:2,_ZN5neml215ProductGeometry16expected_optionsEv
FNDA:1,_ZN5neml215ProductGeometryC2ERKNS_9OptionSetE
FNDA:2,_ZN5neml215ProductGeometry9set_valueEbbb
FNF:3
FNH:3
DA:36,2
DA:38,2
DA:39,2
DA:41,6
DA:42,2
DA:43,6
DA:44,2
DA:46,6
DA:47,2
DA:48,6
DA:49,2
DA:51,2
DA:52,0
DA:54,1
DA:56,1
DA:57,1
DA:58,1
DA:59,2
DA:61,1
DA:64,2
DA:66,2
DA:68,2
DA:69,2
DA:70,2
DA:72,2
DA:74,1
DA:75,1
DA:78,2
DA:80,1
DA:81,1
DA:82,1
DA:84,2
LF:32
LH:31
end_of_record
TN:
SF:/home/runner/work/neml2/neml2/src/neml2/models/solid_mechanics/AssociativeIsotropicPlasticHardening.cxx
FN:33,50,_ZN5neml236AssociativeIsotropicPlasticHardening16expected_optionsEv
FN:52,58,_ZN5neml236AssociativeIsotropicPlasticHardeningC2ERKNS_9OptionSetE
FN:61,78,_ZN5neml236AssociativeIsotropicPlasticHardening9set_valueEbbb
FNDA:2,_ZN5neml236AssociativeIsotropicPlasticHardening16expected_optionsEv
FNDA:2,_ZN5neml236AssociativeIsotropicPlasticHardeningC2ERKNS_9OptionSetE
FNDA:4,_ZN5neml236AssociativeIsotropicPlasticHardening9set_valueEbbb
FNF:3
FNH:3
DA:33,2
DA:35,2
DA:36,2
DA:40,2
DA:42,6
DA:43,4
DA:44,2
DA:46,6
DA:47,2
DA:49,2
DA:50,0
DA:52,2
DA:53,2
DA:55,2
DA:56,4
DA:58,2
DA:61,4
DA:67,4
DA:68,3
DA:70,4
DA:72,2
DA:73,2
DA:75,2
DA:76,2
DA:78,4
LF:25
LH:24
end_of_record
TN:
SF:/home/runner/work/neml2/neml2/src/neml2/models/solid_mechanics/AssociativeJ2FlowDirection.cxx
FN:35,47,_ZN5neml226AssociativeJ2FlowDirection16expected_optionsEv
FN:49,54,_ZN5neml226AssociativeJ2FlowDirectionC2ERKNS_9OptionSetE
FN:57,76,_ZN5neml226AssociativeJ2FlowDirection9set_valueEbbb
FNDA:2,_ZN5neml226AssociativeJ2FlowDirection16expected_optionsEv
FNDA:1,_ZN5neml226AssociativeJ2FlowDirectionC2ERKNS_9OptionSetE
FNDA:2,_ZN5neml226AssociativeJ2FlowDirection9set_valueEbbb
FNF:3
FNH:3
DA:35,2
DA:37,2
DA:38,2
DA:40,6
DA:41,2
DA:43,6
DA:44,2
DA:46,2
DA:47,0
DA:49,1
DA:51,1
DA:52,2
DA:54,1
DA:57,2
DA:59,2
DA:60,2
DA:61,2
DA:63,2
DA:65,1
DA:68,2
DA:69,1
DA:71,1
DA:72,1
DA:74,1
DA:75,1
DA:76,2
LF:26
LH:25
end_of_record
TN:
SF:/home/runner/work/neml2/neml2/src/neml2/models/solid_mechanics/AssociativeKinematicPlasticHardening.cxx
FN:35,53,_ZN5neml236AssociativeKinematicPlasticHardening16expected_optionsEv
FN:55,61,_ZN5neml236AssociativeKinematicPlasticHardeningC2ERKNS_9OptionSetE
FN:64,83,_ZN5neml236AssociativeKinematicPlasticHardening9set_valueEbbb
FNDA:2,_ZN5neml236AssociativeKinematicPlasticHardening16expected_optionsEv
FNDA:1,_ZN5neml236AssociativeKinematicPlasticHardeningC2ERKNS_9OptionSetE
FNDA:2,_ZN5neml236AssociativeKinematicPlasticHardening9set_valueEbbb
FNF:3
FNH:3
DA:35,2
DA:37,2
DA:38,2
DA:43,2
DA:45,6
DA:46,4
DA:47,2
DA:49,6
DA:50,2
DA:52,2
DA:53,0
DA:55,1
DA:56,1
DA:58,1
DA:59,2
DA:61,1
DA:64,2
DA:70,2
DA:71,1
DA:73,2
DA:75,1
DA:77,1
DA:78,1
DA:80,1
DA:81,1
DA:82,1
DA:83,2
LF:27
LH:26
end_of_record
TN:
SF:/home/runner/work/neml2/neml2/src/neml2/models/solid_mechanics/AssociativePlasticFlow.cxx
FN:35,52,_ZN5neml222AssociativePlasticFlow16expected_optionsEv
FN:54,59,_ZN5neml222AssociativePlasticFlowC2ERKNS_9OptionSetE
FN:62,81,_ZN5neml222AssociativePlasticFlow9set_valueEbbb
FNDA:2,_ZN5neml222AssociativePlasticFlow16expected_optionsEv
FNDA:4,_ZN5neml222AssociativePlasticFlowC2ERKNS_9OptionSetE
FNDA:8,_ZN5neml222AssociativePlasticFlow9set_valueEbbb
FNF:3
FNH:3
DA:35,2
DA:37,2
DA:38,2
DA:43,2
DA:45,6
DA:46,2
DA:48,6
DA:49,2
DA:51,2
DA:52,0
DA:54,4
DA:56,4
DA:57,8
DA:59,4
DA:62,8
DA:68,8
DA:69,7
DA:71,8
DA:73,4
DA:75,4
DA:76,4
DA:78,4
DA:79,4
DA:80,4
DA:81,8
LF:25
LH:24
end_of_record
TN:
SF:/home/runner/work/neml2/neml2/src/neml2/models/solid_mechanics/ChabochePlasticHardening.cxx
FN:37,53,_ZN5neml224ChabochePlasticHardening16expected_optionsEv
FN:55,60,_ZN5neml224ChabochePlasticHardeningC2ERKNS_9OptionSetE
FN:63,101,_ZN5neml224ChabochePlasticHardening9set_valueEbbb
FNDA:2,_ZN5neml224ChabochePlasticHardening16expected_optionsEv
FNDA:4,_ZN5neml224ChabochePlasticHardeningC2ERKNS_9OptionSetE
FNDA:8,_ZN5neml224ChabochePlasticHardening9set_valueEbbb
FNF:3
FNH:3
DA:37,2
DA:39,2
DA:40,2
DA:44,2
DA:46,4
DA:47,4
DA:49,4
DA:50,2
DA:52,2
DA:53,0
DA:55,4
DA:57,12
DA:58,20
DA:60,4
DA:63,8
DA:66,8
DA:68,8
DA:70,8
DA:72,8
DA:73,7
DA:75,8
DA:77,4
DA:79,4
DA:80,4
DA:82,4
DA:83,4
DA:85,4
DA:86,16
DA:87,20
DA:89,12
DA:90,1
DA:92,12
DA:93,1
DA:95,12
DA:96,1
DA:98,12
DA:99,1
DA:100,4
DA:101,8
LF:39
LH:38
end_of_record
TN:
SF:/home/runner/work/neml2/neml2/src/neml2/models/solid_mechanics/Eigenstrain.cxx
FN:31,39,_ZN5neml211Eigenstrain16expected_optionsEv
FN:41,45,_ZN5neml211EigenstrainC2ERKNS_9OptionSetE
FNDA:6,_ZN5neml211Eigenstrain16expected_optionsEv
FNDA:4,_ZN5neml211EigenstrainC2ERKNS_9OptionSetE
FNF:2
FNH:2
DA:31,6
DA:33,6
DA:35,18
DA:36,6
DA:38,6
DA:39,0
DA:41,4
DA:43,4
DA:45,4
LF:9
LH:8
end_of_record
TN:
SF:/home/runner/work/neml2/neml2/src/neml2/models/solid_mechanics/FlowRule.cxx
FN:31,41,_ZN5neml28FlowRule16expected_optionsEv
FN:43,47,_ZN5neml28FlowRuleC2ERKNS_9OptionSetE
FNDA:12,_ZN5neml28FlowRule16expected_optionsEv
FNDA:17,_ZN5neml28FlowRuleC2ERKNS_9OptionSetE
FNF:2
FNH:2
DA:31,12
DA:33,12
DA:34,12
DA:35,12
DA:37,36
DA:38,12
DA:40,12
DA:41,0
DA:43,17
DA:45,17
DA:47,17
LF:11
LH:10
end_of_record
TN:
SF:/home/runner/work/neml2/neml2/src/neml2/models/solid_mechanics/FredrickArmstrongPlasticHardening.cxx
FN:35,63,_ZN5neml233FredrickArmstrongPlasticHardening16expected_optionsEv
FN:65,75,_ZN5neml233FredrickArmstrongPlasticHardeningC2ERKNS_9OptionSetE
FN:78,107,_ZN5neml233FredrickArmstrongPlasticHardening9set_valueEbbb
FNDA:4,_ZN5neml233FredrickArmstrongPlasticHardening16expected_optionsEv
FNDA:6,_ZN5neml233FredrickArmstrongPlasticHardeningC2ERKNS_9OptionSetE
FNDA:4,_ZN5neml233FredrickArmstrongPlasticHardening9set_valueEbbb
FNF:3
FNH:3
DA:35,4
DA:37,4
DA:38,4
DA:45,4
DA:47,12
DA:48,8
DA:50,8
DA:51,4
DA:53,12
DA:54,8
DA:56,8
DA:57,8
DA:59,8
DA:60,4
DA:62,4
DA:63,0
DA:65,6
DA:67,6
DA:68,6
DA:69,18
DA:70,24
DA:72,24
DA:73,30
DA:75,6
DA:78,4
DA:81,4
DA:83,4
DA:85,4
DA:86,3
DA:88,4
DA:90,2
DA:92,2
DA:93,2
DA:95,2
DA:96,2
DA:98,2
DA:99,2
DA:101,6
DA:102,1
DA:104,6
DA:105,1
DA:106,2
DA:107,4
LF:43
LH:42
end_of_record
TN:
SF:/home/runner/work/neml2/neml2/src/neml2/models/solid_mechanics/GTNYieldFunction.cxx
FN:36,80,_ZN5neml216GTNYieldFunction16expected_optionsEv
FN:82,96,_ZN5neml216GTNYieldFunctionC2ERKNS_9OptionSetE
FN:99,406,_ZN5neml216GTNYieldFunction9set_valueEbbb
FNDA:2,_ZN5neml216GTNYieldFunction16expected_optionsEv
FNDA:3,_ZN5neml216GTNYieldFunctionC2ERKNS_9OptionSetE
FNDA:9,_ZN5neml216GTNYieldFunction9set_valueEbbb
FNF:3
FNH:3
DA:36,2
DA:38,2
DA:39,2
DA:47,2
DA:49,4
DA:51,4
DA:52,4
DA:54,4
DA:55,6
DA:56,2
DA:58,4
DA:59,4
DA:61,4
DA:62,2
DA:64,6
DA:65,2
DA:67,6
DA:68,4
DA:70,4
DA:71,2
DA:73,6
DA:74,2
DA:76,6
DA:77,2
DA:79,2
DA:80,0
DA:82,3
DA:84,3
DA:85,3
DA:86,3
DA:87,3
DA:88,3
DA:89,3
DA:90,3
DA:91,12
DA:92,12
DA:93,12
DA:94,15
DA:96,3
DA:99,9
DA:102,9
DA:104,9
DA:105,14
DA:106,21
DA:108,9
DA:110,5
DA:111,5
DA:113,5
DA:114,5
DA:116,5
DA:117,5
DA:119,5
DA:120,20
DA:121,25
DA:124,15
DA:125,8
DA:126,10
DA:128,15
DA:129,2
DA:131,15
DA:132,2
DA:134,15
DA:135,2
DA:138,9
DA:140,6
DA:141,6
DA:142,6
DA:143,6
DA:174,3
DA:176,3
DA:178,3
DA:179,3
DA:181,3
DA:182,1
DA:192,3
DA:194,6
DA:195,9
DA:197,3
DA:198,3
DA:200,3
DA:201,6
DA:202,6
DA:203,12
DA:204,15
DA:205,3
DA:206,2
DA:207,2
DA:208,4
DA:209,5
DA:211,3
DA:212,1
DA:214,3
DA:215,2
DA:216,2
DA:217,4
DA:218,5
DA:228,3
DA:230,3
DA:231,3
DA:233,3
DA:235,3
DA:236,3
DA:238,3
DA:239,1
DA:241,3
DA:242,1
DA:244,3
DA:245,1
DA:247,3
DA:248,1
DA:258,3
DA:260,3
DA:261,3
DA:263,3
DA:264,6
DA:265,6
DA:266,12
DA:267,15
DA:269,3
DA:270,3
DA:272,12
DA:273,6
DA:274,12
DA:275,15
DA:277,3
DA:278,2
DA:279,2
DA:280,2
DA:281,4
DA:282,5
DA:284,3
DA:285,1
DA:287,3
DA:288,2
DA:289,2
DA:290,4
DA:291,5
DA:301,3
DA:303,1
DA:304,1
DA:306,1
DA:307,1
DA:309,1
DA:310,2
DA:311,2
DA:312,2
DA:313,4
DA:314,5
DA:316,4
DA:317,2
DA:318,4
DA:319,5
DA:321,1
DA:322,1
DA:324,1
DA:325,2
DA:326,2
DA:327,4
DA:328,5
DA:338,3
DA:340,1
DA:341,1
DA:343,1
DA:344,1
DA:346,1
DA:347,1
DA:349,1
DA:350,1
DA:352,1
DA:353,1
DA:363,3
DA:365,1
DA:366,2
DA:367,2
DA:368,4
DA:369,5
DA:371,1
DA:372,1
DA:374,1
DA:375,2
DA:376,2
DA:377,4
DA:378,5
DA:380,1
DA:381,2
DA:382,2
DA:383,4
DA:384,5
DA:386,1
DA:387,1
DA:389,2
DA:390,3
DA:400,3
DA:402,1
DA:403,1
DA:406,9
LF:196
LH:195
end_of_record
TN:
SF:/home/runner/work/neml2/neml2/src/neml2/models/solid_mechanics/GursonCavitation.cxx
FN:35,51,_ZN5neml216GursonCavitation16expected_optionsEv
FN:53,59,_ZN5neml216GursonCavitationC2ERKNS_9OptionSetE
FN:62,79,_ZN5neml216GursonCavitation9set_valueEbbb
FNDA:2,_ZN5neml216GursonCavitation16expected_optionsEv
FNDA:1,_ZN5neml216GursonCavitationC2ERKNS_9OptionSetE
FNDA:2,_ZN5neml216GursonCavitation9set_valueEbbb
FNF:3
FNH:3
DA:35,2
DA:37,2
DA:38,2
DA:39,2
DA:41,6
DA:42,2
DA:44,6
DA:45,2
DA:47,6
DA:48,2
DA:50,2
DA:51,0
DA:53,1
DA:55,1
DA:56,1
DA:57,2
DA:59,1
DA:62,2
DA:64,2
DA:66,2
DA:67,1
DA:69,2
DA:71,1
DA:73,1
DA:74,1
DA:76,1
DA:77,1
DA:78,1
DA:79,2
LF:29
LH:28
end_of_record
TN:
SF:/home/runner/work/neml2/neml2/src/neml2/models/solid_mechanics/IsotropicHardening.cxx
FN:31,43,_ZN5neml218IsotropicHardening16expected_optionsEv
FN:45,50,_ZN5neml218IsotropicHardeningC2ERKNS_9OptionSetE
FNDA:4,_ZN5neml218IsotropicHardening16expected_optionsEv
FNDA:4,_ZN5neml218IsotropicHardeningC2ERKNS_9OptionSetE
FNF:2
FNH:2
DA:31,4
DA:33,4
DA:34,4
DA:36,12
DA:37,4
DA:39,12
DA:40,4
DA:42,4
DA:43,0
DA:45,4
DA:47,4
DA:48,8
DA:50,4
LF:13
LH:12
end_of_record
TN:
SF:/home/runner/work/neml2/neml2/src/neml2/models/solid_mechanics/IsotropicHardeningStaticRecovery.cxx
FN:31,44,_ZN5neml232IsotropicHardeningStaticRecovery16expected_optionsEv
FN:46,54,_ZN5neml232IsotropicHardeningStaticRecoveryC2ERKNS_9OptionSetE
FNDA:2,_ZN5neml232IsotropicHardeningStaticRecovery16expected_optionsEv
FNDA:1,_ZN5neml232IsotropicHardeningStaticRecoveryC2ERKNS_9OptionSetE
FNF:2
FNH:2
DA:31,2
DA:33,2
DA:34,2
DA:36,6
DA:37,4
DA:39,4
DA:40,4
DA:41,2
DA:43,2
DA:44,0
DA:46,1
DA:48,1
DA:49,2
DA:50,1
DA:51,4
DA:52,1
DA:54,1
LF:17
LH:16
end_of_record
TN:
SF:/home/runner/work/neml2/neml2/src/neml2/models/solid_mechanics/IsotropicMandelStress.cxx
FN:34,41,_ZN5neml221IsotropicMandelStress16expected_optionsEv
FN:44,59,_ZN5neml221IsotropicMandelStress9set_valueEbbb
FNDA:2,_ZN5neml221IsotropicMandelStress16expected_optionsEv
FNDA:8,_ZN5neml221IsotropicMandelStress9set_valueEbbb
FNF:2
FNH:2
DA:34,2
DA:36,2
DA:37,2
DA:38,2
DA:40,2
DA:41,0
DA:44,8
DA:48,8
DA:49,7
DA:51,8
DA:52,4
DA:53,4
DA:59,8
LF:13
LH:12
end_of_record
TN:
SF:/home/runner/work/neml2/neml2/src/neml2/models/solid_mechanics/KinematicHardening.cxx
FN:31,43,_ZN5neml218KinematicHardening16expected_optionsEv
FN:45,50,_ZN5neml218KinematicHardeningC2ERKNS_9OptionSetE
FNDA:2,_ZN5neml218KinematicHardening16expected_optionsEv
FNDA:1,_ZN5neml218KinematicHardeningC2ERKNS_9OptionSetE
FNF:2
FNH:2
DA:31,2
DA:33,2
DA:34,2
DA:36,6
DA:37,2
DA:39,6
DA:40,2
DA:42,2
DA:43,0
DA:45,1
DA:47,1
DA:48,2
DA:50,1
LF:13
LH:12
end_of_record
TN:
SF:/home/runner/work/neml2/neml2/src/neml2/models/solid_mechanics/KinematicHardeningStaticRecovery.cxx
FN:32,45,_ZN5neml232KinematicHardeningStaticRecovery16expected_optionsEv
FN:47,54,_ZN5neml232KinematicHardeningStaticRecoveryC2ERKNS_9OptionSetE
FNDA:2,_ZN5neml232KinematicHardeningStaticRecovery16expected_optionsEv
FNDA:1,_ZN5neml232KinematicHardeningStaticRecoveryC2ERKNS_9OptionSetE
FNF:2
FNH:2
DA:32,2
DA:34,2
DA:35,2
DA:37,6
DA:38,4
DA:40,4
DA:41,4
DA:42,2
DA:44,2
DA:45,0
DA:47,1
DA:49,1
DA:50,3
DA:51,4
DA:52,1
DA:54,1
LF:16
LH:15
end_of_record
TN:
SF:/home/runner/work/neml2/neml2/src/neml2/models/solid_mechanics/KocksMeckingActivationEnergy.cxx
FN:34,64,_ZN5neml228KocksMeckingActivationEnergy16expected_optionsEv
FN:66,76,_ZN5neml228KocksMeckingActivationEnergyC2ERKNS_9OptionSetE
FN:79,95,_ZN5neml228KocksMeckingActivationEnergy9set_valueEbbb
FNDA:2,_ZN5neml228KocksMeckingActivationEnergy16expected_optionsEv
FNDA:2,_ZN5neml228KocksMeckingActivationEnergyC2ERKNS_9OptionSetE
FNDA:4,_ZN5neml228KocksMeckingActivationEnergy9set_valueEbbb
FNF:3
FNH:3
DA:34,2
DA:36,2
DA:37,2
DA:42,2
DA:44,4
DA:45,4
DA:47,4
DA:48,4
DA:50,4
DA:51,4
DA:52,4
DA:53,2
DA:55,6
DA:56,2
DA:58,6
DA:59,2
DA:61,6
DA:62,2
DA:63,2
DA:64,0
DA:66,2
DA:68,8
DA:69,4
DA:70,4
DA:71,10
DA:72,2
DA:73,2
DA:74,4
DA:76,2
DA:79,4
DA:81,4
DA:82,3
DA:84,4
DA:86,2
DA:87,2
DA:89,2
DA:90,2
DA:92,6
DA:93,1
DA:95,4
LF:40
LH:39
end_of_record
TN:
SF:/home/runner/work/neml2/neml2/src/neml2/models/solid_mechanics/KocksMeckingFlowSwitch.cxx
FN:36,63,_ZN5neml222KocksMeckingFlowSwitch16expected_optionsEv
FN:65,74,_ZN5neml222KocksMeckingFlowSwitchC2ERKNS_9OptionSetE
FN:77,98,_ZN5neml222KocksMeckingFlowSwitch9set_valueEbbb
FNDA:2,_ZN5neml222KocksMeckingFlowSwitch16expected_optionsEv
FNDA:2,_ZN5neml222KocksMeckingFlowSwitchC2ERKNS_9OptionSetE
FNDA:4,_ZN5neml222KocksMeckingFlowSwitch9set_valueEbbb
FNF:3
FNH:3
DA:36,2
DA:38,2
DA:39,2
DA:43,2
DA:45,4
DA:46,2
DA:48,6
DA:49,4
DA:51,4
DA:52,4
DA:53,2
DA:55,6
DA:56,2
DA:57,6
DA:58,2
DA:60,6
DA:61,2
DA:62,2
DA:63,0
DA:65,2
DA:67,6
DA:68,2
DA:69,2
DA:70,2
DA:71,2
DA:72,4
DA:74,2
DA:77,4
DA:79,4
DA:81,4
DA:82,3
DA:84,4
DA:86,2
DA:87,2
DA:89,2
DA:90,2
DA:92,2
DA:93,2
DA:95,6
DA:96,1
DA:97,2
DA:98,4
LF:42
LH:41
end_of_record
TN:
SF:/home/runner/work/neml2/neml2/src/neml2/models/solid_mechanics/KocksMeckingFlowViscosity.cxx
FN:35,69,_ZN5neml225KocksMeckingFlowViscosity16expected_optionsEv
FN:71,82,_ZN5neml225KocksMeckingFlowViscosityC2ERKNS_9OptionSetE
FN:85,174,_ZN5neml225KocksMeckingFlowViscosity9set_valueEbbb
FNDA:2,_ZN5neml225KocksMeckingFlowViscosity16expected_optionsEv
FNDA:2,_ZN5neml225KocksMeckingFlowViscosityC2ERKNS_9OptionSetE
FNDA:6,_ZN5neml225KocksMeckingFlowViscosity9set_valueEbbb
FNF:3
FNH:3
DA:35,2
DA:37,2
DA:38,2
DA:46,2
DA:48,4
DA:50,4
DA:51,4
DA:52,4
DA:53,4
DA:54,4
DA:55,4
DA:57,4
DA:58,4
DA:60,4
DA:61,4
DA:62,4
DA:63,2
DA:65,6
DA:66,2
DA:68,2
DA:69,0
DA:71,2
DA:73,6
DA:74,8
DA:75,10
DA:76,4
DA:77,4
DA:78,10
DA:79,2
DA:80,4
DA:82,2
DA:85,6
DA:87,6
DA:89,6
DA:90,4
DA:92,6
DA:94,3
DA:95,3
DA:97,9
DA:98,2
DA:100,9
DA:101,2
DA:103,9
DA:104,2
DA:107,6
DA:110,2
DA:112,2
DA:114,6
DA:115,4
DA:116,5
DA:118,6
DA:119,1
DA:121,6
DA:122,1
DA:126,6
DA:128,1
DA:129,4
DA:130,5
DA:132,1
DA:134,3
DA:135,1
DA:137,3
DA:138,1
DA:142,6
DA:144,1
DA:145,1
DA:147,3
DA:148,1
DA:150,1
DA:152,3
DA:153,2
DA:154,3
DA:158,6
DA:160,1
DA:161,1
DA:163,3
DA:164,1
DA:166,3
DA:167,2
DA:168,3
DA:170,2
DA:171,3
DA:174,6
LF:83
LH:82
end_of_record
TN:
SF:/home/runner/work/neml2/neml2/src/neml2/models/solid_mechanics/KocksMeckingIntercept.cxx
FN:34,55,_ZN5neml221KocksMeckingIntercept16expected_optionsEv
FN:57,64,_ZN5neml221KocksMeckingInterceptC2ERKNS_9OptionSetE
FN:67,103,_ZN5neml221KocksMeckingIntercept9set_valueEbbb
FNDA:2,_ZN5neml221KocksMeckingIntercept16expected_optionsEv
FNDA:2,_ZN5neml221KocksMeckingInterceptC2ERKNS_9OptionSetE
FNDA:6,_ZN5neml221KocksMeckingIntercept9set_valueEbbb
FNF:3
FNH:3
DA:34,2
DA:36,2
DA:37,2
DA:38,2
DA:40,4
DA:42,4
DA:43,4
DA:45,4
DA:46,4
DA:48,4
DA:49,4
DA:51,4
DA:52,2
DA:54,2
DA:55,0
DA:57,2
DA:59,6
DA:60,8
DA:61,8
DA:62,4
DA:64,2
DA:67,6
DA:69,6
DA:70,4
DA:72,6
DA:74,9
DA:75,2
DA:77,9
DA:78,2
DA:80,9
DA:81,2
DA:84,6
DA:86,6
DA:88,1
DA:89,3
DA:90,1
DA:91,3
DA:92,1
DA:95,6
DA:96,3
DA:97,1
DA:99,6
DA:100,3
DA:101,1
DA:103,6
LF:45
LH:44
end_of_record
TN:
SF:/home/runner/work/neml2/neml2/src/neml2/models/solid_mechanics/KocksMeckingRateSensitivity.cxx
FN:33,58,_ZN5neml227KocksMeckingRateSensitivity16expected_optionsEv
FN:60,69,_ZN5neml227KocksMeckingRateSensitivityC2ERKNS_9OptionSetE
FN:72,125,_ZN5neml227KocksMeckingRateSensitivity9set_valueEbbb
FNDA:2,_ZN5neml227KocksMeckingRateSensitivity16expected_optionsEv
FNDA:2,_ZN5neml227KocksMeckingRateSensitivityC2ERKNS_9OptionSetE
FNDA:6,_ZN5neml227KocksMeckingRateSensitivity9set_valueEbbb
FNF:3
FNH:3
DA:33,2
DA:35,2
DA:36,2
DA:40,2
DA:42,4
DA:44,4
DA:45,4
DA:46,4
DA:47,4
DA:49,4
DA:50,4
DA:51,4
DA:52,2
DA:54,6
DA:55,2
DA:57,2
DA:58,0
DA:60,2
DA:62,6
DA:63,10
DA:64,4
DA:65,10
DA:66,2
DA:67,4
DA:69,2
DA:72,6
DA:74,6
DA:75,4
DA:77,6
DA:79,3
DA:80,3
DA:81,9
DA:82,2
DA:83,9
DA:84,2
DA:87,6
DA:90,2
DA:91,2
DA:93,6
DA:96,1
DA:98,1
DA:100,1
DA:101,1
DA:102,1
DA:103,1
DA:106,6
DA:109,1
DA:111,1
DA:112,1
DA:113,1
DA:114,1
DA:116,3
DA:119,1
DA:120,1
DA:121,1
DA:122,1
DA:125,6
LF:57
LH:56
end_of_record
TN:
SF:/home/runner/work/neml2/neml2/src/neml2/models/solid_mechanics/KocksMeckingYieldStress.cxx
FN:34,50,_ZN5neml223KocksMeckingYieldStress16expected_optionsEv
FN:52,58,_ZN5neml223KocksMeckingYieldStressC2ERKNS_9OptionSetE
FN:61,88,_ZN5neml223KocksMeckingYieldStress9set_valueEbbb
FNDA:2,_ZN5neml223KocksMeckingYieldStress16expected_optionsEv
FNDA:2,_ZN5neml223KocksMeckingYieldStressC2ERKNS_9OptionSetE
FNDA:5,_ZN5neml223KocksMeckingYieldStress9set_valueEbbb
FNF:3
FNH:3
DA:34,2
DA:36,2
DA:38,2
DA:40,2
DA:42,4
DA:44,4
DA:45,4
DA:46,4
DA:47,2
DA:49,2
DA:50,0
DA:52,2
DA:54,6
DA:55,8
DA:56,4
DA:58,2
DA:61,5
DA:63,5
DA:64,4
DA:66,5
DA:68,9
DA:69,2
DA:71,9
DA:72,2
DA:75,5
DA:77,3
DA:79,1
DA:81,3
DA:83,1
DA:84,1
DA:88,5
LF:31
LH:30
end_of_record
TN:
SF:/home/runner/work/neml2/neml2/src/neml2/models/solid_mechanics/LinearIsotropicElasticJ2TrialStressUpdate.cxx
FN:32,51,_ZN5neml241LinearIsotropicElasticJ2TrialStressUpdate16expected_optionsEv
FN:53,62,_ZN5neml241LinearIsotropicElasticJ2TrialStressUpdateC2ERKNS_9OptionSetE
FN:65,97,_ZN5neml241LinearIsotropicElasticJ2TrialStressUpdate9set_valueEbbb
FNDA:2,_ZN5neml241LinearIsotropicElasticJ2TrialStressUpdate16expected_optionsEv
FNDA:1,_ZN5neml241LinearIsotropicElasticJ2TrialStressUpdateC2ERKNS_9OptionSetE
FNDA:2,_ZN5neml241LinearIsotropicElasticJ2TrialStressUpdate9set_valueEbbb
FNF:3
FNH:3
DA:32,2
DA:34,2
DA:36,2
DA:37,2
DA:39,6
DA:40,2
DA:42,6
DA:43,4
DA:44,2
DA:46,6
DA:47,4
DA:48,2
DA:50,2
DA:51,0
DA:53,1
DA:54,1
DA:56,1
DA:57,1
DA:58,1
DA:59,1
DA:60,2
DA:62,1
DA:65,2
DA:67,2
DA:68,2
DA:70,2
DA:71,2
DA:72,3
DA:74,2
DA:76,1
DA:77,2
DA:78,3
DA:80,1
DA:81,1
DA:83,1
DA:84,1
DA:86,1
DA:87,0
DA:89,1
DA:90,0
DA:97,2
LF:41
LH:38
end_of_record
TN:
SF:/home/runner/work/neml2/neml2/src/neml2/models/solid_mechanics/LinearIsotropicHardening.cxx
FN:33,45,_ZN5neml224LinearIsotropicHardening16expected_optionsEv
FN:47,51,_ZN5neml224LinearIsotropicHardeningC2ERKNS_9OptionSetE
FN:54,67,_ZN5neml224LinearIsotropicHardening9set_valueEbbb
FNDA:2,_ZN5neml224LinearIsotropicHardening16expected_optionsEv
FNDA:1,_ZN5neml224LinearIsotropicHardeningC2ERKNS_9OptionSetE
FNDA:2,_ZN5neml224LinearIsotropicHardening9set_valueEbbb
FNF:3
FNH:3
DA:33,2
DA:35,2
DA:36,2
DA:37,2
DA:39,4
DA:41,4
DA:42,2
DA:44,2
DA:45,0
DA:47,1
DA:49,4
DA:51,1
DA:54,2
DA:56,2
DA:57,1
DA:59,2
DA:60,1
DA:61,1
DA:67,2
LF:19
LH:18
end_of_record
TN:
SF:/home/runner/work/neml2/neml2/src/neml2/models/solid_mechanics/LinearKinematicHardening.cxx
FN:35,47,_ZN5neml224LinearKinematicHardening16expected_optionsEv
FN:49,53,_ZN5neml224LinearKinematicHardeningC2ERKNS_9OptionSetE
FN:56,69,_ZN5neml224LinearKinematicHardening9set_valueEbbb
FNDA:2,_ZN5neml224LinearKinematicHardening16expected_optionsEv
FNDA:1,_ZN5neml224LinearKinematicHardeningC2ERKNS_9OptionSetE
FNDA:2,_ZN5neml224LinearKinematicHardening9set_valueEbbb
FNF:3
FNH:3
DA:35,2
DA:37,2
DA:38,2
DA:39,2
DA:41,4
DA:43,4
DA:44,2
DA:46,2
DA:47,0
DA:49,1
DA:51,4
DA:53,1
DA:56,2
DA:58,2
DA:59,1
DA:61,2
DA:62,1
DA:63,1
DA:69,2
LF:19
LH:18
end_of_record
TN:
SF:/home/runner/work/neml2/neml2/src/neml2/models/solid_mechanics/MandelStress.cxx
FN:31,43,_ZN5neml212MandelStress16expected_optionsEv
FN:45,50,_ZN5neml212MandelStressC2ERKNS_9OptionSetE
FNDA:2,_ZN5neml212MandelStress16expected_optionsEv
FNDA:4,_ZN5neml212MandelStressC2ERKNS_9OptionSetE
FNF:2
FNH:2
DA:31,2
DA:33,2
DA:34,2
DA:36,6
DA:37,2
DA:39,6
DA:40,2
DA:42,2
DA:43,0
DA:45,4
DA:47,4
DA:48,8
DA:50,4
LF:13
LH:12
end_of_record
TN:
SF:/home/runner/work/neml2/neml2/src/neml2/models/solid_mechanics/MixedControlSetup.cxx
FN:111,124,_ZNK5neml217MixedControlSetup14make_operatorsERKNS_3SR2E
FN:35,66,_ZN5neml217MixedControlSetup16expected_optionsEv
FN:68,77,_ZN5neml217MixedControlSetupC2ERKNS_9OptionSetE
FN:80,108,_ZN5neml217MixedControlSetup9set_valueEbbb
FNDA:5,_ZNK5neml217MixedControlSetup14make_operatorsERKNS_3SR2E
FNDA:2,_ZN5neml217MixedControlSetup16expected_optionsEv
FNDA:3,_ZN5neml217MixedControlSetupC2ERKNS_9OptionSetE
FNDA:5,_ZN5neml217MixedControlSetup9set_valueEbbb
FNF:4
FNH:4
DA:35,2
DA:37,2
DA:38,2
DA:41,2
DA:43,6
DA:44,6
DA:46,2
DA:48,8
DA:49,2
DA:51,6
DA:52,4
DA:53,2
DA:55,6
DA:56,4
DA:57,2
DA:59,6
DA:60,2
DA:62,6
DA:63,2
DA:65,2
DA:66,0
DA:68,3
DA:70,3
DA:71,3
DA:72,3
DA:73,3
DA:74,3
DA:75,6
DA:77,3
DA:80,5
DA:82,5
DA:84,5
DA:87,4
DA:88,4
DA:91,5
DA:93,2
DA:95,1
DA:96,1
DA:99,2
DA:101,2
DA:102,2
DA:108,5
DA:111,5
DA:113,5
DA:114,5
DA:117,5
DA:118,5
DA:120,5
DA:121,5
DA:123,10
DA:124,5
LF:51
LH:50
end_of_record
TN:
SF:/home/runner/work/neml2/neml2/src/neml2/models/solid_mechanics/Normality.cxx
FN:34,53,_ZN5neml29Normality16expected_optionsEv
FN:55,73,_ZN5neml29NormalityC2ERKNS_9OptionSetE
FN:76,104,_ZN5neml29Normality9set_valueEbbb
FNDA:2,_ZN5neml29Normality16expected_optionsEv
FNDA:4,_ZN5neml29NormalityC2ERKNS_9OptionSetE
FNDA:8,_ZN5neml29Normality9set_valueEbbb
FNF:3
FNH:3
DA:34,2
DA:36,2
DA:37,2
DA:38,2
DA:40,4
DA:41,4
DA:43,4
DA:44,4
DA:46,4
DA:47,4
DA:49,4
DA:50,2
DA:52,2
DA:53,0
DA:55,4
DA:57,4
DA:58,16
DA:61,8
DA:62,4
DA:63,4
DA:65,4
DA:67,4
DA:71,11
DA:72,7
DA:73,4
DA:76,8
DA:79,8
DA:83,8
DA:84,8
DA:86,8
DA:87,22
DA:89,14
DA:91,0
DA:92,0
DA:95,14
DA:96,11
DA:98,14
DA:99,24
DA:100,28
DA:101,11
DA:102,8
DA:104,8
LF:42
LH:39
end_of_record
TN:
SF:/home/runner/work/neml2/neml2/src/neml2/models/solid_mechanics/OlevskySinteringStress.cxx
FN:33,57,_ZN5neml222OlevskySinteringStress16expected_optionsEv
FN:59,66,_ZN5neml222OlevskySinteringStressC2ERKNS_9OptionSetE
FN:69,81,_ZN5neml222OlevskySinteringStress9set_valueEbbb
FNDA:2,_ZN5neml222OlevskySinteringStress16expected_optionsEv
FNDA:1,_ZN5neml222OlevskySinteringStressC2ERKNS_9OptionSetE
FNDA:3,_ZN5neml222OlevskySinteringStress9set_valueEbbb
FNF:3
FNH:3
DA:33,2
DA:35,2
DA:36,2
DA:40,2
DA:42,2
DA:44,6
DA:45,2
DA:47,6
DA:48,4
DA:50,4
DA:51,4
DA:53,4
DA:54,2
DA:56,2
DA:57,0
DA:59,1
DA:61,1
DA:62,1
DA:63,4
DA:64,5
DA:66,1
DA:69,3
DA:71,3
DA:72,1
DA:74,3
DA:75,1
DA:76,1
DA:78,3
DA:79,1
DA:80,1
DA:81,3
LF:31
LH:30
end_of_record
TN:
SF:/home/runner/work/neml2/neml2/src/neml2/models/solid_mechanics/PerzynaPlasticFlowRate.cxx
FN:37,53,_ZN5neml222PerzynaPlasticFlowRate16expected_optionsEv
FN:55,60,_ZN5neml222PerzynaPlasticFlowRateC2ERKNS_9OptionSetE
FN:63,87,_ZN5neml222PerzynaPlasticFlowRate9set_valueEbbb
FNDA:2,_ZN5neml222PerzynaPlasticFlowRate16expected_optionsEv
FNDA:5,_ZN5neml222PerzynaPlasticFlowRateC2ERKNS_9OptionSetE
FNDA:10,_ZN5neml222PerzynaPlasticFlowRate9set_valueEbbb
FNF:3
FNH:3
DA:37,2
DA:39,2
DA:40,2
DA:44,2
DA:46,4
DA:47,4
DA:49,4
DA:50,2
DA:52,2
DA:53,0
DA:55,5
DA:57,15
DA:58,25
DA:60,5
DA:63,10
DA:66,10
DA:67,10
DA:68,10
DA:69,10
DA:71,10
DA:72,9
DA:74,10
DA:76,5
DA:78,5
DA:79,5
DA:81,15
DA:82,1
DA:84,15
DA:85,1
DA:86,5
DA:87,10
LF:31
LH:30
end_of_record
TN:
SF:/home/runner/work/neml2/neml2/src/neml2/models/solid_mechanics/PhaseTransformationEigenstrain.cxx
FN:32,56,_ZN5neml230PhaseTransformationEigenstrain16expected_optionsEv
FN:58,63,_ZN5neml230PhaseTransformationEigenstrainC2ERKNS_9OptionSetE
FN:66,82,_ZN5neml230PhaseTransformationEigenstrain9set_valueEbbb
FNDA:2,_ZN5neml230PhaseTransformationEigenstrain16expected_optionsEv
FNDA:1,_ZN5neml230PhaseTransformationEigenstrainC2ERKNS_9OptionSetE
FNDA:2,_ZN5neml230PhaseTransformationEigenstrain9set_valueEbbb
FNF:3
FNH:3
DA:32,2
DA:34,2
DA:35,2
DA:42,2
DA:48,6
DA:49,4
DA:50,2
DA:52,6
DA:53,2
DA:55,2
DA:56,0
DA:58,1
DA:60,1
DA:61,2
DA:63,1
DA:66,2
DA:68,2
DA:69,1
DA:71,2
DA:73,1
DA:74,1
DA:77,2
DA:79,0
DA:80,0
DA:82,2
LF:25
LH:22
end_of_record
TN:
SF:/home/runner/work/neml2/neml2/src/neml2/models/solid_mechanics/PlasticFlowRate.cxx
FN:31,42,_ZN5neml215PlasticFlowRate16expected_optionsEv
FN:44,49,_ZN5neml215PlasticFlowRateC2ERKNS_9OptionSetE
FNDA:2,_ZN5neml215PlasticFlowRate16expected_optionsEv
FNDA:5,_ZN5neml215PlasticFlowRateC2ERKNS_9OptionSetE
FNF:2
FNH:2
DA:31,2
DA:33,2
DA:35,6
DA:36,2
DA:38,6
DA:39,2
DA:41,2
DA:42,0
DA:44,5
DA:46,5
DA:47,10
DA:49,5
LF:12
LH:11
end_of_record
TN:
SF:/home/runner/work/neml2/neml2/src/neml2/models/solid_mechanics/PowerLawIsotropicHardeningStaticRecovery.cxx
FN:36,49,_ZN5neml240PowerLawIsotropicHardeningStaticRecovery16expected_optionsEv
FN:51,57,_ZN5neml240PowerLawIsotropicHardeningStaticRecoveryC2ERKNS_9OptionSetE
FN:60,77,_ZN5neml240PowerLawIsotropicHardeningStaticRecovery9set_valueEbbb
FNDA:2,_ZN5neml240PowerLawIsotropicHardeningStaticRecovery16expected_optionsEv
FNDA:1,_ZN5neml240PowerLawIsotropicHardeningStaticRecoveryC2ERKNS_9OptionSetE
FNDA:2,_ZN5neml240PowerLawIsotropicHardeningStaticRecovery9set_valueEbbb
FNF:3
FNH:3
DA:36,2
DA:38,2
DA:39,2
DA:41,2
DA:43,4
DA:44,4
DA:45,4
DA:46,2
DA:48,2
DA:49,0
DA:51,1
DA:52,1
DA:54,3
DA:55,5
DA:57,1
DA:60,2
DA:62,2
DA:63,2
DA:65,2
DA:67,1
DA:68,1
DA:70,3
DA:71,1
DA:73,3
DA:74,4
DA:75,5
DA:77,2
LF:27
LH:26
end_of_record
TN:
SF:/home/runner/work/neml2/neml2/src/neml2/models/solid_mechanics/PowerLawKinematicHardeningStaticRecovery.cxx
FN:37,54,_ZN5neml240PowerLawKinematicHardeningStaticRecovery16expected_optionsEv
FN:56,62,_ZN5neml240PowerLawKinematicHardeningStaticRecoveryC2ERKNS_9OptionSetE
FN:65,87,_ZN5neml240PowerLawKinematicHardeningStaticRecovery9set_valueEbbb
FNDA:2,_ZN5neml240PowerLawKinematicHardeningStaticRecovery16expected_optionsEv
FNDA:1,_ZN5neml240PowerLawKinematicHardeningStaticRecoveryC2ERKNS_9OptionSetE
FNDA:2,_ZN5neml240PowerLawKinematicHardeningStaticRecovery9set_valueEbbb
FNF:3
FNH:3
DA:37,2
DA:39,2
DA:40,2
DA:45,2
DA:47,4
DA:48,4
DA:50,4
DA:51,2
DA:53,2
DA:54,0
DA:56,1
DA:57,1
DA:59,3
DA:60,5
DA:62,1
DA:65,2
DA:68,2
DA:70,2
DA:71,2
DA:73,2
DA:75,1
DA:77,1
DA:78,2
DA:79,3
DA:81,3
DA:82,1
DA:84,3
DA:85,1
DA:86,1
DA:87,2
LF:30
LH:29
end_of_record
TN:
SF:/home/runner/work/neml2/neml2/src/neml2/models/solid_mechanics/RateIndependentPlasticFlowConstraint.cxx
FN:34,48,_ZN5neml236RateIndependentPlasticFlowConstraint16expected_optionsEv
FN:50,57,_ZN5neml236RateIndependentPlasticFlowConstraintC2ERKNS_9OptionSetE
FN:60,78,_ZN5neml236RateIndependentPlasticFlowConstraint9set_valueEbbb
FNDA:2,_ZN5neml236RateIndependentPlasticFlowConstraint16expected_optionsEv
FNDA:1,_ZN5neml236RateIndependentPlasticFlowConstraintC2ERKNS_9OptionSetE
FNDA:2,_ZN5neml236RateIndependentPlasticFlowConstraint9set_valueEbbb
FNF:3
FNH:3
DA:34,2
DA:36,2
DA:37,2
DA:39,2
DA:41,6
DA:42,2
DA:44,6
DA:45,2
DA:47,2
DA:48,0
DA:50,1
DA:51,1
DA:53,1
DA:54,1
DA:55,2
DA:57,1
DA:60,2
DA:62,2
DA:64,2
DA:65,1
DA:67,2
DA:69,1
DA:71,1
DA:72,2
DA:73,3
DA:75,1
DA:76,1
DA:77,1
DA:78,2
LF:29
LH:28
end_of_record
TN:
SF:/home/runner/work/neml2/neml2/src/neml2/models/solid_mechanics/SlopeSaturationVoceIsotropicHardening.cxx
FN:34,59,_ZN5neml237SlopeSaturationVoceIsotropicHardening16expected_optionsEv
FN:61,72,_ZN5neml237SlopeSaturationVoceIsotropicHardeningC2ERKNS_9OptionSetE
FN:75,94,_ZN5neml237SlopeSaturationVoceIsotropicHardening9set_valueEbbb
FNDA:2,_ZN5neml237SlopeSaturationVoceIsotropicHardening16expected_optionsEv
FNDA:4,_ZN5neml237SlopeSaturationVoceIsotropicHardeningC2ERKNS_9OptionSetE
FNDA:8,_ZN5neml237SlopeSaturationVoceIsotropicHardening9set_valueEbbb
FNF:3
FNH:3
DA:34,2
DA:36,2
DA:37,2
DA:44,2
DA:46,6
DA:47,4
DA:49,4
DA:50,6
DA:51,2
DA:53,4
DA:54,4
DA:55,4
DA:56,2
DA:58,2
DA:59,0
DA:61,4
DA:62,4
DA:64,4
DA:65,8
DA:66,4
DA:67,16
DA:69,16
DA:70,20
DA:72,4
DA:75,8
DA:77,8
DA:78,6
DA:80,8
DA:82,4
DA:83,4
DA:85,4
DA:86,4
DA:88,16
DA:89,2
DA:91,12
DA:92,2
DA:94,8
LF:37
LH:36
end_of_record
TN:
SF:/home/runner/work/neml2/neml2/src/neml2/models/solid_mechanics/ThermalEigenstrain.cxx
FN:34,53,_ZN5neml218ThermalEigenstrain16expected_optionsEv
FN:55,61,_ZN5neml218ThermalEigenstrainC2ERKNS_9OptionSetE
FN:64,87,_ZN5neml218ThermalEigenstrain9set_valueEbbb
FNDA:2,_ZN5neml218ThermalEigenstrain16expected_optionsEv
FNDA:2,_ZN5neml218ThermalEigenstrainC2ERKNS_9OptionSetE
FNDA:4,_ZN5neml218ThermalEigenstrain9set_valueEbbb
FNF:3
FNH:3
DA:34,2
DA:36,2
DA:37,2
DA:41,2
DA:43,6
DA:44,4
DA:46,4
DA:47,4
DA:49,4
DA:50,2
DA:52,2
DA:53,0
DA:55,2
DA:57,2
DA:58,8
DA:59,10
DA:61,2
DA:64,4
DA:66,4
DA:67,3
DA:69,4
DA:71,2
DA:72,2
DA:74,6
DA:75,1
DA:78,4
DA:80,0
DA:81,0
DA:83,0
DA:84,0
DA:87,4
LF:31
LH:26
end_of_record
TN:
SF:/home/runner/work/neml2/neml2/src/neml2/models/solid_mechanics/TwoStageThermalAnnealing.cxx
FN:43,81,_ZN5neml224TwoStageThermalAnnealingINS_3SR2EE16expected_optionsEv
FN:43,81,_ZN5neml224TwoStageThermalAnnealingINS_6ScalarEE16expected_optionsEv
FN:84,94,_ZN5neml224TwoStageThermalAnnealingINS_3SR2EEC2ERKNS_9OptionSetE
FN:84,94,_ZN5neml224TwoStageThermalAnnealingINS_6ScalarEEC2ERKNS_9OptionSetE
FN:98,118,_ZN5neml224TwoStageThermalAnnealingINS_3SR2EE9set_valueEbbb
FN:98,118,_ZN5neml224TwoStageThermalAnnealingINS_6ScalarEE9set_valueEbbb
FNDA:2,_ZN5neml224TwoStageThermalAnnealingINS_3SR2EE16expected_optionsEv
FNDA:2,_ZN5neml224TwoStageThermalAnnealingINS_6ScalarEE16expected_optionsEv
FNDA:1,_ZN5neml224TwoStageThermalAnnealingINS_3SR2EEC2ERKNS_9OptionSetE
FNDA:1,_ZN5neml224TwoStageThermalAnnealingINS_6ScalarEEC2ERKNS_9OptionSetE
FNDA:2,_ZN5neml224TwoStageThermalAnnealingINS_3SR2EE9set_valueEbbb
FNDA:2,_ZN5neml224TwoStageThermalAnnealingINS_6ScalarEE9set_valueEbbb
FNF:6
FNH:6
DA:43,4
DA:47,4
DA:49,4
DA:50,4
DA:59,8
DA:60,8
DA:62,8
DA:63,8
DA:65,8
DA:66,4
DA:68,12
DA:69,8
DA:71,8
DA:72,8
DA:74,8
DA:75,8
DA:77,8
DA:78,4
DA:80,8
DA:81,4
DA:84,2
DA:86,2
DA:87,2
DA:88,2
DA:89,2
DA:90,8
DA:91,8
DA:92,10
DA:94,2
DA:98,4
DA:100,4
DA:101,4
DA:102,4
DA:103,4
DA:105,4
DA:106,2
DA:108,4
DA:110,2
DA:112,2
DA:113,2
DA:115,2
DA:116,2
DA:117,2
DA:118,4
LF:44
LH:44
end_of_record
TN:
SF:/home/runner/work/neml2/neml2/src/neml2/models/solid_mechanics/VoceIsotropicHardening.cxx
FN:34,49,_ZN5neml222VoceIsotropicHardening16expected_optionsEv
FN:51,56,_ZN5neml222VoceIsotropicHardeningC2ERKNS_9OptionSetE
FN:59,79,_ZN5neml222VoceIsotropicHardening9set_valueEbbb
FNDA:2,_ZN5neml222VoceIsotropicHardening16expected_optionsEv
FNDA:3,_ZN5neml222VoceIsotropicHardeningC2ERKNS_9OptionSetE
FNDA:7,_ZN5neml222VoceIsotropicHardening9set_valueEbbb
FNF:3
FNH:3
DA:34,2
DA:36,2
DA:37,2
DA:39,2
DA:41,4
DA:43,4
DA:44,4
DA:45,4
DA:46,2
DA:48,2
DA:49,0
DA:51,3
DA:53,9
DA:54,15
DA:56,3
DA:59,7
DA:61,7
DA:62,5
DA:64,7
DA:66,3
DA:67,3
DA:69,9
DA:70,1
DA:72,9
DA:73,1
DA:76,7
DA:77,1
DA:78,1
DA:79,7
LF:29
LH:28
end_of_record
TN:
SF:/home/runner/work/neml2/neml2/src/neml2/models/solid_mechanics/VolumeChangeEigenstrain.cxx
FN:33,50,_ZN5neml223VolumeChangeEigenstrain16expected_optionsEv
FN:52,57,_ZN5neml223VolumeChangeEigenstrainC2ERKNS_9OptionSetE
FN:60,77,_ZN5neml223VolumeChangeEigenstrain9set_valueEbbb
FNDA:2,_ZN5neml223VolumeChangeEigenstrain16expected_optionsEv
FNDA:1,_ZN5neml223VolumeChangeEigenstrainC2ERKNS_9OptionSetE
FNDA:2,_ZN5neml223VolumeChangeEigenstrain9set_valueEbbb
FNF:3
FNH:3
DA:33,2
DA:35,2
DA:36,2
DA:41,2
DA:43,6
DA:44,4
DA:46,4
DA:47,2
DA:49,2
DA:50,0
DA:52,1
DA:54,3
DA:55,2
DA:57,1
DA:60,2
DA:62,2
DA:63,1
DA:65,2
DA:67,1
DA:68,1
DA:71,2
DA:73,0
DA:74,0
DA:75,0
DA:77,2
LF:25
LH:21
end_of_record
TN:
SF:/home/runner/work/neml2/neml2/src/neml2/models/solid_mechanics/YieldFunction.cxx
FN:33,56,_ZN5neml213YieldFunction16expected_optionsEv
FN:58,67,_ZN5neml213YieldFunctionC2ERKNS_9OptionSetE
FN:70,98,_ZN5neml213YieldFunction9set_valueEbbb
FNDA:2,_ZN5neml213YieldFunction16expected_optionsEv
FNDA:13,_ZN5neml213YieldFunctionC2ERKNS_9OptionSetE
FNDA:32,_ZN5neml213YieldFunction9set_valueEbbb
FNF:3
FNH:3
DA:33,2
DA:35,2
DA:36,2
DA:39,2
DA:41,4
DA:43,4
DA:44,2
DA:46,6
DA:47,4
DA:49,4
DA:50,2
DA:52,6
DA:53,2
DA:55,2
DA:56,0
DA:58,13
DA:60,13
DA:61,13
DA:62,13
DA:63,13
DA:64,13
DA:65,65
DA:67,13
DA:70,32
DA:72,32
DA:74,32
DA:75,12
DA:77,20
DA:80,32
DA:82,23
DA:84,23
DA:85,23
DA:87,23
DA:88,9
DA:90,69
DA:91,4
DA:92,23
DA:98,32
LF:38
LH:37
end_of_record
TN:
SF:/home/runner/work/neml2/neml2/src/neml2/models/solid_mechanics/crystal_plasticity/CrystalMean.cxx
FN:37,54,_ZN5neml211CrystalMeanINS_3SR2EE16expected_optionsEv
FN:57,64,_ZN5neml211CrystalMeanINS_3SR2EEC2ERKNS_9OptionSetE
FN:68,81,_ZN5neml211CrystalMeanINS_3SR2EE9set_valueEbbb
FNDA:2,_ZN5neml211CrystalMeanINS_3SR2EE16expected_optionsEv
FNDA:1,_ZN5neml211CrystalMeanINS_3SR2EEC2ERKNS_9OptionSetE
FNDA:2,_ZN5neml211CrystalMeanINS_3SR2EE9set_valueEbbb
FNF:3
FNH:3
DA:37,2
DA:39,2
DA:41,2
DA:43,4
DA:44,4
DA:46,4
DA:47,4
DA:49,4
DA:50,2
DA:53,2
DA:54,0
DA:57,1
DA:59,3
DA:60,1
DA:61,1
DA:62,2
DA:64,1
DA:68,2
DA:70,2
DA:71,1
DA:73,2
DA:74,1
DA:76,3
DA:78,2
DA:79,1
DA:80,1
DA:81,2
LF:27
LH:26
end_of_record
TN:
SF:/home/runner/work/neml2/neml2/src/neml2/models/solid_mechanics/crystal_plasticity/ElasticStrainRate.cxx
FN:106,127,_ZN5neml217ElasticStrainRate9set_valueEbbb
FN:38,65,_ZN5neml217ElasticStrainRate16expected_optionsEv
FN:67,75,_ZN5neml217ElasticStrainRateC2ERKNS_9OptionSetE
FN:78,85,_ZN5neml219skew_and_sym_to_symERKNS_3SR2ERKNS_3WR2E
FN:88,94,_ZN5neml227d_skew_and_sym_to_sym_d_symERKNS_3WR2E
FN:97,103,_ZN5neml228d_skew_and_sym_to_sym_d_skewERKNS_3SR2E
FNDA:4,_ZN5neml217ElasticStrainRate9set_valueEbbb
FNDA:2,_ZN5neml217ElasticStrainRate16expected_optionsEv
FNDA:2,_ZN5neml217ElasticStrainRateC2ERKNS_9OptionSetE
FNDA:3,_ZN5neml219skew_and_sym_to_symERKNS_3SR2ERKNS_3WR2E
FNDA:2,_ZN5neml227d_skew_and_sym_to_sym_d_symERKNS_3WR2E
FNDA:1,_ZN5neml228d_skew_and_sym_to_sym_d_skewERKNS_3SR2E
FNF:6
FNH:6
DA:38,2
DA:40,2
DA:42,2
DA:46,2
DA:48,6
DA:49,2
DA:51,6
DA:52,2
DA:54,6
DA:55,2
DA:57,6
DA:58,2
DA:60,4
DA:61,6
DA:62,2
DA:64,2
DA:65,0
DA:67,2
DA:69,2
DA:70,2
DA:71,2
DA:72,2
DA:73,4
DA:75,2
DA:78,3
DA:82,3
DA:83,3
DA:84,6
DA:85,3
DA:88,2
DA:90,2
DA:91,2
DA:93,16
DA:94,6
DA:97,1
DA:99,1
DA:100,1
DA:102,8
DA:103,3
DA:106,4
DA:108,4
DA:109,3
DA:111,4
DA:113,2
DA:115,2
DA:116,2
DA:118,2
DA:119,1
DA:121,2
DA:122,1
DA:124,2
DA:125,2
DA:126,2
DA:127,4
LF:54
LH:53
end_of_record
TN:
SF:/home/runner/work/neml2/neml2/src/neml2/models/solid_mechanics/crystal_plasticity/FixOrientation.cxx
FN:35,55,_ZN5neml214FixOrientation16expected_optionsEv
FN:57,63,_ZN5neml214FixOrientationC2ERKNS_9OptionSetE
FN:66,80,_ZN5neml214FixOrientation9set_valueEbbb
FNDA:2,_ZN5neml214FixOrientation16expected_optionsEv
FNDA:1,_ZN5neml214FixOrientationC2ERKNS_9OptionSetE
FNDA:2,_ZN5neml214FixOrientation9set_valueEbbb
FNF:3
FNH:3
DA:35,2
DA:37,2
DA:39,2
DA:43,2
DA:45,6
DA:46,2
DA:48,6
DA:49,4
DA:51,4
DA:52,2
DA:54,2
DA:55,0
DA:57,1
DA:59,1
DA:60,1
DA:61,2
DA:63,1
DA:66,2
DA:68,2
DA:69,2
DA:70,3
DA:72,2
DA:73,1
DA:75,1
DA:76,4
DA:78,5
DA:79,1
DA:80,2
LF:28
LH:27
end_of_record
TN:
SF:/home/runner/work/neml2/neml2/src/neml2/models/solid_mechanics/crystal_plasticity/LinearSingleSlipHardeningRule.cxx
FN:33,45,_ZN5neml229LinearSingleSlipHardeningRule16expected_optionsEv
FN:47,51,_ZN5neml229LinearSingleSlipHardeningRuleC2ERKNS_9OptionSetE
FN:54,62,_ZN5neml229LinearSingleSlipHardeningRule9set_valueEbbb
FNDA:2,_ZN5neml229LinearSingleSlipHardeningRule16expected_optionsEv
FNDA:1,_ZN5neml229LinearSingleSlipHardeningRuleC2ERKNS_9OptionSetE
FNDA:2,_ZN5neml229LinearSingleSlipHardeningRule9set_valueEbbb
FNF:3
FNH:3
DA:33,2
DA:35,2
DA:37,2
DA:39,2
DA:41,4
DA:42,2
DA:44,2
DA:45,0
DA:47,1
DA:49,4
DA:51,1
DA:54,2
DA:56,2
DA:57,1
DA:59,2
DA:60,1
DA:61,1
DA:62,2
LF:18
LH:17
end_of_record
TN:
SF:/home/runner/work/neml2/neml2/src/neml2/models/solid_mechanics/crystal_plasticity/OrientationRate.cxx
FN:105,126,_ZN5neml215OrientationRate9set_valueEbbb
FN:38,65,_ZN5neml215OrientationRate16expected_optionsEv
FN:67,75,_ZN5neml215OrientationRateC2ERKNS_9OptionSetE
FN:78,84,_ZN5neml222multiply_and_make_skewERKNS_3SR2ES2_
FN:87,93,_ZN5neml232d_multiply_and_make_skew_d_firstERKNS_3SR2E
FN:96,102,_ZN5neml233d_multiply_and_make_skew_d_secondERKNS_3SR2E
FNDA:4,_ZN5neml215OrientationRate9set_valueEbbb
FNDA:2,_ZN5neml215OrientationRate16expected_optionsEv
FNDA:2,_ZN5neml215OrientationRateC2ERKNS_9OptionSetE
FNDA:3,_ZN5neml222multiply_and_make_skewERKNS_3SR2ES2_
FNDA:2,_ZN5neml232d_multiply_and_make_skew_d_firstERKNS_3SR2E
FNDA:2,_ZN5neml233d_multiply_and_make_skew_d_secondERKNS_3SR2E
FNF:6
FNH:6
DA:38,2
DA:40,2
DA:42,2
DA:47,2
DA:49,6
DA:50,2
DA:52,6
DA:53,2
DA:55,6
DA:56,2
DA:58,4
DA:59,6
DA:60,2
DA:62,6
DA:63,2
DA:64,2
DA:65,0
DA:67,2
DA:69,2
DA:70,2
DA:71,2
DA:72,2
DA:73,4
DA:75,2
DA:78,3
DA:80,3
DA:81,3
DA:83,6
DA:84,3
DA:87,2
DA:89,2
DA:90,2
DA:92,16
DA:93,6
DA:96,2
DA:98,2
DA:99,2
DA:101,16
DA:102,6
DA:105,4
DA:107,4
DA:108,3
DA:110,4
DA:112,2
DA:114,2
DA:115,2
DA:117,2
DA:118,1
DA:120,2
DA:121,2
DA:123,2
DA:124,2
DA:125,2
DA:126,4
LF:54
LH:53
end_of_record
TN:
SF:/home/runner/work/neml2/neml2/src/neml2/models/solid_mechanics/crystal_plasticity/PlasticDeformationRate.cxx
FN:40,65,_ZN5neml222PlasticDeformationRate16expected_optionsEv
FN:67,75,_ZN5neml222PlasticDeformationRateC2ERKNS_9OptionSetE
FN:78,96,_ZN5neml222PlasticDeformationRate9set_valueEbbb
FNDA:2,_ZN5neml222PlasticDeformationRate16expected_optionsEv
FNDA:2,_ZN5neml222PlasticDeformationRateC2ERKNS_9OptionSetE
FNDA:4,_ZN5neml222PlasticDeformationRate9set_valueEbbb
FNF:3
FNH:3
DA:40,2
DA:42,2
DA:44,2
DA:48,2
DA:50,4
DA:51,6
DA:52,2
DA:54,6
DA:55,2
DA:57,6
DA:58,4
DA:60,4
DA:61,4
DA:62,2
DA:64,2
DA:65,0
DA:67,2
DA:69,6
DA:70,2
DA:71,2
DA:72,2
DA:73,4
DA:75,2
DA:78,4
DA:80,4
DA:82,4
DA:83,4
DA:85,4
DA:87,2
DA:89,2
DA:90,2
DA:91,2
DA:93,2
DA:94,2
DA:96,4
LF:35
LH:34
end_of_record
TN:
SF:/home/runner/work/neml2/neml2/src/neml2/models/solid_mechanics/crystal_plasticity/PlasticSpatialVelocityGradient.cxx
FN:40,67,_ZN5neml230PlasticSpatialVelocityGradient16expected_optionsEv
FN:69,77,_ZN5neml230PlasticSpatialVelocityGradientC2ERKNS_9OptionSetE
FN:80,98,_ZN5neml230PlasticSpatialVelocityGradient9set_valueEbbb
FNDA:2,_ZN5neml230PlasticSpatialVelocityGradient16expected_optionsEv
FNDA:1,_ZN5neml230PlasticSpatialVelocityGradientC2ERKNS_9OptionSetE
FNDA:2,_ZN5neml230PlasticSpatialVelocityGradient9set_valueEbbb
FNF:3
FNH:3
DA:40,2
DA:42,2
DA:44,2
DA:49,2
DA:51,4
DA:52,6
DA:53,4
DA:54,2
DA:56,6
DA:57,2
DA:59,6
DA:60,4
DA:62,4
DA:63,4
DA:64,2
DA:66,2
DA:67,0
DA:69,1
DA:71,3
DA:72,1
DA:73,1
DA:74,1
DA:75,2
DA:77,1
DA:80,2
DA:82,2
DA:84,2
DA:85,2
DA:87,2
DA:89,1
DA:91,1
DA:92,1
DA:93,1
DA:95,1
DA:96,1
DA:98,2
LF:36
LH:35
end_of_record
TN:
SF:/home/runner/work/neml2/neml2/src/neml2/models/solid_mechanics/crystal_plasticity/PlasticVorticity.cxx
FN:40,64,_ZN5neml216PlasticVorticity16expected_optionsEv
FN:66,74,_ZN5neml216PlasticVorticityC2ERKNS_9OptionSetE
FN:77,96,_ZN5neml216PlasticVorticity9set_valueEbbb
FNDA:2,_ZN5neml216PlasticVorticity16expected_optionsEv
FNDA:2,_ZN5neml216PlasticVorticityC2ERKNS_9OptionSetE
FNDA:4,_ZN5neml216PlasticVorticity9set_valueEbbb
FNF:3
FNH:3
DA:40,2
DA:42,2
DA:44,2
DA:48,2
DA:50,6
DA:51,2
DA:53,6
DA:54,2
DA:56,6
DA:57,4
DA:59,4
DA:60,4
DA:61,2
DA:63,2
DA:64,0
DA:66,2
DA:68,6
DA:69,2
DA:70,2
DA:71,2
DA:72,4
DA:74,2
DA:77,4
DA:79,4
DA:81,4
DA:82,4
DA:84,4
DA:86,2
DA:88,2
DA:89,2
DA:90,2
DA:91,2
DA:93,2
DA:94,2
DA:96,4
LF:35
LH:34
end_of_record
TN:
SF:/home/runner/work/neml2/neml2/src/neml2/models/solid_mechanics/crystal_plasticity/PowerLawSlipRule.cxx
FN:37,54,_ZN5neml216PowerLawSlipRule16expected_optionsEv
FN:56,61,_ZN5neml216PowerLawSlipRuleC2ERKNS_9OptionSetE
FN:64,82,_ZN5neml216PowerLawSlipRule9set_valueEbbb
FNDA:2,_ZN5neml216PowerLawSlipRule16expected_optionsEv
FNDA:2,_ZN5neml216PowerLawSlipRuleC2ERKNS_9OptionSetE
FNDA:4,_ZN5neml216PowerLawSlipRule9set_valueEbbb
FNF:3
FNH:3
DA:37,2
DA:39,2
DA:40,2
DA:45,2
DA:47,4
DA:48,4
DA:50,4
DA:51,2
DA:53,2
DA:54,0
DA:56,2
DA:58,6
DA:59,10
DA:61,2
DA:64,4
DA:66,4
DA:68,4
DA:69,3
DA:71,4
DA:73,2
DA:74,4
DA:75,6
DA:77,2
DA:78,4
DA:79,4
DA:80,2
DA:82,4
LF:27
LH:26
end_of_record
TN:
SF:/home/runner/work/neml2/neml2/src/neml2/models/solid_mechanics/crystal_plasticity/ResolvedShear.cxx
FN:39,62,_ZN5neml213ResolvedShear16expected_optionsEv
FN:64,72,_ZN5neml213ResolvedShearC2ERKNS_9OptionSetE
FN:75,98,_ZN5neml213ResolvedShear9set_valueEbbb
FNDA:2,_ZN5neml213ResolvedShear16expected_optionsEv
FNDA:2,_ZN5neml213ResolvedShearC2ERKNS_9OptionSetE
FNDA:4,_ZN5neml213ResolvedShear9set_valueEbbb
FNF:3
FNH:3
DA:39,2
DA:41,2
DA:43,2
DA:47,2
DA:49,6
DA:50,2
DA:52,6
DA:53,2
DA:55,6
DA:56,4
DA:58,4
DA:59,4
DA:60,2
DA:61,2
DA:62,0
DA:64,2
DA:66,6
DA:67,2
DA:68,2
DA:69,2
DA:70,4
DA:72,2
DA:75,4
DA:78,4
DA:79,4
DA:81,4
DA:82,4
DA:84,4
DA:86,2
DA:88,2
DA:89,2
DA:90,2
DA:92,2
DA:94,2
DA:95,10
DA:98,8
LF:36
LH:35
end_of_record
TN:
SF:/home/runner/work/neml2/neml2/src/neml2/models/solid_mechanics/crystal_plasticity/SingleSlipHardeningRule.cxx
FN:33,52,_ZN5neml223SingleSlipHardeningRule16expected_optionsEv
FN:54,60,_ZN5neml223SingleSlipHardeningRuleC2ERKNS_9OptionSetE
FNDA:4,_ZN5neml223SingleSlipHardeningRule16expected_optionsEv
FNDA:3,_ZN5neml223SingleSlipHardeningRuleC2ERKNS_9OptionSetE
FNF:2
FNH:2
DA:33,4
DA:35,4
DA:37,4
DA:38,4
DA:40,8
DA:41,12
DA:42,8
DA:43,4
DA:45,12
DA:46,4
DA:48,12
DA:49,4
DA:51,4
DA:52,0
DA:54,3
DA:56,3
DA:57,3
DA:58,6
DA:60,3
LF:19
LH:18
end_of_record
TN:
SF:/home/runner/work/neml2/neml2/src/neml2/models/solid_mechanics/crystal_plasticity/SingleSlipStrengthMap.cxx
FN:33,50,_ZN5neml221SingleSlipStrengthMap16expected_optionsEv
FN:52,57,_ZN5neml221SingleSlipStrengthMapC2ERKNS_9OptionSetE
FN:60,68,_ZN5neml221SingleSlipStrengthMap9set_valueEbbb
FNDA:2,_ZN5neml221SingleSlipStrengthMap16expected_optionsEv
FNDA:2,_ZN5neml221SingleSlipStrengthMapC2ERKNS_9OptionSetE
FNDA:4,_ZN5neml221SingleSlipStrengthMap9set_valueEbbb
FNF:3
FNH:3
DA:33,2
DA:35,2
DA:37,2
DA:41,2
DA:43,6
DA:44,4
DA:46,4
DA:47,2
DA:49,2
DA:50,0
DA:52,2
DA:54,2
DA:55,10
DA:57,2
DA:60,4
DA:62,4
DA:63,3
DA:65,4
DA:66,2
DA:67,2
DA:68,4
LF:21
LH:20
end_of_record
TN:
SF:/home/runner/work/neml2/neml2/src/neml2/models/solid_mechanics/crystal_plasticity/SlipRule.cxx
FN:34,55,_ZN5neml28SlipRule16expected_optionsEv
FN:57,65,_ZN5neml28SlipRuleC2ERKNS_9OptionSetE
FNDA:2,_ZN5neml28SlipRule16expected_optionsEv
FNDA:2,_ZN5neml28SlipRuleC2ERKNS_9OptionSetE
FNF:2
FNH:2
DA:34,2
DA:36,2
DA:38,2
DA:39,2
DA:41,6
DA:42,2
DA:44,6
DA:45,2
DA:47,6
DA:48,4
DA:50,4
DA:51,4
DA:52,2
DA:54,2
DA:55,0
DA:57,2
DA:59,6
DA:60,2
DA:61,2
DA:62,2
DA:63,4
DA:65,2
LF:22
LH:21
end_of_record
TN:
SF:/home/runner/work/neml2/neml2/src/neml2/models/solid_mechanics/crystal_plasticity/SlipStrengthMap.cxx
FN:34,47,_ZN5neml215SlipStrengthMap16expected_optionsEv
FN:49,55,_ZN5neml215SlipStrengthMapC2ERKNS_9OptionSetE
FNDA:2,_ZN5neml215SlipStrengthMap16expected_optionsEv
FNDA:2,_ZN5neml215SlipStrengthMapC2ERKNS_9OptionSetE
FNF:2
FNH:2
DA:34,2
DA:36,2
DA:37,2
DA:39,6
DA:40,4
DA:42,4
DA:43,4
DA:44,2
DA:46,2
DA:47,0
DA:49,2
DA:51,6
DA:52,2
DA:53,4
DA:55,2
LF:15
LH:14
end_of_record
TN:
SF:/home/runner/work/neml2/neml2/src/neml2/models/solid_mechanics/crystal_plasticity/SumSlipRates.cxx
FN:40,57,_ZN5neml212SumSlipRates16expected_optionsEv
FN:59,66,_ZN5neml212SumSlipRatesC2ERKNS_9OptionSetE
FN:69,77,_ZN5neml212SumSlipRates9set_valueEbbb
FNDA:2,_ZN5neml212SumSlipRates16expected_optionsEv
FNDA:2,_ZN5neml212SumSlipRatesC2ERKNS_9OptionSetE
FNDA:4,_ZN5neml212SumSlipRates9set_valueEbbb
FNF:3
FNH:3
DA:40,2
DA:42,2
DA:43,2
DA:44,2
DA:46,6
DA:47,2
DA:49,6
DA:50,4
DA:52,4
DA:53,4
DA:54,2
DA:56,2
DA:57,0
DA:59,2
DA:61,6
DA:62,2
DA:63,2
DA:64,4
DA:66,2
DA:69,4
DA:71,4
DA:72,3
DA:74,4
DA:75,2
DA:76,2
DA:77,4
LF:26
LH:25
end_of_record
TN:
SF:/home/runner/work/neml2/neml2/src/neml2/models/solid_mechanics/crystal_plasticity/VoceSingleSlipHardeningRule.cxx
FN:33,49,_ZN5neml227VoceSingleSlipHardeningRule16expected_optionsEv
FN:51,56,_ZN5neml227VoceSingleSlipHardeningRuleC2ERKNS_9OptionSetE
FN:59,72,_ZN5neml227VoceSingleSlipHardeningRule9set_valueEbbb
FNDA:2,_ZN5neml227VoceSingleSlipHardeningRule16expected_optionsEv
FNDA:2,_ZN5neml227VoceSingleSlipHardeningRuleC2ERKNS_9OptionSetE
FNDA:4,_ZN5neml227VoceSingleSlipHardeningRule9set_valueEbbb
FNF:3
FNH:3
DA:33,2
DA:35,2
DA:36,2
DA:41,2
DA:43,4
DA:44,4
DA:45,4
DA:46,4
DA:47,2
DA:48,2
DA:49,0
DA:51,2
DA:53,6
DA:54,10
DA:56,2
DA:59,4
DA:61,4
DA:62,3
DA:64,4
DA:66,2
DA:67,2
DA:69,2
DA:70,2
DA:72,4
LF:24
LH:23
end_of_record
TN:
SF:/home/runner/work/neml2/neml2/src/neml2/models/solid_mechanics/elasticity/AnisotropicElasticity.cxx
FN:30,39,_ZN5neml221AnisotropicElasticity16expected_optionsEv
FN:41,45,_ZN5neml221AnisotropicElasticityC2ERKNS_9OptionSetE
FNDA:2,_ZN5neml221AnisotropicElasticity16expected_optionsEv
FNDA:5,_ZN5neml221AnisotropicElasticityC2ERKNS_9OptionSetE
FNF:2
FNH:2
DA:30,2
DA:32,2
DA:33,2
DA:35,6
DA:36,2
DA:38,2
DA:39,0
DA:41,5
DA:43,5
DA:45,5
LF:10
LH:9
end_of_record
TN:
SF:/home/runner/work/neml2/neml2/src/neml2/models/solid_mechanics/elasticity/CubicElasticityConverter.cxx
FN:39,53,_ZN5neml224CubicElasticityConverter12G_E_nu_to_C1ERKSt5arrayINS_6ScalarELm3EERKS1_IbLm3EE
FN:56,70,_ZN5neml224CubicElasticityConverter12G_E_nu_to_C2ERKSt5arrayINS_6ScalarELm3EERKS1_IbLm3EE
FN:73,85,_ZN5neml224CubicElasticityConverter12G_E_nu_to_C3ERKSt5arrayINS_6ScalarELm3EERKS1_IbLm3EE
FNDA:4,_ZN5neml224CubicElasticityConverter12G_E_nu_to_C1ERKSt5arrayINS_6ScalarELm3EERKS1_IbLm3EE
FNDA:4,_ZN5neml224CubicElasticityConverter12G_E_nu_to_C2ERKSt5arrayINS_6ScalarELm3EERKS1_IbLm3EE
FNDA:4,_ZN5neml224CubicElasticityConverter12G_E_nu_to_C3ERKSt5arrayINS_6ScalarELm3EERKS1_IbLm3EE
FNF:3
FNH:3
DA:39,4
DA:41,4
DA:42,4
DA:43,4
DA:45,4
DA:46,4
DA:47,4
DA:48,12
DA:49,8
DA:50,12
DA:52,8
DA:53,8
DA:56,4
DA:58,4
DA:59,4
DA:60,4
DA:62,4
DA:63,4
DA:64,4
DA:66,16
DA:67,12
DA:69,8
DA:70,8
DA:73,4
DA:75,4
DA:76,4
DA:77,4
DA:79,4
DA:80,4
DA:81,4
DA:82,4
DA:84,8
DA:85,8
LF:33
LH:33
end_of_record
TN:
SF:/home/runner/work/neml2/neml2/src/neml2/models/solid_mechanics/elasticity/CubicElasticityTensor.cxx
FN:33,40,_ZN5neml221CubicElasticityTensor16expected_optionsEv
FN:42,47,_ZN5neml221CubicElasticityTensorC2ERKNS_9OptionSetE
FN:50,75,_ZN5neml221CubicElasticityTensor9set_valueEbbb
FNDA:2,_ZN5neml221CubicElasticityTensor16expected_optionsEv
FNDA:2,_ZN5neml221CubicElasticityTensorC2ERKNS_9OptionSetE
FNDA:4,_ZN5neml221CubicElasticityTensor9set_valueEbbb
FNF:3
FNH:3
DA:33,2
DA:35,2
DA:36,2
DA:37,2
DA:39,2
DA:40,0
DA:42,2
DA:44,2
DA:45,2
DA:47,2
DA:50,4
DA:52,4
DA:53,4
DA:54,4
DA:55,4
DA:57,4
DA:58,4
DA:59,4
DA:61,4
DA:62,4
DA:64,4
DA:66,2
DA:67,2
DA:69,2
DA:70,2
DA:72,2
DA:73,2
DA:75,4
LF:28
LH:27
end_of_record
TN:
SF:/home/runner/work/neml2/neml2/src/neml2/models/solid_mechanics/elasticity/Elasticity.cxx
FN:30,52,_ZN5neml210Elasticity16expected_optionsEv
FN:54,63,_ZN5neml210ElasticityC2ERKNS_9OptionSetE
FNDA:4,_ZN5neml210Elasticity16expected_optionsEv
FNDA:25,_ZN5neml210ElasticityC2ERKNS_9OptionSetE
FNF:2
FNH:2
DA:30,4
DA:32,4
DA:33,4
DA:35,12
DA:36,4
DA:38,12
DA:39,8
DA:41,8
DA:42,12
DA:44,4
DA:46,8
DA:47,8
DA:49,4
DA:51,4
DA:52,0
DA:54,25
DA:56,50
DA:57,50
DA:58,100
DA:59,75
DA:60,25
DA:61,50
DA:63,25
LF:23
LH:22
end_of_record
TN:
SF:/home/runner/work/neml2/neml2/src/neml2/models/solid_mechanics/elasticity/ElasticityConverter.cxx
FN:30,55,_ZN5neml24nameENS_15ElasticConstantE
FNDA:136,_ZN5neml24nameENS_15ElasticConstantE
FNF:1
FNH:1
DA:30,136
DA:32,136
DA:34,0
DA:35,0
DA:36,65
DA:37,130
DA:38,0
DA:39,0
DA:40,6
DA:41,12
DA:42,65
DA:43,130
DA:44,0
DA:45,0
DA:46,0
DA:47,0
DA:48,0
DA:49,0
DA:50,0
DA:51,0
DA:52,0
DA:53,0
LF:22
LH:8
end_of_record
TN:
SF:/home/runner/work/neml2/neml2/src/neml2/models/solid_mechanics/elasticity/GeneralElasticity.cxx
FN:35,45,_ZN5neml217GeneralElasticity16expected_optionsEv
FN:47,51,_ZN5neml217GeneralElasticityC2ERKNS_9OptionSetE
FN:54,89,_ZN5neml217GeneralElasticity9set_valueEbbb
FNDA:2,_ZN5neml217GeneralElasticity16expected_optionsEv
FNDA:5,_ZN5neml217GeneralElasticityC2ERKNS_9OptionSetE
FNDA:10,_ZN5neml217GeneralElasticity9set_valueEbbb
FNF:3
FNH:3
DA:35,2
DA:37,2
DA:38,2
DA:39,2
DA:41,4
DA:42,2
DA:44,2
DA:45,0
DA:47,5
DA:49,20
DA:51,5
DA:54,10
DA:56,10
DA:57,10
DA:59,10
DA:60,7
DA:62,10
DA:64,5
DA:65,5
DA:67,5
DA:69,5
DA:70,20
DA:71,5
DA:72,4
DA:73,16
DA:75,12
DA:76,5
DA:78,15
DA:80,2
DA:81,8
DA:82,2
DA:83,2
DA:84,8
DA:86,4
DA:87,2
DA:89,31
LF:36
LH:35
end_of_record
TN:
SF:/home/runner/work/neml2/neml2/src/neml2/models/solid_mechanics/elasticity/GreenLagrangeStrain.cxx
FN:35,49,_ZN5neml219GreenLagrangeStrain16expected_optionsEv
FN:51,56,_ZN5neml219GreenLagrangeStrainC2ERKNS_9OptionSetE
FN:59,74,_ZN5neml219GreenLagrangeStrain9set_valueEbbb
FNDA:2,_ZN5neml219GreenLagrangeStrain16expected_optionsEv
FNDA:1,_ZN5neml219GreenLagrangeStrainC2ERKNS_9OptionSetE
FNDA:2,_ZN5neml219GreenLagrangeStrain9set_valueEbbb
FNF:3
FNH:3
DA:35,2
DA:37,2
DA:38,2
DA:40,2
DA:42,6
DA:43,2
DA:45,6
DA:46,2
DA:48,2
DA:49,0
DA:51,1
DA:53,1
DA:54,2
DA:56,1
DA:59,2
DA:61,2
DA:63,1
DA:64,1
DA:65,1
DA:67,2
DA:69,1
DA:70,6
DA:71,7
DA:72,1
DA:73,1
DA:74,6
LF:26
LH:25
end_of_record
TN:
SF:/home/runner/work/neml2/neml2/src/neml2/models/solid_mechanics/elasticity/IsotropicElasticityConverter.cxx
FN:36,44,_ZN5neml228IsotropicElasticityConverter8K_G_to_KERKSt5arrayINS_6ScalarELm2EERKS1_IbLm2EE
FN:47,55,_ZN5neml228IsotropicElasticityConverter8K_G_to_GERKSt5arrayINS_6ScalarELm2EERKS1_IbLm2EE
FN:58,68,_ZN5neml228IsotropicElasticityConverter9E_nu_to_KERKSt5arrayINS_6ScalarELm2EERKS1_IbLm2EE
FN:71,81,_ZN5neml228IsotropicElasticityConverter9E_nu_to_GERKSt5arrayINS_6ScalarELm2EERKS1_IbLm2EE
FNDA:0,_ZN5neml228IsotropicElasticityConverter8K_G_to_KERKSt5arrayINS_6ScalarELm2EERKS1_IbLm2EE
FNDA:0,_ZN5neml228IsotropicElasticityConverter8K_G_to_GERKSt5arrayINS_6ScalarELm2EERKS1_IbLm2EE
FNDA:28,_ZN5neml228IsotropicElasticityConverter9E_nu_to_KERKSt5arrayINS_6ScalarELm2EERKS1_IbLm2EE
FNDA:30,_ZN5neml228IsotropicElasticityConverter9E_nu_to_GERKSt5arrayINS_6ScalarELm2EERKS1_IbLm2EE
FNF:4
FNH:2
DA:36,0
DA:38,0
DA:40,0
DA:41,0
DA:43,0
DA:44,0
DA:47,0
DA:49,0
DA:51,0
DA:52,0
DA:54,0
DA:55,0
DA:58,28
DA:60,28
DA:61,28
DA:63,28
DA:64,28
DA:65,28
DA:67,56
DA:68,56
DA:71,30
DA:73,30
DA:74,30
DA:76,30
DA:77,30
DA:78,30
DA:80,60
DA:81,60
LF:28
LH:16
end_of_record
TN:
SF:/home/runner/work/neml2/neml2/src/neml2/models/solid_mechanics/elasticity/IsotropicElasticityTensor.cxx
FN:33,40,_ZN5neml225IsotropicElasticityTensor16expected_optionsEv
FN:42,47,_ZN5neml225IsotropicElasticityTensorC2ERKNS_9OptionSetE
FN:50,70,_ZN5neml225IsotropicElasticityTensor9set_valueEbbb
FNDA:2,_ZN5neml225IsotropicElasticityTensor16expected_optionsEv
FNDA:2,_ZN5neml225IsotropicElasticityTensorC2ERKNS_9OptionSetE
FNDA:4,_ZN5neml225IsotropicElasticityTensor9set_valueEbbb
FNF:3
FNH:3
DA:33,2
DA:35,2
DA:36,2
DA:37,2
DA:39,2
DA:40,0
DA:42,2
DA:44,2
DA:45,2
DA:47,2
DA:50,4
DA:52,4
DA:53,4
DA:54,4
DA:56,4
DA:57,4
DA:59,4
DA:60,4
DA:62,4
DA:64,2
DA:65,2
DA:67,2
DA:68,2
DA:70,4
LF:24
LH:23
end_of_record
TN:
SF:/home/runner/work/neml2/neml2/src/neml2/models/solid_mechanics/elasticity/LinearIsotropicElasticity.cxx
FN:33,42,_ZN5neml225LinearIsotropicElasticity16expected_optionsEv
FN:44,48,_ZN5neml225LinearIsotropicElasticityC2ERKNS_9OptionSetE
FN:51,81,_ZN5neml225LinearIsotropicElasticity9set_valueEbbb
FNDA:2,_ZN5neml225LinearIsotropicElasticity16expected_optionsEv
FNDA:20,_ZN5neml225LinearIsotropicElasticityC2ERKNS_9OptionSetE
FNDA:24,_ZN5neml225LinearIsotropicElasticity9set_valueEbbb
FNF:3
FNH:3
DA:33,2
DA:35,2
DA:36,2
DA:39,2
DA:41,2
DA:42,0
DA:44,20
DA:46,20
DA:48,20
DA:51,24
DA:53,24
DA:54,24
DA:55,24
DA:56,24
DA:57,24
DA:59,24
DA:60,20
DA:62,24
DA:64,10
DA:65,10
DA:67,10
DA:68,10
DA:70,10
DA:71,10
DA:72,10
DA:73,10
DA:75,10
DA:76,2
DA:78,10
DA:79,2
DA:80,10
DA:81,24
LF:32
LH:31
end_of_record
TN:
SF:/home/runner/work/neml2/neml2/src/neml2/solvers/Newton.cxx
FN:101,111,_ZNK5neml26Newton9convergedEmRKN2at6TensorES4_
FN:114,120,_ZN5neml26Newton6updateERNS_15NonlinearSystemERNS1_3SolILb1EEERKNS1_3ResILb1EEERKNS1_3JacILb1EEE
FN:123,129,_ZN5neml26Newton12final_updateERNS_15NonlinearSystemERNS1_3SolILb1EEERKNS1_3ResILb1EEERKNS1_3JacILb1EEE
FN:132,138,_ZN5neml26Newton15solve_directionERKNS_15NonlinearSystem3ResILb1EEERKNS1_3JacILb1EEE
FN:38,44,_ZN5neml26Newton16expected_optionsEv
FN:46,49,_ZN5neml26NewtonC2ERKNS_9OptionSetE
FN:52,98,_ZN5neml26Newton5solveERNS_15NonlinearSystemERKNS1_3SolILb0EEE
FNDA:1537,_ZNK5neml26Newton9convergedEmRKN2at6TensorES4_
FNDA:1224,_ZN5neml26Newton6updateERNS_15NonlinearSystemERNS1_3SolILb1EEERKNS1_3ResILb1EEERKNS1_3JacILb1EEE
FNDA:26,_ZN5neml26Newton12final_updateERNS_15NonlinearSystemERNS1_3SolILb1EEERKNS1_3ResILb1EEERKNS1_3JacILb1EEE
FNDA:1347,_ZN5neml26Newton15solve_directionERKNS_15NonlinearSystem3ResILb1EEERKNS1_3JacILb1EEE
FNDA:18,_ZN5neml26Newton16expected_optionsEv
FNDA:21,_ZN5neml26NewtonC2ERKNS_9OptionSetE
FNDA:216,_ZN5neml26Newton5solveERNS_15NonlinearSystemERKNS1_3SolILb0EEE
FNF:7
FNH:7
DA:38,18
DA:40,18
DA:41,18
DA:43,18
DA:44,0
DA:46,21
DA:47,21
DA:49,21
DA:52,216
DA:55,216
DA:58,216
DA:59,216
DA:60,216
DA:63,216
DA:66,0
DA:67,0
DA:69,0
DA:73,216
DA:79,1322
DA:81,1321
DA:82,1321
DA:83,1321
DA:84,1321
DA:87,1321
DA:90,215
DA:91,26
DA:93,215
DA:95,1321
DA:97,1
DA:98,431
DA:101,1537
DA:110,1537
DA:114,1224
DA:119,1224
DA:120,1224
DA:123,26
DA:128,26
DA:129,26
DA:132,1347
DA:134,1347
DA:135,51
DA:137,1296
LF:42
LH:38
end_of_record
TN:
SF:/home/runner/work/neml2/neml2/src/neml2/solvers/NewtonWithLineSearch.cxx
FN:38,67,_ZN5neml220NewtonWithLineSearch16expected_optionsEv
FN:69,77,_ZN5neml220NewtonWithLineSearchC2ERKNS_9OptionSetE
FN:80,88,_ZN5neml220NewtonWithLineSearch6updateERNS_15NonlinearSystemERNS1_3SolILb1EEERKNS1_3ResILb1EEERKNS1_3JacILb1EEE
FN:91,135,_ZNK5neml220NewtonWithLineSearch10linesearchERNS_15NonlinearSystemERKNS1_3SolILb1EEES6_RKNS1_3ResILb1EEE
FNDA:5,_ZN5neml220NewtonWithLineSearch16expected_optionsEv
FNDA:4,_ZN5neml220NewtonWithLineSearchC2ERKNS_9OptionSetE
FNDA:79,_ZN5neml220NewtonWithLineSearch6updateERNS_15NonlinearSystemERNS1_3SolILb1EEERKNS1_3ResILb1EEERKNS1_3JacILb1EEE
FNDA:79,_ZNK5neml220NewtonWithLineSearch10linesearchERNS_15NonlinearSystemERKNS1_3SolILb1EEES6_RKNS1_3ResILb1EEE
FNF:4
FNH:4
DA:38,5
DA:40,5
DA:41,5
DA:43,20
DA:44,5
DA:45,10
DA:46,10
DA:47,15
DA:49,10
DA:50,15
DA:52,5
DA:54,10
DA:55,15
DA:56,5
DA:58,10
DA:59,15
DA:60,5
DA:62,10
DA:63,10
DA:64,5
DA:66,10
DA:67,5
DA:69,4
DA:71,8
DA:72,8
DA:73,4
DA:74,12
DA:75,8
DA:77,4
DA:80,79
DA:85,79
DA:86,79
DA:87,79
DA:88,79
DA:91,79
DA:96,79
DA:97,79
DA:98,79
DA:100,192
DA:102,173
DA:103,173
DA:104,173
DA:106,346
DA:107,173
DA:108,0
DA:109,0
DA:111,173
DA:112,0
DA:113,0
DA:114,0
DA:115,0
DA:117,173
DA:119,173
DA:120,60
DA:122,226
DA:123,339
DA:124,353
DA:126,79
DA:127,0
DA:131,0
DA:132,0
DA:134,158
DA:135,305
LF:63
LH:54
end_of_record
TN:
SF:/home/runner/work/neml2/neml2/src/neml2/solvers/NewtonWithTrustRegion.cxx
FN:101,105,_ZNK5neml221NewtonWithTrustRegion18subproblem_optionsERKNS_9OptionSetE
FN:108,115,_ZNK5neml221NewtonWithTrustRegion25subproblem_solver_optionsERKNS_9OptionSetE
FN:118,122,_ZN5neml221NewtonWithTrustRegion7prepareERKNS_15NonlinearSystemERKNS1_3SolILb1EEE
FN:125,168,_ZN5neml221NewtonWithTrustRegion6updateERNS_15NonlinearSystemERNS1_3SolILb1EEERKNS1_3ResILb1EEERKNS1_3JacILb1EEE
FN:171,199,_ZN5neml221NewtonWithTrustRegion15solve_directionERKNS_15NonlinearSystem3ResILb1EEERKNS1_3JacILb1EEE
FN:202,208,_ZNK5neml221NewtonWithTrustRegion24merit_function_reductionERKNS_15NonlinearSystem3ResILb1EEERKNS1_3JacILb1EEERKNS1_3SolILb1EEE
FN:40,84,_ZN5neml221NewtonWithTrustRegion16expected_optionsEv
FN:86,98,_ZN5neml221NewtonWithTrustRegionC2ERKNS_9OptionSetE
FNDA:3,_ZNK5neml221NewtonWithTrustRegion18subproblem_optionsERKNS_9OptionSetE
FNDA:3,_ZNK5neml221NewtonWithTrustRegion25subproblem_solver_optionsERKNS_9OptionSetE
FNDA:3,_ZN5neml221NewtonWithTrustRegion7prepareERKNS_15NonlinearSystemERKNS1_3SolILb1EEE
FNDA:18,_ZN5neml221NewtonWithTrustRegion6updateERNS_15NonlinearSystemERNS1_3SolILb1EEERKNS1_3ResILb1EEERKNS1_3JacILb1EEE
FNDA:18,_ZN5neml221NewtonWithTrustRegion15solve_directionERKNS_15NonlinearSystem3ResILb1EEERKNS1_3JacILb1EEE
FNDA:18,_ZNK5neml221NewtonWithTrustRegion24merit_function_reductionERKNS_15NonlinearSystem3ResILb1EEERKNS1_3JacILb1EEERKNS1_3SolILb1EEE
FNDA:5,_ZN5neml221NewtonWithTrustRegion16expected_optionsEv
FNDA:3,_ZN5neml221NewtonWithTrustRegionC2ERKNS_9OptionSetE
FNF:8
FNH:8
DA:40,5
DA:42,5
DA:43,5
DA:47,5
DA:49,10
DA:50,10
DA:52,10
DA:53,10
DA:55,10
DA:56,15
DA:57,5
DA:59,10
DA:60,15
DA:61,5
DA:63,10
DA:64,10
DA:66,10
DA:67,10
DA:69,10
DA:70,15
DA:71,5
DA:73,10
DA:74,10
DA:76,10
DA:77,10
DA:79,10
DA:80,10
DA:81,5
DA:83,5
DA:84,0
DA:86,3
DA:88,3
DA:89,3
DA:90,6
DA:91,6
DA:92,6
DA:93,6
DA:94,6
DA:95,6
DA:96,9
DA:98,3
DA:101,3
DA:104,3
DA:108,3
DA:110,3
DA:111,12
DA:112,12
DA:113,9
DA:114,3
DA:115,0
DA:118,3
DA:121,3
DA:122,3
DA:125,18
DA:130,18
DA:133,18
DA:134,18
DA:137,18
DA:138,18
DA:139,18
DA:140,18
DA:143,18
DA:146,54
DA:147,72
DA:148,54
DA:149,90
DA:151,18
DA:154,18
DA:157,18
DA:159,0
DA:160,0
DA:161,0
DA:162,0
DA:163,0
DA:164,0
DA:167,18
DA:168,162
DA:171,18
DA:175,18
DA:178,18
DA:180,18
DA:183,18
DA:185,0
DA:186,0
DA:187,0
DA:190,18
DA:191,18
DA:195,18
DA:198,36
DA:199,18
DA:202,18
DA:206,18
DA:207,36
DA:208,18
LF:94
LH:83
end_of_record
TN:
SF:/home/runner/work/neml2/neml2/src/neml2/solvers/NonlinearSolver.cxx
FN:30,45,_ZN5neml215NonlinearSolver16expected_optionsEv
FN:47,53,_ZN5neml215NonlinearSolverC2ERKNS_9OptionSetE
FNDA:18,_ZN5neml215NonlinearSolver16expected_optionsEv
FNDA:21,_ZN5neml215NonlinearSolverC2ERKNS_9OptionSetE
FNF:2
FNH:2
DA:30,18
DA:32,18
DA:34,36
DA:35,36
DA:37,36
DA:38,36
DA:40,36
DA:41,36
DA:42,18
DA:44,18
DA:45,0
DA:47,21
DA:49,42
DA:50,42
DA:51,42
DA:53,21
LF:16
LH:15
end_of_record
TN:
SF:/home/runner/work/neml2/neml2/src/neml2/solvers/NonlinearSystem.cxx
FN:156,162,_ZNK5neml215NonlinearSystem39ensure_scaling_matrices_initialized_dbgEv
FN:165,172,_ZNK5neml215NonlinearSystem5scaleERKNS0_3ResILb0EEE
FN:175,182,_ZNK5neml215NonlinearSystem7unscaleERKNS0_3ResILb1EEE
FN:185,192,_ZNK5neml215NonlinearSystem5scaleERKNS0_3JacILb0EEE
FN:195,203,_ZNK5neml215NonlinearSystem7unscaleERKNS0_3JacILb1EEE
FN:206,213,_ZNK5neml215NonlinearSystem5scaleERKNS0_3SolILb0EEE
FN:216,223,_ZNK5neml215NonlinearSystem7unscaleERKNS0_3SolILb1EEE
FN:226,229,_ZN5neml215NonlinearSystem9set_guessERKNS0_3SolILb1EEE
FN:35,39,_ZN5neml234currently_solving_nonlinear_systemEv
FN:41,45,_ZN5neml222SolvingNonlinearSystemC2Eb
FN:47,50,_ZN5neml222SolvingNonlinearSystemD2Ev
FN:53,73,_ZN5neml215NonlinearSystem16expected_optionsEv
FN:76,81,_ZN5neml215NonlinearSystem25disable_automatic_scalingERNS_9OptionSetE
FN:84,89,_ZN5neml215NonlinearSystem24enable_automatic_scalingERNS_9OptionSetE
FN:91,96,_ZN5neml215NonlinearSystemC2ERKNS_9OptionSetE
FN:99,153,_ZN5neml215NonlinearSystem12init_scalingERKNS0_3SolILb0EEEb
FNDA:98,_ZNK5neml215NonlinearSystem39ensure_scaling_matrices_initialized_dbgEv
FNDA:1728,_ZNK5neml215NonlinearSystem5scaleERKNS0_3ResILb0EEE
FNDA:0,_ZNK5neml215NonlinearSystem7unscaleERKNS0_3ResILb1EEE
FNDA:1348,_ZNK5neml215NonlinearSystem5scaleERKNS0_3JacILb0EEE
FNDA:0,_ZNK5neml215NonlinearSystem7unscaleERKNS0_3JacILb1EEE
FNDA:217,_ZNK5neml215NonlinearSystem5scaleERKNS0_3SolILb0EEE
FNDA:1945,_ZNK5neml215NonlinearSystem7unscaleERKNS0_3SolILb1EEE
FNDA:1729,_ZN5neml215NonlinearSystem9set_guessERKNS0_3SolILb1EEE
FNDA:7619,_ZN5neml234currently_solving_nonlinear_systemEv
FNDA:197,_ZN5neml222SolvingNonlinearSystemC2Eb
FNDA:197,_ZN5neml222SolvingNonlinearSystemD2Ev
FNDA:394,_ZN5neml215NonlinearSystem16expected_optionsEv
FNDA:381,_ZN5neml215NonlinearSystem25disable_automatic_scalingERNS_9OptionSetE
FNDA:12,_ZN5neml215NonlinearSystem24enable_automatic_scalingERNS_9OptionSetE
FNDA:419,_ZN5neml215NonlinearSystemC2ERKNS_9OptionSetE
FNDA:193,_ZN5neml215NonlinearSystem12init_scalingERKNS0_3SolILb0EEEb
FNF:16
FNH:14
DA:35,7619
DA:38,7619
DA:41,197
DA:42,197
DA:44,197
DA:45,197
DA:47,197
DA:49,197
DA:50,197
DA:53,394
DA:55,394
DA:57,788
DA:58,1182
DA:60,394
DA:62,788
DA:63,1182
DA:64,394
DA:66,788
DA:67,788
DA:70,394
DA:72,394
DA:73,0
DA:76,381
DA:78,762
DA:79,762
DA:80,381
DA:81,381
DA:84,12
DA:86,24
DA:87,24
DA:88,12
DA:89,12
DA:91,419
DA:92,838
DA:93,838
DA:94,1257
DA:96,419
DA:99,193
DA:101,193
DA:102,189
DA:104,4
DA:105,0
DA:108,4
DA:111,4
DA:112,4
DA:113,4
DA:115,4
DA:116,0
DA:117,0
DA:119,8
DA:122,16
DA:123,8
DA:124,8
DA:125,16
DA:126,8
DA:127,8
DA:129,8
DA:130,0
DA:131,0
DA:132,8
DA:133,4
DA:136,20
DA:138,48
DA:139,80
DA:140,32
DA:141,32
DA:142,32
DA:143,32
DA:144,64
DA:145,16
DA:148,4
DA:150,4
DA:151,0
DA:152,0
DA:153,132
DA:156,98
DA:158,98
DA:159,98
DA:160,98
DA:162,98
DA:165,1728
DA:167,1728
DA:168,1693
DA:170,35
DA:171,35
DA:175,0
DA:177,0
DA:178,0
DA:180,0
DA:181,0
DA:185,1348
DA:187,1348
DA:188,1328
DA:190,20
DA:191,20
DA:195,0
DA:197,0
DA:198,0
DA:200,0
DA:202,0
DA:206,217
DA:208,217
DA:209,213
DA:211,4
DA:212,4
DA:216,1945
DA:218,1945
DA:219,1906
DA:221,39
DA:222,39
DA:226,1729
DA:228,1729
DA:229,1729
LF:113
LH:95
end_of_record
TN:
SF:/home/runner/work/neml2/neml2/src/neml2/solvers/Solver.cxx
FN:30,39,_ZN5neml26Solver16expected_optionsEv
FN:41,45,_ZN5neml26SolverC2ERKNS_9OptionSetE
FNDA:18,_ZN5neml26Solver16expected_optionsEv
FNDA:21,_ZN5neml26SolverC2ERKNS_9OptionSetE
FNF:2
FNH:2
DA:30,18
DA:32,18
DA:33,18
DA:35,36
DA:36,18
DA:38,18
DA:39,0
DA:41,21
DA:43,42
DA:45,21
LF:10
LH:9
end_of_record
TN:
SF:/home/runner/work/neml2/neml2/src/neml2/solvers/TrustRegionSubProblem.cxx
FN:35,38,_ZN5neml221TrustRegionSubProblemC2ERKNS_9OptionSetE
FN:41,48,_ZN5neml221TrustRegionSubProblem6reinitERKNS_15NonlinearSystem3ResILb1EEERKNS1_3JacILb1EEERKNS_6ScalarE
FN:51,54,_ZN5neml221TrustRegionSubProblem9set_guessERKNS_15NonlinearSystem3SolILb0EEE
FN:57,69,_ZN5neml221TrustRegionSubProblem8assembleEPNS_15NonlinearSystem3ResILb0EEEPNS1_3JacILb0EEE
FN:72,75,_ZNK5neml221TrustRegionSubProblem20preconditioned_solveERKNS_6ScalarERKNS_6TensorE
FN:78,81,_ZNK5neml221TrustRegionSubProblem24preconditioned_directionERKNS_6ScalarE
FNDA:3,_ZN5neml221TrustRegionSubProblemC2ERKNS_9OptionSetE
FNDA:18,_ZN5neml221TrustRegionSubProblem6reinitERKNS_15NonlinearSystem3ResILb1EEERKNS1_3JacILb1EEERKNS_6ScalarE
FNDA:69,_ZN5neml221TrustRegionSubProblem9set_guessERKNS_15NonlinearSystem3SolILb0EEE
FNDA:120,_ZN5neml221TrustRegionSubProblem8assembleEPNS_15NonlinearSystem3ResILb0EEEPNS1_3JacILb0EEE
FNDA:189,_ZNK5neml221TrustRegionSubProblem20preconditioned_solveERKNS_6ScalarERKNS_6TensorE
FNDA:138,_ZNK5neml221TrustRegionSubProblem24preconditioned_directionERKNS_6ScalarE
FNF:6
FNH:6
DA:35,3
DA:36,3
DA:38,3
DA:41,18
DA:45,18
DA:46,18
DA:47,18
DA:48,18
DA:51,69
DA:53,69
DA:54,69
DA:57,120
DA:60,120
DA:61,120
DA:63,120
DA:64,69
DA:66,120
DA:68,51
DA:69,120
DA:72,189
DA:74,189
DA:78,138
DA:80,138
LF:23
LH:23
end_of_record
TN:
SF:/home/runner/work/neml2/neml2/src/neml2/tensors/MillerIndex.cxx
FN:33,36,_ZNK5neml211MillerIndexclEl
FN:39,42,_ZN5neml211MillerIndex4fillElllRKN3c1013TensorOptionsE
FN:45,49,_ZNK5neml211MillerIndex6reduceEv
FN:52,55,_ZNK5neml211MillerIndex6to_vecERKN3c1013TensorOptionsE
FN:58,62,_ZNK5neml211MillerIndex17to_normalized_vecERKN3c1013TensorOptionsE
FNDA:195,_ZNK5neml211MillerIndexclEl
FNDA:10,_ZN5neml211MillerIndex4fillElllRKN3c1013TensorOptionsE
FNDA:65,_ZNK5neml211MillerIndex6reduceEv
FNDA:66,_ZNK5neml211MillerIndex6to_vecERKN3c1013TensorOptionsE
FNDA:2,_ZNK5neml211MillerIndex17to_normalized_vecERKN3c1013TensorOptionsE
FNF:5
FNH:5
DA:33,195
DA:35,780
DA:36,195
DA:39,10
DA:41,40
DA:42,10
DA:45,65
DA:47,65
DA:48,130
DA:49,65
DA:52,66
DA:54,66
DA:58,2
DA:60,2
DA:61,4
DA:62,2
LF:16
LH:16
end_of_record
TN:
SF:/home/runner/work/neml2/neml2/src/neml2/tensors/Quaternion.cxx
FN:101,105,_ZNK5neml210Quaternion4distERKS0_
FN:44,49,_ZN5neml210QuaternionC2ERKNS_3RotE
FN:52,60,_ZN5neml210Quaternion4fillERKdS2_S2_S2_RKN3c1013TensorOptionsE
FN:63,66,_ZN5neml210Quaternion4fillERKNS_6ScalarES3_S3_S3_
FN:69,72,_ZNK5neml210QuaternionclEl
FN:75,92,_ZNK5neml210Quaternion5to_R2Ev
FN:95,98,_ZNK5neml210Quaternion3dotERKS0_
FNDA:0,_ZNK5neml210Quaternion4distERKS0_
FNDA:0,_ZN5neml210QuaternionC2ERKNS_3RotE
FNDA:2,_ZN5neml210Quaternion4fillERKdS2_S2_S2_RKN3c1013TensorOptionsE
FNDA:2,_ZN5neml210Quaternion4fillERKNS_6ScalarES3_S3_S3_
FNDA:2370,_ZNK5neml210QuaternionclEl
FNDA:79,_ZNK5neml210Quaternion5to_R2Ev
FNDA:0,_ZNK5neml210Quaternion3dotERKS0_
FNF:7
FNH:4
DA:44,0
DA:45,0
DA:46,0
DA:47,0
DA:49,0
DA:52,2
DA:59,2
DA:63,2
DA:65,12
DA:66,2
DA:69,2370
DA:71,4740
DA:72,2370
DA:75,79
DA:77,79
DA:79,79
DA:80,79
DA:81,79
DA:83,158
DA:84,158
DA:85,158
DA:86,158
DA:87,158
DA:88,158
DA:89,158
DA:90,158
DA:91,316
DA:92,79
DA:95,0
DA:97,0
DA:101,0
DA:103,0
DA:104,0
DA:105,0
LF:34
LH:23
end_of_record
TN:
SF:/home/runner/work/neml2/neml2/src/neml2/tensors/R2.cxx
FN:38,41,_ZN5neml22R2C2ERKNS_3SR2E
FN:43,46,_ZN5neml22R2C2ERKNS_3WR2E
FN:48,51,_ZN5neml22R2C2ERKNS_3RotE
FN:54,57,_ZN5neml22R212identity_mapERKN3c1013TensorOptionsE
FNDA:71,_ZN5neml22R2C2ERKNS_3SR2E
FNDA:32,_ZN5neml22R2C2ERKNS_3WR2E
FNDA:7,_ZN5neml22R2C2ERKNS_3RotE
FNDA:1,_ZN5neml22R212identity_mapERKN3c1013TensorOptionsE
FNF:4
FNH:4
DA:38,71
DA:39,71
DA:41,71
DA:43,32
DA:44,32
DA:46,32
DA:48,7
DA:49,7
DA:51,7
DA:54,1
DA:56,1
LF:11
LH:11
end_of_record
TN:
SF:/home/runner/work/neml2/neml2/src/neml2/tensors/R2Base.cxx
FN:113,133,_ZN5neml26R2BaseINS_2R2EE4fillERKdS4_S4_S4_S4_S4_S4_S4_S4_RKN3c1013TensorOptionsE
FN:137,151,_ZN5neml26R2BaseINS_2R2EE4fillERKNS_6ScalarES5_S5_S5_S5_S5_S5_S5_S5_
FN:155,162,_ZN5neml26R2BaseINS_2R2EE4skewERKNS_3VecE
FN:166,169,_ZN5neml26R2BaseINS_2R2EE8identityERKN3c1013TensorOptionsE
FN:173,176,_ZNK5neml26R2BaseINS_2R2EE6rotateERKNS_3RotE
FN:180,183,_ZNK5neml26R2BaseINS_2R2EE6rotateERKS1_
FN:187,194,_ZNK5neml26R2BaseINS_2R2EE7drotateERKNS_3RotE
FN:198,203,_ZNK5neml26R2BaseINS_2R2EE7drotateERKS1_
FN:207,210,_ZNK5neml26R2BaseINS_2R2EEclEll
FN:214,228,_ZNK5neml26R2BaseINS_2R2EE3detEv
FN:232,260,_ZNK5neml26R2BaseINS_2R2EE7inverseEv
FN:264,267,_ZNK5neml26R2BaseINS_2R2EE9transposeEv
FN:271,275,_ZN5neml2mlINS_2R2ENS_3VecEvvEES2_RKT_RKT0_
FN:279,283,_ZN5neml2mlINS_2R2ES1_vvEES1_RKT_RKT0_
FN:41,44,_ZN5neml26R2BaseINS_2R2EE4fillERKdRKN3c1013TensorOptionsE
FN:48,55,_ZN5neml26R2BaseINS_2R2EE4fillERKNS_6ScalarE
FN:59,65,_ZN5neml26R2BaseINS_2R2EE4fillERKdS4_S4_RKN3c1013TensorOptionsE
FN:69,76,_ZN5neml26R2BaseINS_2R2EE4fillERKNS_6ScalarES5_S5_
FN:80,94,_ZN5neml26R2BaseINS_2R2EE4fillERKdS4_S4_S4_S4_S4_RKN3c1013TensorOptionsE
FN:98,109,_ZN5neml26R2BaseINS_2R2EE4fillERKNS_6ScalarES5_S5_S5_S5_S5_
FNDA:34,_ZN5neml26R2BaseINS_2R2EE4fillERKdS4_S4_S4_S4_S4_S4_S4_S4_RKN3c1013TensorOptionsE
FNDA:135,_ZN5neml26R2BaseINS_2R2EE4fillERKNS_6ScalarES5_S5_S5_S5_S5_S5_S5_S5_
FNDA:305,_ZN5neml26R2BaseINS_2R2EE4skewERKNS_3VecE
FNDA:380,_ZN5neml26R2BaseINS_2R2EE8identityERKN3c1013TensorOptionsE
FNDA:18,_ZNK5neml26R2BaseINS_2R2EE6rotateERKNS_3RotE
FNDA:43,_ZNK5neml26R2BaseINS_2R2EE6rotateERKS1_
FNDA:11,_ZNK5neml26R2BaseINS_2R2EE7drotateERKNS_3RotE
FNDA:9,_ZNK5neml26R2BaseINS_2R2EE7drotateERKS1_
FNDA:81,_ZNK5neml26R2BaseINS_2R2EEclEll
FNDA:2,_ZNK5neml26R2BaseINS_2R2EE3detEv
FNDA:96,_ZNK5neml26R2BaseINS_2R2EE7inverseEv
FNDA:196,_ZNK5neml26R2BaseINS_2R2EE9transposeEv
FNDA:177,_ZN5neml2mlINS_2R2ENS_3VecEvvEES2_RKT_RKT0_
FNDA:1479,_ZN5neml2mlINS_2R2ES1_vvEES1_RKT_RKT0_
FNDA:26,_ZN5neml26R2BaseINS_2R2EE4fillERKdRKN3c1013TensorOptionsE
FNDA:49,_ZN5neml26R2BaseINS_2R2EE4fillERKNS_6ScalarE
FNDA:2,_ZN5neml26R2BaseINS_2R2EE4fillERKdS4_S4_RKN3c1013TensorOptionsE
FNDA:5,_ZN5neml26R2BaseINS_2R2EE4fillERKNS_6ScalarES5_S5_
FNDA:2,_ZN5neml26R2BaseINS_2R2EE4fillERKdS4_S4_S4_S4_S4_RKN3c1013TensorOptionsE
FNDA:5,_ZN5neml26R2BaseINS_2R2EE4fillERKNS_6ScalarES5_S5_S5_S5_S5_
FNF:20
FNH:20
DA:41,26
DA:43,26
DA:48,49
DA:50,49
DA:51,294
DA:52,196
DA:53,196
DA:54,294
DA:55,735
DA:59,2
DA:64,2
DA:69,5
DA:71,5
DA:72,30
DA:73,20
DA:74,20
DA:75,30
DA:76,75
DA:80,2
DA:88,4
DA:89,4
DA:90,4
DA:91,4
DA:92,4
DA:93,6
DA:98,5
DA:105,30
DA:106,20
DA:107,20
DA:108,30
DA:109,75
DA:113,34
DA:124,68
DA:125,68
DA:126,68
DA:127,68
DA:128,68
DA:129,68
DA:130,68
DA:131,68
DA:132,102
DA:137,135
DA:147,810
DA:148,540
DA:149,540
DA:150,810
DA:151,2025
DA:155,305
DA:157,305
DA:158,1830
DA:159,1220
DA:160,1220
DA:161,1830
DA:162,4575
DA:166,380
DA:168,380
DA:173,18
DA:175,18
DA:180,43
DA:182,43
DA:187,11
DA:189,11
DA:190,11
DA:192,44
DA:193,110
DA:194,33
DA:198,9
DA:200,9
DA:201,27
DA:202,90
DA:203,45
DA:207,81
DA:209,243
DA:210,81
DA:214,2
DA:216,2
DA:217,2
DA:218,2
DA:219,2
DA:220,2
DA:221,2
DA:222,2
DA:223,2
DA:224,2
DA:225,2
DA:226,2
DA:227,4
DA:228,2
DA:232,96
DA:234,96
DA:235,96
DA:236,96
DA:237,96
DA:238,96
DA:239,96
DA:240,96
DA:241,96
DA:242,96
DA:243,96
DA:244,96
DA:245,96
DA:246,96
DA:247,96
DA:248,96
DA:249,96
DA:250,96
DA:251,96
DA:252,96
DA:253,96
DA:254,384
DA:255,384
DA:256,384
DA:257,384
DA:258,96
DA:259,192
DA:260,480
DA:264,196
DA:266,196
DA:271,177
DA:273,177
DA:274,708
DA:275,177
DA:279,1479
DA:281,1479
DA:282,5916
DA:283,1479
LF:126
LH:126
end_of_record
TN:
SF:/home/runner/work/neml2/neml2/src/neml2/tensors/R3.cxx
FN:35,41,_ZN5neml22R311levi_civitaERKN3c1013TensorOptionsE
FN:44,47,_ZNK5neml22R3clElll
FN:50,54,_ZNK5neml22R310contract_kERKNS_3VecE
FNDA:290,_ZN5neml22R311levi_civitaERKN3c1013TensorOptionsE
FNDA:54,_ZNK5neml22R3clElll
FNDA:4,_ZNK5neml22R310contract_kERKNS_3VecE
FNF:3
FNH:3
DA:35,290
DA:37,12760
DA:40,1740
DA:41,11890
DA:44,54
DA:46,216
DA:47,54
DA:50,4
DA:52,4
DA:53,20
DA:54,4
LF:11
LH:11
end_of_record
TN:
SF:/home/runner/work/neml2/neml2/src/neml2/tensors/R4.cxx
FN:102,105,_ZNK5neml22R415transpose_minorEv
FN:108,111,_ZNK5neml22R415transpose_majorEv
FN:40,43,_ZN5neml22R4C2ERKNS_4SSR4E
FN:45,48,_ZN5neml22R4C2ERKNS_4WWR4E
FN:51,58,_ZNK5neml22R46rotateERKNS_3RotE
FN:61,74,_ZNK5neml22R47drotateERKNS_3RotE
FN:77,87,_ZNK5neml22R412drotate_selfERKNS_3RotE
FN:90,93,_ZNK5neml22R4clEllll
FN:96,99,_ZNK5neml22R49transposeEll
FNDA:68,_ZNK5neml22R415transpose_minorEv
FNDA:1,_ZNK5neml22R415transpose_majorEv
FNDA:66,_ZN5neml22R4C2ERKNS_4SSR4E
FNDA:0,_ZN5neml22R4C2ERKNS_4WWR4E
FNDA:145,_ZNK5neml22R46rotateERKNS_3RotE
FNDA:13,_ZNK5neml22R47drotateERKNS_3RotE
FNDA:4,_ZNK5neml22R412drotate_selfERKNS_3RotE
FNDA:486,_ZNK5neml22R4clEllll
FNDA:139,_ZNK5neml22R49transposeEll
FNF:9
FNH:8
DA:40,66
DA:41,66
DA:43,66
DA:45,0
DA:46,0
DA:48,0
DA:51,145
DA:53,145
DA:54,145
DA:56,1015
DA:57,290
DA:58,290
DA:61,13
DA:63,13
DA:64,13
DA:65,13
DA:67,91
DA:68,91
DA:69,91
DA:70,91
DA:71,13
DA:73,26
DA:74,65
DA:77,4
DA:79,4
DA:80,4
DA:82,24
DA:84,4
DA:85,2
DA:86,2
DA:87,8
DA:90,486
DA:92,2430
DA:93,486
DA:96,139
DA:98,139
DA:102,68
DA:104,68
DA:108,1
DA:110,1
LF:40
LH:37
end_of_record
TN:
SF:/home/runner/work/neml2/neml2/src/neml2/tensors/Rot.cxx
FN:112,126,_ZN5neml23Rot11fill_matrixERKNS_2R2E
FN:129,137,_ZN5neml23Rot14fill_rodriguesERKNS_6ScalarES3_S3_
FN:140,154,_ZN5neml23Rot11fill_randomEj
FN:157,166,_ZN5neml23Rot16rotation_from_toERKNS_3VecES3_
FN:169,175,_ZN5neml23Rot15from_axis_angleERKNS_3VecERKNS_6ScalarE
FN:178,182,_ZN5neml23Rot24from_axis_angle_standardERKNS_3VecERKNS_6ScalarE
FN:185,188,_ZNK5neml23Rot7inverseEv
FN:191,199,_ZNK5neml23Rot15euler_rodriguesEv
FN:202,214,_ZNK5neml23Rot16deuler_rodriguesEv
FN:217,220,_ZNK5neml23Rot6rotateERKS0_
FN:223,236,_ZNK5neml23Rot7drotateERKS0_
FN:239,252,_ZNK5neml23Rot12drotate_selfERKS0_
FN:255,258,_ZNK5neml23Rot6shadowEv
FN:261,265,_ZNK5neml23Rot7dshadowEv
FN:268,278,_ZNK5neml23Rot4distERKS0_
FN:281,287,_ZNK5neml23Rot5gdistERKS0_
FN:290,293,_ZNK5neml23Rot2dVEv
FN:296,303,_ZN5neml2mlERKNS_3RotES2_
FN:52,55,_ZN5neml23RotC2ERKNS_3VecE
FN:58,61,_ZN5neml23Rot8identityERKN3c1013TensorOptionsE
FN:64,109,_ZN5neml23Rot17fill_euler_anglesERKNS_3VecERKSsS5_
FNDA:6,_ZN5neml23Rot11fill_matrixERKNS_2R2E
FNDA:6,_ZN5neml23Rot14fill_rodriguesERKNS_6ScalarES3_S3_
FNDA:0,_ZN5neml23Rot11fill_randomEj
FNDA:1,_ZN5neml23Rot16rotation_from_toERKNS_3VecES3_
FNDA:3,_ZN5neml23Rot15from_axis_angleERKNS_3VecERKNS_6ScalarE
FNDA:1,_ZN5neml23Rot24from_axis_angle_standardERKNS_3VecERKNS_6ScalarE
FNDA:2,_ZNK5neml23Rot7inverseEv
FNDA:252,_ZNK5neml23Rot15euler_rodriguesEv
FNDA:37,_ZNK5neml23Rot16deuler_rodriguesEv
FNDA:30,_ZNK5neml23Rot6rotateERKS0_
FNDA:11,_ZNK5neml23Rot7drotateERKS0_
FNDA:3,_ZNK5neml23Rot12drotate_selfERKS0_
FNDA:7,_ZNK5neml23Rot6shadowEv
FNDA:2,_ZNK5neml23Rot7dshadowEv
FNDA:0,_ZNK5neml23Rot4distERKS0_
FNDA:0,_ZNK5neml23Rot5gdistERKS0_
FNDA:0,_ZNK5neml23Rot2dVEv
FNDA:34,_ZN5neml2mlERKNS_3RotES2_
FNDA:38,_ZN5neml23RotC2ERKNS_3VecE
FNDA:3,_ZN5neml23Rot8identityERKN3c1013TensorOptionsE
FNDA:6,_ZN5neml23Rot17fill_euler_anglesERKNS_3VecERKSsS5_
FNF:21
FNH:17
DA:52,38
DA:53,38
DA:55,38
DA:58,3
DA:60,3
DA:64,6
DA:68,6
DA:70,6
DA:71,3
DA:73,3
DA:75,6
DA:77,8
DA:78,8
DA:79,8
DA:81,4
DA:83,8
DA:86,2
DA:89,6
DA:90,12
DA:91,12
DA:92,12
DA:93,18
DA:94,12
DA:95,18
DA:96,12
DA:97,24
DA:98,18
DA:99,12
DA:100,18
DA:101,12
DA:102,24
DA:103,24
DA:104,24
DA:105,24
DA:108,12
DA:109,94
DA:112,6
DA:115,6
DA:116,6
DA:119,6
DA:120,24
DA:121,6
DA:122,6
DA:123,6
DA:125,12
DA:126,18
DA:129,6
DA:132,6
DA:133,6
DA:136,36
DA:137,12
DA:140,0
DA:142,0
DA:143,0
DA:144,0
DA:146,0
DA:147,0
DA:148,0
DA:149,0
DA:151,0
DA:153,0
DA:154,0
DA:157,1
DA:159,1
DA:160,1
DA:162,1
DA:163,1
DA:165,2
DA:166,1
DA:169,3
DA:171,3
DA:172,3
DA:174,6
DA:175,3
DA:178,1
DA:180,1
DA:181,2
DA:182,1
DA:185,2
DA:187,2
DA:191,252
DA:193,252
DA:194,252
DA:195,252
DA:197,504
DA:198,1008
DA:199,252
DA:202,37
DA:204,37
DA:205,37
DA:206,37
DA:207,37
DA:209,185
DA:210,259
DA:211,148
DA:212,74
DA:213,370
DA:214,222
DA:217,30
DA:219,30
DA:223,11
DA:225,11
DA:227,11
DA:228,11
DA:229,11
DA:230,11
DA:231,11
DA:233,22
DA:234,22
DA:235,66
DA:236,11
DA:239,3
DA:241,3
DA:243,3
DA:244,3
DA:245,3
DA:246,3
DA:247,3
DA:249,6
DA:250,6
DA:251,18
DA:252,3
DA:255,7
DA:257,7
DA:261,2
DA:263,2
DA:264,4
DA:265,2
DA:268,0
DA:270,0
DA:271,0
DA:272,0
DA:273,0
DA:274,0
DA:275,0
DA:277,0
DA:278,0
DA:281,0
DA:283,0
DA:284,0
DA:285,0
DA:286,0
DA:290,0
DA:292,0
DA:296,34
DA:298,34
DA:299,34
DA:301,68
DA:302,136
DA:303,34
LF:150
LH:123
end_of_record
TN:
SF:/home/runner/work/neml2/neml2/src/neml2/tensors/SR2.cxx
FN:108,111,_ZN5neml23SR28identityERKN3c1013TensorOptionsE
FN:114,117,_ZN5neml23SR212identity_mapERKN3c1013TensorOptionsE
FN:120,123,_ZNK5neml23SR26rotateERKNS_3RotE
FN:126,129,_ZNK5neml23SR26rotateERKNS_2R2E
FN:132,136,_ZNK5neml23SR27drotateERKNS_3RotE
FN:139,143,_ZNK5neml23SR27drotateERKNS_2R2E
FN:146,150,_ZNK5neml23SR2clEll
FN:153,156,_ZNK5neml23SR22trEv
FN:159,162,_ZNK5neml23SR23volEv
FN:165,168,_ZNK5neml23SR23devEv
FN:171,174,_ZNK5neml23SR25innerERKS0_
FN:177,180,_ZNK5neml23SR27norm_sqEv
FN:183,186,_ZNK5neml23SR24normEd
FN:189,193,_ZNK5neml23SR25outerERKS0_
FN:196,207,_ZNK5neml23SR23detEv
FN:210,235,_ZNK5neml23SR27inverseEv
FN:238,241,_ZNK5neml23SR29transposeEv
FN:47,50,_ZN5neml23SR2C2ERKNS_2R2E
FN:53,56,_ZN5neml23SR24fillERKdRKN3c1013TensorOptionsE
FN:59,63,_ZN5neml23SR24fillERKNS_6ScalarE
FN:66,69,_ZN5neml23SR24fillERKdS2_S2_RKN3c1013TensorOptionsE
FN:72,76,_ZN5neml23SR24fillERKNS_6ScalarES3_S3_
FN:79,93,_ZN5neml23SR24fillERKdS2_S2_S2_S2_S2_RKN3c1013TensorOptionsE
FN:96,105,_ZN5neml23SR24fillERKNS_6ScalarES3_S3_S3_S3_S3_
FNDA:25,_ZN5neml23SR28identityERKN3c1013TensorOptionsE
FNDA:55,_ZN5neml23SR212identity_mapERKN3c1013TensorOptionsE
FNDA:8,_ZNK5neml23SR26rotateERKNS_3RotE
FNDA:22,_ZNK5neml23SR26rotateERKNS_2R2E
FNDA:4,_ZNK5neml23SR27drotateERKNS_3RotE
FNDA:8,_ZNK5neml23SR27drotateERKNS_2R2E
FNDA:9,_ZNK5neml23SR2clEll
FNDA:124,_ZNK5neml23SR22trEv
FNDA:93,_ZNK5neml23SR23volEv
FNDA:66,_ZNK5neml23SR23devEv
FNDA:70,_ZNK5neml23SR25innerERKS0_
FNDA:61,_ZNK5neml23SR27norm_sqEv
FNDA:59,_ZNK5neml23SR24normEd
FNDA:23,_ZNK5neml23SR25outerERKS0_
FNDA:2,_ZNK5neml23SR23detEv
FNDA:2,_ZNK5neml23SR27inverseEv
FNDA:2,_ZNK5neml23SR29transposeEv
FNDA:90,_ZN5neml23SR2C2ERKNS_2R2E
FNDA:3,_ZN5neml23SR24fillERKdRKN3c1013TensorOptionsE
FNDA:111,_ZN5neml23SR24fillERKNS_6ScalarE
FNDA:18,_ZN5neml23SR24fillERKdS2_S2_RKN3c1013TensorOptionsE
FNDA:49,_ZN5neml23SR24fillERKNS_6ScalarES3_S3_
FNDA:23,_ZN5neml23SR24fillERKdS2_S2_S2_S2_S2_RKN3c1013TensorOptionsE
FNDA:105,_ZN5neml23SR24fillERKNS_6ScalarES3_S3_S3_S3_S3_
FNF:24
FNH:24
DA:47,90
DA:48,90
DA:50,90
DA:53,3
DA:55,3
DA:59,111
DA:61,111
DA:62,999
DA:63,222
DA:66,18
DA:68,18
DA:72,49
DA:74,49
DA:75,441
DA:76,98
DA:79,23
DA:87,46
DA:88,46
DA:89,46
DA:90,46
DA:91,46
DA:92,69
DA:96,105
DA:103,945
DA:104,525
DA:105,420
DA:108,25
DA:110,175
DA:111,25
DA:114,55
DA:116,55
DA:120,8
DA:122,8
DA:126,22
DA:128,22
DA:132,4
DA:134,4
DA:135,8
DA:136,4
DA:139,8
DA:141,8
DA:142,16
DA:143,8
DA:146,9
DA:148,9
DA:149,27
DA:150,9
DA:153,124
DA:155,620
DA:156,248
DA:159,93
DA:161,186
DA:165,66
DA:167,66
DA:171,70
DA:173,70
DA:177,61
DA:179,61
DA:183,59
DA:185,59
DA:189,23
DA:191,23
DA:192,115
DA:193,23
DA:196,2
DA:198,2
DA:199,2
DA:200,2
DA:201,2
DA:202,2
DA:203,2
DA:204,2
DA:205,2
DA:206,6
DA:207,2
DA:210,2
DA:212,2
DA:213,2
DA:214,2
DA:215,2
DA:216,2
DA:217,2
DA:218,2
DA:219,2
DA:220,2
DA:221,2
DA:222,2
DA:223,2
DA:224,2
DA:225,2
DA:226,14
DA:232,16
DA:233,2
DA:234,4
DA:235,6
DA:238,2
DA:240,2
LF:97
LH:97
end_of_record
TN:
SF:/home/runner/work/neml2/neml2/src/neml2/tensors/SSR4.cxx
FN:105,108,_ZN5neml24SSR412identity_volERKN3c1013TensorOptionsE
FN:111,114,_ZN5neml24SSR412identity_devERKN3c1013TensorOptionsE
FN:117,128,_ZN5neml24SSR414isotropic_E_nuERKNS_6ScalarES3_
FN:131,134,_ZN5neml24SSR414isotropic_E_nuERKdS2_RKN3c1013TensorOptionsE
FN:137,143,_ZN5neml24SSR413fill_C1_C2_C3ERKNS_6ScalarES3_S3_
FN:146,152,_ZN5neml24SSR413fill_C1_C2_C3ERKdS2_S2_RKN3c1013TensorOptionsE
FN:155,159,_ZN5neml24SSR412identity_mapERKN3c1013TensorOptionsE
FN:162,165,_ZNK5neml24SSR46rotateERKNS_3RotE
FN:168,172,_ZNK5neml24SSR47drotateERKNS_3RotE
FN:175,184,_ZNK5neml24SSR412drotate_selfERKNS_3RotE
FN:187,192,_ZNK5neml24SSR4clEllll
FN:195,198,_ZNK5neml24SSR47inverseEv
FN:201,205,_ZNK5neml24SSR48dinverseEv
FN:208,211,_ZNK5neml24SSR415transpose_minorEv
FN:214,217,_ZNK5neml24SSR415transpose_majorEv
FN:220,223,_ZN5neml2mlERKNS_4SSR4ERKNS_3SR2E
FN:226,229,_ZN5neml2mlERKNS_3SR2ERKNS_4SSR4E
FN:232,235,_ZN5neml2mlERKNS_4SSR4ES2_
FN:42,48,_ZN5neml24SSR4C2ERKNS_2R4E
FN:51,60,_ZN5neml24SSR48identityERKN3c1013TensorOptionsE
FN:63,72,_ZN5neml24SSR411identity_C1ERKN3c1013TensorOptionsE
FN:75,84,_ZN5neml24SSR411identity_C2ERKN3c1013TensorOptionsE
FN:87,96,_ZN5neml24SSR411identity_C3ERKN3c1013TensorOptionsE
FN:99,102,_ZN5neml24SSR412identity_symERKN3c1013TensorOptionsE
FNDA:15,_ZN5neml24SSR412identity_volERKN3c1013TensorOptionsE
FNDA:28,_ZN5neml24SSR412identity_devERKN3c1013TensorOptionsE
FNDA:5,_ZN5neml24SSR414isotropic_E_nuERKNS_6ScalarES3_
FNDA:3,_ZN5neml24SSR414isotropic_E_nuERKdS2_RKN3c1013TensorOptionsE
FNDA:5,_ZN5neml24SSR413fill_C1_C2_C3ERKNS_6ScalarES3_S3_
FNDA:0,_ZN5neml24SSR413fill_C1_C2_C3ERKdS2_S2_RKN3c1013TensorOptionsE
FNDA:3,_ZN5neml24SSR412identity_mapERKN3c1013TensorOptionsE
FNDA:55,_ZNK5neml24SSR46rotateERKNS_3RotE
FNDA:9,_ZNK5neml24SSR47drotateERKNS_3RotE
FNDA:6,_ZNK5neml24SSR412drotate_selfERKNS_3RotE
FNDA:324,_ZNK5neml24SSR4clEllll
FNDA:47,_ZNK5neml24SSR47inverseEv
FNDA:5,_ZNK5neml24SSR48dinverseEv
FNDA:0,_ZNK5neml24SSR415transpose_minorEv
FNDA:4,_ZNK5neml24SSR415transpose_majorEv
FNDA:27,_ZN5neml2mlERKNS_4SSR4ERKNS_3SR2E
FNDA:4,_ZN5neml2mlERKNS_3SR2ERKNS_4SSR4E
FNDA:18,_ZN5neml2mlERKNS_4SSR4ES2_
FNDA:61,_ZN5neml24SSR4C2ERKNS_2R4E
FNDA:45,_ZN5neml24SSR48identityERKN3c1013TensorOptionsE
FNDA:9,_ZN5neml24SSR411identity_C1ERKN3c1013TensorOptionsE
FNDA:9,_ZN5neml24SSR411identity_C2ERKN3c1013TensorOptionsE
FNDA:9,_ZN5neml24SSR411identity_C3ERKN3c1013TensorOptionsE
FNDA:103,_ZN5neml24SSR412identity_symERKN3c1013TensorOptionsE
FNF:24
FNH:22
DA:42,61
DA:43,122
DA:44,122
DA:45,61
DA:46,61
DA:48,61
DA:51,45
DA:53,1980
DA:59,405
DA:60,1710
DA:63,9
DA:65,396
DA:71,81
DA:72,342
DA:75,9
DA:77,396
DA:83,81
DA:84,342
DA:87,9
DA:89,396
DA:95,81
DA:96,342
DA:99,103
DA:101,103
DA:105,15
DA:107,30
DA:111,28
DA:113,28
DA:117,5
DA:119,5
DA:121,5
DA:122,5
DA:123,5
DA:124,5
DA:125,5
DA:127,10
DA:128,5
DA:131,3
DA:133,3
DA:137,5
DA:139,5
DA:141,10
DA:142,15
DA:146,0
DA:151,0
DA:155,3
DA:157,3
DA:158,15
DA:159,6
DA:162,55
DA:164,55
DA:168,9
DA:170,9
DA:171,18
DA:172,9
DA:175,6
DA:177,6
DA:178,42
DA:179,54
DA:180,48
DA:181,48
DA:182,12
DA:183,24
DA:184,30
DA:187,324
DA:189,324
DA:190,324
DA:191,1296
DA:192,324
DA:195,47
DA:197,47
DA:201,5
DA:203,5
DA:204,25
DA:205,10
DA:208,0
DA:210,0
DA:214,4
DA:216,4
DA:220,27
DA:222,27
DA:226,4
DA:228,4
DA:232,18
DA:234,18
LF:85
LH:81
end_of_record
TN:
SF:/home/runner/work/neml2/neml2/src/neml2/tensors/SWR4.cxx
FN:32,35,_ZN5neml24SWR4C2ERKNS_2R4E
FNDA:1,_ZN5neml24SWR4C2ERKNS_2R4E
FNF:1
FNH:1
DA:32,1
DA:33,1
DA:35,1
LF:3
LH:3
end_of_record
TN:
SF:/home/runner/work/neml2/neml2/src/neml2/tensors/Scalar.cxx
FN:30,37,_ZN5neml26ScalarC2EdRKN3c1013TensorOptionsE
FN:40,43,_ZN5neml26Scalar12identity_mapERKN3c1013TensorOptionsE
FN:46,51,_ZNK5neml26Scalar17base_unsqueeze_toEl
FNDA:2082,_ZN5neml26ScalarC2EdRKN3c1013TensorOptionsE
FNDA:127,_ZN5neml26Scalar12identity_mapERKN3c1013TensorOptionsE
FNDA:7776,_ZNK5neml26Scalar17base_unsqueeze_toEl
FNF:3
FNH:3
DA:30,2082
DA:31,2082
DA:33,2082
DA:34,2082
DA:37,2082
DA:40,127
DA:42,127
DA:46,7776
DA:48,15552
DA:49,7776
DA:50,23328
DA:51,15552
LF:12
LH:12
end_of_record
TN:
SF:/home/runner/work/neml2/neml2/src/neml2/tensors/Tensor.cxx
FN:112,115,_ZN5neml26Tensor5zerosEN3c108ArrayRefIlEERKNS1_13TensorOptionsE
FN:118,130,_ZN5neml26Tensor5zerosERKNS_20TraceableTensorShapeEN3c108ArrayRefIlEERKNS4_13TensorOptionsE
FN:133,136,_ZN5neml26Tensor4onesEN3c108ArrayRefIlEERKNS1_13TensorOptionsE
FN:139,151,_ZN5neml26Tensor4onesERKNS_20TraceableTensorShapeEN3c108ArrayRefIlEERKNS4_13TensorOptionsE
FN:154,157,_ZN5neml26Tensor4fullEN3c108ArrayRefIlEEdRKNS1_13TensorOptionsE
FN:160,173,_ZN5neml26Tensor4fullERKNS_20TraceableTensorShapeEN3c108ArrayRefIlEEdRKNS4_13TensorOptionsE
FN:176,179,_ZN5neml26Tensor8identityElRKN3c1013TensorOptionsE
FN:182,185,_ZN5neml26Tensor8identityERKNS_20TraceableTensorShapeElRKN3c1013TensorOptionsE
FN:188,199,_ZNK5neml26Tensor17base_unsqueeze_toEl
FN:34,40,_ZN5neml25utils11pad_prependERKN2at6TensorEll
FN:43,63,_ZN5neml25utils21broadcast_batch_sizesERKSt6vectorINS_6TensorESaIS2_EE
FN:66,69,_ZN5neml26TensorC2ERKN2at6TensorEl
FN:71,74,_ZN5neml26TensorC2ERKN2at6TensorERKNS_20TraceableTensorShapeE
FN:77,80,_ZN5neml26Tensor6createERKN5torch6detail19TensorDataContainerERKN3c1013TensorOptionsE
FN:83,88,_ZN5neml26Tensor6createERKN5torch6detail19TensorDataContainerElRKN3c1013TensorOptionsE
FN:91,94,_ZN5neml26Tensor5emptyEN3c108ArrayRefIlEERKNS1_13TensorOptionsE
FN:97,109,_ZN5neml26Tensor5emptyERKNS_20TraceableTensorShapeEN3c108ArrayRefIlEERKNS4_13TensorOptionsE
FNDA:51,_ZN5neml26Tensor5zerosEN3c108ArrayRefIlEERKNS1_13TensorOptionsE
FNDA:16725,_ZN5neml26Tensor5zerosERKNS_20TraceableTensorShapeEN3c108ArrayRefIlEERKNS4_13TensorOptionsE
FNDA:131,_ZN5neml26Tensor4onesEN3c108ArrayRefIlEERKNS1_13TensorOptionsE
FNDA:105,_ZN5neml26Tensor4onesERKNS_20TraceableTensorShapeEN3c108ArrayRefIlEERKNS4_13TensorOptionsE
FNDA:1489,_ZN5neml26Tensor4fullEN3c108ArrayRefIlEEdRKNS1_13TensorOptionsE
FNDA:280,_ZN5neml26Tensor4fullERKNS_20TraceableTensorShapeEN3c108ArrayRefIlEEdRKNS4_13TensorOptionsE
FNDA:193,_ZN5neml26Tensor8identityElRKN3c1013TensorOptionsE
FNDA:3,_ZN5neml26Tensor8identityERKNS_20TraceableTensorShapeElRKN3c1013TensorOptionsE
FNDA:0,_ZNK5neml26Tensor17base_unsqueeze_toEl
FNDA:3779,_ZN5neml25utils11pad_prependERKN2at6TensorEll
FNDA:6674,_ZN5neml25utils21broadcast_batch_sizesERKSt6vectorINS_6TensorESaIS2_EE
FNDA:27772,_ZN5neml26TensorC2ERKN2at6TensorEl
FNDA:2353682,_ZN5neml26TensorC2ERKN2at6TensorERKNS_20TraceableTensorShapeE
FNDA:702,_ZN5neml26Tensor6createERKN5torch6detail19TensorDataContainerERKN3c1013TensorOptionsE
FNDA:707,_ZN5neml26Tensor6createERKN5torch6detail19TensorDataContainerElRKN3c1013TensorOptionsE
FNDA:2,_ZN5neml26Tensor5emptyEN3c108ArrayRefIlEERKNS1_13TensorOptionsE
FNDA:152,_ZN5neml26Tensor5emptyERKNS_20TraceableTensorShapeEN3c108ArrayRefIlEERKNS4_13TensorOptionsE
FNF:17
FNH:16
DA:34,3779
DA:36,3779
DA:37,3779
DA:38,3779
DA:39,22674
DA:40,11337
DA:43,6674
DA:45,6674
DA:46,6674
DA:47,26626
DA:48,19952
DA:50,19937
DA:51,19937
DA:52,19937
DA:53,3779
DA:54,19937
DA:55,6674
DA:56,5393
DA:58,5060
DA:59,3779
DA:61,1281
DA:62,1281
DA:63,6674
DA:66,27772
DA:67,27772
DA:69,27772
DA:71,2353682
DA:72,2353682
DA:74,2353682
DA:77,702
DA:79,702
DA:83,707
DA:85,1414
DA:86,707
DA:87,1414
DA:91,2
DA:93,2
DA:97,152
DA:102,322
DA:103,170
DA:104,0
DA:105,0
DA:107,304
DA:108,304
DA:112,51
DA:114,51
DA:118,16725
DA:123,17155
DA:124,430
DA:125,27
DA:126,9
DA:128,33450
DA:129,33450
DA:133,131
DA:135,131
DA:139,105
DA:144,240
DA:145,135
DA:146,27
DA:147,9
DA:149,210
DA:150,210
DA:154,1489
DA:156,1489
DA:160,280
DA:166,863
DA:167,583
DA:168,0
DA:169,0
DA:171,560
DA:172,560
DA:176,193
DA:178,193
DA:182,3
DA:184,3
DA:188,0
DA:190,0
DA:194,0
DA:196,0
DA:197,0
DA:198,0
DA:199,0
LF:82
LH:71
end_of_record
TN:
SF:/home/runner/work/neml2/neml2/src/neml2/tensors/TensorCache.cxx
FN:29,32,_ZN5neml211TensorCacheC2EOSt8functionIFNS_6TensorERKN3c1013TensorOptionsEEE
FN:35,42,_ZN5neml211TensorCacheclERKN3c1013TensorOptionsE
FNDA:8,_ZN5neml211TensorCacheC2EOSt8functionIFNS_6TensorERKN3c1013TensorOptionsEEE
FNDA:1118,_ZN5neml211TensorCacheclERKN3c1013TensorOptionsE
FNF:2
FNH:2
DA:29,8
DA:30,8
DA:32,8
DA:35,1118
DA:37,1118
DA:38,1118
DA:39,1118
DA:40,8
DA:41,1110
LF:9
LH:9
end_of_record
TN:
SF:/home/runner/work/neml2/neml2/src/neml2/tensors/TensorValue.cxx
FN:32,35,_ZN5neml211TensorValueINS_10QuaternionEE3to_ERKN3c1013TensorOptionsE
FN:32,35,_ZN5neml211TensorValueINS_11MillerIndexEE3to_ERKN3c1013TensorOptionsE
FN:32,35,_ZN5neml211TensorValueINS_2R2EE3to_ERKN3c1013TensorOptionsE
FN:32,35,_ZN5neml211TensorValueINS_2R3EE3to_ERKN3c1013TensorOptionsE
FN:32,35,_ZN5neml211TensorValueINS_2R4EE3to_ERKN3c1013TensorOptionsE
FN:32,35,_ZN5neml211TensorValueINS_2R5EE3to_ERKN3c1013TensorOptionsE
FN:32,35,_ZN5neml211TensorValueINS_2R8EE3to_ERKN3c1013TensorOptionsE
FN:32,35,_ZN5neml211TensorValueINS_3RotEE3to_ERKN3c1013TensorOptionsE
FN:32,35,_ZN5neml211TensorValueINS_3SR2EE3to_ERKN3c1013TensorOptionsE
FN:32,35,_ZN5neml211TensorValueINS_3VecEE3to_ERKN3c1013TensorOptionsE
FN:32,35,_ZN5neml211TensorValueINS_3WR2EE3to_ERKN3c1013TensorOptionsE
FN:32,35,_ZN5neml211TensorValueINS_4SFR3EE3to_ERKN3c1013TensorOptionsE
FN:32,35,_ZN5neml211TensorValueINS_4SFR4EE3to_ERKN3c1013TensorOptionsE
FN:32,35,_ZN5neml211TensorValueINS_4SSR4EE3to_ERKN3c1013TensorOptionsE
FN:32,35,_ZN5neml211TensorValueINS_4SWR4EE3to_ERKN3c1013TensorOptionsE
FN:32,35,_ZN5neml211TensorValueINS_4WFR4EE3to_ERKN3c1013TensorOptionsE
FN:32,35,_ZN5neml211TensorValueINS_4WSR4EE3to_ERKN3c1013TensorOptionsE
FN:32,35,_ZN5neml211TensorValueINS_4WWR4EE3to_ERKN3c1013TensorOptionsE
FN:32,35,_ZN5neml211TensorValueINS_5SFFR4EE3to_ERKN3c1013TensorOptionsE
FN:32,35,_ZN5neml211TensorValueINS_5SSFR5EE3to_ERKN3c1013TensorOptionsE
FN:32,35,_ZN5neml211TensorValueINS_6SSSSR8EE3to_ERKN3c1013TensorOptionsE
FN:32,35,_ZN5neml211TensorValueINS_6ScalarEE3to_ERKN3c1013TensorOptionsE
FN:32,35,_ZN5neml211TensorValueINS_6TensorEE3to_ERKN3c1013TensorOptionsE
FN:39,42,_ZN5neml211TensorValueINS_10QuaternionEE14requires_grad_Eb
FN:39,42,_ZN5neml211TensorValueINS_11MillerIndexEE14requires_grad_Eb
FN:39,42,_ZN5neml211TensorValueINS_2R2EE14requires_grad_Eb
FN:39,42,_ZN5neml211TensorValueINS_2R3EE14requires_grad_Eb
FN:39,42,_ZN5neml211TensorValueINS_2R4EE14requires_grad_Eb
FN:39,42,_ZN5neml211TensorValueINS_2R5EE14requires_grad_Eb
FN:39,42,_ZN5neml211TensorValueINS_2R8EE14requires_grad_Eb
FN:39,42,_ZN5neml211TensorValueINS_3RotEE14requires_grad_Eb
FN:39,42,_ZN5neml211TensorValueINS_3SR2EE14requires_grad_Eb
FN:39,42,_ZN5neml211TensorValueINS_3VecEE14requires_grad_Eb
FN:39,42,_ZN5neml211TensorValueINS_3WR2EE14requires_grad_Eb
FN:39,42,_ZN5neml211TensorValueINS_4SFR3EE14requires_grad_Eb
FN:39,42,_ZN5neml211TensorValueINS_4SFR4EE14requires_grad_Eb
FN:39,42,_ZN5neml211TensorValueINS_4SSR4EE14requires_grad_Eb
FN:39,42,_ZN5neml211TensorValueINS_4SWR4EE14requires_grad_Eb
FN:39,42,_ZN5neml211TensorValueINS_4WFR4EE14requires_grad_Eb
FN:39,42,_ZN5neml211TensorValueINS_4WSR4EE14requires_grad_Eb
FN:39,42,_ZN5neml211TensorValueINS_4WWR4EE14requires_grad_Eb
FN:39,42,_ZN5neml211TensorValueINS_5SFFR4EE14requires_grad_Eb
FN:39,42,_ZN5neml211TensorValueINS_5SSFR5EE14requires_grad_Eb
FN:39,42,_ZN5neml211TensorValueINS_6SSSSR8EE14requires_grad_Eb
FN:39,42,_ZN5neml211TensorValueINS_6ScalarEE14requires_grad_Eb
FN:39,42,_ZN5neml211TensorValueINS_6TensorEE14requires_grad_Eb
FN:45,48,_ZNK5neml211TensorValueINS_10QuaternionEEcvNS_6TensorEEv
FN:45,48,_ZNK5neml211TensorValueINS_11MillerIndexEEcvNS_6TensorEEv
FN:45,48,_ZNK5neml211TensorValueINS_2R2EEcvNS_6TensorEEv
FN:45,48,_ZNK5neml211TensorValueINS_2R3EEcvNS_6TensorEEv
FN:45,48,_ZNK5neml211TensorValueINS_2R4EEcvNS_6TensorEEv
FN:45,48,_ZNK5neml211TensorValueINS_2R5EEcvNS_6TensorEEv
FN:45,48,_ZNK5neml211TensorValueINS_2R8EEcvNS_6TensorEEv
FN:45,48,_ZNK5neml211TensorValueINS_3RotEEcvNS_6TensorEEv
FN:45,48,_ZNK5neml211TensorValueINS_3SR2EEcvNS_6TensorEEv
FN:45,48,_ZNK5neml211TensorValueINS_3VecEEcvNS_6TensorEEv
FN:45,48,_ZNK5neml211TensorValueINS_3WR2EEcvNS_6TensorEEv
FN:45,48,_ZNK5neml211TensorValueINS_4SFR3EEcvNS_6TensorEEv
FN:45,48,_ZNK5neml211TensorValueINS_4SFR4EEcvNS_6TensorEEv
FN:45,48,_ZNK5neml211TensorValueINS_4SSR4EEcvNS_6TensorEEv
FN:45,48,_ZNK5neml211TensorValueINS_4SWR4EEcvNS_6TensorEEv
FN:45,48,_ZNK5neml211TensorValueINS_4WFR4EEcvNS_6TensorEEv
FN:45,48,_ZNK5neml211TensorValueINS_4WSR4EEcvNS_6TensorEEv
FN:45,48,_ZNK5neml211TensorValueINS_4WWR4EEcvNS_6TensorEEv
FN:45,48,_ZNK5neml211TensorValueINS_5SFFR4EEcvNS_6TensorEEv
FN:45,48,_ZNK5neml211TensorValueINS_5SSFR5EEcvNS_6TensorEEv
FN:45,48,_ZNK5neml211TensorValueINS_6SSSSR8EEcvNS_6TensorEEv
FN:45,48,_ZNK5neml211TensorValueINS_6ScalarEEcvNS_6TensorEEv
FN:45,48,_ZNK5neml211TensorValueINS_6TensorEEcvS1_Ev
FN:52,55,_ZN5neml211TensorValueINS_10QuaternionEEaSERKNS_6TensorE
FN:52,55,_ZN5neml211TensorValueINS_11MillerIndexEEaSERKNS_6TensorE
FN:52,55,_ZN5neml211TensorValueINS_2R2EEaSERKNS_6TensorE
FN:52,55,_ZN5neml211TensorValueINS_2R3EEaSERKNS_6TensorE
FN:52,55,_ZN5neml211TensorValueINS_2R4EEaSERKNS_6TensorE
FN:52,55,_ZN5neml211TensorValueINS_2R5EEaSERKNS_6TensorE
FN:52,55,_ZN5neml211TensorValueINS_2R8EEaSERKNS_6TensorE
FN:52,55,_ZN5neml211TensorValueINS_3RotEEaSERKNS_6TensorE
FN:52,55,_ZN5neml211TensorValueINS_3SR2EEaSERKNS_6TensorE
FN:52,55,_ZN5neml211TensorValueINS_3VecEEaSERKNS_6TensorE
FN:52,55,_ZN5neml211TensorValueINS_3WR2EEaSERKNS_6TensorE
FN:52,55,_ZN5neml211TensorValueINS_4SFR3EEaSERKNS_6TensorE
FN:52,55,_ZN5neml211TensorValueINS_4SFR4EEaSERKNS_6TensorE
FN:52,55,_ZN5neml211TensorValueINS_4SSR4EEaSERKNS_6TensorE
FN:52,55,_ZN5neml211TensorValueINS_4SWR4EEaSERKNS_6TensorE
FN:52,55,_ZN5neml211TensorValueINS_4WFR4EEaSERKNS_6TensorE
FN:52,55,_ZN5neml211TensorValueINS_4WSR4EEaSERKNS_6TensorE
FN:52,55,_ZN5neml211TensorValueINS_4WWR4EEaSERKNS_6TensorE
FN:52,55,_ZN5neml211TensorValueINS_5SFFR4EEaSERKNS_6TensorE
FN:52,55,_ZN5neml211TensorValueINS_5SSFR5EEaSERKNS_6TensorE
FN:52,55,_ZN5neml211TensorValueINS_6SSSSR8EEaSERKNS_6TensorE
FN:52,55,_ZN5neml211TensorValueINS_6ScalarEEaSERKNS_6TensorE
FN:52,55,_ZN5neml211TensorValueINS_6TensorEEaSERKS1_
FN:59,62,_ZNK5neml211TensorValueINS_10QuaternionEE4typeEv
FN:59,62,_ZNK5neml211TensorValueINS_11MillerIndexEE4typeEv
FN:59,62,_ZNK5neml211TensorValueINS_2R2EE4typeEv
FN:59,62,_ZNK5neml211TensorValueINS_2R3EE4typeEv
FN:59,62,_ZNK5neml211TensorValueINS_2R4EE4typeEv
FN:59,62,_ZNK5neml211TensorValueINS_2R5EE4typeEv
FN:59,62,_ZNK5neml211TensorValueINS_2R8EE4typeEv
FN:59,62,_ZNK5neml211TensorValueINS_3RotEE4typeEv
FN:59,62,_ZNK5neml211TensorValueINS_3SR2EE4typeEv
FN:59,62,_ZNK5neml211TensorValueINS_3VecEE4typeEv
FN:59,62,_ZNK5neml211TensorValueINS_3WR2EE4typeEv
FN:59,62,_ZNK5neml211TensorValueINS_4SFR3EE4typeEv
FN:59,62,_ZNK5neml211TensorValueINS_4SFR4EE4typeEv
FN:59,62,_ZNK5neml211TensorValueINS_4SSR4EE4typeEv
FN:59,62,_ZNK5neml211TensorValueINS_4SWR4EE4typeEv
FN:59,62,_ZNK5neml211TensorValueINS_4WFR4EE4typeEv
FN:59,62,_ZNK5neml211TensorValueINS_4WSR4EE4typeEv
FN:59,62,_ZNK5neml211TensorValueINS_4WWR4EE4typeEv
FN:59,62,_ZNK5neml211TensorValueINS_5SFFR4EE4typeEv
FN:59,62,_ZNK5neml211TensorValueINS_5SSFR5EE4typeEv
FN:59,62,_ZNK5neml211TensorValueINS_6SSSSR8EE4typeEv
FN:59,62,_ZNK5neml211TensorValueINS_6ScalarEE4typeEv
FN:59,62,_ZNK5neml211TensorValueINS_6TensorEE4typeEv
FNDA:0,_ZN5neml211TensorValueINS_10QuaternionEE3to_ERKN3c1013TensorOptionsE
FNDA:0,_ZN5neml211TensorValueINS_11MillerIndexEE3to_ERKN3c1013TensorOptionsE
FNDA:0,_ZN5neml211TensorValueINS_2R2EE3to_ERKN3c1013TensorOptionsE
FNDA:0,_ZN5neml211TensorValueINS_2R3EE3to_ERKN3c1013TensorOptionsE
FNDA:0,_ZN5neml211TensorValueINS_2R4EE3to_ERKN3c1013TensorOptionsE
FNDA:0,_ZN5neml211TensorValueINS_2R5EE3to_ERKN3c1013TensorOptionsE
FNDA:0,_ZN5neml211TensorValueINS_2R8EE3to_ERKN3c1013TensorOptionsE
FNDA:0,_ZN5neml211TensorValueINS_3RotEE3to_ERKN3c1013TensorOptionsE
FNDA:0,_ZN5neml211TensorValueINS_3SR2EE3to_ERKN3c1013TensorOptionsE
FNDA:0,_ZN5neml211TensorValueINS_3VecEE3to_ERKN3c1013TensorOptionsE
FNDA:0,_ZN5neml211TensorValueINS_3WR2EE3to_ERKN3c1013TensorOptionsE
FNDA:0,_ZN5neml211TensorValueINS_4SFR3EE3to_ERKN3c1013TensorOptionsE
FNDA:0,_ZN5neml211TensorValueINS_4SFR4EE3to_ERKN3c1013TensorOptionsE
FNDA:0,_ZN5neml211TensorValueINS_4SSR4EE3to_ERKN3c1013TensorOptionsE
FNDA:0,_ZN5neml211TensorValueINS_4SWR4EE3to_ERKN3c1013TensorOptionsE
FNDA:0,_ZN5neml211TensorValueINS_4WFR4EE3to_ERKN3c1013TensorOptionsE
FNDA:0,_ZN5neml211TensorValueINS_4WSR4EE3to_ERKN3c1013TensorOptionsE
FNDA:0,_ZN5neml211TensorValueINS_4WWR4EE3to_ERKN3c1013TensorOptionsE
FNDA:0,_ZN5neml211TensorValueINS_5SFFR4EE3to_ERKN3c1013TensorOptionsE
FNDA:0,_ZN5neml211TensorValueINS_5SSFR5EE3to_ERKN3c1013TensorOptionsE
FNDA:0,_ZN5neml211TensorValueINS_6SSSSR8EE3to_ERKN3c1013TensorOptionsE
FNDA:0,_ZN5neml211TensorValueINS_6ScalarEE3to_ERKN3c1013TensorOptionsE
FNDA:0,_ZN5neml211TensorValueINS_6TensorEE3to_ERKN3c1013TensorOptionsE
FNDA:0,_ZN5neml211TensorValueINS_10QuaternionEE14requires_grad_Eb
FNDA:0,_ZN5neml211TensorValueINS_11MillerIndexEE14requires_grad_Eb
FNDA:0,_ZN5neml211TensorValueINS_2R2EE14requires_grad_Eb
FNDA:0,_ZN5neml211TensorValueINS_2R3EE14requires_grad_Eb
FNDA:0,_ZN5neml211TensorValueINS_2R4EE14requires_grad_Eb
FNDA:0,_ZN5neml211TensorValueINS_2R5EE14requires_grad_Eb
FNDA:0,_ZN5neml211TensorValueINS_2R8EE14requires_grad_Eb
FNDA:0,_ZN5neml211TensorValueINS_3RotEE14requires_grad_Eb
FNDA:1,_ZN5neml211TensorValueINS_3SR2EE14requires_grad_Eb
FNDA:0,_ZN5neml211TensorValueINS_3VecEE14requires_grad_Eb
FNDA:0,_ZN5neml211TensorValueINS_3WR2EE14requires_grad_Eb
FNDA:0,_ZN5neml211TensorValueINS_4SFR3EE14requires_grad_Eb
FNDA:0,_ZN5neml211TensorValueINS_4SFR4EE14requires_grad_Eb
FNDA:3,_ZN5neml211TensorValueINS_4SSR4EE14requires_grad_Eb
FNDA:0,_ZN5neml211TensorValueINS_4SWR4EE14requires_grad_Eb
FNDA:0,_ZN5neml211TensorValueINS_4WFR4EE14requires_grad_Eb
FNDA:0,_ZN5neml211TensorValueINS_4WSR4EE14requires_grad_Eb
FNDA:0,_ZN5neml211TensorValueINS_4WWR4EE14requires_grad_Eb
FNDA:0,_ZN5neml211TensorValueINS_5SFFR4EE14requires_grad_Eb
FNDA:0,_ZN5neml211TensorValueINS_5SSFR5EE14requires_grad_Eb
FNDA:0,_ZN5neml211TensorValueINS_6SSSSR8EE14requires_grad_Eb
FNDA:77,_ZN5neml211TensorValueINS_6ScalarEE14requires_grad_Eb
FNDA:0,_ZN5neml211TensorValueINS_6TensorEE14requires_grad_Eb
FNDA:0,_ZNK5neml211TensorValueINS_10QuaternionEEcvNS_6TensorEEv
FNDA:76578,_ZNK5neml211TensorValueINS_11MillerIndexEEcvNS_6TensorEEv
FNDA:38292,_ZNK5neml211TensorValueINS_2R2EEcvNS_6TensorEEv
FNDA:0,_ZNK5neml211TensorValueINS_2R3EEcvNS_6TensorEEv
FNDA:0,_ZNK5neml211TensorValueINS_2R4EEcvNS_6TensorEEv
FNDA:0,_ZNK5neml211TensorValueINS_2R5EEcvNS_6TensorEEv
FNDA:0,_ZNK5neml211TensorValueINS_2R8EEcvNS_6TensorEEv
FNDA:0,_ZNK5neml211TensorValueINS_3RotEEcvNS_6TensorEEv
FNDA:38916,_ZNK5neml211TensorValueINS_3SR2EEcvNS_6TensorEEv
FNDA:153168,_ZNK5neml211TensorValueINS_3VecEEcvNS_6TensorEEv
FNDA:38291,_ZNK5neml211TensorValueINS_3WR2EEcvNS_6TensorEEv
FNDA:0,_ZNK5neml211TensorValueINS_4SFR3EEcvNS_6TensorEEv
FNDA:0,_ZNK5neml211TensorValueINS_4SFR4EEcvNS_6TensorEEv
FNDA:2521,_ZNK5neml211TensorValueINS_4SSR4EEcvNS_6TensorEEv
FNDA:0,_ZNK5neml211TensorValueINS_4SWR4EEcvNS_6TensorEEv
FNDA:0,_ZNK5neml211TensorValueINS_4WFR4EEcvNS_6TensorEEv
FNDA:0,_ZNK5neml211TensorValueINS_4WSR4EEcvNS_6TensorEEv
FNDA:0,_ZNK5neml211TensorValueINS_4WWR4EEcvNS_6TensorEEv
FNDA:0,_ZNK5neml211TensorValueINS_5SFFR4EEcvNS_6TensorEEv
FNDA:0,_ZNK5neml211TensorValueINS_5SSFR5EEcvNS_6TensorEEv
FNDA:0,_ZNK5neml211TensorValueINS_6SSSSR8EEcvNS_6TensorEEv
FNDA:1251811,_ZNK5neml211TensorValueINS_6ScalarEEcvNS_6TensorEEv
FNDA:0,_ZNK5neml211TensorValueINS_6TensorEEcvS1_Ev
FNDA:0,_ZN5neml211TensorValueINS_10QuaternionEEaSERKNS_6TensorE
FNDA:0,_ZN5neml211TensorValueINS_11MillerIndexEEaSERKNS_6TensorE
FNDA:0,_ZN5neml211TensorValueINS_2R2EEaSERKNS_6TensorE
FNDA:0,_ZN5neml211TensorValueINS_2R3EEaSERKNS_6TensorE
FNDA:0,_ZN5neml211TensorValueINS_2R4EEaSERKNS_6TensorE
FNDA:0,_ZN5neml211TensorValueINS_2R5EEaSERKNS_6TensorE
FNDA:0,_ZN5neml211TensorValueINS_2R8EEaSERKNS_6TensorE
FNDA:0,_ZN5neml211TensorValueINS_3RotEEaSERKNS_6TensorE
FNDA:28,_ZN5neml211TensorValueINS_3SR2EEaSERKNS_6TensorE
FNDA:0,_ZN5neml211TensorValueINS_3VecEEaSERKNS_6TensorE
FNDA:0,_ZN5neml211TensorValueINS_3WR2EEaSERKNS_6TensorE
FNDA:0,_ZN5neml211TensorValueINS_4SFR3EEaSERKNS_6TensorE
FNDA:0,_ZN5neml211TensorValueINS_4SFR4EEaSERKNS_6TensorE
FNDA:228,_ZN5neml211TensorValueINS_4SSR4EEaSERKNS_6TensorE
FNDA:0,_ZN5neml211TensorValueINS_4SWR4EEaSERKNS_6TensorE
FNDA:0,_ZN5neml211TensorValueINS_4WFR4EEaSERKNS_6TensorE
FNDA:0,_ZN5neml211TensorValueINS_4WSR4EEaSERKNS_6TensorE
FNDA:0,_ZN5neml211TensorValueINS_4WWR4EEaSERKNS_6TensorE
FNDA:0,_ZN5neml211TensorValueINS_5SFFR4EEaSERKNS_6TensorE
FNDA:0,_ZN5neml211TensorValueINS_5SSFR5EEaSERKNS_6TensorE
FNDA:0,_ZN5neml211TensorValueINS_6SSSSR8EEaSERKNS_6TensorE
FNDA:757,_ZN5neml211TensorValueINS_6ScalarEEaSERKNS_6TensorE
FNDA:0,_ZN5neml211TensorValueINS_6TensorEEaSERKS1_
FNDA:0,_ZNK5neml211TensorValueINS_10QuaternionEE4typeEv
FNDA:0,_ZNK5neml211TensorValueINS_11MillerIndexEE4typeEv
FNDA:0,_ZNK5neml211TensorValueINS_2R2EE4typeEv
FNDA:0,_ZNK5neml211TensorValueINS_2R3EE4typeEv
FNDA:0,_ZNK5neml211TensorValueINS_2R4EE4typeEv
FNDA:0,_ZNK5neml211TensorValueINS_2R5EE4typeEv
FNDA:0,_ZNK5neml211TensorValueINS_2R8EE4typeEv
FNDA:0,_ZNK5neml211TensorValueINS_3RotEE4typeEv
FNDA:0,_ZNK5neml211TensorValueINS_3SR2EE4typeEv
FNDA:0,_ZNK5neml211TensorValueINS_3VecEE4typeEv
FNDA:0,_ZNK5neml211TensorValueINS_3WR2EE4typeEv
FNDA:0,_ZNK5neml211TensorValueINS_4SFR3EE4typeEv
FNDA:0,_ZNK5neml211TensorValueINS_4SFR4EE4typeEv
FNDA:0,_ZNK5neml211TensorValueINS_4SSR4EE4typeEv
FNDA:0,_ZNK5neml211TensorValueINS_4SWR4EE4typeEv
FNDA:0,_ZNK5neml211TensorValueINS_4WFR4EE4typeEv
FNDA:0,_ZNK5neml211TensorValueINS_4WSR4EE4typeEv
FNDA:0,_ZNK5neml211TensorValueINS_4WWR4EE4typeEv
FNDA:0,_ZNK5neml211TensorValueINS_5SFFR4EE4typeEv
FNDA:0,_ZNK5neml211TensorValueINS_5SSFR5EE4typeEv
FNDA:0,_ZNK5neml211TensorValueINS_6SSSSR8EE4typeEv
FNDA:2,_ZNK5neml211TensorValueINS_6ScalarEE4typeEv
FNDA:0,_ZNK5neml211TensorValueINS_6TensorEE4typeEv
FNF:115
FNH:14
DA:32,0
DA:34,0
DA:35,0
DA:39,81
DA:41,81
DA:42,81
DA:45,1599577
DA:47,1599577
DA:52,1013
DA:54,1013
DA:55,1013
DA:59,2
DA:61,2
LF:13
LH:10
end_of_record
TN:
SF:/home/runner/work/neml2/neml2/src/neml2/tensors/Transformable.cxx
FN:33,36,_ZN5neml225transform_from_quaternionERKNS_10QuaternionE
FN:39,42,_ZN5neml218identity_transformERKN3c1013TensorOptionsE
FN:45,48,_ZN5neml225proper_rotation_transformERKNS_3RotE
FN:51,55,_ZN5neml227improper_rotation_transformERKNS_3RotE
FN:58,61,_ZN5neml220reflection_transformERKNS_3VecE
FN:64,67,_ZN5neml219inversion_transformERKN3c1013TensorOptionsE
FNDA:76,_ZN5neml225transform_from_quaternionERKNS_10QuaternionE
FNDA:2,_ZN5neml218identity_transformERKN3c1013TensorOptionsE
FNDA:2,_ZN5neml225proper_rotation_transformERKNS_3RotE
FNDA:3,_ZN5neml227improper_rotation_transformERKNS_3RotE
FNDA:0,_ZN5neml220reflection_transformERKNS_3VecE
FNDA:2,_ZN5neml219inversion_transformERKN3c1013TensorOptionsE
FNF:6
FNH:5
DA:33,76
DA:35,76
DA:39,2
DA:41,2
DA:45,2
DA:47,2
DA:51,3
DA:53,3
DA:54,6
DA:55,3
DA:58,0
DA:60,0
DA:64,2
DA:66,4
LF:14
LH:12
end_of_record
TN:
SF:/home/runner/work/neml2/neml2/src/neml2/tensors/Vec.cxx
FN:36,39,_ZN5neml23VecC2ERKNS_3RotE
FN:42,45,_ZN5neml23Vec12identity_mapERKN3c1013TensorOptionsE
FN:48,51,_ZNK5neml23Vec3dotERKS0_
FN:54,57,_ZNK5neml23Vec5crossERKS0_
FN:60,63,_ZNK5neml23Vec5outerERKS0_
FN:66,69,_ZNK5neml23Vec9transformERKNS_2R2E
FNDA:614,_ZN5neml23VecC2ERKNS_3RotE
FNDA:2,_ZN5neml23Vec12identity_mapERKN3c1013TensorOptionsE
FNDA:427,_ZNK5neml23Vec3dotERKS0_
FNDA:411,_ZNK5neml23Vec5crossERKS0_
FNDA:93,_ZNK5neml23Vec5outerERKS0_
FNDA:8,_ZNK5neml23Vec9transformERKNS_2R2E
FNF:6
FNH:6
DA:36,614
DA:37,614
DA:39,614
DA:42,2
DA:44,2
DA:48,427
DA:50,427
DA:54,411
DA:56,411
DA:60,93
DA:62,93
DA:66,8
DA:68,8
LF:13
LH:13
end_of_record
TN:
SF:/home/runner/work/neml2/neml2/src/neml2/tensors/VecBase.cxx
FN:100,104,_ZNK5neml27VecBaseINS_3RotEE7drotateERKNS_2R2E
FN:100,104,_ZNK5neml27VecBaseINS_3VecEE7drotateERKNS_2R2E
FN:100,104,_ZNK5neml27VecBaseINS_3WR2EE7drotateERKNS_2R2E
FN:34,40,_ZN5neml27VecBaseINS_3RotEE4fillERKdS4_S4_RKN3c1013TensorOptionsE
FN:34,40,_ZN5neml27VecBaseINS_3VecEE4fillERKdS4_S4_RKN3c1013TensorOptionsE
FN:34,40,_ZN5neml27VecBaseINS_3WR2EE4fillERKdS4_S4_RKN3c1013TensorOptionsE
FN:44,47,_ZN5neml27VecBaseINS_3RotEE4fillERKNS_6ScalarES5_S5_
FN:44,47,_ZN5neml27VecBaseINS_3VecEE4fillERKNS_6ScalarES5_S5_
FN:44,47,_ZN5neml27VecBaseINS_3WR2EE4fillERKNS_6ScalarES5_S5_
FN:51,54,_ZN5neml27VecBaseINS_3RotEE12identity_mapERKN3c1013TensorOptionsE
FN:51,54,_ZN5neml27VecBaseINS_3VecEE12identity_mapERKN3c1013TensorOptionsE
FN:51,54,_ZN5neml27VecBaseINS_3WR2EE12identity_mapERKN3c1013TensorOptionsE
FN:58,61,_ZNK5neml27VecBaseINS_3RotEEclEl
FN:58,61,_ZNK5neml27VecBaseINS_3VecEEclEl
FN:58,61,_ZNK5neml27VecBaseINS_3WR2EEclEl
FN:65,68,_ZNK5neml27VecBaseINS_3RotEE7norm_sqEv
FN:65,68,_ZNK5neml27VecBaseINS_3VecEE7norm_sqEv
FN:65,68,_ZNK5neml27VecBaseINS_3WR2EE7norm_sqEv
FN:72,75,_ZNK5neml27VecBaseINS_3RotEE4normEv
FN:72,75,_ZNK5neml27VecBaseINS_3VecEE4normEv
FN:72,75,_ZNK5neml27VecBaseINS_3WR2EE4normEv
FN:79,82,_ZNK5neml27VecBaseINS_3RotEE6rotateERKS1_
FN:79,82,_ZNK5neml27VecBaseINS_3VecEE6rotateERKNS_3RotE
FN:79,82,_ZNK5neml27VecBaseINS_3WR2EE6rotateERKNS_3RotE
FN:86,89,_ZNK5neml27VecBaseINS_3RotEE6rotateERKNS_2R2E
FN:86,89,_ZNK5neml27VecBaseINS_3VecEE6rotateERKNS_2R2E
FN:86,89,_ZNK5neml27VecBaseINS_3WR2EE6rotateERKNS_2R2E
FN:93,96,_ZNK5neml27VecBaseINS_3RotEE7drotateERKS1_
FN:93,96,_ZNK5neml27VecBaseINS_3VecEE7drotateERKNS_3RotE
FN:93,96,_ZNK5neml27VecBaseINS_3WR2EE7drotateERKNS_3RotE
FNDA:0,_ZNK5neml27VecBaseINS_3RotEE7drotateERKNS_2R2E
FNDA:0,_ZNK5neml27VecBaseINS_3VecEE7drotateERKNS_2R2E
FNDA:6,_ZNK5neml27VecBaseINS_3WR2EE7drotateERKNS_2R2E
FNDA:87,_ZN5neml27VecBaseINS_3RotEE4fillERKdS4_S4_RKN3c1013TensorOptionsE
FNDA:46,_ZN5neml27VecBaseINS_3VecEE4fillERKdS4_S4_RKN3c1013TensorOptionsE
FNDA:26,_ZN5neml27VecBaseINS_3WR2EE4fillERKdS4_S4_RKN3c1013TensorOptionsE
FNDA:104,_ZN5neml27VecBaseINS_3RotEE4fillERKNS_6ScalarES5_S5_
FNDA:48,_ZN5neml27VecBaseINS_3VecEE4fillERKNS_6ScalarES5_S5_
FNDA:38,_ZN5neml27VecBaseINS_3WR2EE4fillERKNS_6ScalarES5_S5_
FNDA:0,_ZN5neml27VecBaseINS_3RotEE12identity_mapERKN3c1013TensorOptionsE
FNDA:0,_ZN5neml27VecBaseINS_3VecEE12identity_mapERKN3c1013TensorOptionsE
FNDA:1,_ZN5neml27VecBaseINS_3WR2EE12identity_mapERKN3c1013TensorOptionsE
FNDA:0,_ZNK5neml27VecBaseINS_3RotEEclEl
FNDA:2138,_ZNK5neml27VecBaseINS_3VecEEclEl
FNDA:0,_ZNK5neml27VecBaseINS_3WR2EEclEl
FNDA:402,_ZNK5neml27VecBaseINS_3RotEE7norm_sqEv
FNDA:1195,_ZNK5neml27VecBaseINS_3VecEE7norm_sqEv
FNDA:31,_ZNK5neml27VecBaseINS_3WR2EE7norm_sqEv
FNDA:5,_ZNK5neml27VecBaseINS_3RotEE4normEv
FNDA:1192,_ZNK5neml27VecBaseINS_3VecEE4normEv
FNDA:0,_ZNK5neml27VecBaseINS_3WR2EE4normEv
FNDA:0,_ZNK5neml27VecBaseINS_3RotEE6rotateERKS1_
FNDA:15,_ZNK5neml27VecBaseINS_3VecEE6rotateERKNS_3RotE
FNDA:6,_ZNK5neml27VecBaseINS_3WR2EE6rotateERKNS_3RotE
FNDA:0,_ZNK5neml27VecBaseINS_3RotEE6rotateERKNS_2R2E
FNDA:15,_ZNK5neml27VecBaseINS_3VecEE6rotateERKNS_2R2E
FNDA:22,_ZNK5neml27VecBaseINS_3WR2EE6rotateERKNS_2R2E
FNDA:0,_ZNK5neml27VecBaseINS_3RotEE7drotateERKS1_
FNDA:4,_ZNK5neml27VecBaseINS_3VecEE7drotateERKNS_3RotE
FNDA:2,_ZNK5neml27VecBaseINS_3WR2EE7drotateERKNS_3RotE
FNF:30
FNH:20
DA:34,159
DA:39,159
DA:44,190
DA:46,950
DA:47,190
DA:51,1
DA:53,1
DA:58,2138
DA:60,6414
DA:61,2138
DA:65,1628
DA:67,1628
DA:72,1197
DA:74,1197
DA:79,21
DA:81,21
DA:86,37
DA:88,37
DA:93,6
DA:95,30
DA:96,12
DA:100,6
DA:102,6
DA:103,30
DA:104,12
LF:25
LH:25
end_of_record
TN:
SF:/home/runner/work/neml2/neml2/src/neml2/tensors/WR2.cxx
FN:41,44,_ZN5neml23WR2C2ERKNS_2R2E
FN:47,51,_ZNK5neml23WR2clEll
FN:54,76,_ZNK5neml23WR23expEv
FN:79,97,_ZNK5neml23WR24dexpEv
FNDA:40,_ZN5neml23WR2C2ERKNS_2R2E
FNDA:9,_ZNK5neml23WR2clEll
FNDA:22,_ZNK5neml23WR23expEv
FNDA:9,_ZNK5neml23WR24dexpEv
FNF:4
FNH:4
DA:41,40
DA:42,40
DA:44,40
DA:47,9
DA:49,9
DA:50,27
DA:51,9
DA:54,22
DA:64,22
DA:67,22
DA:70,22
DA:73,22
DA:75,44
DA:76,22
DA:79,9
DA:82,9
DA:83,9
DA:85,18
DA:86,27
DA:88,9
DA:89,18
DA:90,18
DA:91,18
DA:92,27
DA:94,9
DA:96,18
DA:97,9
LF:27
LH:27
end_of_record
TN:
SF:/home/runner/work/neml2/neml2/src/neml2/tensors/WSR4.cxx
FN:32,35,_ZN5neml24WSR4C2ERKNS_2R4E
FNDA:4,_ZN5neml24WSR4C2ERKNS_2R4E
FNF:1
FNH:1
DA:32,4
DA:33,4
DA:35,4
LF:3
LH:3
end_of_record
TN:
SF:/home/runner/work/neml2/neml2/src/neml2/tensors/WWR4.cxx
FN:32,36,_ZN5neml24WWR4C2ERKNS_2R4E
FN:39,42,_ZN5neml24WWR48identityERKN3c1013TensorOptionsE
FNDA:2,_ZN5neml24WWR4C2ERKNS_2R4E
FNDA:3,_ZN5neml24WWR48identityERKN3c1013TensorOptionsE
FNF:2
FNH:2
DA:32,2
DA:33,4
DA:34,6
DA:36,2
DA:39,3
DA:41,3
LF:6
LH:6
end_of_record
TN:
SF:/home/runner/work/neml2/neml2/src/neml2/tensors/crystallography.cxx
FN:127,151,_ZN5neml215crystallography20unique_bidirectionalERKNS_2R2ERKNS_3VecE
FN:141,142,_ZZN5neml215crystallography20unique_bidirectionalERKNS_2R2ERKNS_3VecEENKUlRKN2at6TensorESA_E_clESA_SA_
FN:37,48,_ZN5neml215crystallography26crystal_symmetry_operators10tetragonalERKN3c1013TensorOptionsE
FN:51,66,_ZN5neml215crystallography26crystal_symmetry_operators9hexagonalERKN3c1013TensorOptionsE
FN:69,78,_ZN5neml215crystallography26crystal_symmetry_operators5cubicERKN3c1013TensorOptionsE
FN:82,124,_ZN5neml215crystallography33symmetry_operations_from_orbifoldERKSsRKN3c1013TensorOptionsE
FNDA:62,_ZN5neml215crystallography20unique_bidirectionalERKNS_2R2ERKNS_3VecE
FNDA:2418,_ZZN5neml215crystallography20unique_bidirectionalERKNS_2R2ERKNS_3VecEENKUlRKN2at6TensorESA_E_clESA_SA_
FNDA:24,_ZN5neml215crystallography26crystal_symmetry_operators10tetragonalERKN3c1013TensorOptionsE
FNDA:20,_ZN5neml215crystallography26crystal_symmetry_operators9hexagonalERKN3c1013TensorOptionsE
FNDA:39,_ZN5neml215crystallography26crystal_symmetry_operators5cubicERKN3c1013TensorOptionsE
FNDA:75,_ZN5neml215crystallography33symmetry_operations_from_orbifoldERKSsRKN3c1013TensorOptionsE
FNF:6
FNH:6
DA:37,24
DA:39,1008
DA:47,264
DA:48,816
DA:51,20
DA:53,1240
DA:65,300
DA:66,1000
DA:69,39
DA:71,4758
DA:77,1053
DA:78,3822
DA:82,75
DA:86,75
DA:87,35
DA:89,40
DA:90,16
DA:92,36
DA:93,4
DA:95,32
DA:97,28
DA:98,24
DA:100,28
DA:101,16
DA:103,24
DA:104,16
DA:106,20
DA:107,4
DA:109,16
DA:111,28
DA:112,24
DA:114,12
DA:115,16
DA:117,8
DA:118,16
DA:120,4
DA:121,16
DA:123,0
DA:124,120
DA:127,62
DA:129,62
DA:131,62
DA:135,310
DA:136,62
DA:137,1488
DA:139,2852
DA:141,2418
DA:142,2418
DA:143,1426
DA:145,248
DA:146,248
DA:148,1426
DA:150,124
DA:151,1612
LF:54
LH:53
end_of_record
TN:
SF:/home/runner/work/neml2/neml2/src/neml2/tensors/functions/abs.cxx
FN:33,33,_ZN5neml23absERKNS_10QuaternionE
FN:33,33,_ZN5neml23absERKNS_11MillerIndexE
FN:33,33,_ZN5neml23absERKNS_2R2E
FN:33,33,_ZN5neml23absERKNS_2R3E
FN:33,33,_ZN5neml23absERKNS_2R4E
FN:33,33,_ZN5neml23absERKNS_2R5E
FN:33,33,_ZN5neml23absERKNS_2R8E
FN:33,33,_ZN5neml23absERKNS_3RotE
FN:33,33,_ZN5neml23absERKNS_3SR2E
FN:33,33,_ZN5neml23absERKNS_3VecE
FN:33,33,_ZN5neml23absERKNS_3WR2E
FN:33,33,_ZN5neml23absERKNS_4SFR3E
FN:33,33,_ZN5neml23absERKNS_4SFR4E
FN:33,33,_ZN5neml23absERKNS_4SSR4E
FN:33,33,_ZN5neml23absERKNS_4SWR4E
FN:33,33,_ZN5neml23absERKNS_4WFR4E
FN:33,33,_ZN5neml23absERKNS_4WSR4E
FN:33,33,_ZN5neml23absERKNS_4WWR4E
FN:33,33,_ZN5neml23absERKNS_5SFFR4E
FN:33,33,_ZN5neml23absERKNS_5SSFR5E
FN:33,33,_ZN5neml23absERKNS_6SSSSR8E
FN:33,33,_ZN5neml23absERKNS_6ScalarE
FN:33,33,_ZN5neml23absERKNS_6TensorE
FNDA:0,_ZN5neml23absERKNS_10QuaternionE
FNDA:0,_ZN5neml23absERKNS_11MillerIndexE
FNDA:0,_ZN5neml23absERKNS_2R2E
FNDA:0,_ZN5neml23absERKNS_2R3E
FNDA:0,_ZN5neml23absERKNS_2R4E
FNDA:0,_ZN5neml23absERKNS_2R5E
FNDA:0,_ZN5neml23absERKNS_2R8E
FNDA:0,_ZN5neml23absERKNS_3RotE
FNDA:0,_ZN5neml23absERKNS_3SR2E
FNDA:0,_ZN5neml23absERKNS_3VecE
FNDA:0,_ZN5neml23absERKNS_3WR2E
FNDA:0,_ZN5neml23absERKNS_4SFR3E
FNDA:0,_ZN5neml23absERKNS_4SFR4E
FNDA:0,_ZN5neml23absERKNS_4SSR4E
FNDA:0,_ZN5neml23absERKNS_4SWR4E
FNDA:0,_ZN5neml23absERKNS_4WFR4E
FNDA:0,_ZN5neml23absERKNS_4WSR4E
FNDA:0,_ZN5neml23absERKNS_4WWR4E
FNDA:0,_ZN5neml23absERKNS_5SFFR4E
FNDA:0,_ZN5neml23absERKNS_5SSFR5E
FNDA:0,_ZN5neml23absERKNS_6SSSSR8E
FNDA:27,_ZN5neml23absERKNS_6ScalarE
FNDA:1985,_ZN5neml23absERKNS_6TensorE
FNF:23
FNH:2
DA:33,4024
LF:1
LH:1
end_of_record
TN:
SF:/home/runner/work/neml2/neml2/src/neml2/tensors/functions/acos.cxx
FN:33,33,_ZN5neml24acosERKNS_10QuaternionE
FN:33,33,_ZN5neml24acosERKNS_11MillerIndexE
FN:33,33,_ZN5neml24acosERKNS_2R2E
FN:33,33,_ZN5neml24acosERKNS_2R3E
FN:33,33,_ZN5neml24acosERKNS_2R4E
FN:33,33,_ZN5neml24acosERKNS_2R5E
FN:33,33,_ZN5neml24acosERKNS_2R8E
FN:33,33,_ZN5neml24acosERKNS_3RotE
FN:33,33,_ZN5neml24acosERKNS_3SR2E
FN:33,33,_ZN5neml24acosERKNS_3VecE
FN:33,33,_ZN5neml24acosERKNS_3WR2E
FN:33,33,_ZN5neml24acosERKNS_4SFR3E
FN:33,33,_ZN5neml24acosERKNS_4SFR4E
FN:33,33,_ZN5neml24acosERKNS_4SSR4E
FN:33,33,_ZN5neml24acosERKNS_4SWR4E
FN:33,33,_ZN5neml24acosERKNS_4WFR4E
FN:33,33,_ZN5neml24acosERKNS_4WSR4E
FN:33,33,_ZN5neml24acosERKNS_4WWR4E
FN:33,33,_ZN5neml24acosERKNS_5SFFR4E
FN:33,33,_ZN5neml24acosERKNS_5SSFR5E
FN:33,33,_ZN5neml24acosERKNS_6SSSSR8E
FN:33,33,_ZN5neml24acosERKNS_6ScalarE
FN:33,33,_ZN5neml24acosERKNS_6TensorE
FNDA:0,_ZN5neml24acosERKNS_10QuaternionE
FNDA:0,_ZN5neml24acosERKNS_11MillerIndexE
FNDA:0,_ZN5neml24acosERKNS_2R2E
FNDA:0,_ZN5neml24acosERKNS_2R3E
FNDA:0,_ZN5neml24acosERKNS_2R4E
FNDA:0,_ZN5neml24acosERKNS_2R5E
FNDA:0,_ZN5neml24acosERKNS_2R8E
FNDA:0,_ZN5neml24acosERKNS_3RotE
FNDA:0,_ZN5neml24acosERKNS_3SR2E
FNDA:0,_ZN5neml24acosERKNS_3VecE
FNDA:0,_ZN5neml24acosERKNS_3WR2E
FNDA:0,_ZN5neml24acosERKNS_4SFR3E
FNDA:0,_ZN5neml24acosERKNS_4SFR4E
FNDA:0,_ZN5neml24acosERKNS_4SSR4E
FNDA:0,_ZN5neml24acosERKNS_4SWR4E
FNDA:0,_ZN5neml24acosERKNS_4WFR4E
FNDA:0,_ZN5neml24acosERKNS_4WSR4E
FNDA:0,_ZN5neml24acosERKNS_4WWR4E
FNDA:0,_ZN5neml24acosERKNS_5SFFR4E
FNDA:0,_ZN5neml24acosERKNS_5SSFR5E
FNDA:0,_ZN5neml24acosERKNS_6SSSSR8E
FNDA:6,_ZN5neml24acosERKNS_6ScalarE
FNDA:0,_ZN5neml24acosERKNS_6TensorE
FNF:23
FNH:1
DA:33,12
LF:1
LH:1
end_of_record
TN:
SF:/home/runner/work/neml2/neml2/src/neml2/tensors/functions/asin.cxx
FN:33,33,_ZN5neml24asinERKNS_10QuaternionE
FN:33,33,_ZN5neml24asinERKNS_11MillerIndexE
FN:33,33,_ZN5neml24asinERKNS_2R2E
FN:33,33,_ZN5neml24asinERKNS_2R3E
FN:33,33,_ZN5neml24asinERKNS_2R4E
FN:33,33,_ZN5neml24asinERKNS_2R5E
FN:33,33,_ZN5neml24asinERKNS_2R8E
FN:33,33,_ZN5neml24asinERKNS_3RotE
FN:33,33,_ZN5neml24asinERKNS_3SR2E
FN:33,33,_ZN5neml24asinERKNS_3VecE
FN:33,33,_ZN5neml24asinERKNS_3WR2E
FN:33,33,_ZN5neml24asinERKNS_4SFR3E
FN:33,33,_ZN5neml24asinERKNS_4SFR4E
FN:33,33,_ZN5neml24asinERKNS_4SSR4E
FN:33,33,_ZN5neml24asinERKNS_4SWR4E
FN:33,33,_ZN5neml24asinERKNS_4WFR4E
FN:33,33,_ZN5neml24asinERKNS_4WSR4E
FN:33,33,_ZN5neml24asinERKNS_4WWR4E
FN:33,33,_ZN5neml24asinERKNS_5SFFR4E
FN:33,33,_ZN5neml24asinERKNS_5SSFR5E
FN:33,33,_ZN5neml24asinERKNS_6SSSSR8E
FN:33,33,_ZN5neml24asinERKNS_6ScalarE
FN:33,33,_ZN5neml24asinERKNS_6TensorE
FNDA:0,_ZN5neml24asinERKNS_10QuaternionE
FNDA:0,_ZN5neml24asinERKNS_11MillerIndexE
FNDA:0,_ZN5neml24asinERKNS_2R2E
FNDA:0,_ZN5neml24asinERKNS_2R3E
FNDA:0,_ZN5neml24asinERKNS_2R4E
FNDA:0,_ZN5neml24asinERKNS_2R5E
FNDA:0,_ZN5neml24asinERKNS_2R8E
FNDA:0,_ZN5neml24asinERKNS_3RotE
FNDA:0,_ZN5neml24asinERKNS_3SR2E
FNDA:0,_ZN5neml24asinERKNS_3VecE
FNDA:0,_ZN5neml24asinERKNS_3WR2E
FNDA:0,_ZN5neml24asinERKNS_4SFR3E
FNDA:0,_ZN5neml24asinERKNS_4SFR4E
FNDA:0,_ZN5neml24asinERKNS_4SSR4E
FNDA:0,_ZN5neml24asinERKNS_4SWR4E
FNDA:0,_ZN5neml24asinERKNS_4WFR4E
FNDA:0,_ZN5neml24asinERKNS_4WSR4E
FNDA:0,_ZN5neml24asinERKNS_4WWR4E
FNDA:0,_ZN5neml24asinERKNS_5SFFR4E
FNDA:0,_ZN5neml24asinERKNS_5SSFR5E
FNDA:0,_ZN5neml24asinERKNS_6SSSSR8E
FNDA:0,_ZN5neml24asinERKNS_6ScalarE
FNDA:0,_ZN5neml24asinERKNS_6TensorE
FNF:23
FNH:0
DA:33,0
LF:1
LH:0
end_of_record
TN:
SF:/home/runner/work/neml2/neml2/src/neml2/tensors/functions/atan.cxx
FN:33,33,_ZN5neml24atanERKNS_10QuaternionE
FN:33,33,_ZN5neml24atanERKNS_11MillerIndexE
FN:33,33,_ZN5neml24atanERKNS_2R2E
FN:33,33,_ZN5neml24atanERKNS_2R3E
FN:33,33,_ZN5neml24atanERKNS_2R4E
FN:33,33,_ZN5neml24atanERKNS_2R5E
FN:33,33,_ZN5neml24atanERKNS_2R8E
FN:33,33,_ZN5neml24atanERKNS_3RotE
FN:33,33,_ZN5neml24atanERKNS_3SR2E
FN:33,33,_ZN5neml24atanERKNS_3VecE
FN:33,33,_ZN5neml24atanERKNS_3WR2E
FN:33,33,_ZN5neml24atanERKNS_4SFR3E
FN:33,33,_ZN5neml24atanERKNS_4SFR4E
FN:33,33,_ZN5neml24atanERKNS_4SSR4E
FN:33,33,_ZN5neml24atanERKNS_4SWR4E
FN:33,33,_ZN5neml24atanERKNS_4WFR4E
FN:33,33,_ZN5neml24atanERKNS_4WSR4E
FN:33,33,_ZN5neml24atanERKNS_4WWR4E
FN:33,33,_ZN5neml24atanERKNS_5SFFR4E
FN:33,33,_ZN5neml24atanERKNS_5SSFR5E
FN:33,33,_ZN5neml24atanERKNS_6SSSSR8E
FN:33,33,_ZN5neml24atanERKNS_6ScalarE
FN:33,33,_ZN5neml24atanERKNS_6TensorE
FNDA:0,_ZN5neml24atanERKNS_10QuaternionE
FNDA:0,_ZN5neml24atanERKNS_11MillerIndexE
FNDA:0,_ZN5neml24atanERKNS_2R2E
FNDA:0,_ZN5neml24atanERKNS_2R3E
FNDA:0,_ZN5neml24atanERKNS_2R4E
FNDA:0,_ZN5neml24atanERKNS_2R5E
FNDA:0,_ZN5neml24atanERKNS_2R8E
FNDA:0,_ZN5neml24atanERKNS_3RotE
FNDA:0,_ZN5neml24atanERKNS_3SR2E
FNDA:0,_ZN5neml24atanERKNS_3VecE
FNDA:0,_ZN5neml24atanERKNS_3WR2E
FNDA:0,_ZN5neml24atanERKNS_4SFR3E
FNDA:0,_ZN5neml24atanERKNS_4SFR4E
FNDA:0,_ZN5neml24atanERKNS_4SSR4E
FNDA:0,_ZN5neml24atanERKNS_4SWR4E
FNDA:0,_ZN5neml24atanERKNS_4WFR4E
FNDA:0,_ZN5neml24atanERKNS_4WSR4E
FNDA:0,_ZN5neml24atanERKNS_4WWR4E
FNDA:0,_ZN5neml24atanERKNS_5SFFR4E
FNDA:0,_ZN5neml24atanERKNS_5SSFR5E
FNDA:0,_ZN5neml24atanERKNS_6SSSSR8E
FNDA:0,_ZN5neml24atanERKNS_6ScalarE
FNDA:0,_ZN5neml24atanERKNS_6TensorE
FNF:23
FNH:0
DA:33,0
LF:1
LH:0
end_of_record
TN:
SF:/home/runner/work/neml2/neml2/src/neml2/tensors/functions/bmm.cxx
FN:32,44,_ZN5neml23bmmERKNS_6TensorES2_
FNDA:547,_ZN5neml23bmmERKNS_6TensorES2_
FNF:1
FNH:1
DA:32,547
DA:34,547
DA:35,547
DA:37,547
DA:39,547
DA:41,547
DA:43,1094
LF:7
LH:7
end_of_record
TN:
SF:/home/runner/work/neml2/neml2/src/neml2/tensors/functions/bmv.cxx
FN:32,44,_ZN5neml23bmvERKNS_6TensorES2_
FNDA:67,_ZN5neml23bmvERKNS_6TensorES2_
FNF:1
FNH:1
DA:32,67
DA:34,67
DA:35,67
DA:37,67
DA:39,67
DA:41,67
DA:43,134
LF:7
LH:7
end_of_record
TN:
SF:/home/runner/work/neml2/neml2/src/neml2/tensors/functions/bvv.cxx
FN:33,36,_ZN5neml23bvvERKNS_6TensorES2_
FNDA:632,_ZN5neml23bvvERKNS_6TensorES2_
FNF:1
FNH:1
DA:33,632
DA:35,632
LF:2
LH:2
end_of_record
TN:
SF:/home/runner/work/neml2/neml2/src/neml2/tensors/functions/cat.cxx
FN:44,44,_ZN5neml29batch_catERKSt16initializer_listINS_10QuaternionEEl
FN:44,44,_ZN5neml29batch_catERKSt16initializer_listINS_11MillerIndexEEl
FN:44,44,_ZN5neml29batch_catERKSt16initializer_listINS_2R2EEl
FN:44,44,_ZN5neml29batch_catERKSt16initializer_listINS_2R3EEl
FN:44,44,_ZN5neml29batch_catERKSt16initializer_listINS_2R4EEl
FN:44,44,_ZN5neml29batch_catERKSt16initializer_listINS_2R5EEl
FN:44,44,_ZN5neml29batch_catERKSt16initializer_listINS_2R8EEl
FN:44,44,_ZN5neml29batch_catERKSt16initializer_listINS_3RotEEl
FN:44,44,_ZN5neml29batch_catERKSt16initializer_listINS_3SR2EEl
FN:44,44,_ZN5neml29batch_catERKSt16initializer_listINS_3VecEEl
FN:44,44,_ZN5neml29batch_catERKSt16initializer_listINS_3WR2EEl
FN:44,44,_ZN5neml29batch_catERKSt16initializer_listINS_4SFR3EEl
FN:44,44,_ZN5neml29batch_catERKSt16initializer_listINS_4SFR4EEl
FN:44,44,_ZN5neml29batch_catERKSt16initializer_listINS_4SSR4EEl
FN:44,44,_ZN5neml29batch_catERKSt16initializer_listINS_4SWR4EEl
FN:44,44,_ZN5neml29batch_catERKSt16initializer_listINS_4WFR4EEl
FN:44,44,_ZN5neml29batch_catERKSt16initializer_listINS_4WSR4EEl
FN:44,44,_ZN5neml29batch_catERKSt16initializer_listINS_4WWR4EEl
FN:44,44,_ZN5neml29batch_catERKSt16initializer_listINS_5SFFR4EEl
FN:44,44,_ZN5neml29batch_catERKSt16initializer_listINS_5SSFR5EEl
FN:44,44,_ZN5neml29batch_catERKSt16initializer_listINS_6SSSSR8EEl
FN:44,44,_ZN5neml29batch_catERKSt16initializer_listINS_6ScalarEEl
FN:44,44,_ZN5neml29batch_catERKSt16initializer_listINS_6TensorEEl
FN:44,44,_ZN5neml29batch_catERKSt6vectorINS_10QuaternionESaIS1_EEl
FN:44,44,_ZN5neml29batch_catERKSt6vectorINS_11MillerIndexESaIS1_EEl
FN:44,44,_ZN5neml29batch_catERKSt6vectorINS_2R2ESaIS1_EEl
FN:44,44,_ZN5neml29batch_catERKSt6vectorINS_2R3ESaIS1_EEl
FN:44,44,_ZN5neml29batch_catERKSt6vectorINS_2R4ESaIS1_EEl
FN:44,44,_ZN5neml29batch_catERKSt6vectorINS_2R5ESaIS1_EEl
FN:44,44,_ZN5neml29batch_catERKSt6vectorINS_2R8ESaIS1_EEl
FN:44,44,_ZN5neml29batch_catERKSt6vectorINS_3RotESaIS1_EEl
FN:44,44,_ZN5neml29batch_catERKSt6vectorINS_3SR2ESaIS1_EEl
FN:44,44,_ZN5neml29batch_catERKSt6vectorINS_3VecESaIS1_EEl
FN:44,44,_ZN5neml29batch_catERKSt6vectorINS_3WR2ESaIS1_EEl
FN:44,44,_ZN5neml29batch_catERKSt6vectorINS_4SFR3ESaIS1_EEl
FN:44,44,_ZN5neml29batch_catERKSt6vectorINS_4SFR4ESaIS1_EEl
FN:44,44,_ZN5neml29batch_catERKSt6vectorINS_4SSR4ESaIS1_EEl
FN:44,44,_ZN5neml29batch_catERKSt6vectorINS_4SWR4ESaIS1_EEl
FN:44,44,_ZN5neml29batch_catERKSt6vectorINS_4WFR4ESaIS1_EEl
FN:44,44,_ZN5neml29batch_catERKSt6vectorINS_4WSR4ESaIS1_EEl
FN:44,44,_ZN5neml29batch_catERKSt6vectorINS_4WWR4ESaIS1_EEl
FN:44,44,_ZN5neml29batch_catERKSt6vectorINS_5SFFR4ESaIS1_EEl
FN:44,44,_ZN5neml29batch_catERKSt6vectorINS_5SSFR5ESaIS1_EEl
FN:44,44,_ZN5neml29batch_catERKSt6vectorINS_6SSSSR8ESaIS1_EEl
FN:44,44,_ZN5neml29batch_catERKSt6vectorINS_6ScalarESaIS1_EEl
FN:44,44,_ZN5neml29batch_catERKSt6vectorINS_6TensorESaIS1_EEl
FN:47,53,_ZN5neml28base_catERKSt6vectorINS_6TensorESaIS1_EEl
FNDA:8,_ZN5neml29batch_catERKSt16initializer_listINS_10QuaternionEEl
FNDA:0,_ZN5neml29batch_catERKSt16initializer_listINS_11MillerIndexEEl
FNDA:0,_ZN5neml29batch_catERKSt16initializer_listINS_2R2EEl
FNDA:0,_ZN5neml29batch_catERKSt16initializer_listINS_2R3EEl
FNDA:0,_ZN5neml29batch_catERKSt16initializer_listINS_2R4EEl
FNDA:0,_ZN5neml29batch_catERKSt16initializer_listINS_2R5EEl
FNDA:0,_ZN5neml29batch_catERKSt16initializer_listINS_2R8EEl
FNDA:0,_ZN5neml29batch_catERKSt16initializer_listINS_3RotEEl
FNDA:0,_ZN5neml29batch_catERKSt16initializer_listINS_3SR2EEl
FNDA:0,_ZN5neml29batch_catERKSt16initializer_listINS_3VecEEl
FNDA:0,_ZN5neml29batch_catERKSt16initializer_listINS_3WR2EEl
FNDA:0,_ZN5neml29batch_catERKSt16initializer_listINS_4SFR3EEl
FNDA:0,_ZN5neml29batch_catERKSt16initializer_listINS_4SFR4EEl
FNDA:0,_ZN5neml29batch_catERKSt16initializer_listINS_4SSR4EEl
FNDA:0,_ZN5neml29batch_catERKSt16initializer_listINS_4SWR4EEl
FNDA:0,_ZN5neml29batch_catERKSt16initializer_listINS_4WFR4EEl
FNDA:0,_ZN5neml29batch_catERKSt16initializer_listINS_4WSR4EEl
FNDA:0,_ZN5neml29batch_catERKSt16initializer_listINS_4WWR4EEl
FNDA:0,_ZN5neml29batch_catERKSt16initializer_listINS_5SFFR4EEl
FNDA:0,_ZN5neml29batch_catERKSt16initializer_listINS_5SSFR5EEl
FNDA:0,_ZN5neml29batch_catERKSt16initializer_listINS_6SSSSR8EEl
FNDA:0,_ZN5neml29batch_catERKSt16initializer_listINS_6ScalarEEl
FNDA:0,_ZN5neml29batch_catERKSt16initializer_listINS_6TensorEEl
FNDA:8,_ZN5neml29batch_catERKSt6vectorINS_10QuaternionESaIS1_EEl
FNDA:0,_ZN5neml29batch_catERKSt6vectorINS_11MillerIndexESaIS1_EEl
FNDA:0,_ZN5neml29batch_catERKSt6vectorINS_2R2ESaIS1_EEl
FNDA:0,_ZN5neml29batch_catERKSt6vectorINS_2R3ESaIS1_EEl
FNDA:0,_ZN5neml29batch_catERKSt6vectorINS_2R4ESaIS1_EEl
FNDA:0,_ZN5neml29batch_catERKSt6vectorINS_2R5ESaIS1_EEl
FNDA:0,_ZN5neml29batch_catERKSt6vectorINS_2R8ESaIS1_EEl
FNDA:0,_ZN5neml29batch_catERKSt6vectorINS_3RotESaIS1_EEl
FNDA:0,_ZN5neml29batch_catERKSt6vectorINS_3SR2ESaIS1_EEl
FNDA:0,_ZN5neml29batch_catERKSt6vectorINS_3VecESaIS1_EEl
FNDA:0,_ZN5neml29batch_catERKSt6vectorINS_3WR2ESaIS1_EEl
FNDA:0,_ZN5neml29batch_catERKSt6vectorINS_4SFR3ESaIS1_EEl
FNDA:0,_ZN5neml29batch_catERKSt6vectorINS_4SFR4ESaIS1_EEl
FNDA:0,_ZN5neml29batch_catERKSt6vectorINS_4SSR4ESaIS1_EEl
FNDA:0,_ZN5neml29batch_catERKSt6vectorINS_4SWR4ESaIS1_EEl
FNDA:0,_ZN5neml29batch_catERKSt6vectorINS_4WFR4ESaIS1_EEl
FNDA:0,_ZN5neml29batch_catERKSt6vectorINS_4WSR4ESaIS1_EEl
FNDA:0,_ZN5neml29batch_catERKSt6vectorINS_4WWR4ESaIS1_EEl
FNDA:0,_ZN5neml29batch_catERKSt6vectorINS_5SFFR4ESaIS1_EEl
FNDA:0,_ZN5neml29batch_catERKSt6vectorINS_5SSFR5ESaIS1_EEl
FNDA:0,_ZN5neml29batch_catERKSt6vectorINS_6SSSSR8ESaIS1_EEl
FNDA:0,_ZN5neml29batch_catERKSt6vectorINS_6ScalarESaIS1_EEl
FNDA:5,_ZN5neml29batch_catERKSt6vectorINS_6TensorESaIS1_EEl
FNDA:6661,_ZN5neml28base_catERKSt6vectorINS_6TensorESaIS1_EEl
FNF:47
FNH:4
DA:44,76
DA:47,6661
DA:49,6661
DA:50,6661
DA:51,6661
DA:52,13322
DA:53,6661
LF:7
LH:7
end_of_record
TN:
SF:/home/runner/work/neml2/neml2/src/neml2/tensors/functions/cbrt.cxx
FN:33,33,_ZN5neml24cbrtERKNS_10QuaternionE
FN:33,33,_ZN5neml24cbrtERKNS_11MillerIndexE
FN:33,33,_ZN5neml24cbrtERKNS_2R2E
FN:33,33,_ZN5neml24cbrtERKNS_2R3E
FN:33,33,_ZN5neml24cbrtERKNS_2R4E
FN:33,33,_ZN5neml24cbrtERKNS_2R5E
FN:33,33,_ZN5neml24cbrtERKNS_2R8E
FN:33,33,_ZN5neml24cbrtERKNS_3RotE
FN:33,33,_ZN5neml24cbrtERKNS_3SR2E
FN:33,33,_ZN5neml24cbrtERKNS_3VecE
FN:33,33,_ZN5neml24cbrtERKNS_3WR2E
FN:33,33,_ZN5neml24cbrtERKNS_4SFR3E
FN:33,33,_ZN5neml24cbrtERKNS_4SFR4E
FN:33,33,_ZN5neml24cbrtERKNS_4SSR4E
FN:33,33,_ZN5neml24cbrtERKNS_4SWR4E
FN:33,33,_ZN5neml24cbrtERKNS_4WFR4E
FN:33,33,_ZN5neml24cbrtERKNS_4WSR4E
FN:33,33,_ZN5neml24cbrtERKNS_4WWR4E
FN:33,33,_ZN5neml24cbrtERKNS_5SFFR4E
FN:33,33,_ZN5neml24cbrtERKNS_5SSFR5E
FN:33,33,_ZN5neml24cbrtERKNS_6SSSSR8E
FN:33,33,_ZN5neml24cbrtERKNS_6ScalarE
FN:33,33,_ZN5neml24cbrtERKNS_6TensorE
FNDA:0,_ZN5neml24cbrtERKNS_10QuaternionE
FNDA:0,_ZN5neml24cbrtERKNS_11MillerIndexE
FNDA:0,_ZN5neml24cbrtERKNS_2R2E
FNDA:0,_ZN5neml24cbrtERKNS_2R3E
FNDA:0,_ZN5neml24cbrtERKNS_2R4E
FNDA:0,_ZN5neml24cbrtERKNS_2R5E
FNDA:0,_ZN5neml24cbrtERKNS_2R8E
FNDA:0,_ZN5neml24cbrtERKNS_3RotE
FNDA:0,_ZN5neml24cbrtERKNS_3SR2E
FNDA:0,_ZN5neml24cbrtERKNS_3VecE
FNDA:0,_ZN5neml24cbrtERKNS_3WR2E
FNDA:0,_ZN5neml24cbrtERKNS_4SFR3E
FNDA:0,_ZN5neml24cbrtERKNS_4SFR4E
FNDA:0,_ZN5neml24cbrtERKNS_4SSR4E
FNDA:0,_ZN5neml24cbrtERKNS_4SWR4E
FNDA:0,_ZN5neml24cbrtERKNS_4WFR4E
FNDA:0,_ZN5neml24cbrtERKNS_4WSR4E
FNDA:0,_ZN5neml24cbrtERKNS_4WWR4E
FNDA:0,_ZN5neml24cbrtERKNS_5SFFR4E
FNDA:0,_ZN5neml24cbrtERKNS_5SSFR5E
FNDA:0,_ZN5neml24cbrtERKNS_6SSSSR8E
FNDA:0,_ZN5neml24cbrtERKNS_6ScalarE
FNDA:0,_ZN5neml24cbrtERKNS_6TensorE
FNF:23
FNH:0
DA:33,0
LF:1
LH:0
end_of_record
TN:
SF:/home/runner/work/neml2/neml2/src/neml2/tensors/functions/clamp.cxx
FN:36,36,_ZN5neml25clampERKNS_10QuaternionERKdS4_
FN:36,36,_ZN5neml25clampERKNS_11MillerIndexERKdS4_
FN:36,36,_ZN5neml25clampERKNS_2R2ERKdS4_
FN:36,36,_ZN5neml25clampERKNS_2R3ERKdS4_
FN:36,36,_ZN5neml25clampERKNS_2R4ERKdS4_
FN:36,36,_ZN5neml25clampERKNS_2R5ERKdS4_
FN:36,36,_ZN5neml25clampERKNS_2R8ERKdS4_
FN:36,36,_ZN5neml25clampERKNS_3RotERKdS4_
FN:36,36,_ZN5neml25clampERKNS_3SR2ERKdS4_
FN:36,36,_ZN5neml25clampERKNS_3VecERKdS4_
FN:36,36,_ZN5neml25clampERKNS_3WR2ERKdS4_
FN:36,36,_ZN5neml25clampERKNS_4SFR3ERKdS4_
FN:36,36,_ZN5neml25clampERKNS_4SFR4ERKdS4_
FN:36,36,_ZN5neml25clampERKNS_4SSR4ERKdS4_
FN:36,36,_ZN5neml25clampERKNS_4SWR4ERKdS4_
FN:36,36,_ZN5neml25clampERKNS_4WFR4ERKdS4_
FN:36,36,_ZN5neml25clampERKNS_4WSR4ERKdS4_
FN:36,36,_ZN5neml25clampERKNS_4WWR4ERKdS4_
FN:36,36,_ZN5neml25clampERKNS_5SFFR4ERKdS4_
FN:36,36,_ZN5neml25clampERKNS_5SSFR5ERKdS4_
FN:36,36,_ZN5neml25clampERKNS_6SSSSR8ERKdS4_
FN:36,36,_ZN5neml25clampERKNS_6ScalarERKdS4_
FN:36,36,_ZN5neml25clampERKNS_6TensorERKdS4_
FNDA:0,_ZN5neml25clampERKNS_10QuaternionERKdS4_
FNDA:0,_ZN5neml25clampERKNS_11MillerIndexERKdS4_
FNDA:0,_ZN5neml25clampERKNS_2R2ERKdS4_
FNDA:0,_ZN5neml25clampERKNS_2R3ERKdS4_
FNDA:0,_ZN5neml25clampERKNS_2R4ERKdS4_
FNDA:0,_ZN5neml25clampERKNS_2R5ERKdS4_
FNDA:0,_ZN5neml25clampERKNS_2R8ERKdS4_
FNDA:0,_ZN5neml25clampERKNS_3RotERKdS4_
FNDA:0,_ZN5neml25clampERKNS_3SR2ERKdS4_
FNDA:0,_ZN5neml25clampERKNS_3VecERKdS4_
FNDA:0,_ZN5neml25clampERKNS_3WR2ERKdS4_
FNDA:0,_ZN5neml25clampERKNS_4SFR3ERKdS4_
FNDA:0,_ZN5neml25clampERKNS_4SFR4ERKdS4_
FNDA:0,_ZN5neml25clampERKNS_4SSR4ERKdS4_
FNDA:0,_ZN5neml25clampERKNS_4SWR4ERKdS4_
FNDA:0,_ZN5neml25clampERKNS_4WFR4ERKdS4_
FNDA:0,_ZN5neml25clampERKNS_4WSR4ERKdS4_
FNDA:0,_ZN5neml25clampERKNS_4WWR4ERKdS4_
FNDA:0,_ZN5neml25clampERKNS_5SFFR4ERKdS4_
FNDA:0,_ZN5neml25clampERKNS_5SSFR5ERKdS4_
FNDA:0,_ZN5neml25clampERKNS_6SSSSR8ERKdS4_
FNDA:6,_ZN5neml25clampERKNS_6ScalarERKdS4_
FNDA:0,_ZN5neml25clampERKNS_6TensorERKdS4_
FNF:23
FNH:1
DA:36,12
LF:1
LH:1
end_of_record
TN:
SF:/home/runner/work/neml2/neml2/src/neml2/tensors/functions/clip.cxx
FN:39,39,_ZN5neml24clipERKNS_10QuaternionES2_S2_
FN:39,39,_ZN5neml24clipERKNS_11MillerIndexES2_S2_
FN:39,39,_ZN5neml24clipERKNS_2R2ES2_S2_
FN:39,39,_ZN5neml24clipERKNS_2R3ES2_S2_
FN:39,39,_ZN5neml24clipERKNS_2R4ES2_S2_
FN:39,39,_ZN5neml24clipERKNS_2R5ES2_S2_
FN:39,39,_ZN5neml24clipERKNS_2R8ES2_S2_
FN:39,39,_ZN5neml24clipERKNS_3RotES2_S2_
FN:39,39,_ZN5neml24clipERKNS_3SR2ES2_S2_
FN:39,39,_ZN5neml24clipERKNS_3VecES2_S2_
FN:39,39,_ZN5neml24clipERKNS_3WR2ES2_S2_
FN:39,39,_ZN5neml24clipERKNS_4SFR3ES2_S2_
FN:39,39,_ZN5neml24clipERKNS_4SFR4ES2_S2_
FN:39,39,_ZN5neml24clipERKNS_4SSR4ES2_S2_
FN:39,39,_ZN5neml24clipERKNS_4SWR4ES2_S2_
FN:39,39,_ZN5neml24clipERKNS_4WFR4ES2_S2_
FN:39,39,_ZN5neml24clipERKNS_4WSR4ES2_S2_
FN:39,39,_ZN5neml24clipERKNS_4WWR4ES2_S2_
FN:39,39,_ZN5neml24clipERKNS_5SFFR4ES2_S2_
FN:39,39,_ZN5neml24clipERKNS_5SSFR5ES2_S2_
FN:39,39,_ZN5neml24clipERKNS_6SSSSR8ES2_S2_
FN:39,39,_ZN5neml24clipERKNS_6ScalarES2_S2_
FN:39,39,_ZN5neml24clipERKNS_6TensorES2_S2_
FNDA:0,_ZN5neml24clipERKNS_10QuaternionES2_S2_
FNDA:0,_ZN5neml24clipERKNS_11MillerIndexES2_S2_
FNDA:0,_ZN5neml24clipERKNS_2R2ES2_S2_
FNDA:0,_ZN5neml24clipERKNS_2R3ES2_S2_
FNDA:0,_ZN5neml24clipERKNS_2R4ES2_S2_
FNDA:0,_ZN5neml24clipERKNS_2R5ES2_S2_
FNDA:0,_ZN5neml24clipERKNS_2R8ES2_S2_
FNDA:0,_ZN5neml24clipERKNS_3RotES2_S2_
FNDA:0,_ZN5neml24clipERKNS_3SR2ES2_S2_
FNDA:0,_ZN5neml24clipERKNS_3VecES2_S2_
FNDA:0,_ZN5neml24clipERKNS_3WR2ES2_S2_
FNDA:0,_ZN5neml24clipERKNS_4SFR3ES2_S2_
FNDA:0,_ZN5neml24clipERKNS_4SFR4ES2_S2_
FNDA:0,_ZN5neml24clipERKNS_4SSR4ES2_S2_
FNDA:0,_ZN5neml24clipERKNS_4SWR4ES2_S2_
FNDA:0,_ZN5neml24clipERKNS_4WFR4ES2_S2_
FNDA:0,_ZN5neml24clipERKNS_4WSR4ES2_S2_
FNDA:0,_ZN5neml24clipERKNS_4WWR4ES2_S2_
FNDA:0,_ZN5neml24clipERKNS_5SFFR4ES2_S2_
FNDA:0,_ZN5neml24clipERKNS_5SSFR5ES2_S2_
FNDA:0,_ZN5neml24clipERKNS_6SSSSR8ES2_S2_
FNDA:0,_ZN5neml24clipERKNS_6ScalarES2_S2_
FNDA:0,_ZN5neml24clipERKNS_6TensorES2_S2_
FNF:23
FNH:0
DA:39,0
LF:1
LH:0
end_of_record
TN:
SF:/home/runner/work/neml2/neml2/src/neml2/tensors/functions/cos.cxx
FN:33,33,_ZN5neml23cosERKNS_10QuaternionE
FN:33,33,_ZN5neml23cosERKNS_11MillerIndexE
FN:33,33,_ZN5neml23cosERKNS_2R2E
FN:33,33,_ZN5neml23cosERKNS_2R3E
FN:33,33,_ZN5neml23cosERKNS_2R4E
FN:33,33,_ZN5neml23cosERKNS_2R5E
FN:33,33,_ZN5neml23cosERKNS_2R8E
FN:33,33,_ZN5neml23cosERKNS_3RotE
FN:33,33,_ZN5neml23cosERKNS_3SR2E
FN:33,33,_ZN5neml23cosERKNS_3VecE
FN:33,33,_ZN5neml23cosERKNS_3WR2E
FN:33,33,_ZN5neml23cosERKNS_4SFR3E
FN:33,33,_ZN5neml23cosERKNS_4SFR4E
FN:33,33,_ZN5neml23cosERKNS_4SSR4E
FN:33,33,_ZN5neml23cosERKNS_4SWR4E
FN:33,33,_ZN5neml23cosERKNS_4WFR4E
FN:33,33,_ZN5neml23cosERKNS_4WSR4E
FN:33,33,_ZN5neml23cosERKNS_4WWR4E
FN:33,33,_ZN5neml23cosERKNS_5SFFR4E
FN:33,33,_ZN5neml23cosERKNS_5SSFR5E
FN:33,33,_ZN5neml23cosERKNS_6SSSSR8E
FN:33,33,_ZN5neml23cosERKNS_6ScalarE
FN:33,33,_ZN5neml23cosERKNS_6TensorE
FNDA:0,_ZN5neml23cosERKNS_10QuaternionE
FNDA:0,_ZN5neml23cosERKNS_11MillerIndexE
FNDA:0,_ZN5neml23cosERKNS_2R2E
FNDA:0,_ZN5neml23cosERKNS_2R3E
FNDA:0,_ZN5neml23cosERKNS_2R4E
FNDA:0,_ZN5neml23cosERKNS_2R5E
FNDA:0,_ZN5neml23cosERKNS_2R8E
FNDA:0,_ZN5neml23cosERKNS_3RotE
FNDA:0,_ZN5neml23cosERKNS_3SR2E
FNDA:0,_ZN5neml23cosERKNS_3VecE
FNDA:0,_ZN5neml23cosERKNS_3WR2E
FNDA:0,_ZN5neml23cosERKNS_4SFR3E
FNDA:0,_ZN5neml23cosERKNS_4SFR4E
FNDA:0,_ZN5neml23cosERKNS_4SSR4E
FNDA:0,_ZN5neml23cosERKNS_4SWR4E
FNDA:0,_ZN5neml23cosERKNS_4WFR4E
FNDA:0,_ZN5neml23cosERKNS_4WSR4E
FNDA:0,_ZN5neml23cosERKNS_4WWR4E
FNDA:0,_ZN5neml23cosERKNS_5SFFR4E
FNDA:0,_ZN5neml23cosERKNS_5SSFR5E
FNDA:0,_ZN5neml23cosERKNS_6SSSSR8E
FNDA:49,_ZN5neml23cosERKNS_6ScalarE
FNDA:90,_ZN5neml23cosERKNS_6TensorE
FNF:23
FNH:2
DA:33,278
LF:1
LH:1
end_of_record
TN:
SF:/home/runner/work/neml2/neml2/src/neml2/tensors/functions/cosh.cxx
FN:33,33,_ZN5neml24coshERKNS_10QuaternionE
FN:33,33,_ZN5neml24coshERKNS_11MillerIndexE
FN:33,33,_ZN5neml24coshERKNS_2R2E
FN:33,33,_ZN5neml24coshERKNS_2R3E
FN:33,33,_ZN5neml24coshERKNS_2R4E
FN:33,33,_ZN5neml24coshERKNS_2R5E
FN:33,33,_ZN5neml24coshERKNS_2R8E
FN:33,33,_ZN5neml24coshERKNS_3RotE
FN:33,33,_ZN5neml24coshERKNS_3SR2E
FN:33,33,_ZN5neml24coshERKNS_3VecE
FN:33,33,_ZN5neml24coshERKNS_3WR2E
FN:33,33,_ZN5neml24coshERKNS_4SFR3E
FN:33,33,_ZN5neml24coshERKNS_4SFR4E
FN:33,33,_ZN5neml24coshERKNS_4SSR4E
FN:33,33,_ZN5neml24coshERKNS_4SWR4E
FN:33,33,_ZN5neml24coshERKNS_4WFR4E
FN:33,33,_ZN5neml24coshERKNS_4WSR4E
FN:33,33,_ZN5neml24coshERKNS_4WWR4E
FN:33,33,_ZN5neml24coshERKNS_5SFFR4E
FN:33,33,_ZN5neml24coshERKNS_5SSFR5E
FN:33,33,_ZN5neml24coshERKNS_6SSSSR8E
FN:33,33,_ZN5neml24coshERKNS_6ScalarE
FN:33,33,_ZN5neml24coshERKNS_6TensorE
FNDA:0,_ZN5neml24coshERKNS_10QuaternionE
FNDA:0,_ZN5neml24coshERKNS_11MillerIndexE
FNDA:0,_ZN5neml24coshERKNS_2R2E
FNDA:0,_ZN5neml24coshERKNS_2R3E
FNDA:0,_ZN5neml24coshERKNS_2R4E
FNDA:0,_ZN5neml24coshERKNS_2R5E
FNDA:0,_ZN5neml24coshERKNS_2R8E
FNDA:0,_ZN5neml24coshERKNS_3RotE
FNDA:0,_ZN5neml24coshERKNS_3SR2E
FNDA:0,_ZN5neml24coshERKNS_3VecE
FNDA:0,_ZN5neml24coshERKNS_3WR2E
FNDA:0,_ZN5neml24coshERKNS_4SFR3E
FNDA:0,_ZN5neml24coshERKNS_4SFR4E
FNDA:0,_ZN5neml24coshERKNS_4SSR4E
FNDA:0,_ZN5neml24coshERKNS_4SWR4E
FNDA:0,_ZN5neml24coshERKNS_4WFR4E
FNDA:0,_ZN5neml24coshERKNS_4WSR4E
FNDA:0,_ZN5neml24coshERKNS_4WWR4E
FNDA:0,_ZN5neml24coshERKNS_5SFFR4E
FNDA:0,_ZN5neml24coshERKNS_5SSFR5E
FNDA:0,_ZN5neml24coshERKNS_6SSSSR8E
FNDA:41,_ZN5neml24coshERKNS_6ScalarE
FNDA:0,_ZN5neml24coshERKNS_6TensorE
FNF:23
FNH:1
DA:33,82
LF:1
LH:1
end_of_record
TN:
SF:/home/runner/work/neml2/neml2/src/neml2/tensors/functions/deg2rad.cxx
FN:33,33,_ZN5neml27deg2radERKNS_10QuaternionE
FN:33,33,_ZN5neml27deg2radERKNS_11MillerIndexE
FN:33,33,_ZN5neml27deg2radERKNS_2R2E
FN:33,33,_ZN5neml27deg2radERKNS_2R3E
FN:33,33,_ZN5neml27deg2radERKNS_2R4E
FN:33,33,_ZN5neml27deg2radERKNS_2R5E
FN:33,33,_ZN5neml27deg2radERKNS_2R8E
FN:33,33,_ZN5neml27deg2radERKNS_3RotE
FN:33,33,_ZN5neml27deg2radERKNS_3SR2E
FN:33,33,_ZN5neml27deg2radERKNS_3VecE
FN:33,33,_ZN5neml27deg2radERKNS_3WR2E
FN:33,33,_ZN5neml27deg2radERKNS_4SFR3E
FN:33,33,_ZN5neml27deg2radERKNS_4SFR4E
FN:33,33,_ZN5neml27deg2radERKNS_4SSR4E
FN:33,33,_ZN5neml27deg2radERKNS_4SWR4E
FN:33,33,_ZN5neml27deg2radERKNS_4WFR4E
FN:33,33,_ZN5neml27deg2radERKNS_4WSR4E
FN:33,33,_ZN5neml27deg2radERKNS_4WWR4E
FN:33,33,_ZN5neml27deg2radERKNS_5SFFR4E
FN:33,33,_ZN5neml27deg2radERKNS_5SSFR5E
FN:33,33,_ZN5neml27deg2radERKNS_6SSSSR8E
FN:33,33,_ZN5neml27deg2radERKNS_6ScalarE
FN:33,33,_ZN5neml27deg2radERKNS_6TensorE
FNDA:0,_ZN5neml27deg2radERKNS_10QuaternionE
FNDA:0,_ZN5neml27deg2radERKNS_11MillerIndexE
FNDA:0,_ZN5neml27deg2radERKNS_2R2E
FNDA:0,_ZN5neml27deg2radERKNS_2R3E
FNDA:0,_ZN5neml27deg2radERKNS_2R4E
FNDA:0,_ZN5neml27deg2radERKNS_2R5E
FNDA:0,_ZN5neml27deg2radERKNS_2R8E
FNDA:0,_ZN5neml27deg2radERKNS_3RotE
FNDA:0,_ZN5neml27deg2radERKNS_3SR2E
FNDA:3,_ZN5neml27deg2radERKNS_3VecE
FNDA:0,_ZN5neml27deg2radERKNS_3WR2E
FNDA:0,_ZN5neml27deg2radERKNS_4SFR3E
FNDA:0,_ZN5neml27deg2radERKNS_4SFR4E
FNDA:0,_ZN5neml27deg2radERKNS_4SSR4E
FNDA:0,_ZN5neml27deg2radERKNS_4SWR4E
FNDA:0,_ZN5neml27deg2radERKNS_4WFR4E
FNDA:0,_ZN5neml27deg2radERKNS_4WSR4E
FNDA:0,_ZN5neml27deg2radERKNS_4WWR4E
FNDA:0,_ZN5neml27deg2radERKNS_5SFFR4E
FNDA:0,_ZN5neml27deg2radERKNS_5SSFR5E
FNDA:0,_ZN5neml27deg2radERKNS_6SSSSR8E
FNDA:0,_ZN5neml27deg2radERKNS_6ScalarE
FNDA:0,_ZN5neml27deg2radERKNS_6TensorE
FNF:23
FNH:1
DA:33,6
LF:1
LH:1
end_of_record
TN:
SF:/home/runner/work/neml2/neml2/src/neml2/tensors/functions/diag_embed.cxx
FN:38,38,_ZN5neml216batch_diag_embedERKNS_10QuaternionElll
FN:38,38,_ZN5neml216batch_diag_embedERKNS_11MillerIndexElll
FN:38,38,_ZN5neml216batch_diag_embedERKNS_2R2Elll
FN:38,38,_ZN5neml216batch_diag_embedERKNS_2R3Elll
FN:38,38,_ZN5neml216batch_diag_embedERKNS_2R4Elll
FN:38,38,_ZN5neml216batch_diag_embedERKNS_2R5Elll
FN:38,38,_ZN5neml216batch_diag_embedERKNS_2R8Elll
FN:38,38,_ZN5neml216batch_diag_embedERKNS_3RotElll
FN:38,38,_ZN5neml216batch_diag_embedERKNS_3SR2Elll
FN:38,38,_ZN5neml216batch_diag_embedERKNS_3VecElll
FN:38,38,_ZN5neml216batch_diag_embedERKNS_3WR2Elll
FN:38,38,_ZN5neml216batch_diag_embedERKNS_4SFR3Elll
FN:38,38,_ZN5neml216batch_diag_embedERKNS_4SFR4Elll
FN:38,38,_ZN5neml216batch_diag_embedERKNS_4SSR4Elll
FN:38,38,_ZN5neml216batch_diag_embedERKNS_4SWR4Elll
FN:38,38,_ZN5neml216batch_diag_embedERKNS_4WFR4Elll
FN:38,38,_ZN5neml216batch_diag_embedERKNS_4WSR4Elll
FN:38,38,_ZN5neml216batch_diag_embedERKNS_4WWR4Elll
FN:38,38,_ZN5neml216batch_diag_embedERKNS_5SFFR4Elll
FN:38,38,_ZN5neml216batch_diag_embedERKNS_5SSFR5Elll
FN:38,38,_ZN5neml216batch_diag_embedERKNS_6SSSSR8Elll
FN:38,38,_ZN5neml216batch_diag_embedERKNS_6ScalarElll
FN:38,38,_ZN5neml216batch_diag_embedERKNS_6TensorElll
FN:41,47,_ZN5neml215base_diag_embedERKNS_6TensorElll
FNDA:0,_ZN5neml216batch_diag_embedERKNS_10QuaternionElll
FNDA:0,_ZN5neml216batch_diag_embedERKNS_11MillerIndexElll
FNDA:0,_ZN5neml216batch_diag_embedERKNS_2R2Elll
FNDA:0,_ZN5neml216batch_diag_embedERKNS_2R3Elll
FNDA:0,_ZN5neml216batch_diag_embedERKNS_2R4Elll
FNDA:0,_ZN5neml216batch_diag_embedERKNS_2R5Elll
FNDA:0,_ZN5neml216batch_diag_embedERKNS_2R8Elll
FNDA:0,_ZN5neml216batch_diag_embedERKNS_3RotElll
FNDA:0,_ZN5neml216batch_diag_embedERKNS_3SR2Elll
FNDA:0,_ZN5neml216batch_diag_embedERKNS_3VecElll
FNDA:0,_ZN5neml216batch_diag_embedERKNS_3WR2Elll
FNDA:0,_ZN5neml216batch_diag_embedERKNS_4SFR3Elll
FNDA:0,_ZN5neml216batch_diag_embedERKNS_4SFR4Elll
FNDA:0,_ZN5neml216batch_diag_embedERKNS_4SSR4Elll
FNDA:0,_ZN5neml216batch_diag_embedERKNS_4SWR4Elll
FNDA:0,_ZN5neml216batch_diag_embedERKNS_4WFR4Elll
FNDA:0,_ZN5neml216batch_diag_embedERKNS_4WSR4Elll
FNDA:0,_ZN5neml216batch_diag_embedERKNS_4WWR4Elll
FNDA:0,_ZN5neml216batch_diag_embedERKNS_5SFFR4Elll
FNDA:0,_ZN5neml216batch_diag_embedERKNS_5SSFR5Elll
FNDA:0,_ZN5neml216batch_diag_embedERKNS_6SSSSR8Elll
FNDA:4,_ZN5neml216batch_diag_embedERKNS_6ScalarElll
FNDA:0,_ZN5neml216batch_diag_embedERKNS_6TensorElll
FNDA:56,_ZN5neml215base_diag_embedERKNS_6TensorElll
FNF:24
FNH:2
DA:38,4
DA:41,56
DA:44,112
DA:45,0
DA:46,168
LF:5
LH:4
end_of_record
TN:
SF:/home/runner/work/neml2/neml2/src/neml2/tensors/functions/diff.cxx
FN:33,33,_ZN5neml24diffERKNS_10QuaternionEll
FN:33,33,_ZN5neml24diffERKNS_11MillerIndexEll
FN:33,33,_ZN5neml24diffERKNS_2R2Ell
FN:33,33,_ZN5neml24diffERKNS_2R3Ell
FN:33,33,_ZN5neml24diffERKNS_2R4Ell
FN:33,33,_ZN5neml24diffERKNS_2R5Ell
FN:33,33,_ZN5neml24diffERKNS_2R8Ell
FN:33,33,_ZN5neml24diffERKNS_3RotEll
FN:33,33,_ZN5neml24diffERKNS_3SR2Ell
FN:33,33,_ZN5neml24diffERKNS_3VecEll
FN:33,33,_ZN5neml24diffERKNS_3WR2Ell
FN:33,33,_ZN5neml24diffERKNS_4SFR3Ell
FN:33,33,_ZN5neml24diffERKNS_4SFR4Ell
FN:33,33,_ZN5neml24diffERKNS_4SSR4Ell
FN:33,33,_ZN5neml24diffERKNS_4SWR4Ell
FN:33,33,_ZN5neml24diffERKNS_4WFR4Ell
FN:33,33,_ZN5neml24diffERKNS_4WSR4Ell
FN:33,33,_ZN5neml24diffERKNS_4WWR4Ell
FN:33,33,_ZN5neml24diffERKNS_5SFFR4Ell
FN:33,33,_ZN5neml24diffERKNS_5SSFR5Ell
FN:33,33,_ZN5neml24diffERKNS_6SSSSR8Ell
FN:33,33,_ZN5neml24diffERKNS_6ScalarEll
FN:33,33,_ZN5neml24diffERKNS_6TensorEll
FNDA:0,_ZN5neml24diffERKNS_10QuaternionEll
FNDA:0,_ZN5neml24diffERKNS_11MillerIndexEll
FNDA:0,_ZN5neml24diffERKNS_2R2Ell
FNDA:0,_ZN5neml24diffERKNS_2R3Ell
FNDA:0,_ZN5neml24diffERKNS_2R4Ell
FNDA:0,_ZN5neml24diffERKNS_2R5Ell
FNDA:0,_ZN5neml24diffERKNS_2R8Ell
FNDA:0,_ZN5neml24diffERKNS_3RotEll
FNDA:12,_ZN5neml24diffERKNS_3SR2Ell
FNDA:0,_ZN5neml24diffERKNS_3VecEll
FNDA:0,_ZN5neml24diffERKNS_3WR2Ell
FNDA:0,_ZN5neml24diffERKNS_4SFR3Ell
FNDA:0,_ZN5neml24diffERKNS_4SFR4Ell
FNDA:0,_ZN5neml24diffERKNS_4SSR4Ell
FNDA:0,_ZN5neml24diffERKNS_4SWR4Ell
FNDA:0,_ZN5neml24diffERKNS_4WFR4Ell
FNDA:0,_ZN5neml24diffERKNS_4WSR4Ell
FNDA:0,_ZN5neml24diffERKNS_4WWR4Ell
FNDA:0,_ZN5neml24diffERKNS_5SFFR4Ell
FNDA:0,_ZN5neml24diffERKNS_5SSFR5Ell
FNDA:0,_ZN5neml24diffERKNS_6SSSSR8Ell
FNDA:46,_ZN5neml24diffERKNS_6ScalarEll
FNDA:0,_ZN5neml24diffERKNS_6TensorEll
FNF:23
FNH:2
DA:33,116
LF:1
LH:1
end_of_record
TN:
SF:/home/runner/work/neml2/neml2/src/neml2/tensors/functions/exp.cxx
FN:33,33,_ZN5neml23expERKNS_10QuaternionE
FN:33,33,_ZN5neml23expERKNS_11MillerIndexE
FN:33,33,_ZN5neml23expERKNS_2R2E
FN:33,33,_ZN5neml23expERKNS_2R3E
FN:33,33,_ZN5neml23expERKNS_2R4E
FN:33,33,_ZN5neml23expERKNS_2R5E
FN:33,33,_ZN5neml23expERKNS_2R8E
FN:33,33,_ZN5neml23expERKNS_3RotE
FN:33,33,_ZN5neml23expERKNS_3SR2E
FN:33,33,_ZN5neml23expERKNS_3VecE
FN:33,33,_ZN5neml23expERKNS_3WR2E
FN:33,33,_ZN5neml23expERKNS_4SFR3E
FN:33,33,_ZN5neml23expERKNS_4SFR4E
FN:33,33,_ZN5neml23expERKNS_4SSR4E
FN:33,33,_ZN5neml23expERKNS_4SWR4E
FN:33,33,_ZN5neml23expERKNS_4WFR4E
FN:33,33,_ZN5neml23expERKNS_4WSR4E
FN:33,33,_ZN5neml23expERKNS_4WWR4E
FN:33,33,_ZN5neml23expERKNS_5SFFR4E
FN:33,33,_ZN5neml23expERKNS_5SSFR5E
FN:33,33,_ZN5neml23expERKNS_6SSSSR8E
FN:33,33,_ZN5neml23expERKNS_6ScalarE
FN:33,33,_ZN5neml23expERKNS_6TensorE
FNDA:0,_ZN5neml23expERKNS_10QuaternionE
FNDA:0,_ZN5neml23expERKNS_11MillerIndexE
FNDA:0,_ZN5neml23expERKNS_2R2E
FNDA:0,_ZN5neml23expERKNS_2R3E
FNDA:0,_ZN5neml23expERKNS_2R4E
FNDA:0,_ZN5neml23expERKNS_2R5E
FNDA:0,_ZN5neml23expERKNS_2R8E
FNDA:0,_ZN5neml23expERKNS_3RotE
FNDA:0,_ZN5neml23expERKNS_3SR2E
FNDA:0,_ZN5neml23expERKNS_3VecE
FNDA:0,_ZN5neml23expERKNS_3WR2E
FNDA:0,_ZN5neml23expERKNS_4SFR3E
FNDA:0,_ZN5neml23expERKNS_4SFR4E
FNDA:0,_ZN5neml23expERKNS_4SSR4E
FNDA:0,_ZN5neml23expERKNS_4SWR4E
FNDA:0,_ZN5neml23expERKNS_4WFR4E
FNDA:0,_ZN5neml23expERKNS_4WSR4E
FNDA:0,_ZN5neml23expERKNS_4WWR4E
FNDA:0,_ZN5neml23expERKNS_5SFFR4E
FNDA:0,_ZN5neml23expERKNS_5SSFR5E
FNDA:0,_ZN5neml23expERKNS_6SSSSR8E
FNDA:59,_ZN5neml23expERKNS_6ScalarE
FNDA:2,_ZN5neml23expERKNS_6TensorE
FNF:23
FNH:2
DA:33,122
LF:1
LH:1
end_of_record
TN:
SF:/home/runner/work/neml2/neml2/src/neml2/tensors/functions/fem.cxx
FN:32,36,_ZN5neml211fem_scatterERKN2at6TensorERKNS_6TensorE
FN:39,59,_ZN5neml215fem_interpolateERKNS_6TensorES2_
FN:62,72,_ZN5neml212fem_assembleERKN2at6TensorES3_l
FNDA:1,_ZN5neml211fem_scatterERKN2at6TensorERKNS_6TensorE
FNDA:1,_ZN5neml215fem_interpolateERKNS_6TensorES2_
FNDA:0,_ZN5neml212fem_assembleERKN2at6TensorES3_l
FNF:3
FNH:2
DA:32,1
DA:34,2
DA:35,2
DA:36,2
DA:39,1
DA:41,1
DA:43,2
DA:44,0
DA:46,0
DA:47,0
DA:49,0
DA:51,0
DA:52,0
DA:54,0
DA:56,0
DA:58,0
DA:62,0
DA:64,0
DA:66,0
DA:68,0
DA:69,0
DA:70,0
DA:71,0
DA:72,0
LF:24
LH:7
end_of_record
TN:
SF:/home/runner/work/neml2/neml2/src/neml2/tensors/functions/fmod.cxx
FN:34,34,_ZN5neml24fmodERKNS_10QuaternionERKd
FN:34,34,_ZN5neml24fmodERKNS_10QuaternionES2_
FN:34,34,_ZN5neml24fmodERKNS_11MillerIndexERKd
FN:34,34,_ZN5neml24fmodERKNS_11MillerIndexES2_
FN:34,34,_ZN5neml24fmodERKNS_2R2ERKd
FN:34,34,_ZN5neml24fmodERKNS_2R2ES2_
FN:34,34,_ZN5neml24fmodERKNS_2R3ERKd
FN:34,34,_ZN5neml24fmodERKNS_2R3ES2_
FN:34,34,_ZN5neml24fmodERKNS_2R4ERKd
FN:34,34,_ZN5neml24fmodERKNS_2R4ES2_
FN:34,34,_ZN5neml24fmodERKNS_2R5ERKd
FN:34,34,_ZN5neml24fmodERKNS_2R5ES2_
FN:34,34,_ZN5neml24fmodERKNS_2R8ERKd
FN:34,34,_ZN5neml24fmodERKNS_2R8ES2_
FN:34,34,_ZN5neml24fmodERKNS_3RotERKd
FN:34,34,_ZN5neml24fmodERKNS_3RotES2_
FN:34,34,_ZN5neml24fmodERKNS_3SR2ERKd
FN:34,34,_ZN5neml24fmodERKNS_3SR2ES2_
FN:34,34,_ZN5neml24fmodERKNS_3VecERKd
FN:34,34,_ZN5neml24fmodERKNS_3VecES2_
FN:34,34,_ZN5neml24fmodERKNS_3WR2ERKd
FN:34,34,_ZN5neml24fmodERKNS_3WR2ES2_
FN:34,34,_ZN5neml24fmodERKNS_4SFR3ERKd
FN:34,34,_ZN5neml24fmodERKNS_4SFR3ES2_
FN:34,34,_ZN5neml24fmodERKNS_4SFR4ERKd
FN:34,34,_ZN5neml24fmodERKNS_4SFR4ES2_
FN:34,34,_ZN5neml24fmodERKNS_4SSR4ERKd
FN:34,34,_ZN5neml24fmodERKNS_4SSR4ES2_
FN:34,34,_ZN5neml24fmodERKNS_4SWR4ERKd
FN:34,34,_ZN5neml24fmodERKNS_4SWR4ES2_
FN:34,34,_ZN5neml24fmodERKNS_4WFR4ERKd
FN:34,34,_ZN5neml24fmodERKNS_4WFR4ES2_
FN:34,34,_ZN5neml24fmodERKNS_4WSR4ERKd
FN:34,34,_ZN5neml24fmodERKNS_4WSR4ES2_
FN:34,34,_ZN5neml24fmodERKNS_4WWR4ERKd
FN:34,34,_ZN5neml24fmodERKNS_4WWR4ES2_
FN:34,34,_ZN5neml24fmodERKNS_5SFFR4ERKd
FN:34,34,_ZN5neml24fmodERKNS_5SFFR4ES2_
FN:34,34,_ZN5neml24fmodERKNS_5SSFR5ERKd
FN:34,34,_ZN5neml24fmodERKNS_5SSFR5ES2_
FN:34,34,_ZN5neml24fmodERKNS_6SSSSR8ERKd
FN:34,34,_ZN5neml24fmodERKNS_6SSSSR8ES2_
FN:34,34,_ZN5neml24fmodERKNS_6ScalarERKd
FN:34,34,_ZN5neml24fmodERKNS_6ScalarES2_
FN:34,34,_ZN5neml24fmodERKNS_6TensorERKd
FN:34,34,_ZN5neml24fmodERKNS_6TensorES2_
FNDA:0,_ZN5neml24fmodERKNS_10QuaternionERKd
FNDA:0,_ZN5neml24fmodERKNS_10QuaternionES2_
FNDA:0,_ZN5neml24fmodERKNS_11MillerIndexERKd
FNDA:0,_ZN5neml24fmodERKNS_11MillerIndexES2_
FNDA:0,_ZN5neml24fmodERKNS_2R2ERKd
FNDA:0,_ZN5neml24fmodERKNS_2R2ES2_
FNDA:0,_ZN5neml24fmodERKNS_2R3ERKd
FNDA:0,_ZN5neml24fmodERKNS_2R3ES2_
FNDA:0,_ZN5neml24fmodERKNS_2R4ERKd
FNDA:0,_ZN5neml24fmodERKNS_2R4ES2_
FNDA:0,_ZN5neml24fmodERKNS_2R5ERKd
FNDA:0,_ZN5neml24fmodERKNS_2R5ES2_
FNDA:0,_ZN5neml24fmodERKNS_2R8ERKd
FNDA:0,_ZN5neml24fmodERKNS_2R8ES2_
FNDA:0,_ZN5neml24fmodERKNS_3RotERKd
FNDA:0,_ZN5neml24fmodERKNS_3RotES2_
FNDA:0,_ZN5neml24fmodERKNS_3SR2ERKd
FNDA:0,_ZN5neml24fmodERKNS_3SR2ES2_
FNDA:0,_ZN5neml24fmodERKNS_3VecERKd
FNDA:0,_ZN5neml24fmodERKNS_3VecES2_
FNDA:0,_ZN5neml24fmodERKNS_3WR2ERKd
FNDA:0,_ZN5neml24fmodERKNS_3WR2ES2_
FNDA:0,_ZN5neml24fmodERKNS_4SFR3ERKd
FNDA:0,_ZN5neml24fmodERKNS_4SFR3ES2_
FNDA:0,_ZN5neml24fmodERKNS_4SFR4ERKd
FNDA:0,_ZN5neml24fmodERKNS_4SFR4ES2_
FNDA:0,_ZN5neml24fmodERKNS_4SSR4ERKd
FNDA:0,_ZN5neml24fmodERKNS_4SSR4ES2_
FNDA:0,_ZN5neml24fmodERKNS_4SWR4ERKd
FNDA:0,_ZN5neml24fmodERKNS_4SWR4ES2_
FNDA:0,_ZN5neml24fmodERKNS_4WFR4ERKd
FNDA:0,_ZN5neml24fmodERKNS_4WFR4ES2_
FNDA:0,_ZN5neml24fmodERKNS_4WSR4ERKd
FNDA:0,_ZN5neml24fmodERKNS_4WSR4ES2_
FNDA:0,_ZN5neml24fmodERKNS_4WWR4ERKd
FNDA:0,_ZN5neml24fmodERKNS_4WWR4ES2_
FNDA:0,_ZN5neml24fmodERKNS_5SFFR4ERKd
FNDA:0,_ZN5neml24fmodERKNS_5SFFR4ES2_
FNDA:0,_ZN5neml24fmodERKNS_5SSFR5ERKd
FNDA:0,_ZN5neml24fmodERKNS_5SSFR5ES2_
FNDA:0,_ZN5neml24fmodERKNS_6SSSSR8ERKd
FNDA:0,_ZN5neml24fmodERKNS_6SSSSR8ES2_
FNDA:0,_ZN5neml24fmodERKNS_6ScalarERKd
FNDA:0,_ZN5neml24fmodERKNS_6ScalarES2_
FNDA:6,_ZN5neml24fmodERKNS_6TensorERKd
FNDA:0,_ZN5neml24fmodERKNS_6TensorES2_
FNF:46
FNH:1
DA:34,12
LF:1
LH:1
end_of_record
TN:
SF:/home/runner/work/neml2/neml2/src/neml2/tensors/functions/gcd.cxx
FN:39,39,_ZN5neml23gcdERKNS_10QuaternionES2_
FN:39,39,_ZN5neml23gcdERKNS_11MillerIndexES2_
FN:39,39,_ZN5neml23gcdERKNS_2R2ES2_
FN:39,39,_ZN5neml23gcdERKNS_2R3ES2_
FN:39,39,_ZN5neml23gcdERKNS_2R4ES2_
FN:39,39,_ZN5neml23gcdERKNS_2R5ES2_
FN:39,39,_ZN5neml23gcdERKNS_2R8ES2_
FN:39,39,_ZN5neml23gcdERKNS_3RotES2_
FN:39,39,_ZN5neml23gcdERKNS_3SR2ES2_
FN:39,39,_ZN5neml23gcdERKNS_3VecES2_
FN:39,39,_ZN5neml23gcdERKNS_3WR2ES2_
FN:39,39,_ZN5neml23gcdERKNS_4SFR3ES2_
FN:39,39,_ZN5neml23gcdERKNS_4SFR4ES2_
FN:39,39,_ZN5neml23gcdERKNS_4SSR4ES2_
FN:39,39,_ZN5neml23gcdERKNS_4SWR4ES2_
FN:39,39,_ZN5neml23gcdERKNS_4WFR4ES2_
FN:39,39,_ZN5neml23gcdERKNS_4WSR4ES2_
FN:39,39,_ZN5neml23gcdERKNS_4WWR4ES2_
FN:39,39,_ZN5neml23gcdERKNS_5SFFR4ES2_
FN:39,39,_ZN5neml23gcdERKNS_5SSFR5ES2_
FN:39,39,_ZN5neml23gcdERKNS_6SSSSR8ES2_
FN:39,39,_ZN5neml23gcdERKNS_6ScalarES2_
FN:39,39,_ZN5neml23gcdERKNS_6TensorES2_
FNDA:0,_ZN5neml23gcdERKNS_10QuaternionES2_
FNDA:0,_ZN5neml23gcdERKNS_11MillerIndexES2_
FNDA:0,_ZN5neml23gcdERKNS_2R2ES2_
FNDA:0,_ZN5neml23gcdERKNS_2R3ES2_
FNDA:0,_ZN5neml23gcdERKNS_2R4ES2_
FNDA:0,_ZN5neml23gcdERKNS_2R5ES2_
FNDA:0,_ZN5neml23gcdERKNS_2R8ES2_
FNDA:0,_ZN5neml23gcdERKNS_3RotES2_
FNDA:0,_ZN5neml23gcdERKNS_3SR2ES2_
FNDA:0,_ZN5neml23gcdERKNS_3VecES2_
FNDA:0,_ZN5neml23gcdERKNS_3WR2ES2_
FNDA:0,_ZN5neml23gcdERKNS_4SFR3ES2_
FNDA:0,_ZN5neml23gcdERKNS_4SFR4ES2_
FNDA:0,_ZN5neml23gcdERKNS_4SSR4ES2_
FNDA:0,_ZN5neml23gcdERKNS_4SWR4ES2_
FNDA:0,_ZN5neml23gcdERKNS_4WFR4ES2_
FNDA:0,_ZN5neml23gcdERKNS_4WSR4ES2_
FNDA:0,_ZN5neml23gcdERKNS_4WWR4ES2_
FNDA:0,_ZN5neml23gcdERKNS_5SFFR4ES2_
FNDA:0,_ZN5neml23gcdERKNS_5SSFR5ES2_
FNDA:0,_ZN5neml23gcdERKNS_6SSSSR8ES2_
FNDA:130,_ZN5neml23gcdERKNS_6ScalarES2_
FNDA:0,_ZN5neml23gcdERKNS_6TensorES2_
FNF:23
FNH:1
DA:39,130
LF:1
LH:1
end_of_record
TN:
SF:/home/runner/work/neml2/neml2/src/neml2/tensors/functions/heaviside.cxx
FN:34,34,_ZN5neml29heavisideERKNS_10QuaternionE
FN:34,34,_ZN5neml29heavisideERKNS_11MillerIndexE
FN:34,34,_ZN5neml29heavisideERKNS_2R2E
FN:34,34,_ZN5neml29heavisideERKNS_2R3E
FN:34,34,_ZN5neml29heavisideERKNS_2R4E
FN:34,34,_ZN5neml29heavisideERKNS_2R5E
FN:34,34,_ZN5neml29heavisideERKNS_2R8E
FN:34,34,_ZN5neml29heavisideERKNS_3RotE
FN:34,34,_ZN5neml29heavisideERKNS_3SR2E
FN:34,34,_ZN5neml29heavisideERKNS_3VecE
FN:34,34,_ZN5neml29heavisideERKNS_3WR2E
FN:34,34,_ZN5neml29heavisideERKNS_4SFR3E
FN:34,34,_ZN5neml29heavisideERKNS_4SFR4E
FN:34,34,_ZN5neml29heavisideERKNS_4SSR4E
FN:34,34,_ZN5neml29heavisideERKNS_4SWR4E
FN:34,34,_ZN5neml29heavisideERKNS_4WFR4E
FN:34,34,_ZN5neml29heavisideERKNS_4WSR4E
FN:34,34,_ZN5neml29heavisideERKNS_4WWR4E
FN:34,34,_ZN5neml29heavisideERKNS_5SFFR4E
FN:34,34,_ZN5neml29heavisideERKNS_5SSFR5E
FN:34,34,_ZN5neml29heavisideERKNS_6SSSSR8E
FN:34,34,_ZN5neml29heavisideERKNS_6ScalarE
FN:34,34,_ZN5neml29heavisideERKNS_6TensorE
FNDA:0,_ZN5neml29heavisideERKNS_10QuaternionE
FNDA:0,_ZN5neml29heavisideERKNS_11MillerIndexE
FNDA:0,_ZN5neml29heavisideERKNS_2R2E
FNDA:0,_ZN5neml29heavisideERKNS_2R3E
FNDA:0,_ZN5neml29heavisideERKNS_2R4E
FNDA:0,_ZN5neml29heavisideERKNS_2R5E
FNDA:0,_ZN5neml29heavisideERKNS_2R8E
FNDA:0,_ZN5neml29heavisideERKNS_3RotE
FNDA:0,_ZN5neml29heavisideERKNS_3SR2E
FNDA:0,_ZN5neml29heavisideERKNS_3VecE
FNDA:0,_ZN5neml29heavisideERKNS_3WR2E
FNDA:0,_ZN5neml29heavisideERKNS_4SFR3E
FNDA:0,_ZN5neml29heavisideERKNS_4SFR4E
FNDA:0,_ZN5neml29heavisideERKNS_4SSR4E
FNDA:0,_ZN5neml29heavisideERKNS_4SWR4E
FNDA:0,_ZN5neml29heavisideERKNS_4WFR4E
FNDA:0,_ZN5neml29heavisideERKNS_4WSR4E
FNDA:0,_ZN5neml29heavisideERKNS_4WWR4E
FNDA:0,_ZN5neml29heavisideERKNS_5SFFR4E
FNDA:0,_ZN5neml29heavisideERKNS_5SSFR5E
FNDA:0,_ZN5neml29heavisideERKNS_6SSSSR8E
FNDA:10,_ZN5neml29heavisideERKNS_6ScalarE
FNDA:2,_ZN5neml29heavisideERKNS_6TensorE
FNF:23
FNH:2
DA:34,24
LF:1
LH:1
end_of_record
TN:
SF:/home/runner/work/neml2/neml2/src/neml2/tensors/functions/jacrev.cxx
FN:35,96,_ZN5neml26jacrevERKNS_6TensorERKSt6vectorIS0_SaIS0_EEbbb
FN:99,102,_ZN5neml26jacrevERKNS_6TensorES2_bbb
FNDA:103,_ZN5neml26jacrevERKNS_6TensorERKSt6vectorIS0_SaIS0_EEbbb
FNDA:99,_ZN5neml26jacrevERKNS_6TensorES2_bbb
FNF:2
FNH:2
DA:35,103
DA:41,103
DA:44,103
DA:45,15
DA:48,186
DA:49,98
DA:55,98
DA:58,88
DA:61,88
DA:62,88
DA:65,176
DA:66,88
DA:67,186
DA:68,196
DA:69,294
DA:72,307
DA:74,1095
DA:79,1752
DA:80,219
DA:82,219
DA:84,219
DA:86,463
DA:87,244
DA:88,732
DA:89,219
DA:92,186
DA:93,98
DA:95,88
DA:96,989
DA:99,99
DA:101,297
DA:102,99
LF:32
LH:32
end_of_record
TN:
SF:/home/runner/work/neml2/neml2/src/neml2/tensors/functions/linalg/cross.cxx
FN:32,37,_ZN5neml26linalg5crossERKNS_3VecES3_
FNDA:411,_ZN5neml26linalg5crossERKNS_3VecES3_
FNF:1
FNH:1
DA:32,411
DA:34,411
DA:35,1233
DA:36,822
DA:37,822
LF:5
LH:5
end_of_record
TN:
SF:/home/runner/work/neml2/neml2/src/neml2/tensors/functions/linalg/inv.cxx
FN:31,34,_ZN5neml26linalg3invERKNS_6TensorE
FNDA:47,_ZN5neml26linalg3invERKNS_6TensorE
FNF:1
FNH:1
DA:31,47
DA:33,94
LF:2
LH:2
end_of_record
TN:
SF:/home/runner/work/neml2/neml2/src/neml2/tensors/functions/linalg/lu_factor.cxx
FN:31,35,_ZN5neml26linalg9lu_factorERKNS_6TensorEb
FNDA:3,_ZN5neml26linalg9lu_factorERKNS_6TensorEb
FNF:1
FNH:1
DA:31,3
DA:33,3
DA:34,6
DA:35,3
LF:4
LH:4
end_of_record
TN:
SF:/home/runner/work/neml2/neml2/src/neml2/tensors/functions/linalg/lu_solve.cxx
FN:31,34,_ZN5neml26linalg8lu_solveERKNS_6TensorES3_S3_bb
FNDA:9,_ZN5neml26linalg8lu_solveERKNS_6TensorES3_S3_bb
FNF:1
FNH:1
DA:31,9
DA:33,18
LF:2
LH:2
end_of_record
TN:
SF:/home/runner/work/neml2/neml2/src/neml2/tensors/functions/linalg/outer.cxx
FN:34,38,_ZN5neml26linalg5outerERKNS_3VecES3_
FNDA:93,_ZN5neml26linalg5outerERKNS_3VecES3_
FNF:1
FNH:1
DA:34,93
DA:36,93
DA:37,93
LF:3
LH:3
end_of_record
TN:
SF:/home/runner/work/neml2/neml2/src/neml2/tensors/functions/linalg/solve.cxx
FN:31,34,_ZN5neml26linalg5solveERKNS_6TensorES3_
FNDA:1485,_ZN5neml26linalg5solveERKNS_6TensorES3_
FNF:1
FNH:1
DA:31,1485
DA:33,2970
LF:2
LH:2
end_of_record
TN:
SF:/home/runner/work/neml2/neml2/src/neml2/tensors/functions/linalg/vecdot.cxx
FN:33,51,_ZN5neml26linalg6vecdotERKNS_6TensorES3_
FNDA:2757,_ZN5neml26linalg6vecdotERKNS_6TensorES3_
FNF:1
FNH:1
DA:33,2757
DA:35,2757
DA:36,2757
DA:38,2757
DA:40,2757
DA:42,2757
DA:44,2757
DA:46,2757
DA:48,2757
DA:50,2757
LF:10
LH:10
end_of_record
TN:
SF:/home/runner/work/neml2/neml2/src/neml2/tensors/functions/linalg/vector_norm.cxx
FN:34,48,_ZN5neml26linalg11vector_normERKNS_6TensorE
FNDA:1591,_ZN5neml26linalg11vector_normERKNS_6TensorE
FNF:1
FNH:1
DA:34,1591
DA:36,1591
DA:38,1591
DA:42,1591
DA:43,69
DA:45,4566
DA:46,3044
DA:47,1522
LF:8
LH:8
end_of_record
TN:
SF:/home/runner/work/neml2/neml2/src/neml2/tensors/functions/log.cxx
FN:33,33,_ZN5neml23logERKNS_10QuaternionE
FN:33,33,_ZN5neml23logERKNS_11MillerIndexE
FN:33,33,_ZN5neml23logERKNS_2R2E
FN:33,33,_ZN5neml23logERKNS_2R3E
FN:33,33,_ZN5neml23logERKNS_2R4E
FN:33,33,_ZN5neml23logERKNS_2R5E
FN:33,33,_ZN5neml23logERKNS_2R8E
FN:33,33,_ZN5neml23logERKNS_3RotE
FN:33,33,_ZN5neml23logERKNS_3SR2E
FN:33,33,_ZN5neml23logERKNS_3VecE
FN:33,33,_ZN5neml23logERKNS_3WR2E
FN:33,33,_ZN5neml23logERKNS_4SFR3E
FN:33,33,_ZN5neml23logERKNS_4SFR4E
FN:33,33,_ZN5neml23logERKNS_4SSR4E
FN:33,33,_ZN5neml23logERKNS_4SWR4E
FN:33,33,_ZN5neml23logERKNS_4WFR4E
FN:33,33,_ZN5neml23logERKNS_4WSR4E
FN:33,33,_ZN5neml23logERKNS_4WWR4E
FN:33,33,_ZN5neml23logERKNS_5SFFR4E
FN:33,33,_ZN5neml23logERKNS_5SSFR5E
FN:33,33,_ZN5neml23logERKNS_6SSSSR8E
FN:33,33,_ZN5neml23logERKNS_6ScalarE
FN:33,33,_ZN5neml23logERKNS_6TensorE
FNDA:0,_ZN5neml23logERKNS_10QuaternionE
FNDA:0,_ZN5neml23logERKNS_11MillerIndexE
FNDA:0,_ZN5neml23logERKNS_2R2E
FNDA:0,_ZN5neml23logERKNS_2R3E
FNDA:0,_ZN5neml23logERKNS_2R4E
FNDA:0,_ZN5neml23logERKNS_2R5E
FNDA:0,_ZN5neml23logERKNS_2R8E
FNDA:0,_ZN5neml23logERKNS_3RotE
FNDA:0,_ZN5neml23logERKNS_3SR2E
FNDA:0,_ZN5neml23logERKNS_3VecE
FNDA:0,_ZN5neml23logERKNS_3WR2E
FNDA:0,_ZN5neml23logERKNS_4SFR3E
FNDA:0,_ZN5neml23logERKNS_4SFR4E
FNDA:0,_ZN5neml23logERKNS_4SSR4E
FNDA:0,_ZN5neml23logERKNS_4SWR4E
FNDA:0,_ZN5neml23logERKNS_4WFR4E
FNDA:0,_ZN5neml23logERKNS_4WSR4E
FNDA:0,_ZN5neml23logERKNS_4WWR4E
FNDA:0,_ZN5neml23logERKNS_5SFFR4E
FNDA:0,_ZN5neml23logERKNS_5SSFR5E
FNDA:0,_ZN5neml23logERKNS_6SSSSR8E
FNDA:13,_ZN5neml23logERKNS_6ScalarE
FNDA:0,_ZN5neml23logERKNS_6TensorE
FNF:23
FNH:1
DA:33,26
LF:1
LH:1
end_of_record
TN:
SF:/home/runner/work/neml2/neml2/src/neml2/tensors/functions/log10.cxx
FN:33,33,_ZN5neml25log10ERKNS_10QuaternionE
FN:33,33,_ZN5neml25log10ERKNS_11MillerIndexE
FN:33,33,_ZN5neml25log10ERKNS_2R2E
FN:33,33,_ZN5neml25log10ERKNS_2R3E
FN:33,33,_ZN5neml25log10ERKNS_2R4E
FN:33,33,_ZN5neml25log10ERKNS_2R5E
FN:33,33,_ZN5neml25log10ERKNS_2R8E
FN:33,33,_ZN5neml25log10ERKNS_3RotE
FN:33,33,_ZN5neml25log10ERKNS_3SR2E
FN:33,33,_ZN5neml25log10ERKNS_3VecE
FN:33,33,_ZN5neml25log10ERKNS_3WR2E
FN:33,33,_ZN5neml25log10ERKNS_4SFR3E
FN:33,33,_ZN5neml25log10ERKNS_4SFR4E
FN:33,33,_ZN5neml25log10ERKNS_4SSR4E
FN:33,33,_ZN5neml25log10ERKNS_4SWR4E
FN:33,33,_ZN5neml25log10ERKNS_4WFR4E
FN:33,33,_ZN5neml25log10ERKNS_4WSR4E
FN:33,33,_ZN5neml25log10ERKNS_4WWR4E
FN:33,33,_ZN5neml25log10ERKNS_5SFFR4E
FN:33,33,_ZN5neml25log10ERKNS_5SSFR5E
FN:33,33,_ZN5neml25log10ERKNS_6SSSSR8E
FN:33,33,_ZN5neml25log10ERKNS_6ScalarE
FN:33,33,_ZN5neml25log10ERKNS_6TensorE
FNDA:0,_ZN5neml25log10ERKNS_10QuaternionE
FNDA:0,_ZN5neml25log10ERKNS_11MillerIndexE
FNDA:0,_ZN5neml25log10ERKNS_2R2E
FNDA:0,_ZN5neml25log10ERKNS_2R3E
FNDA:0,_ZN5neml25log10ERKNS_2R4E
FNDA:0,_ZN5neml25log10ERKNS_2R5E
FNDA:0,_ZN5neml25log10ERKNS_2R8E
FNDA:0,_ZN5neml25log10ERKNS_3RotE
FNDA:0,_ZN5neml25log10ERKNS_3SR2E
FNDA:0,_ZN5neml25log10ERKNS_3VecE
FNDA:0,_ZN5neml25log10ERKNS_3WR2E
FNDA:0,_ZN5neml25log10ERKNS_4SFR3E
FNDA:0,_ZN5neml25log10ERKNS_4SFR4E
FNDA:0,_ZN5neml25log10ERKNS_4SSR4E
FNDA:0,_ZN5neml25log10ERKNS_4SWR4E
FNDA:0,_ZN5neml25log10ERKNS_4WFR4E
FNDA:0,_ZN5neml25log10ERKNS_4WSR4E
FNDA:0,_ZN5neml25log10ERKNS_4WWR4E
FNDA:0,_ZN5neml25log10ERKNS_5SFFR4E
FNDA:0,_ZN5neml25log10ERKNS_5SSFR5E
FNDA:0,_ZN5neml25log10ERKNS_6SSSSR8E
FNDA:0,_ZN5neml25log10ERKNS_6ScalarE
FNDA:0,_ZN5neml25log10ERKNS_6TensorE
FNF:23
FNH:0
DA:33,0
LF:1
LH:0
end_of_record
TN:
SF:/home/runner/work/neml2/neml2/src/neml2/tensors/functions/macaulay.cxx
FN:34,34,_ZN5neml28macaulayERKNS_10QuaternionE
FN:34,34,_ZN5neml28macaulayERKNS_11MillerIndexE
FN:34,34,_ZN5neml28macaulayERKNS_2R2E
FN:34,34,_ZN5neml28macaulayERKNS_2R3E
FN:34,34,_ZN5neml28macaulayERKNS_2R4E
FN:34,34,_ZN5neml28macaulayERKNS_2R5E
FN:34,34,_ZN5neml28macaulayERKNS_2R8E
FN:34,34,_ZN5neml28macaulayERKNS_3RotE
FN:34,34,_ZN5neml28macaulayERKNS_3SR2E
FN:34,34,_ZN5neml28macaulayERKNS_3VecE
FN:34,34,_ZN5neml28macaulayERKNS_3WR2E
FN:34,34,_ZN5neml28macaulayERKNS_4SFR3E
FN:34,34,_ZN5neml28macaulayERKNS_4SFR4E
FN:34,34,_ZN5neml28macaulayERKNS_4SSR4E
FN:34,34,_ZN5neml28macaulayERKNS_4SWR4E
FN:34,34,_ZN5neml28macaulayERKNS_4WFR4E
FN:34,34,_ZN5neml28macaulayERKNS_4WSR4E
FN:34,34,_ZN5neml28macaulayERKNS_4WWR4E
FN:34,34,_ZN5neml28macaulayERKNS_5SFFR4E
FN:34,34,_ZN5neml28macaulayERKNS_5SSFR5E
FN:34,34,_ZN5neml28macaulayERKNS_6SSSSR8E
FN:34,34,_ZN5neml28macaulayERKNS_6ScalarE
FN:34,34,_ZN5neml28macaulayERKNS_6TensorE
FNDA:0,_ZN5neml28macaulayERKNS_10QuaternionE
FNDA:0,_ZN5neml28macaulayERKNS_11MillerIndexE
FNDA:0,_ZN5neml28macaulayERKNS_2R2E
FNDA:0,_ZN5neml28macaulayERKNS_2R3E
FNDA:0,_ZN5neml28macaulayERKNS_2R4E
FNDA:0,_ZN5neml28macaulayERKNS_2R5E
FNDA:0,_ZN5neml28macaulayERKNS_2R8E
FNDA:0,_ZN5neml28macaulayERKNS_3RotE
FNDA:0,_ZN5neml28macaulayERKNS_3SR2E
FNDA:0,_ZN5neml28macaulayERKNS_3VecE
FNDA:0,_ZN5neml28macaulayERKNS_3WR2E
FNDA:0,_ZN5neml28macaulayERKNS_4SFR3E
FNDA:0,_ZN5neml28macaulayERKNS_4SFR4E
FNDA:0,_ZN5neml28macaulayERKNS_4SSR4E
FNDA:0,_ZN5neml28macaulayERKNS_4SWR4E
FNDA:0,_ZN5neml28macaulayERKNS_4WFR4E
FNDA:0,_ZN5neml28macaulayERKNS_4WSR4E
FNDA:0,_ZN5neml28macaulayERKNS_4WWR4E
FNDA:0,_ZN5neml28macaulayERKNS_5SFFR4E
FNDA:0,_ZN5neml28macaulayERKNS_5SSFR5E
FNDA:0,_ZN5neml28macaulayERKNS_6SSSSR8E
FNDA:0,_ZN5neml28macaulayERKNS_6ScalarE
FNDA:2,_ZN5neml28macaulayERKNS_6TensorE
FNF:23
FNH:1
DA:34,4
LF:1
LH:1
end_of_record
TN:
SF:/home/runner/work/neml2/neml2/src/neml2/tensors/functions/mean.cxx
FN:39,39,_ZN5neml210batch_meanERKNS_10QuaternionEl
FN:39,39,_ZN5neml210batch_meanERKNS_11MillerIndexEl
FN:39,39,_ZN5neml210batch_meanERKNS_2R2El
FN:39,39,_ZN5neml210batch_meanERKNS_2R3El
FN:39,39,_ZN5neml210batch_meanERKNS_2R4El
FN:39,39,_ZN5neml210batch_meanERKNS_2R5El
FN:39,39,_ZN5neml210batch_meanERKNS_2R8El
FN:39,39,_ZN5neml210batch_meanERKNS_3RotEl
FN:39,39,_ZN5neml210batch_meanERKNS_3SR2El
FN:39,39,_ZN5neml210batch_meanERKNS_3VecEl
FN:39,39,_ZN5neml210batch_meanERKNS_3WR2El
FN:39,39,_ZN5neml210batch_meanERKNS_4SFR3El
FN:39,39,_ZN5neml210batch_meanERKNS_4SFR4El
FN:39,39,_ZN5neml210batch_meanERKNS_4SSR4El
FN:39,39,_ZN5neml210batch_meanERKNS_4SWR4El
FN:39,39,_ZN5neml210batch_meanERKNS_4WFR4El
FN:39,39,_ZN5neml210batch_meanERKNS_4WSR4El
FN:39,39,_ZN5neml210batch_meanERKNS_4WWR4El
FN:39,39,_ZN5neml210batch_meanERKNS_5SFFR4El
FN:39,39,_ZN5neml210batch_meanERKNS_5SSFR5El
FN:39,39,_ZN5neml210batch_meanERKNS_6SSSSR8El
FN:39,39,_ZN5neml210batch_meanERKNS_6ScalarEl
FN:39,39,_ZN5neml210batch_meanERKNS_6TensorEl
FN:42,46,_ZN5neml29base_meanERKNS_6TensorEl
FNDA:0,_ZN5neml210batch_meanERKNS_10QuaternionEl
FNDA:0,_ZN5neml210batch_meanERKNS_11MillerIndexEl
FNDA:0,_ZN5neml210batch_meanERKNS_2R2El
FNDA:0,_ZN5neml210batch_meanERKNS_2R3El
FNDA:0,_ZN5neml210batch_meanERKNS_2R4El
FNDA:0,_ZN5neml210batch_meanERKNS_2R5El
FNDA:0,_ZN5neml210batch_meanERKNS_2R8El
FNDA:0,_ZN5neml210batch_meanERKNS_3RotEl
FNDA:1,_ZN5neml210batch_meanERKNS_3SR2El
FNDA:0,_ZN5neml210batch_meanERKNS_3VecEl
FNDA:0,_ZN5neml210batch_meanERKNS_3WR2El
FNDA:0,_ZN5neml210batch_meanERKNS_4SFR3El
FNDA:0,_ZN5neml210batch_meanERKNS_4SFR4El
FNDA:0,_ZN5neml210batch_meanERKNS_4SSR4El
FNDA:0,_ZN5neml210batch_meanERKNS_4SWR4El
FNDA:0,_ZN5neml210batch_meanERKNS_4WFR4El
FNDA:0,_ZN5neml210batch_meanERKNS_4WSR4El
FNDA:0,_ZN5neml210batch_meanERKNS_4WWR4El
FNDA:0,_ZN5neml210batch_meanERKNS_5SFFR4El
FNDA:0,_ZN5neml210batch_meanERKNS_5SSFR5El
FNDA:0,_ZN5neml210batch_meanERKNS_6SSSSR8El
FNDA:0,_ZN5neml210batch_meanERKNS_6ScalarEl
FNDA:0,_ZN5neml210batch_meanERKNS_6TensorEl
FNDA:0,_ZN5neml29base_meanERKNS_6TensorEl
FNF:24
FNH:1
DA:39,1
DA:42,0
DA:44,0
DA:45,0
LF:4
LH:1
end_of_record
TN:
SF:/home/runner/work/neml2/neml2/src/neml2/tensors/functions/minimum.cxx
FN:38,38,_ZN5neml27minimumERKNS_10QuaternionES2_
FN:38,38,_ZN5neml27minimumERKNS_11MillerIndexES2_
FN:38,38,_ZN5neml27minimumERKNS_2R2ES2_
FN:38,38,_ZN5neml27minimumERKNS_2R3ES2_
FN:38,38,_ZN5neml27minimumERKNS_2R4ES2_
FN:38,38,_ZN5neml27minimumERKNS_2R5ES2_
FN:38,38,_ZN5neml27minimumERKNS_2R8ES2_
FN:38,38,_ZN5neml27minimumERKNS_3RotES2_
FN:38,38,_ZN5neml27minimumERKNS_3SR2ES2_
FN:38,38,_ZN5neml27minimumERKNS_3VecES2_
FN:38,38,_ZN5neml27minimumERKNS_3WR2ES2_
FN:38,38,_ZN5neml27minimumERKNS_4SFR3ES2_
FN:38,38,_ZN5neml27minimumERKNS_4SFR4ES2_
FN:38,38,_ZN5neml27minimumERKNS_4SSR4ES2_
FN:38,38,_ZN5neml27minimumERKNS_4SWR4ES2_
FN:38,38,_ZN5neml27minimumERKNS_4WFR4ES2_
FN:38,38,_ZN5neml27minimumERKNS_4WSR4ES2_
FN:38,38,_ZN5neml27minimumERKNS_4WWR4ES2_
FN:38,38,_ZN5neml27minimumERKNS_5SFFR4ES2_
FN:38,38,_ZN5neml27minimumERKNS_5SSFR5ES2_
FN:38,38,_ZN5neml27minimumERKNS_6SSSSR8ES2_
FN:38,38,_ZN5neml27minimumERKNS_6ScalarES2_
FN:38,38,_ZN5neml27minimumERKNS_6TensorES2_
FNDA:0,_ZN5neml27minimumERKNS_10QuaternionES2_
FNDA:0,_ZN5neml27minimumERKNS_11MillerIndexES2_
FNDA:0,_ZN5neml27minimumERKNS_2R2ES2_
FNDA:0,_ZN5neml27minimumERKNS_2R3ES2_
FNDA:0,_ZN5neml27minimumERKNS_2R4ES2_
FNDA:0,_ZN5neml27minimumERKNS_2R5ES2_
FNDA:0,_ZN5neml27minimumERKNS_2R8ES2_
FNDA:0,_ZN5neml27minimumERKNS_3RotES2_
FNDA:0,_ZN5neml27minimumERKNS_3SR2ES2_
FNDA:0,_ZN5neml27minimumERKNS_3VecES2_
FNDA:0,_ZN5neml27minimumERKNS_3WR2ES2_
FNDA:0,_ZN5neml27minimumERKNS_4SFR3ES2_
FNDA:0,_ZN5neml27minimumERKNS_4SFR4ES2_
FNDA:0,_ZN5neml27minimumERKNS_4SSR4ES2_
FNDA:0,_ZN5neml27minimumERKNS_4SWR4ES2_
FNDA:0,_ZN5neml27minimumERKNS_4WFR4ES2_
FNDA:0,_ZN5neml27minimumERKNS_4WSR4ES2_
FNDA:0,_ZN5neml27minimumERKNS_4WWR4ES2_
FNDA:0,_ZN5neml27minimumERKNS_5SFFR4ES2_
FNDA:0,_ZN5neml27minimumERKNS_5SSFR5ES2_
FNDA:0,_ZN5neml27minimumERKNS_6SSSSR8ES2_
FNDA:0,_ZN5neml27minimumERKNS_6ScalarES2_
FNDA:0,_ZN5neml27minimumERKNS_6TensorES2_
FNF:23
FNH:0
DA:38,0
LF:1
LH:0
end_of_record
TN:
SF:/home/runner/work/neml2/neml2/src/neml2/tensors/functions/operators.cxx
FN:100,100,_ZN5neml2miERKNS_6TensorES2_
FN:101,101,_ZN5neml2miERKNS_6ScalarERKNS_6TensorE
FN:101,101,_ZN5neml2miERKNS_6TensorERKNS_6ScalarE
FN:102,102,_ZN5neml2miERKNS_6TensorERKd
FN:102,102,_ZN5neml2miERKdRKNS_6TensorE
FN:103,103,_ZN5neml2miERKNS_6ScalarES2_
FN:104,104,_ZN5neml2miERKNS_6ScalarERKd
FN:104,104,_ZN5neml2miERKdRKNS_6ScalarE
FN:132,132,_ZN5neml2mlERKNS_10QuaternionERKNS_6ScalarE
FN:132,132,_ZN5neml2mlERKNS_11MillerIndexERKNS_6ScalarE
FN:132,132,_ZN5neml2mlERKNS_2R2ERKNS_6ScalarE
FN:132,132,_ZN5neml2mlERKNS_2R3ERKNS_6ScalarE
FN:132,132,_ZN5neml2mlERKNS_2R4ERKNS_6ScalarE
FN:132,132,_ZN5neml2mlERKNS_2R5ERKNS_6ScalarE
FN:132,132,_ZN5neml2mlERKNS_2R8ERKNS_6ScalarE
FN:132,132,_ZN5neml2mlERKNS_3RotERKNS_6ScalarE
FN:132,132,_ZN5neml2mlERKNS_3SR2ERKNS_6ScalarE
FN:132,132,_ZN5neml2mlERKNS_3VecERKNS_6ScalarE
FN:132,132,_ZN5neml2mlERKNS_3WR2ERKNS_6ScalarE
FN:132,132,_ZN5neml2mlERKNS_4SFR3ERKNS_6ScalarE
FN:132,132,_ZN5neml2mlERKNS_4SFR4ERKNS_6ScalarE
FN:132,132,_ZN5neml2mlERKNS_4SSR4ERKNS_6ScalarE
FN:132,132,_ZN5neml2mlERKNS_4SWR4ERKNS_6ScalarE
FN:132,132,_ZN5neml2mlERKNS_4WFR4ERKNS_6ScalarE
FN:132,132,_ZN5neml2mlERKNS_4WSR4ERKNS_6ScalarE
FN:132,132,_ZN5neml2mlERKNS_4WWR4ERKNS_6ScalarE
FN:132,132,_ZN5neml2mlERKNS_5SFFR4ERKNS_6ScalarE
FN:132,132,_ZN5neml2mlERKNS_5SSFR5ERKNS_6ScalarE
FN:132,132,_ZN5neml2mlERKNS_6SSSSR8ERKNS_6ScalarE
FN:132,132,_ZN5neml2mlERKNS_6ScalarERKNS_10QuaternionE
FN:132,132,_ZN5neml2mlERKNS_6ScalarERKNS_11MillerIndexE
FN:132,132,_ZN5neml2mlERKNS_6ScalarERKNS_2R2E
FN:132,132,_ZN5neml2mlERKNS_6ScalarERKNS_2R3E
FN:132,132,_ZN5neml2mlERKNS_6ScalarERKNS_2R4E
FN:132,132,_ZN5neml2mlERKNS_6ScalarERKNS_2R5E
FN:132,132,_ZN5neml2mlERKNS_6ScalarERKNS_2R8E
FN:132,132,_ZN5neml2mlERKNS_6ScalarERKNS_3RotE
FN:132,132,_ZN5neml2mlERKNS_6ScalarERKNS_3SR2E
FN:132,132,_ZN5neml2mlERKNS_6ScalarERKNS_3VecE
FN:132,132,_ZN5neml2mlERKNS_6ScalarERKNS_3WR2E
FN:132,132,_ZN5neml2mlERKNS_6ScalarERKNS_4SFR3E
FN:132,132,_ZN5neml2mlERKNS_6ScalarERKNS_4SFR4E
FN:132,132,_ZN5neml2mlERKNS_6ScalarERKNS_4SSR4E
FN:132,132,_ZN5neml2mlERKNS_6ScalarERKNS_4SWR4E
FN:132,132,_ZN5neml2mlERKNS_6ScalarERKNS_4WFR4E
FN:132,132,_ZN5neml2mlERKNS_6ScalarERKNS_4WSR4E
FN:132,132,_ZN5neml2mlERKNS_6ScalarERKNS_4WWR4E
FN:132,132,_ZN5neml2mlERKNS_6ScalarERKNS_5SFFR4E
FN:132,132,_ZN5neml2mlERKNS_6ScalarERKNS_5SSFR5E
FN:132,132,_ZN5neml2mlERKNS_6ScalarERKNS_6SSSSR8E
FN:133,133,_ZN5neml2mlERKNS_10QuaternionERKd
FN:133,133,_ZN5neml2mlERKNS_11MillerIndexERKd
FN:133,133,_ZN5neml2mlERKNS_2R2ERKd
FN:133,133,_ZN5neml2mlERKNS_2R3ERKd
FN:133,133,_ZN5neml2mlERKNS_2R4ERKd
FN:133,133,_ZN5neml2mlERKNS_2R5ERKd
FN:133,133,_ZN5neml2mlERKNS_2R8ERKd
FN:133,133,_ZN5neml2mlERKNS_3RotERKd
FN:133,133,_ZN5neml2mlERKNS_3SR2ERKd
FN:133,133,_ZN5neml2mlERKNS_3VecERKd
FN:133,133,_ZN5neml2mlERKNS_3WR2ERKd
FN:133,133,_ZN5neml2mlERKNS_4SFR3ERKd
FN:133,133,_ZN5neml2mlERKNS_4SFR4ERKd
FN:133,133,_ZN5neml2mlERKNS_4SSR4ERKd
FN:133,133,_ZN5neml2mlERKNS_4SWR4ERKd
FN:133,133,_ZN5neml2mlERKNS_4WFR4ERKd
FN:133,133,_ZN5neml2mlERKNS_4WSR4ERKd
FN:133,133,_ZN5neml2mlERKNS_4WWR4ERKd
FN:133,133,_ZN5neml2mlERKNS_5SFFR4ERKd
FN:133,133,_ZN5neml2mlERKNS_5SSFR5ERKd
FN:133,133,_ZN5neml2mlERKNS_6SSSSR8ERKd
FN:133,133,_ZN5neml2mlERKdRKNS_10QuaternionE
FN:133,133,_ZN5neml2mlERKdRKNS_11MillerIndexE
FN:133,133,_ZN5neml2mlERKdRKNS_2R2E
FN:133,133,_ZN5neml2mlERKdRKNS_2R3E
FN:133,133,_ZN5neml2mlERKdRKNS_2R4E
FN:133,133,_ZN5neml2mlERKdRKNS_2R5E
FN:133,133,_ZN5neml2mlERKdRKNS_2R8E
FN:133,133,_ZN5neml2mlERKdRKNS_3RotE
FN:133,133,_ZN5neml2mlERKdRKNS_3SR2E
FN:133,133,_ZN5neml2mlERKdRKNS_3VecE
FN:133,133,_ZN5neml2mlERKdRKNS_3WR2E
FN:133,133,_ZN5neml2mlERKdRKNS_4SFR3E
FN:133,133,_ZN5neml2mlERKdRKNS_4SFR4E
FN:133,133,_ZN5neml2mlERKdRKNS_4SSR4E
FN:133,133,_ZN5neml2mlERKdRKNS_4SWR4E
FN:133,133,_ZN5neml2mlERKdRKNS_4WFR4E
FN:133,133,_ZN5neml2mlERKdRKNS_4WSR4E
FN:133,133,_ZN5neml2mlERKdRKNS_4WWR4E
FN:133,133,_ZN5neml2mlERKdRKNS_5SFFR4E
FN:133,133,_ZN5neml2mlERKdRKNS_5SSFR5E
FN:133,133,_ZN5neml2mlERKdRKNS_6SSSSR8E
FN:134,134,_ZN5neml2mlERKNS_6TensorES2_
FN:135,135,_ZN5neml2mlERKNS_6ScalarERKNS_6TensorE
FN:135,135,_ZN5neml2mlERKNS_6TensorERKNS_6ScalarE
FN:136,136,_ZN5neml2mlERKNS_6TensorERKd
FN:136,136,_ZN5neml2mlERKdRKNS_6TensorE
FN:137,137,_ZN5neml2mlERKNS_6ScalarES2_
FN:138,138,_ZN5neml2mlERKNS_6ScalarERKd
FN:138,138,_ZN5neml2mlERKdRKNS_6ScalarE
FN:171,171,_ZN5neml2dvERKNS_10QuaternionERKNS_6ScalarE
FN:171,171,_ZN5neml2dvERKNS_11MillerIndexERKNS_6ScalarE
FN:171,171,_ZN5neml2dvERKNS_2R2ERKNS_6ScalarE
FN:171,171,_ZN5neml2dvERKNS_2R3ERKNS_6ScalarE
FN:171,171,_ZN5neml2dvERKNS_2R4ERKNS_6ScalarE
FN:171,171,_ZN5neml2dvERKNS_2R5ERKNS_6ScalarE
FN:171,171,_ZN5neml2dvERKNS_2R8ERKNS_6ScalarE
FN:171,171,_ZN5neml2dvERKNS_3RotERKNS_6ScalarE
FN:171,171,_ZN5neml2dvERKNS_3SR2ERKNS_6ScalarE
FN:171,171,_ZN5neml2dvERKNS_3VecERKNS_6ScalarE
FN:171,171,_ZN5neml2dvERKNS_3WR2ERKNS_6ScalarE
FN:171,171,_ZN5neml2dvERKNS_4SFR3ERKNS_6ScalarE
FN:171,171,_ZN5neml2dvERKNS_4SFR4ERKNS_6ScalarE
FN:171,171,_ZN5neml2dvERKNS_4SSR4ERKNS_6ScalarE
FN:171,171,_ZN5neml2dvERKNS_4SWR4ERKNS_6ScalarE
FN:171,171,_ZN5neml2dvERKNS_4WFR4ERKNS_6ScalarE
FN:171,171,_ZN5neml2dvERKNS_4WSR4ERKNS_6ScalarE
FN:171,171,_ZN5neml2dvERKNS_4WWR4ERKNS_6ScalarE
FN:171,171,_ZN5neml2dvERKNS_5SFFR4ERKNS_6ScalarE
FN:171,171,_ZN5neml2dvERKNS_5SSFR5ERKNS_6ScalarE
FN:171,171,_ZN5neml2dvERKNS_6SSSSR8ERKNS_6ScalarE
FN:171,171,_ZN5neml2dvERKNS_6ScalarERKNS_10QuaternionE
FN:171,171,_ZN5neml2dvERKNS_6ScalarERKNS_11MillerIndexE
FN:171,171,_ZN5neml2dvERKNS_6ScalarERKNS_2R2E
FN:171,171,_ZN5neml2dvERKNS_6ScalarERKNS_2R3E
FN:171,171,_ZN5neml2dvERKNS_6ScalarERKNS_2R4E
FN:171,171,_ZN5neml2dvERKNS_6ScalarERKNS_2R5E
FN:171,171,_ZN5neml2dvERKNS_6ScalarERKNS_2R8E
FN:171,171,_ZN5neml2dvERKNS_6ScalarERKNS_3RotE
FN:171,171,_ZN5neml2dvERKNS_6ScalarERKNS_3SR2E
FN:171,171,_ZN5neml2dvERKNS_6ScalarERKNS_3VecE
FN:171,171,_ZN5neml2dvERKNS_6ScalarERKNS_3WR2E
FN:171,171,_ZN5neml2dvERKNS_6ScalarERKNS_4SFR3E
FN:171,171,_ZN5neml2dvERKNS_6ScalarERKNS_4SFR4E
FN:171,171,_ZN5neml2dvERKNS_6ScalarERKNS_4SSR4E
FN:171,171,_ZN5neml2dvERKNS_6ScalarERKNS_4SWR4E
FN:171,171,_ZN5neml2dvERKNS_6ScalarERKNS_4WFR4E
FN:171,171,_ZN5neml2dvERKNS_6ScalarERKNS_4WSR4E
FN:171,171,_ZN5neml2dvERKNS_6ScalarERKNS_4WWR4E
FN:171,171,_ZN5neml2dvERKNS_6ScalarERKNS_5SFFR4E
FN:171,171,_ZN5neml2dvERKNS_6ScalarERKNS_5SSFR5E
FN:171,171,_ZN5neml2dvERKNS_6ScalarERKNS_6SSSSR8E
FN:172,172,_ZN5neml2dvERKNS_10QuaternionERKd
FN:172,172,_ZN5neml2dvERKNS_11MillerIndexERKd
FN:172,172,_ZN5neml2dvERKNS_2R2ERKd
FN:172,172,_ZN5neml2dvERKNS_2R3ERKd
FN:172,172,_ZN5neml2dvERKNS_2R4ERKd
FN:172,172,_ZN5neml2dvERKNS_2R5ERKd
FN:172,172,_ZN5neml2dvERKNS_2R8ERKd
FN:172,172,_ZN5neml2dvERKNS_3RotERKd
FN:172,172,_ZN5neml2dvERKNS_3SR2ERKd
FN:172,172,_ZN5neml2dvERKNS_3VecERKd
FN:172,172,_ZN5neml2dvERKNS_3WR2ERKd
FN:172,172,_ZN5neml2dvERKNS_4SFR3ERKd
FN:172,172,_ZN5neml2dvERKNS_4SFR4ERKd
FN:172,172,_ZN5neml2dvERKNS_4SSR4ERKd
FN:172,172,_ZN5neml2dvERKNS_4SWR4ERKd
FN:172,172,_ZN5neml2dvERKNS_4WFR4ERKd
FN:172,172,_ZN5neml2dvERKNS_4WSR4ERKd
FN:172,172,_ZN5neml2dvERKNS_4WWR4ERKd
FN:172,172,_ZN5neml2dvERKNS_5SFFR4ERKd
FN:172,172,_ZN5neml2dvERKNS_5SSFR5ERKd
FN:172,172,_ZN5neml2dvERKNS_6SSSSR8ERKd
FN:172,172,_ZN5neml2dvERKdRKNS_10QuaternionE
FN:172,172,_ZN5neml2dvERKdRKNS_11MillerIndexE
FN:172,172,_ZN5neml2dvERKdRKNS_2R2E
FN:172,172,_ZN5neml2dvERKdRKNS_2R3E
FN:172,172,_ZN5neml2dvERKdRKNS_2R4E
FN:172,172,_ZN5neml2dvERKdRKNS_2R5E
FN:172,172,_ZN5neml2dvERKdRKNS_2R8E
FN:172,172,_ZN5neml2dvERKdRKNS_3RotE
FN:172,172,_ZN5neml2dvERKdRKNS_3SR2E
FN:172,172,_ZN5neml2dvERKdRKNS_3VecE
FN:172,172,_ZN5neml2dvERKdRKNS_3WR2E
FN:172,172,_ZN5neml2dvERKdRKNS_4SFR3E
FN:172,172,_ZN5neml2dvERKdRKNS_4SFR4E
FN:172,172,_ZN5neml2dvERKdRKNS_4SSR4E
FN:172,172,_ZN5neml2dvERKdRKNS_4SWR4E
FN:172,172,_ZN5neml2dvERKdRKNS_4WFR4E
FN:172,172,_ZN5neml2dvERKdRKNS_4WSR4E
FN:172,172,_ZN5neml2dvERKdRKNS_4WWR4E
FN:172,172,_ZN5neml2dvERKdRKNS_5SFFR4E
FN:172,172,_ZN5neml2dvERKdRKNS_5SSFR5E
FN:172,172,_ZN5neml2dvERKdRKNS_6SSSSR8E
FN:173,173,_ZN5neml2dvERKNS_6TensorES2_
FN:174,174,_ZN5neml2dvERKNS_6ScalarERKNS_6TensorE
FN:174,174,_ZN5neml2dvERKNS_6TensorERKNS_6ScalarE
FN:175,175,_ZN5neml2dvERKNS_6TensorERKd
FN:175,175,_ZN5neml2dvERKdRKNS_6TensorE
FN:176,176,_ZN5neml2dvERKNS_6ScalarES2_
FN:177,177,_ZN5neml2dvERKNS_6ScalarERKd
FN:177,177,_ZN5neml2dvERKdRKNS_6ScalarE
FN:190,190,_ZN5neml2pLERNS_10QuaternionERKd
FN:190,190,_ZN5neml2pLERNS_11MillerIndexERKd
FN:190,190,_ZN5neml2pLERNS_2R2ERKd
FN:190,190,_ZN5neml2pLERNS_2R3ERKd
FN:190,190,_ZN5neml2pLERNS_2R4ERKd
FN:190,190,_ZN5neml2pLERNS_2R5ERKd
FN:190,190,_ZN5neml2pLERNS_2R8ERKd
FN:190,190,_ZN5neml2pLERNS_3RotERKd
FN:190,190,_ZN5neml2pLERNS_3SR2ERKd
FN:190,190,_ZN5neml2pLERNS_3VecERKd
FN:190,190,_ZN5neml2pLERNS_3WR2ERKd
FN:190,190,_ZN5neml2pLERNS_4SFR3ERKd
FN:190,190,_ZN5neml2pLERNS_4SFR4ERKd
FN:190,190,_ZN5neml2pLERNS_4SSR4ERKd
FN:190,190,_ZN5neml2pLERNS_4SWR4ERKd
FN:190,190,_ZN5neml2pLERNS_4WFR4ERKd
FN:190,190,_ZN5neml2pLERNS_4WSR4ERKd
FN:190,190,_ZN5neml2pLERNS_4WWR4ERKd
FN:190,190,_ZN5neml2pLERNS_5SFFR4ERKd
FN:190,190,_ZN5neml2pLERNS_5SSFR5ERKd
FN:190,190,_ZN5neml2pLERNS_6SSSSR8ERKd
FN:191,191,_ZN5neml2pLERNS_6TensorERKd
FN:192,192,_ZN5neml2pLERNS_6ScalarERKd
FN:205,205,_ZN5neml2mIERNS_10QuaternionERKd
FN:205,205,_ZN5neml2mIERNS_11MillerIndexERKd
FN:205,205,_ZN5neml2mIERNS_2R2ERKd
FN:205,205,_ZN5neml2mIERNS_2R3ERKd
FN:205,205,_ZN5neml2mIERNS_2R4ERKd
FN:205,205,_ZN5neml2mIERNS_2R5ERKd
FN:205,205,_ZN5neml2mIERNS_2R8ERKd
FN:205,205,_ZN5neml2mIERNS_3RotERKd
FN:205,205,_ZN5neml2mIERNS_3SR2ERKd
FN:205,205,_ZN5neml2mIERNS_3VecERKd
FN:205,205,_ZN5neml2mIERNS_3WR2ERKd
