TN:
SF:/home/runner/work/neml2/neml2/src/neml2/base/DiagnosticsInterface.cxx
FN:31,35,_ZN5neml210DiagnosingC2Eb
FN:37,37,_ZN5neml210DiagnosingD2Ev
FN:40,44,_ZN5neml224current_diagnostic_stateEv
FN:47,51,_ZN5neml217current_diagnosesEv
FN:54,77,_ZN5neml28diagnoseERKNS_20DiagnosticsInterfaceE
FN:80,94,_ZN5neml218diagnose_and_throwERKNS_20DiagnosticsInterfaceE
FN:96,99,_ZN5neml220DiagnosticsInterfaceC2EPNS_11NEML2ObjectE
FNDA:289,_ZN5neml210DiagnosingC2Eb
FNDA:289,_ZN5neml210DiagnosingD2Ev
FNDA:1352,_ZN5neml224current_diagnostic_stateEv
FNDA:488,_ZN5neml217current_diagnosesEv
FNDA:289,_ZN5neml28diagnoseERKNS_20DiagnosticsInterfaceE
FNDA:191,_ZN5neml218diagnose_and_throwERKNS_20DiagnosticsInterfaceE
FNDA:669,_ZN5neml220DiagnosticsInterfaceC2EPNS_11NEML2ObjectE
FNF:7
FNH:7
DA:31,289
DA:32,289
DA:34,289
DA:35,289
DA:37,289
DA:40,1352
DA:42,1352
DA:43,1352
DA:47,488
DA:49,488
DA:50,488
DA:54,289
DA:56,289
DA:57,289
DA:58,289
DA:62,289
DA:63,289
DA:64,289
DA:67,289
DA:70,289
DA:72,194
DA:73,194
DA:76,289
DA:77,0
DA:80,191
DA:82,191
DA:83,191
DA:85,191
DA:86,191
DA:88,1
DA:89,1
DA:90,2
DA:91,1
DA:92,1
DA:93,1
DA:94,191
DA:96,669
DA:97,669
DA:99,669
LF:39
LH:38
end_of_record
TN:
SF:/home/runner/work/neml2/neml2/src/neml2/base/EnumSelection.cxx
FN:31,35,_ZN5neml2lsERSoRKNS_13EnumSelectionE
FN:38,42,_ZN5neml2rsERNSt7__cxx1118basic_stringstreamIcSt11char_traitsIcESaIcEEERNS_13EnumSelectionE
FN:44,49,_ZN5neml213EnumSelectionC2ERKSt6vectorINSt7__cxx1112basic_stringIcSt11char_traitsIcESaIcEEESaIS7_EERKS7_
FN:51,57,_ZN5neml213EnumSelectionC2ERKSt6vectorINSt7__cxx1112basic_stringIcSt11char_traitsIcESaIcEEESaIS7_EERKS1_IiSaIiEERKS7_
FN:60,64,_ZNK5neml213EnumSelectioneqERKS0_
FN:67,70,_ZNK5neml213EnumSelectionneERKS0_
FN:73,76,_ZNK5neml213EnumSelectioneqERKNSt7__cxx1112basic_stringIcSt11char_traitsIcESaIcEEE
FN:79,82,_ZNK5neml213EnumSelectionneERKNSt7__cxx1112basic_stringIcSt11char_traitsIcESaIcEEE
FN:85,92,_ZN5neml213EnumSelection6selectERKNSt7__cxx1112basic_stringIcSt11char_traitsIcESaIcEEE
FNDA:1,_ZN5neml2lsERSoRKNS_13EnumSelectionE
FNDA:59,_ZN5neml2rsERNSt7__cxx1118basic_stringstreamIcSt11char_traitsIcESaIcEEERNS_13EnumSelectionE
FNDA:29,_ZN5neml213EnumSelectionC2ERKSt6vectorINSt7__cxx1112basic_stringIcSt11char_traitsIcESaIcEEESaIS7_EERKS7_
FNDA:18,_ZN5neml213EnumSelectionC2ERKSt6vectorINSt7__cxx1112basic_stringIcSt11char_traitsIcESaIcEEESaIS7_EERKS1_IiSaIiEERKS7_
FNDA:7,_ZNK5neml213EnumSelectioneqERKS0_
FNDA:5,_ZNK5neml213EnumSelectionneERKS0_
FNDA:374,_ZNK5neml213EnumSelectioneqERKNSt7__cxx1112basic_stringIcSt11char_traitsIcESaIcEEE
FNDA:0,_ZNK5neml213EnumSelectionneERKNSt7__cxx1112basic_stringIcSt11char_traitsIcESaIcEEE
FNDA:103,_ZN5neml213EnumSelection6selectERKNSt7__cxx1112basic_stringIcSt11char_traitsIcESaIcEEE
FNF:9
FNH:8
DA:31,1
DA:33,1
DA:34,1
DA:38,59
DA:40,59
DA:41,58
DA:44,29
DA:45,29
DA:46,57
DA:48,28
DA:49,29
DA:51,18
DA:53,18
DA:54,34
DA:56,16
DA:57,17
DA:60,7
DA:62,9
DA:63,9
DA:67,5
DA:69,5
DA:73,374
DA:75,374
DA:79,0
DA:81,0
DA:85,103
DA:87,103
DA:89,206
DA:90,100
DA:91,100
DA:92,100
LF:31
LH:29
end_of_record
TN:
SF:/home/runner/work/neml2/neml2/src/neml2/base/EnumSelectionBase.cxx
FN:32,41,_ZN5neml217EnumSelectionBaseC2ERKSt6vectorINSt7__cxx1112basic_stringIcSt11char_traitsIcESaIcEEESaIS7_EE
FN:43,58,_ZN5neml217EnumSelectionBaseC2ERKSt6vectorINSt7__cxx1112basic_stringIcSt11char_traitsIcESaIcEEESaIS7_EERKS1_IiSaIiEE
FN:61,67,_ZNK5neml217EnumSelectionBase14candidates_strB5cxx11Ev
FNDA:32,_ZN5neml217EnumSelectionBaseC2ERKSt6vectorINSt7__cxx1112basic_stringIcSt11char_traitsIcESaIcEEESaIS7_EE
FNDA:37,_ZN5neml217EnumSelectionBaseC2ERKSt6vectorINSt7__cxx1112basic_stringIcSt11char_traitsIcESaIcEEESaIS7_EERKS1_IiSaIiEE
FNDA:246,_ZNK5neml217EnumSelectionBase14candidates_strB5cxx11Ev
FNF:3
FNH:3
DA:32,32
DA:34,32
DA:35,32
DA:38,31
DA:39,105
DA:40,74
DA:41,33
DA:43,37
DA:44,37
DA:46,37
DA:49,36
DA:50,36
DA:53,36
DA:54,36
DA:56,186
DA:57,151
DA:58,39
DA:61,246
DA:63,246
DA:64,1357
DA:65,1111
DA:66,492
DA:67,246
LF:23
LH:23
end_of_record
TN:
SF:/home/runner/work/neml2/neml2/src/neml2/base/Factory.cxx
FN:101,104,_ZN5neml27Factory5clearEv
FN:34,45,_ZN5neml210load_inputERKNSt10filesystem7__cxx114pathERKNSt7__cxx1112basic_stringIcSt11char_traitsIcESaIcEEE
FN:47,51,_ZN5neml27FactoryC2ENS_9InputFileE
FN:54,57,_ZN5neml27Factory10has_objectERKNSt7__cxx1112basic_stringIcSt11char_traitsIcESaIcEEES8_
FN:60,78,_ZN5neml27Factory13create_objectERKNSt7__cxx1112basic_stringIcSt11char_traitsIcESaIcEEERKNS_9OptionSetE
FN:81,84,_ZNK5neml27Factory18options_compatibleERKSt10shared_ptrINS_11NEML2ObjectEERKNS_9OptionSetE
FNDA:0,_ZN5neml27Factory5clearEv
FNDA:380,_ZN5neml210load_inputERKNSt10filesystem7__cxx114pathERKNSt7__cxx1112basic_stringIcSt11char_traitsIcESaIcEEE
FNDA:379,_ZN5neml27FactoryC2ENS_9InputFileE
FNDA:0,_ZN5neml27Factory10has_objectERKNSt7__cxx1112basic_stringIcSt11char_traitsIcESaIcEEES8_
FNDA:1628,_ZN5neml27Factory13create_objectERKNSt7__cxx1112basic_stringIcSt11char_traitsIcESaIcEEERKNS_9OptionSetE
FNDA:8,_ZNK5neml27Factory18options_compatibleERKSt10shared_ptrINS_11NEML2ObjectEERKNS_9OptionSetE
FNF:6
FNH:4
DA:34,380
DA:37,380
DA:39,380
DA:40,380
DA:41,756
DA:42,380
DA:44,0
DA:47,379
DA:48,379
DA:49,379
DA:51,379
DA:54,0
DA:56,0
DA:60,1628
DA:62,1628
DA:63,1628
DA:65,1628
DA:66,1628
DA:67,1616
DA:71,1616
DA:73,0
DA:75,0
DA:76,0
DA:77,0
DA:78,1616
DA:81,8
DA:83,8
DA:101,0
DA:103,0
DA:104,0
LF:30
LH:20
end_of_record
TN:
SF:/home/runner/work/neml2/neml2/src/neml2/base/HITParser.cxx
FN:100,114,_ZNK5neml29HITParser22extract_object_optionsEPN3hit4NodeES3_
FN:117,122,_ZNK5neml29HITParser15extract_optionsEPN3hit4NodeERNS_9OptionSetE
FN:126,179,_ZNK5neml29HITParser14extract_optionEPN3hit4NodeERNS_9OptionSetE
FN:42,70,_ZNK5neml29HITParser5parseERKNSt10filesystem7__cxx114pathERKNSt7__cxx1112basic_stringIcSt11char_traitsIcESaIcEEE
FN:73,97,_ZNK5neml29HITParser5parseEPN3hit4NodeE
FNDA:3671,_ZNK5neml29HITParser22extract_object_optionsEPN3hit4NodeES3_
FNDA:3685,_ZNK5neml29HITParser15extract_optionsEPN3hit4NodeERNS_9OptionSetE
FNDA:8222,_ZNK5neml29HITParser14extract_optionEPN3hit4NodeERNS_9OptionSetE
FNDA:391,_ZNK5neml29HITParser5parseERKNSt10filesystem7__cxx114pathERKNSt7__cxx1112basic_stringIcSt11char_traitsIcESaIcEEE
FNDA:391,_ZNK5neml29HITParser5parseEPN3hit4NodeE
FNF:5
FNH:5
DA:42,391
DA:45,391
DA:46,391
DA:49,391
DA:50,391
DA:51,391
DA:54,391
DA:55,391
DA:58,391
DA:59,391
DA:62,391
DA:63,391
DA:64,391
DA:65,782
DA:66,391
DA:67,391
DA:69,779
DA:70,412
DA:73,391
DA:76,391
DA:77,1173
DA:78,14
DA:81,391
DA:82,2725
DA:84,2337
DA:85,2337
DA:87,782
DA:88,4450
DA:90,3671
DA:91,3668
DA:92,3668
DA:93,782
DA:96,776
DA:97,394
DA:100,3671
DA:103,7342
DA:105,3671
DA:106,3671
DA:109,3668
DA:110,3668
DA:111,3668
DA:113,7336
DA:114,3674
DA:117,3685
DA:119,15575
DA:120,11893
DA:121,11904
DA:122,3682
DA:126,8222
DA:140,8222
DA:142,8222
DA:143,119224
DA:144,119224
DA:146,8222
DA:148,8222
DA:151,8221
DA:155,8221
DA:156,6675
DA:157,6428
DA:158,6362
DA:159,6245
DA:160,6245
DA:161,5383
DA:162,4095
DA:163,2821
DA:164,2008
DA:165,1951
DA:166,1922
DA:167,30
DA:168,30
DA:173,8219
DA:175,8219
DA:177,8219
DA:179,8219
LF:74
LH:74
end_of_record
TN:
SF:/home/runner/work/neml2/neml2/src/neml2/base/InputFile.cxx
FN:32,36,_ZN5neml29InputFileC2ERKNS_9OptionSetE
FN:39,42,_ZN5neml29InputFileixERKNSt7__cxx1112basic_stringIcSt11char_traitsIcESaIcEEE
FN:45,48,_ZNK5neml29InputFileixERKNSt7__cxx1112basic_stringIcSt11char_traitsIcESaIcEEE
FNDA:392,_ZN5neml29InputFileC2ERKNS_9OptionSetE
FNDA:5585,_ZN5neml29InputFileixERKNSt7__cxx1112basic_stringIcSt11char_traitsIcESaIcEEE
FNDA:0,_ZNK5neml29InputFileixERKNSt7__cxx1112basic_stringIcSt11char_traitsIcESaIcEEE
FNF:3
FNH:2
DA:32,392
DA:33,392
DA:34,392
DA:36,392
DA:39,5585
DA:41,5585
DA:45,0
DA:47,0
LF:8
LH:6
end_of_record
TN:
SF:/home/runner/work/neml2/neml2/src/neml2/base/LabeledAxis.cxx
FN:146,159,_ZNK5neml211LabeledAxis4sizeEv
FN:162,190,_ZNK5neml211LabeledAxis4sizeERKNS_19LabeledAxisAccessorE
FN:193,213,_ZNK5neml211LabeledAxis5sliceERKNS_19LabeledAxisAccessorE
FN:216,227,_ZNK5neml211LabeledAxis9nvariableEv
FN:230,245,_ZNK5neml211LabeledAxis12has_variableERKNS_19LabeledAxisAccessorE
FN:248,259,_ZNK5neml211LabeledAxis11variable_idERKNS_19LabeledAxisAccessorE
FN:262,266,_ZNK5neml211LabeledAxis14variable_namesEv
FN:269,273,_ZNK5neml211LabeledAxis15variable_slicesEv
FN:276,280,_ZNK5neml211LabeledAxis14variable_sliceERKNS_19LabeledAxisAccessorE
FN:283,287,_ZNK5neml211LabeledAxis14variable_sizesEv
FN:290,309,_ZNK5neml211LabeledAxis13variable_sizeERKNS_19LabeledAxisAccessorE
FN:312,315,_ZNK5neml211LabeledAxis8nsubaxisEv
FN:318,328,_ZNK5neml211LabeledAxis11has_subaxisERKNS_19LabeledAxisAccessorE
FN:32,35,_ZN5neml211LabeledAxisC2ENS_19LabeledAxisAccessorE
FN:331,341,_ZNK5neml211LabeledAxis10subaxis_idERKNSt7__cxx1112basic_stringIcSt11char_traitsIcESaIcEEE
FN:344,348,_ZNK5neml211LabeledAxis7subaxesEv
FN:351,363,_ZNK5neml211LabeledAxis7subaxisERKNS_19LabeledAxisAccessorE
FN:366,370,_ZN5neml211LabeledAxis7subaxisERKNS_19LabeledAxisAccessorE
FN:373,377,_ZNK5neml211LabeledAxis13subaxis_namesB5cxx11Ev
FN:38,41,_ZNK5neml211LabeledAxis7qualifyERKNS_19LabeledAxisAccessorE
FN:380,384,_ZNK5neml211LabeledAxis14subaxis_slicesEv
FN:387,402,_ZNK5neml211LabeledAxis13subaxis_sliceERKNS_19LabeledAxisAccessorE
FN:405,409,_ZNK5neml211LabeledAxis13subaxis_sizesEv
FN:412,422,_ZNK5neml211LabeledAxis12subaxis_sizeERKNS_19LabeledAxisAccessorE
FN:425,446,_ZNK5neml211LabeledAxis6equalsERKS0_
FN:44,54,_ZN5neml211LabeledAxis11add_subaxisERKNSt7__cxx1112basic_stringIcSt11char_traitsIcESaIcEEE
FN:449,463,_ZN5neml211LabeledAxis22cache_reserved_subaxisERKNSt7__cxx1112basic_stringIcSt11char_traitsIcESaIcEEE
FN:466,469,_ZNK5neml211LabeledAxis16ensure_setup_dbgEv
FN:472,499,_ZN5neml2lsERSoRKNS_11LabeledAxisE
FN:502,505,_ZN5neml2eqERKNS_11LabeledAxisES2_
FN:508,511,_ZN5neml2neERKNS_11LabeledAxisES2_
FN:57,72,_ZN5neml211LabeledAxis12add_variableERKNS_19LabeledAxisAccessorEl
FN:76,80,_ZN5neml211LabeledAxis12add_variableINS_10QuaternionEEEvRKNS_19LabeledAxisAccessorE
FN:76,80,_ZN5neml211LabeledAxis12add_variableINS_11MillerIndexEEEvRKNS_19LabeledAxisAccessorE
FN:76,80,_ZN5neml211LabeledAxis12add_variableINS_2R2EEEvRKNS_19LabeledAxisAccessorE
FN:76,80,_ZN5neml211LabeledAxis12add_variableINS_2R3EEEvRKNS_19LabeledAxisAccessorE
FN:76,80,_ZN5neml211LabeledAxis12add_variableINS_2R4EEEvRKNS_19LabeledAxisAccessorE
FN:76,80,_ZN5neml211LabeledAxis12add_variableINS_2R5EEEvRKNS_19LabeledAxisAccessorE
FN:76,80,_ZN5neml211LabeledAxis12add_variableINS_2R8EEEvRKNS_19LabeledAxisAccessorE
FN:76,80,_ZN5neml211LabeledAxis12add_variableINS_3RotEEEvRKNS_19LabeledAxisAccessorE
FN:76,80,_ZN5neml211LabeledAxis12add_variableINS_3SR2EEEvRKNS_19LabeledAxisAccessorE
FN:76,80,_ZN5neml211LabeledAxis12add_variableINS_3VecEEEvRKNS_19LabeledAxisAccessorE
FN:76,80,_ZN5neml211LabeledAxis12add_variableINS_3WR2EEEvRKNS_19LabeledAxisAccessorE
FN:76,80,_ZN5neml211LabeledAxis12add_variableINS_4SFR3EEEvRKNS_19LabeledAxisAccessorE
FN:76,80,_ZN5neml211LabeledAxis12add_variableINS_4SFR4EEEvRKNS_19LabeledAxisAccessorE
FN:76,80,_ZN5neml211LabeledAxis12add_variableINS_4SSR4EEEvRKNS_19LabeledAxisAccessorE
FN:76,80,_ZN5neml211LabeledAxis12add_variableINS_4SWR4EEEvRKNS_19LabeledAxisAccessorE
FN:76,80,_ZN5neml211LabeledAxis12add_variableINS_4WFR4EEEvRKNS_19LabeledAxisAccessorE
FN:76,80,_ZN5neml211LabeledAxis12add_variableINS_4WSR4EEEvRKNS_19LabeledAxisAccessorE
FN:76,80,_ZN5neml211LabeledAxis12add_variableINS_4WWR4EEEvRKNS_19LabeledAxisAccessorE
FN:76,80,_ZN5neml211LabeledAxis12add_variableINS_5SFFR4EEEvRKNS_19LabeledAxisAccessorE
FN:76,80,_ZN5neml211LabeledAxis12add_variableINS_5SSFR5EEEvRKNS_19LabeledAxisAccessorE
FN:76,80,_ZN5neml211LabeledAxis12add_variableINS_6SSSSR8EEEvRKNS_19LabeledAxisAccessorE
FN:76,80,_ZN5neml211LabeledAxis12add_variableINS_6ScalarEEEvRKNS_19LabeledAxisAccessorE
FN:86,143,_ZN5neml211LabeledAxis12setup_layoutEv
FNDA:1671,_ZNK5neml211LabeledAxis4sizeEv
FNDA:78,_ZNK5neml211LabeledAxis4sizeERKNS_19LabeledAxisAccessorE
FNDA:27,_ZNK5neml211LabeledAxis5sliceERKNS_19LabeledAxisAccessorE
FNDA:474,_ZNK5neml211LabeledAxis9nvariableEv
FNDA:16942,_ZNK5neml211LabeledAxis12has_variableERKNS_19LabeledAxisAccessorE
FNDA:102,_ZNK5neml211LabeledAxis11variable_idERKNS_19LabeledAxisAccessorE
FNDA:28932,_ZNK5neml211LabeledAxis14variable_namesEv
FNDA:16,_ZNK5neml211LabeledAxis15variable_slicesEv
FNDA:40,_ZNK5neml211LabeledAxis14variable_sliceERKNS_19LabeledAxisAccessorE
FNDA:56794,_ZNK5neml211LabeledAxis14variable_sizesEv
FNDA:76,_ZNK5neml211LabeledAxis13variable_sizeERKNS_19LabeledAxisAccessorE
FNDA:13,_ZNK5neml211LabeledAxis8nsubaxisEv
FNDA:27,_ZNK5neml211LabeledAxis11has_subaxisERKNS_19LabeledAxisAccessorE
FNDA:2364,_ZN5neml211LabeledAxisC2ENS_19LabeledAxisAccessorE
FNDA:17,_ZNK5neml211LabeledAxis10subaxis_idERKNSt7__cxx1112basic_stringIcSt11char_traitsIcESaIcEEE
FNDA:2,_ZNK5neml211LabeledAxis7subaxesEv
FNDA:6693,_ZNK5neml211LabeledAxis7subaxisERKNS_19LabeledAxisAccessorE
FNDA:6605,_ZN5neml211LabeledAxis7subaxisERKNS_19LabeledAxisAccessorE
FNDA:9,_ZNK5neml211LabeledAxis13subaxis_namesB5cxx11Ev
FNDA:24809,_ZNK5neml211LabeledAxis7qualifyERKNS_19LabeledAxisAccessorE
FNDA:3,_ZNK5neml211LabeledAxis14subaxis_slicesEv
FNDA:14,_ZNK5neml211LabeledAxis13subaxis_sliceERKNS_19LabeledAxisAccessorE
FNDA:9,_ZNK5neml211LabeledAxis13subaxis_sizesEv
FNDA:14,_ZNK5neml211LabeledAxis12subaxis_sizeERKNS_19LabeledAxisAccessorE
FNDA:10,_ZNK5neml211LabeledAxis6equalsERKS0_
FNDA:2364,_ZN5neml211LabeledAxis11add_subaxisERKNSt7__cxx1112basic_stringIcSt11char_traitsIcESaIcEEE
FNDA:1697,_ZN5neml211LabeledAxis22cache_reserved_subaxisERKNSt7__cxx1112basic_stringIcSt11char_traitsIcESaIcEEE
FNDA:85965,_ZNK5neml211LabeledAxis16ensure_setup_dbgEv
FNDA:0,_ZN5neml2lsERSoRKNS_11LabeledAxisE
FNDA:6,_ZN5neml2eqERKNS_11LabeledAxisES2_
FNDA:4,_ZN5neml2neERKNS_11LabeledAxisES2_
FNDA:4357,_ZN5neml211LabeledAxis12add_variableERKNS_19LabeledAxisAccessorEl
FNDA:0,_ZN5neml211LabeledAxis12add_variableINS_10QuaternionEEEvRKNS_19LabeledAxisAccessorE
FNDA:0,_ZN5neml211LabeledAxis12add_variableINS_11MillerIndexEEEvRKNS_19LabeledAxisAccessorE
FNDA:0,_ZN5neml211LabeledAxis12add_variableINS_2R2EEEvRKNS_19LabeledAxisAccessorE
FNDA:0,_ZN5neml211LabeledAxis12add_variableINS_2R3EEEvRKNS_19LabeledAxisAccessorE
FNDA:0,_ZN5neml211LabeledAxis12add_variableINS_2R4EEEvRKNS_19LabeledAxisAccessorE
FNDA:0,_ZN5neml211LabeledAxis12add_variableINS_2R5EEEvRKNS_19LabeledAxisAccessorE
FNDA:0,_ZN5neml211LabeledAxis12add_variableINS_2R8EEEvRKNS_19LabeledAxisAccessorE
FNDA:0,_ZN5neml211LabeledAxis12add_variableINS_3RotEEEvRKNS_19LabeledAxisAccessorE
FNDA:136,_ZN5neml211LabeledAxis12add_variableINS_3SR2EEEvRKNS_19LabeledAxisAccessorE
FNDA:0,_ZN5neml211LabeledAxis12add_variableINS_3VecEEEvRKNS_19LabeledAxisAccessorE
FNDA:0,_ZN5neml211LabeledAxis12add_variableINS_3WR2EEEvRKNS_19LabeledAxisAccessorE
FNDA:0,_ZN5neml211LabeledAxis12add_variableINS_4SFR3EEEvRKNS_19LabeledAxisAccessorE
FNDA:0,_ZN5neml211LabeledAxis12add_variableINS_4SFR4EEEvRKNS_19LabeledAxisAccessorE
FNDA:0,_ZN5neml211LabeledAxis12add_variableINS_4SSR4EEEvRKNS_19LabeledAxisAccessorE
FNDA:0,_ZN5neml211LabeledAxis12add_variableINS_4SWR4EEEvRKNS_19LabeledAxisAccessorE
FNDA:0,_ZN5neml211LabeledAxis12add_variableINS_4WFR4EEEvRKNS_19LabeledAxisAccessorE
FNDA:0,_ZN5neml211LabeledAxis12add_variableINS_4WSR4EEEvRKNS_19LabeledAxisAccessorE
FNDA:0,_ZN5neml211LabeledAxis12add_variableINS_4WWR4EEEvRKNS_19LabeledAxisAccessorE
FNDA:0,_ZN5neml211LabeledAxis12add_variableINS_5SFFR4EEEvRKNS_19LabeledAxisAccessorE
FNDA:0,_ZN5neml211LabeledAxis12add_variableINS_5SSFR5EEEvRKNS_19LabeledAxisAccessorE
FNDA:0,_ZN5neml211LabeledAxis12add_variableINS_6SSSSR8EEEvRKNS_19LabeledAxisAccessorE
FNDA:181,_ZN5neml211LabeledAxis12add_variableINS_6ScalarEEEvRKNS_19LabeledAxisAccessorE
FNDA:2618,_ZN5neml211LabeledAxis12setup_layoutEv
FNF:55
FNH:34
DA:32,2364
DA:33,2364
DA:35,2364
DA:38,24809
DA:40,24809
DA:44,2364
DA:46,2364
DA:47,2364
DA:48,2364
DA:49,2364
DA:50,2364
DA:51,2364
DA:52,1697
DA:53,4728
DA:57,4357
DA:59,4357
DA:60,4357
DA:62,4357
DA:64,2119
DA:66,2119
DA:68,2119
DA:71,2238
DA:72,4357
DA:76,317
DA:78,317
DA:79,317
DA:80,317
DA:86,2618
DA:89,2618
DA:91,2618
DA:92,2618
DA:93,2618
DA:94,2618
DA:96,2618
DA:97,2618
DA:98,2618
DA:99,2618
DA:100,2618
DA:103,4569
DA:105,1951
DA:106,1951
DA:107,1951
DA:108,1951
DA:109,1951
DA:113,4252
DA:115,1634
DA:116,1634
DA:117,1634
DA:118,1634
DA:119,1634
DA:120,1634
DA:121,1634
DA:122,1634
DA:125,4082
DA:127,2448
DA:128,2448
DA:129,2448
DA:130,2448
DA:131,2448
DA:134,2448
DA:135,2448
DA:136,2448
DA:137,2448
DA:138,2448
DA:142,2618
DA:143,2618
DA:146,1671
DA:149,1671
DA:150,1648
DA:153,23
DA:154,69
DA:155,46
DA:156,32
DA:157,9
DA:158,23
DA:162,78
DA:164,78
DA:167,78
DA:169,46
DA:170,46
DA:171,36
DA:173,10
DA:174,10
DA:179,10
DA:183,32
DA:184,32
DA:189,32
DA:193,27
DA:195,27
DA:196,27
DA:199,27
DA:201,22
DA:202,22
DA:206,5
DA:211,5
DA:212,5
DA:216,474
DA:219,474
DA:220,465
DA:223,9
DA:224,14
DA:225,5
DA:226,9
DA:230,16942
DA:232,16942
DA:235,16942
DA:236,15963
DA:237,31926
DA:240,979
DA:241,362
DA:243,617
DA:244,617
DA:248,102
DA:250,102
DA:251,102
DA:252,102
DA:253,102
DA:258,204
DA:262,28932
DA:264,28932
DA:265,28932
DA:269,16
DA:271,16
DA:272,16
DA:276,40
DA:278,40
DA:279,40
DA:283,56794
DA:285,56794
DA:286,56794
DA:290,76
DA:293,76
DA:294,44
DA:297,32
DA:299,18
DA:300,18
DA:301,18
DA:302,18
DA:305,14
DA:306,14
DA:307,14
DA:308,14
DA:312,13
DA:314,13
DA:318,27
DA:320,27
DA:322,27
DA:324,27
DA:325,23
DA:327,4
DA:331,17
DA:333,17
DA:334,17
DA:335,17
DA:340,34
DA:344,2
DA:346,2
DA:347,2
DA:351,6693
DA:353,6693
DA:355,6693
DA:356,6693
DA:357,6693
DA:359,6693
DA:360,6689
DA:362,4
DA:366,6605
DA:369,6605
DA:373,9
DA:375,9
DA:376,9
DA:380,3
DA:382,3
DA:383,3
DA:387,14
DA:389,14
DA:392,14
DA:393,10
DA:396,4
DA:397,4
DA:398,4
DA:399,4
DA:400,4
DA:401,4
DA:405,9
DA:407,9
DA:408,9
DA:412,14
DA:414,14
DA:415,14
DA:416,14
DA:418,14
DA:419,10
DA:421,4
DA:425,10
DA:428,10
DA:429,2
DA:432,8
DA:433,0
DA:436,10
DA:438,2
DA:439,0
DA:441,2
DA:442,0
DA:445,8
DA:449,1697
DA:451,1697
DA:452,786
DA:453,911
DA:454,66
DA:455,845
DA:456,160
DA:457,685
DA:458,75
DA:459,610
DA:460,53
DA:461,557
DA:462,55
DA:463,1697
DA:466,85965
DA:468,85965
DA:469,85965
DA:472,0
DA:475,0
DA:478,0
DA:479,0
DA:481,0
DA:482,0
DA:483,0
DA:484,0
DA:487,0
DA:489,0
DA:490,0
DA:491,0
DA:492,0
DA:493,0
DA:494,0
DA:495,0
DA:498,0
DA:499,0
DA:502,6
DA:504,6
DA:508,4
DA:510,4
LF:244
LH:223
end_of_record
TN:
SF:/home/runner/work/neml2/neml2/src/neml2/base/LabeledAxisAccessor.cxx
FN:101,109,_ZNK5neml219LabeledAxisAccessor5sliceEll
FN:112,115,_ZNK5neml219LabeledAxisAccessor7remountERKS0_l
FN:118,121,_ZNK5neml219LabeledAxisAccessor10start_withERKS0_
FN:124,127,_ZNK5neml219LabeledAxisAccessor8is_stateEv
FN:130,133,_ZNK5neml219LabeledAxisAccessor12is_old_stateEv
FN:136,139,_ZNK5neml219LabeledAxisAccessor8is_forceEv
FN:142,145,_ZNK5neml219LabeledAxisAccessor12is_old_forceEv
FN:148,151,_ZNK5neml219LabeledAxisAccessor11is_residualEv
FN:154,157,_ZNK5neml219LabeledAxisAccessor12is_parameterEv
FN:160,169,_ZNK5neml219LabeledAxisAccessor7currentEv
FN:172,181,_ZNK5neml219LabeledAxisAccessor3oldEv
FN:184,192,_ZNK5neml219LabeledAxisAccessor18validate_item_nameERKNSt7__cxx1112basic_stringIcSt11char_traitsIcESaIcEEE
FN:195,198,_ZN5neml2neERKNS_19LabeledAxisAccessorES2_
FN:201,204,_ZN5neml2eqERKNS_19LabeledAxisAccessorES2_
FN:207,210,_ZN5neml2ltERKNS_19LabeledAxisAccessorES2_
FN:213,222,_ZN5neml2lsERSoRKNS_19LabeledAxisAccessorE
FN:34,37,_ZN5neml222reserved_subaxis_namesB5cxx11Ev
FN:39,43,_ZNK5neml219LabeledAxisAccessorcvSt6vectorINSt7__cxx1112basic_stringIcSt11char_traitsIcESaIcEEESaIS7_EEEv
FN:46,49,_ZNK5neml219LabeledAxisAccessor3strB5cxx11Ev
FN:52,55,_ZNK5neml219LabeledAxisAccessor5emptyEv
FN:58,61,_ZNK5neml219LabeledAxisAccessor4sizeEv
FN:64,67,_ZNK5neml219LabeledAxisAccessorixB5cxx11Em
FN:70,75,_ZNK5neml219LabeledAxisAccessor11with_suffixERKNSt7__cxx1112basic_stringIcSt11char_traitsIcESaIcEEE
FN:78,81,_ZNK5neml219LabeledAxisAccessor6appendERKS0_
FN:84,89,_ZNK5neml219LabeledAxisAccessor7prependERKS0_
FN:92,98,_ZNK5neml219LabeledAxisAccessor5sliceEl
FNDA:1603,_ZNK5neml219LabeledAxisAccessor5sliceEll
FNDA:145,_ZNK5neml219LabeledAxisAccessor7remountERKS0_l
FNDA:1601,_ZNK5neml219LabeledAxisAccessor10start_withERKS0_
FNDA:846,_ZNK5neml219LabeledAxisAccessor8is_stateEv
FNDA:166,_ZNK5neml219LabeledAxisAccessor12is_old_stateEv
FNDA:171,_ZNK5neml219LabeledAxisAccessor8is_forceEv
FNDA:48,_ZNK5neml219LabeledAxisAccessor12is_old_forceEv
FNDA:136,_ZNK5neml219LabeledAxisAccessor11is_residualEv
FNDA:90,_ZNK5neml219LabeledAxisAccessor12is_parameterEv
FNDA:0,_ZNK5neml219LabeledAxisAccessor7currentEv
FNDA:91,_ZNK5neml219LabeledAxisAccessor3oldEv
FNDA:90358,_ZNK5neml219LabeledAxisAccessor18validate_item_nameERKNSt7__cxx1112basic_stringIcSt11char_traitsIcESaIcEEE
FNDA:7785,_ZN5neml2neERKNS_19LabeledAxisAccessorES2_
FNDA:70716,_ZN5neml2eqERKNS_19LabeledAxisAccessorES2_
FNDA:514360,_ZN5neml2ltERKNS_19LabeledAxisAccessorES2_
FNDA:2954,_ZN5neml2lsERSoRKNS_19LabeledAxisAccessorE
FNDA:0,_ZN5neml222reserved_subaxis_namesB5cxx11Ev
FNDA:1,_ZNK5neml219LabeledAxisAccessorcvSt6vectorINSt7__cxx1112basic_stringIcSt11char_traitsIcESaIcEEESaIS7_EEEv
FNDA:472,_ZNK5neml219LabeledAxisAccessor3strB5cxx11Ev
FNDA:29379,_ZNK5neml219LabeledAxisAccessor5emptyEv
FNDA:19869,_ZNK5neml219LabeledAxisAccessor4sizeEv
FNDA:18570,_ZNK5neml219LabeledAxisAccessorixB5cxx11Em
FNDA:167,_ZNK5neml219LabeledAxisAccessor11with_suffixERKNSt7__cxx1112basic_stringIcSt11char_traitsIcESaIcEEE
FNDA:2365,_ZNK5neml219LabeledAxisAccessor6appendERKS0_
FNDA:30470,_ZNK5neml219LabeledAxisAccessor7prependERKS0_
FNDA:2868,_ZNK5neml219LabeledAxisAccessor5sliceEl
FNF:26
FNH:24
DA:34,0
DA:36,0
DA:37,0
DA:39,1
DA:41,1
DA:42,1
DA:46,472
DA:48,472
DA:52,29379
DA:54,29379
DA:58,19869
DA:60,19869
DA:64,18570
DA:66,18570
DA:70,167
DA:72,167
DA:73,167
DA:74,334
DA:75,167
DA:78,2365
DA:80,2365
DA:84,30470
DA:86,30470
DA:87,30470
DA:88,60940
DA:89,30470
DA:92,2868
DA:94,2868
DA:95,2868
DA:96,2868
DA:97,5736
DA:98,2868
DA:101,1603
DA:103,1603
DA:104,1603
DA:105,1603
DA:106,1603
DA:107,1603
DA:108,3206
DA:109,1603
DA:112,145
DA:114,145
DA:118,1601
DA:120,1601
DA:124,846
DA:126,846
DA:130,166
DA:132,166
DA:136,171
DA:138,171
DA:142,48
DA:144,48
DA:148,136
DA:150,136
DA:154,90
DA:156,90
DA:160,0
DA:162,0
DA:163,0
DA:164,0
DA:165,0
DA:166,0
DA:167,0
DA:168,0
DA:172,91
DA:174,91
DA:175,91
DA:176,38
DA:177,53
DA:178,53
DA:179,0
DA:180,0
DA:184,90358
DA:186,90358
DA:187,90358
DA:188,90358
DA:192,90357
DA:195,7785
DA:197,7785
DA:201,70716
DA:203,70716
DA:207,514360
DA:209,514360
DA:213,2954
DA:215,9718
DA:217,6764
DA:218,3810
DA:219,6764
DA:221,2954
LF:89
LH:76
end_of_record
TN:
SF:/home/runner/work/neml2/neml2/src/neml2/base/MultiEnumSelection.cxx
FN:32,44,_ZN5neml2lsERSoRKNS_18MultiEnumSelectionE
FN:47,51,_ZN5neml2rsERNSt7__cxx1118basic_stringstreamIcSt11char_traitsIcESaIcEEERNS_18MultiEnumSelectionE
FN:53,58,_ZN5neml218MultiEnumSelectionC2ERKSt6vectorINSt7__cxx1112basic_stringIcSt11char_traitsIcESaIcEEESaIS7_EESB_
FN:60,66,_ZN5neml218MultiEnumSelectionC2ERKSt6vectorINSt7__cxx1112basic_stringIcSt11char_traitsIcESaIcEEESaIS7_EERKS1_IiSaIiEESB_
FN:69,73,_ZNK5neml218MultiEnumSelectioneqERKS0_
FN:76,79,_ZNK5neml218MultiEnumSelectionneERKS0_
FN:82,94,_ZN5neml218MultiEnumSelection6selectERKSt6vectorINSt7__cxx1112basic_stringIcSt11char_traitsIcESaIcEEESaIS7_EE
FNDA:1,_ZN5neml2lsERSoRKNS_18MultiEnumSelectionE
FNDA:37,_ZN5neml2rsERNSt7__cxx1118basic_stringstreamIcSt11char_traitsIcESaIcEEERNS_18MultiEnumSelectionE
FNDA:3,_ZN5neml218MultiEnumSelectionC2ERKSt6vectorINSt7__cxx1112basic_stringIcSt11char_traitsIcESaIcEEESaIS7_EESB_
FNDA:19,_ZN5neml218MultiEnumSelectionC2ERKSt6vectorINSt7__cxx1112basic_stringIcSt11char_traitsIcESaIcEEESaIS7_EERKS1_IiSaIiEESB_
FNDA:4,_ZNK5neml218MultiEnumSelectioneqERKS0_
FNDA:3,_ZNK5neml218MultiEnumSelectionneERKS0_
FNDA:59,_ZN5neml218MultiEnumSelection6selectERKSt6vectorINSt7__cxx1112basic_stringIcSt11char_traitsIcESaIcEEESaIS7_EE
FNF:7
FNH:7
DA:32,1
DA:34,1
DA:35,1
DA:36,3
DA:38,2
DA:39,2
DA:40,1
DA:42,1
DA:43,1
DA:44,1
DA:47,37
DA:49,39
DA:50,36
DA:53,3
DA:54,3
DA:55,3
DA:57,3
DA:58,5
DA:60,19
DA:62,19
DA:63,19
DA:65,19
DA:66,21
DA:69,4
DA:71,5
DA:72,5
DA:76,3
DA:78,3
DA:82,59
DA:84,59
DA:85,59
DA:86,160
DA:88,104
DA:90,211
DA:91,101
DA:92,101
DA:94,56
LF:37
LH:37
end_of_record
TN:
SF:/home/runner/work/neml2/neml2/src/neml2/base/NEML2Object.cxx
FN:33,47,_ZN5neml211NEML2Object16expected_optionsEv
FN:49,55,_ZN5neml211NEML2ObjectC2ERKNS_9OptionSetE
FN:59,65,_ZN5neml211NEML2Object14resolve_tensorINS_10QuaternionEEERKT_RKNSt7__cxx1112basic_stringIcSt11char_traitsIcESaIcEEE
FN:59,65,_ZN5neml211NEML2Object14resolve_tensorINS_11MillerIndexEEERKT_RKNSt7__cxx1112basic_stringIcSt11char_traitsIcESaIcEEE
FN:59,65,_ZN5neml211NEML2Object14resolve_tensorINS_2R2EEERKT_RKNSt7__cxx1112basic_stringIcSt11char_traitsIcESaIcEEE
FN:59,65,_ZN5neml211NEML2Object14resolve_tensorINS_2R3EEERKT_RKNSt7__cxx1112basic_stringIcSt11char_traitsIcESaIcEEE
FN:59,65,_ZN5neml211NEML2Object14resolve_tensorINS_2R4EEERKT_RKNSt7__cxx1112basic_stringIcSt11char_traitsIcESaIcEEE
FN:59,65,_ZN5neml211NEML2Object14resolve_tensorINS_2R5EEERKT_RKNSt7__cxx1112basic_stringIcSt11char_traitsIcESaIcEEE
FN:59,65,_ZN5neml211NEML2Object14resolve_tensorINS_2R8EEERKT_RKNSt7__cxx1112basic_stringIcSt11char_traitsIcESaIcEEE
FN:59,65,_ZN5neml211NEML2Object14resolve_tensorINS_3RotEEERKT_RKNSt7__cxx1112basic_stringIcSt11char_traitsIcESaIcEEE
FN:59,65,_ZN5neml211NEML2Object14resolve_tensorINS_3SR2EEERKT_RKNSt7__cxx1112basic_stringIcSt11char_traitsIcESaIcEEE
FN:59,65,_ZN5neml211NEML2Object14resolve_tensorINS_3VecEEERKT_RKNSt7__cxx1112basic_stringIcSt11char_traitsIcESaIcEEE
FN:59,65,_ZN5neml211NEML2Object14resolve_tensorINS_3WR2EEERKT_RKNSt7__cxx1112basic_stringIcSt11char_traitsIcESaIcEEE
FN:59,65,_ZN5neml211NEML2Object14resolve_tensorINS_4SFR3EEERKT_RKNSt7__cxx1112basic_stringIcSt11char_traitsIcESaIcEEE
FN:59,65,_ZN5neml211NEML2Object14resolve_tensorINS_4SFR4EEERKT_RKNSt7__cxx1112basic_stringIcSt11char_traitsIcESaIcEEE
FN:59,65,_ZN5neml211NEML2Object14resolve_tensorINS_4SSR4EEERKT_RKNSt7__cxx1112basic_stringIcSt11char_traitsIcESaIcEEE
FN:59,65,_ZN5neml211NEML2Object14resolve_tensorINS_4SWR4EEERKT_RKNSt7__cxx1112basic_stringIcSt11char_traitsIcESaIcEEE
FN:59,65,_ZN5neml211NEML2Object14resolve_tensorINS_4WFR4EEERKT_RKNSt7__cxx1112basic_stringIcSt11char_traitsIcESaIcEEE
FN:59,65,_ZN5neml211NEML2Object14resolve_tensorINS_4WSR4EEERKT_RKNSt7__cxx1112basic_stringIcSt11char_traitsIcESaIcEEE
FN:59,65,_ZN5neml211NEML2Object14resolve_tensorINS_4WWR4EEERKT_RKNSt7__cxx1112basic_stringIcSt11char_traitsIcESaIcEEE
FN:59,65,_ZN5neml211NEML2Object14resolve_tensorINS_5SFFR4EEERKT_RKNSt7__cxx1112basic_stringIcSt11char_traitsIcESaIcEEE
FN:59,65,_ZN5neml211NEML2Object14resolve_tensorINS_5SSFR5EEERKT_RKNSt7__cxx1112basic_stringIcSt11char_traitsIcESaIcEEE
FN:59,65,_ZN5neml211NEML2Object14resolve_tensorINS_6SSSSR8EEERKT_RKNSt7__cxx1112basic_stringIcSt11char_traitsIcESaIcEEE
FN:59,65,_ZN5neml211NEML2Object14resolve_tensorINS_6ScalarEEERKT_RKNSt7__cxx1112basic_stringIcSt11char_traitsIcESaIcEEE
FN:59,65,_ZN5neml211NEML2Object14resolve_tensorINS_6TensorEEERKT_RKNSt7__cxx1112basic_stringIcSt11char_traitsIcESaIcEEE
FNDA:964,_ZN5neml211NEML2Object16expected_optionsEv
FNDA:1650,_ZN5neml211NEML2ObjectC2ERKNS_9OptionSetE
FNDA:0,_ZN5neml211NEML2Object14resolve_tensorINS_10QuaternionEEERKT_RKNSt7__cxx1112basic_stringIcSt11char_traitsIcESaIcEEE
FNDA:0,_ZN5neml211NEML2Object14resolve_tensorINS_11MillerIndexEEERKT_RKNSt7__cxx1112basic_stringIcSt11char_traitsIcESaIcEEE
FNDA:0,_ZN5neml211NEML2Object14resolve_tensorINS_2R2EEERKT_RKNSt7__cxx1112basic_stringIcSt11char_traitsIcESaIcEEE
FNDA:0,_ZN5neml211NEML2Object14resolve_tensorINS_2R3EEERKT_RKNSt7__cxx1112basic_stringIcSt11char_traitsIcESaIcEEE
FNDA:0,_ZN5neml211NEML2Object14resolve_tensorINS_2R4EEERKT_RKNSt7__cxx1112basic_stringIcSt11char_traitsIcESaIcEEE
FNDA:0,_ZN5neml211NEML2Object14resolve_tensorINS_2R5EEERKT_RKNSt7__cxx1112basic_stringIcSt11char_traitsIcESaIcEEE
FNDA:0,_ZN5neml211NEML2Object14resolve_tensorINS_2R8EEERKT_RKNSt7__cxx1112basic_stringIcSt11char_traitsIcESaIcEEE
FNDA:0,_ZN5neml211NEML2Object14resolve_tensorINS_3RotEEERKT_RKNSt7__cxx1112basic_stringIcSt11char_traitsIcESaIcEEE
FNDA:8,_ZN5neml211NEML2Object14resolve_tensorINS_3SR2EEERKT_RKNSt7__cxx1112basic_stringIcSt11char_traitsIcESaIcEEE
FNDA:0,_ZN5neml211NEML2Object14resolve_tensorINS_3VecEEERKT_RKNSt7__cxx1112basic_stringIcSt11char_traitsIcESaIcEEE
FNDA:1,_ZN5neml211NEML2Object14resolve_tensorINS_3WR2EEERKT_RKNSt7__cxx1112basic_stringIcSt11char_traitsIcESaIcEEE
FNDA:0,_ZN5neml211NEML2Object14resolve_tensorINS_4SFR3EEERKT_RKNSt7__cxx1112basic_stringIcSt11char_traitsIcESaIcEEE
FNDA:0,_ZN5neml211NEML2Object14resolve_tensorINS_4SFR4EEERKT_RKNSt7__cxx1112basic_stringIcSt11char_traitsIcESaIcEEE
FNDA:0,_ZN5neml211NEML2Object14resolve_tensorINS_4SSR4EEERKT_RKNSt7__cxx1112basic_stringIcSt11char_traitsIcESaIcEEE
FNDA:0,_ZN5neml211NEML2Object14resolve_tensorINS_4SWR4EEERKT_RKNSt7__cxx1112basic_stringIcSt11char_traitsIcESaIcEEE
FNDA:0,_ZN5neml211NEML2Object14resolve_tensorINS_4WFR4EEERKT_RKNSt7__cxx1112basic_stringIcSt11char_traitsIcESaIcEEE
FNDA:0,_ZN5neml211NEML2Object14resolve_tensorINS_4WSR4EEERKT_RKNSt7__cxx1112basic_stringIcSt11char_traitsIcESaIcEEE
FNDA:0,_ZN5neml211NEML2Object14resolve_tensorINS_4WWR4EEERKT_RKNSt7__cxx1112basic_stringIcSt11char_traitsIcESaIcEEE
FNDA:0,_ZN5neml211NEML2Object14resolve_tensorINS_5SFFR4EEERKT_RKNSt7__cxx1112basic_stringIcSt11char_traitsIcESaIcEEE
FNDA:0,_ZN5neml211NEML2Object14resolve_tensorINS_5SSFR5EEERKT_RKNSt7__cxx1112basic_stringIcSt11char_traitsIcESaIcEEE
FNDA:0,_ZN5neml211NEML2Object14resolve_tensorINS_6SSSSR8EEERKT_RKNSt7__cxx1112basic_stringIcSt11char_traitsIcESaIcEEE
FNDA:8,_ZN5neml211NEML2Object14resolve_tensorINS_6ScalarEEERKT_RKNSt7__cxx1112basic_stringIcSt11char_traitsIcESaIcEEE
FNDA:0,_ZN5neml211NEML2Object14resolve_tensorINS_6TensorEEERKT_RKNSt7__cxx1112basic_stringIcSt11char_traitsIcESaIcEEE
FNF:25
FNH:5
DA:33,964
DA:35,964
DA:37,1928
DA:38,964
DA:40,2892
DA:41,1928
DA:43,1928
DA:44,964
DA:46,964
DA:47,0
DA:49,1650
DA:50,1650
DA:51,3300
DA:52,3300
DA:53,3300
DA:55,1650
DA:59,17
DA:61,17
DA:62,0
DA:63,0
DA:64,17
LF:21
LH:18
end_of_record
TN:
SF:/home/runner/work/neml2/neml2/src/neml2/base/Option.cxx
FN:153,156,_ZN5neml27details13_print_helperIcEEvRSoPKT_
FN:160,163,_ZN5neml27details13_print_helperIhEEvRSoPKT_
FN:167,171,_ZN5neml27details13_print_helperIbEEvRSoPKSt6vectorIT_SaIS4_EE
FN:40,45,_ZN5neml26OptionIN3c1011SmallVectorIlLj8EEEEC2ERKNSt7__cxx1112basic_stringIcSt11char_traitsIcESaIcEEE
FN:40,45,_ZN5neml26OptionINS_10TensorNameIN2at6TensorEEEEC2ERKNSt7__cxx1112basic_stringIcSt11char_traitsIcESaIcEEE
FN:40,45,_ZN5neml26OptionINS_10TensorNameINS_10QuaternionEEEEC2ERKNSt7__cxx1112basic_stringIcSt11char_traitsIcESaIcEEE
FN:40,45,_ZN5neml26OptionINS_10TensorNameINS_11MillerIndexEEEEC2ERKNSt7__cxx1112basic_stringIcSt11char_traitsIcESaIcEEE
FN:40,45,_ZN5neml26OptionINS_10TensorNameINS_2R2EEEEC2ERKNSt7__cxx1112basic_stringIcSt11char_traitsIcESaIcEEE
FN:40,45,_ZN5neml26OptionINS_10TensorNameINS_2R3EEEEC2ERKNSt7__cxx1112basic_stringIcSt11char_traitsIcESaIcEEE
FN:40,45,_ZN5neml26OptionINS_10TensorNameINS_2R4EEEEC2ERKNSt7__cxx1112basic_stringIcSt11char_traitsIcESaIcEEE
FN:40,45,_ZN5neml26OptionINS_10TensorNameINS_2R5EEEEC2ERKNSt7__cxx1112basic_stringIcSt11char_traitsIcESaIcEEE
FN:40,45,_ZN5neml26OptionINS_10TensorNameINS_2R8EEEEC2ERKNSt7__cxx1112basic_stringIcSt11char_traitsIcESaIcEEE
FN:40,45,_ZN5neml26OptionINS_10TensorNameINS_3RotEEEEC2ERKNSt7__cxx1112basic_stringIcSt11char_traitsIcESaIcEEE
FN:40,45,_ZN5neml26OptionINS_10TensorNameINS_3SR2EEEEC2ERKNSt7__cxx1112basic_stringIcSt11char_traitsIcESaIcEEE
FN:40,45,_ZN5neml26OptionINS_10TensorNameINS_3VecEEEEC2ERKNSt7__cxx1112basic_stringIcSt11char_traitsIcESaIcEEE
FN:40,45,_ZN5neml26OptionINS_10TensorNameINS_3WR2EEEEC2ERKNSt7__cxx1112basic_stringIcSt11char_traitsIcESaIcEEE
FN:40,45,_ZN5neml26OptionINS_10TensorNameINS_4SFR3EEEEC2ERKNSt7__cxx1112basic_stringIcSt11char_traitsIcESaIcEEE
FN:40,45,_ZN5neml26OptionINS_10TensorNameINS_4SFR4EEEEC2ERKNSt7__cxx1112basic_stringIcSt11char_traitsIcESaIcEEE
FN:40,45,_ZN5neml26OptionINS_10TensorNameINS_4SSR4EEEEC2ERKNSt7__cxx1112basic_stringIcSt11char_traitsIcESaIcEEE
FN:40,45,_ZN5neml26OptionINS_10TensorNameINS_4SWR4EEEEC2ERKNSt7__cxx1112basic_stringIcSt11char_traitsIcESaIcEEE
FN:40,45,_ZN5neml26OptionINS_10TensorNameINS_4WFR4EEEEC2ERKNSt7__cxx1112basic_stringIcSt11char_traitsIcESaIcEEE
FN:40,45,_ZN5neml26OptionINS_10TensorNameINS_4WSR4EEEEC2ERKNSt7__cxx1112basic_stringIcSt11char_traitsIcESaIcEEE
FN:40,45,_ZN5neml26OptionINS_10TensorNameINS_4WWR4EEEEC2ERKNSt7__cxx1112basic_stringIcSt11char_traitsIcESaIcEEE
FN:40,45,_ZN5neml26OptionINS_10TensorNameINS_5SFFR4EEEEC2ERKNSt7__cxx1112basic_stringIcSt11char_traitsIcESaIcEEE
FN:40,45,_ZN5neml26OptionINS_10TensorNameINS_5SSFR5EEEEC2ERKNSt7__cxx1112basic_stringIcSt11char_traitsIcESaIcEEE
FN:40,45,_ZN5neml26OptionINS_10TensorNameINS_6SSSSR8EEEEC2ERKNSt7__cxx1112basic_stringIcSt11char_traitsIcESaIcEEE
FN:40,45,_ZN5neml26OptionINS_10TensorNameINS_6ScalarEEEEC2ERKNSt7__cxx1112basic_stringIcSt11char_traitsIcESaIcEEE
FN:40,45,_ZN5neml26OptionINS_10TensorNameINS_6TensorEEEEC2ERKNSt7__cxx1112basic_stringIcSt11char_traitsIcESaIcEEE
FN:40,45,_ZN5neml26OptionINS_13EnumSelectionEEC2ERKNSt7__cxx1112basic_stringIcSt11char_traitsIcESaIcEEE
FN:40,45,_ZN5neml26OptionINS_18MultiEnumSelectionEEC2ERKNSt7__cxx1112basic_stringIcSt11char_traitsIcESaIcEEE
FN:40,45,_ZN5neml26OptionINS_19LabeledAxisAccessorEEC2ERKNSt7__cxx1112basic_stringIcSt11char_traitsIcESaIcEEE
FN:40,45,_ZN5neml26OptionINSt7__cxx1112basic_stringIcSt11char_traitsIcESaIcEEEEC2ERKS6_
FN:40,45,_ZN5neml26OptionIPNS_11NEML2ObjectEEC2ERKNSt7__cxx1112basic_stringIcSt11char_traitsIcESaIcEEE
FN:40,45,_ZN5neml26OptionIPNS_7FactoryEEC2ERKNSt7__cxx1112basic_stringIcSt11char_traitsIcESaIcEEE
FN:40,45,_ZN5neml26OptionISt10shared_ptrINS_8SettingsEEEC2ERKNSt7__cxx1112basic_stringIcSt11char_traitsIcESaIcEEE
FN:40,45,_ZN5neml26OptionISt6vectorIN3c1011SmallVectorIlLj8EEESaIS4_EEEC2ERKNSt7__cxx1112basic_stringIcSt11char_traitsIcESaIcEEE
FN:40,45,_ZN5neml26OptionISt6vectorIN3c106DeviceESaIS3_EEEC2ERKNSt7__cxx1112basic_stringIcSt11char_traitsIcESaIcEEE
FN:40,45,_ZN5neml26OptionISt6vectorINS_10TensorNameIN2at6TensorEEESaIS5_EEEC2ERKNSt7__cxx1112basic_stringIcSt11char_traitsIcESaIcEEE
FN:40,45,_ZN5neml26OptionISt6vectorINS_10TensorNameINS_10QuaternionEEESaIS4_EEEC2ERKNSt7__cxx1112basic_stringIcSt11char_traitsIcESaIcEEE
FN:40,45,_ZN5neml26OptionISt6vectorINS_10TensorNameINS_11MillerIndexEEESaIS4_EEEC2ERKNSt7__cxx1112basic_stringIcSt11char_traitsIcESaIcEEE
FN:40,45,_ZN5neml26OptionISt6vectorINS_10TensorNameINS_2R2EEESaIS4_EEEC2ERKNSt7__cxx1112basic_stringIcSt11char_traitsIcESaIcEEE
FN:40,45,_ZN5neml26OptionISt6vectorINS_10TensorNameINS_2R3EEESaIS4_EEEC2ERKNSt7__cxx1112basic_stringIcSt11char_traitsIcESaIcEEE
FN:40,45,_ZN5neml26OptionISt6vectorINS_10TensorNameINS_2R4EEESaIS4_EEEC2ERKNSt7__cxx1112basic_stringIcSt11char_traitsIcESaIcEEE
FN:40,45,_ZN5neml26OptionISt6vectorINS_10TensorNameINS_2R5EEESaIS4_EEEC2ERKNSt7__cxx1112basic_stringIcSt11char_traitsIcESaIcEEE
FN:40,45,_ZN5neml26OptionISt6vectorINS_10TensorNameINS_2R8EEESaIS4_EEEC2ERKNSt7__cxx1112basic_stringIcSt11char_traitsIcESaIcEEE
FN:40,45,_ZN5neml26OptionISt6vectorINS_10TensorNameINS_3RotEEESaIS4_EEEC2ERKNSt7__cxx1112basic_stringIcSt11char_traitsIcESaIcEEE
FN:40,45,_ZN5neml26OptionISt6vectorINS_10TensorNameINS_3SR2EEESaIS4_EEEC2ERKNSt7__cxx1112basic_stringIcSt11char_traitsIcESaIcEEE
FN:40,45,_ZN5neml26OptionISt6vectorINS_10TensorNameINS_3VecEEESaIS4_EEEC2ERKNSt7__cxx1112basic_stringIcSt11char_traitsIcESaIcEEE
FN:40,45,_ZN5neml26OptionISt6vectorINS_10TensorNameINS_3WR2EEESaIS4_EEEC2ERKNSt7__cxx1112basic_stringIcSt11char_traitsIcESaIcEEE
FN:40,45,_ZN5neml26OptionISt6vectorINS_10TensorNameINS_4SFR3EEESaIS4_EEEC2ERKNSt7__cxx1112basic_stringIcSt11char_traitsIcESaIcEEE
FN:40,45,_ZN5neml26OptionISt6vectorINS_10TensorNameINS_4SFR4EEESaIS4_EEEC2ERKNSt7__cxx1112basic_stringIcSt11char_traitsIcESaIcEEE
FN:40,45,_ZN5neml26OptionISt6vectorINS_10TensorNameINS_4SSR4EEESaIS4_EEEC2ERKNSt7__cxx1112basic_stringIcSt11char_traitsIcESaIcEEE
FN:40,45,_ZN5neml26OptionISt6vectorINS_10TensorNameINS_4SWR4EEESaIS4_EEEC2ERKNSt7__cxx1112basic_stringIcSt11char_traitsIcESaIcEEE
FN:40,45,_ZN5neml26OptionISt6vectorINS_10TensorNameINS_4WFR4EEESaIS4_EEEC2ERKNSt7__cxx1112basic_stringIcSt11char_traitsIcESaIcEEE
FN:40,45,_ZN5neml26OptionISt6vectorINS_10TensorNameINS_4WSR4EEESaIS4_EEEC2ERKNSt7__cxx1112basic_stringIcSt11char_traitsIcESaIcEEE
FN:40,45,_ZN5neml26OptionISt6vectorINS_10TensorNameINS_4WWR4EEESaIS4_EEEC2ERKNSt7__cxx1112basic_stringIcSt11char_traitsIcESaIcEEE
FN:40,45,_ZN5neml26OptionISt6vectorINS_10TensorNameINS_5SFFR4EEESaIS4_EEEC2ERKNSt7__cxx1112basic_stringIcSt11char_traitsIcESaIcEEE
FN:40,45,_ZN5neml26OptionISt6vectorINS_10TensorNameINS_5SSFR5EEESaIS4_EEEC2ERKNSt7__cxx1112basic_stringIcSt11char_traitsIcESaIcEEE
FN:40,45,_ZN5neml26OptionISt6vectorINS_10TensorNameINS_6SSSSR8EEESaIS4_EEEC2ERKNSt7__cxx1112basic_stringIcSt11char_traitsIcESaIcEEE
FN:40,45,_ZN5neml26OptionISt6vectorINS_10TensorNameINS_6ScalarEEESaIS4_EEEC2ERKNSt7__cxx1112basic_stringIcSt11char_traitsIcESaIcEEE
FN:40,45,_ZN5neml26OptionISt6vectorINS_10TensorNameINS_6TensorEEESaIS4_EEEC2ERKNSt7__cxx1112basic_stringIcSt11char_traitsIcESaIcEEE
FN:40,45,_ZN5neml26OptionISt6vectorINS_19LabeledAxisAccessorESaIS2_EEEC2ERKNSt7__cxx1112basic_stringIcSt11char_traitsIcESaIcEEE
FN:40,45,_ZN5neml26OptionISt6vectorINSt7__cxx1112basic_stringIcSt11char_traitsIcESaIcEEESaIS7_EEEC2ERKS7_
FN:40,45,_ZN5neml26OptionISt6vectorIS1_IN3c1011SmallVectorIlLj8EEESaIS4_EESaIS6_EEEC2ERKNSt7__cxx1112basic_stringIcSt11char_traitsIcESaIcEEE
FN:40,45,_ZN5neml26OptionISt6vectorIS1_IN3c106DeviceESaIS3_EESaIS5_EEEC2ERKNSt7__cxx1112basic_stringIcSt11char_traitsIcESaIcEEE
FN:40,45,_ZN5neml26OptionISt6vectorIS1_INS_10TensorNameIN2at6TensorEEESaIS5_EESaIS7_EEEC2ERKNSt7__cxx1112basic_stringIcSt11char_traitsIcESaIcEEE
FN:40,45,_ZN5neml26OptionISt6vectorIS1_INS_10TensorNameINS_10QuaternionEEESaIS4_EESaIS6_EEEC2ERKNSt7__cxx1112basic_stringIcSt11char_traitsIcESaIcEEE
FN:40,45,_ZN5neml26OptionISt6vectorIS1_INS_10TensorNameINS_11MillerIndexEEESaIS4_EESaIS6_EEEC2ERKNSt7__cxx1112basic_stringIcSt11char_traitsIcESaIcEEE
FN:40,45,_ZN5neml26OptionISt6vectorIS1_INS_10TensorNameINS_2R2EEESaIS4_EESaIS6_EEEC2ERKNSt7__cxx1112basic_stringIcSt11char_traitsIcESaIcEEE
FN:40,45,_ZN5neml26OptionISt6vectorIS1_INS_10TensorNameINS_2R3EEESaIS4_EESaIS6_EEEC2ERKNSt7__cxx1112basic_stringIcSt11char_traitsIcESaIcEEE
FN:40,45,_ZN5neml26OptionISt6vectorIS1_INS_10TensorNameINS_2R4EEESaIS4_EESaIS6_EEEC2ERKNSt7__cxx1112basic_stringIcSt11char_traitsIcESaIcEEE
FN:40,45,_ZN5neml26OptionISt6vectorIS1_INS_10TensorNameINS_2R5EEESaIS4_EESaIS6_EEEC2ERKNSt7__cxx1112basic_stringIcSt11char_traitsIcESaIcEEE
FN:40,45,_ZN5neml26OptionISt6vectorIS1_INS_10TensorNameINS_2R8EEESaIS4_EESaIS6_EEEC2ERKNSt7__cxx1112basic_stringIcSt11char_traitsIcESaIcEEE
FN:40,45,_ZN5neml26OptionISt6vectorIS1_INS_10TensorNameINS_3RotEEESaIS4_EESaIS6_EEEC2ERKNSt7__cxx1112basic_stringIcSt11char_traitsIcESaIcEEE
FN:40,45,_ZN5neml26OptionISt6vectorIS1_INS_10TensorNameINS_3SR2EEESaIS4_EESaIS6_EEEC2ERKNSt7__cxx1112basic_stringIcSt11char_traitsIcESaIcEEE
FN:40,45,_ZN5neml26OptionISt6vectorIS1_INS_10TensorNameINS_3VecEEESaIS4_EESaIS6_EEEC2ERKNSt7__cxx1112basic_stringIcSt11char_traitsIcESaIcEEE
FN:40,45,_ZN5neml26OptionISt6vectorIS1_INS_10TensorNameINS_3WR2EEESaIS4_EESaIS6_EEEC2ERKNSt7__cxx1112basic_stringIcSt11char_traitsIcESaIcEEE
FN:40,45,_ZN5neml26OptionISt6vectorIS1_INS_10TensorNameINS_4SFR3EEESaIS4_EESaIS6_EEEC2ERKNSt7__cxx1112basic_stringIcSt11char_traitsIcESaIcEEE
FN:40,45,_ZN5neml26OptionISt6vectorIS1_INS_10TensorNameINS_4SFR4EEESaIS4_EESaIS6_EEEC2ERKNSt7__cxx1112basic_stringIcSt11char_traitsIcESaIcEEE
FN:40,45,_ZN5neml26OptionISt6vectorIS1_INS_10TensorNameINS_4SSR4EEESaIS4_EESaIS6_EEEC2ERKNSt7__cxx1112basic_stringIcSt11char_traitsIcESaIcEEE
FN:40,45,_ZN5neml26OptionISt6vectorIS1_INS_10TensorNameINS_4SWR4EEESaIS4_EESaIS6_EEEC2ERKNSt7__cxx1112basic_stringIcSt11char_traitsIcESaIcEEE
FN:40,45,_ZN5neml26OptionISt6vectorIS1_INS_10TensorNameINS_4WFR4EEESaIS4_EESaIS6_EEEC2ERKNSt7__cxx1112basic_stringIcSt11char_traitsIcESaIcEEE
FN:40,45,_ZN5neml26OptionISt6vectorIS1_INS_10TensorNameINS_4WSR4EEESaIS4_EESaIS6_EEEC2ERKNSt7__cxx1112basic_stringIcSt11char_traitsIcESaIcEEE
FN:40,45,_ZN5neml26OptionISt6vectorIS1_INS_10TensorNameINS_4WWR4EEESaIS4_EESaIS6_EEEC2ERKNSt7__cxx1112basic_stringIcSt11char_traitsIcESaIcEEE
FN:40,45,_ZN5neml26OptionISt6vectorIS1_INS_10TensorNameINS_5SFFR4EEESaIS4_EESaIS6_EEEC2ERKNSt7__cxx1112basic_stringIcSt11char_traitsIcESaIcEEE
FN:40,45,_ZN5neml26OptionISt6vectorIS1_INS_10TensorNameINS_5SSFR5EEESaIS4_EESaIS6_EEEC2ERKNSt7__cxx1112basic_stringIcSt11char_traitsIcESaIcEEE
FN:40,45,_ZN5neml26OptionISt6vectorIS1_INS_10TensorNameINS_6SSSSR8EEESaIS4_EESaIS6_EEEC2ERKNSt7__cxx1112basic_stringIcSt11char_traitsIcESaIcEEE
FN:40,45,_ZN5neml26OptionISt6vectorIS1_INS_10TensorNameINS_6ScalarEEESaIS4_EESaIS6_EEEC2ERKNSt7__cxx1112basic_stringIcSt11char_traitsIcESaIcEEE
FN:40,45,_ZN5neml26OptionISt6vectorIS1_INS_10TensorNameINS_6TensorEEESaIS4_EESaIS6_EEEC2ERKNSt7__cxx1112basic_stringIcSt11char_traitsIcESaIcEEE
FN:40,45,_ZN5neml26OptionISt6vectorIS1_INS_19LabeledAxisAccessorESaIS2_EESaIS4_EEEC2ERKNSt7__cxx1112basic_stringIcSt11char_traitsIcESaIcEEE
FN:40,45,_ZN5neml26OptionISt6vectorIS1_INSt7__cxx1112basic_stringIcSt11char_traitsIcESaIcEEESaIS7_EESaIS9_EEEC2ERKS7_
FN:40,45,_ZN5neml26OptionISt6vectorIS1_IbSaIbEESaIS3_EEEC2ERKNSt7__cxx1112basic_stringIcSt11char_traitsIcESaIcEEE
FN:40,45,_ZN5neml26OptionISt6vectorIS1_IdSaIdEESaIS3_EEEC2ERKNSt7__cxx1112basic_stringIcSt11char_traitsIcESaIcEEE
FN:40,45,_ZN5neml26OptionISt6vectorIS1_IiSaIiEESaIS3_EEEC2ERKNSt7__cxx1112basic_stringIcSt11char_traitsIcESaIcEEE
FN:40,45,_ZN5neml26OptionISt6vectorIS1_IjSaIjEESaIS3_EEEC2ERKNSt7__cxx1112basic_stringIcSt11char_traitsIcESaIcEEE
FN:40,45,_ZN5neml26OptionISt6vectorIS1_IlSaIlEESaIS3_EEEC2ERKNSt7__cxx1112basic_stringIcSt11char_traitsIcESaIcEEE
FN:40,45,_ZN5neml26OptionISt6vectorIS1_ImSaImEESaIS3_EEEC2ERKNSt7__cxx1112basic_stringIcSt11char_traitsIcESaIcEEE
FN:40,45,_ZN5neml26OptionISt6vectorIbSaIbEEEC2ERKNSt7__cxx1112basic_stringIcSt11char_traitsIcESaIcEEE
FN:40,45,_ZN5neml26OptionISt6vectorIdSaIdEEEC2ERKNSt7__cxx1112basic_stringIcSt11char_traitsIcESaIcEEE
FN:40,45,_ZN5neml26OptionISt6vectorIiSaIiEEEC2ERKNSt7__cxx1112basic_stringIcSt11char_traitsIcESaIcEEE
FN:40,45,_ZN5neml26OptionISt6vectorIjSaIjEEEC2ERKNSt7__cxx1112basic_stringIcSt11char_traitsIcESaIcEEE
FN:40,45,_ZN5neml26OptionISt6vectorIlSaIlEEEC2ERKNSt7__cxx1112basic_stringIcSt11char_traitsIcESaIcEEE
FN:40,45,_ZN5neml26OptionISt6vectorImSaImEEEC2ERKNSt7__cxx1112basic_stringIcSt11char_traitsIcESaIcEEE
FN:40,45,_ZN5neml26OptionIbEC2ERKNSt7__cxx1112basic_stringIcSt11char_traitsIcESaIcEEE
FN:40,45,_ZN5neml26OptionIdEC2ERKNSt7__cxx1112basic_stringIcSt11char_traitsIcESaIcEEE
FN:40,45,_ZN5neml26OptionIiEC2ERKNSt7__cxx1112basic_stringIcSt11char_traitsIcESaIcEEE
FN:40,45,_ZN5neml26OptionIjEC2ERKNSt7__cxx1112basic_stringIcSt11char_traitsIcESaIcEEE
FN:40,45,_ZN5neml26OptionIlEC2ERKNSt7__cxx1112basic_stringIcSt11char_traitsIcESaIcEEE
FN:40,45,_ZN5neml26OptionImEC2ERKNSt7__cxx1112basic_stringIcSt11char_traitsIcESaIcEEE
FN:48,53,_ZN5neml26OptionIN3c106DeviceEEC2ERKNSt7__cxx1112basic_stringIcSt11char_traitsIcESaIcEEE
FN:57,64,_ZNK5neml26OptionIN3c1011SmallVectorIlLj8EEEEeqERKNS_10OptionBaseE
FN:57,64,_ZNK5neml26OptionIN3c106DeviceEEeqERKNS_10OptionBaseE
FN:57,64,_ZNK5neml26OptionINS_10TensorNameIN2at6TensorEEEEeqERKNS_10OptionBaseE
FN:57,64,_ZNK5neml26OptionINS_10TensorNameINS_10QuaternionEEEEeqERKNS_10OptionBaseE
FN:57,64,_ZNK5neml26OptionINS_10TensorNameINS_11MillerIndexEEEEeqERKNS_10OptionBaseE
FN:57,64,_ZNK5neml26OptionINS_10TensorNameINS_2R2EEEEeqERKNS_10OptionBaseE
FN:57,64,_ZNK5neml26OptionINS_10TensorNameINS_2R3EEEEeqERKNS_10OptionBaseE
FN:57,64,_ZNK5neml26OptionINS_10TensorNameINS_2R4EEEEeqERKNS_10OptionBaseE
FN:57,64,_ZNK5neml26OptionINS_10TensorNameINS_2R5EEEEeqERKNS_10OptionBaseE
FN:57,64,_ZNK5neml26OptionINS_10TensorNameINS_2R8EEEEeqERKNS_10OptionBaseE
FN:57,64,_ZNK5neml26OptionINS_10TensorNameINS_3RotEEEEeqERKNS_10OptionBaseE
FN:57,64,_ZNK5neml26OptionINS_10TensorNameINS_3SR2EEEEeqERKNS_10OptionBaseE
FN:57,64,_ZNK5neml26OptionINS_10TensorNameINS_3VecEEEEeqERKNS_10OptionBaseE
FN:57,64,_ZNK5neml26OptionINS_10TensorNameINS_3WR2EEEEeqERKNS_10OptionBaseE
FN:57,64,_ZNK5neml26OptionINS_10TensorNameINS_4SFR3EEEEeqERKNS_10OptionBaseE
FN:57,64,_ZNK5neml26OptionINS_10TensorNameINS_4SFR4EEEEeqERKNS_10OptionBaseE
FN:57,64,_ZNK5neml26OptionINS_10TensorNameINS_4SSR4EEEEeqERKNS_10OptionBaseE
FN:57,64,_ZNK5neml26OptionINS_10TensorNameINS_4SWR4EEEEeqERKNS_10OptionBaseE
FN:57,64,_ZNK5neml26OptionINS_10TensorNameINS_4WFR4EEEEeqERKNS_10OptionBaseE
FN:57,64,_ZNK5neml26OptionINS_10TensorNameINS_4WSR4EEEEeqERKNS_10OptionBaseE
FN:57,64,_ZNK5neml26OptionINS_10TensorNameINS_4WWR4EEEEeqERKNS_10OptionBaseE
FN:57,64,_ZNK5neml26OptionINS_10TensorNameINS_5SFFR4EEEEeqERKNS_10OptionBaseE
FN:57,64,_ZNK5neml26OptionINS_10TensorNameINS_5SSFR5EEEEeqERKNS_10OptionBaseE
FN:57,64,_ZNK5neml26OptionINS_10TensorNameINS_6SSSSR8EEEEeqERKNS_10OptionBaseE
FN:57,64,_ZNK5neml26OptionINS_10TensorNameINS_6ScalarEEEEeqERKNS_10OptionBaseE
FN:57,64,_ZNK5neml26OptionINS_10TensorNameINS_6TensorEEEEeqERKNS_10OptionBaseE
FN:57,64,_ZNK5neml26OptionINS_13EnumSelectionEEeqERKNS_10OptionBaseE
FN:57,64,_ZNK5neml26OptionINS_18MultiEnumSelectionEEeqERKNS_10OptionBaseE
FN:57,64,_ZNK5neml26OptionINS_19LabeledAxisAccessorEEeqERKNS_10OptionBaseE
FN:57,64,_ZNK5neml26OptionINSt7__cxx1112basic_stringIcSt11char_traitsIcESaIcEEEEeqERKNS_10OptionBaseE
FN:57,64,_ZNK5neml26OptionIPNS_11NEML2ObjectEEeqERKNS_10OptionBaseE
FN:57,64,_ZNK5neml26OptionIPNS_7FactoryEEeqERKNS_10OptionBaseE
FN:57,64,_ZNK5neml26OptionISt10shared_ptrINS_8SettingsEEEeqERKNS_10OptionBaseE
FN:57,64,_ZNK5neml26OptionISt6vectorIN3c1011SmallVectorIlLj8EEESaIS4_EEEeqERKNS_10OptionBaseE
FN:57,64,_ZNK5neml26OptionISt6vectorIN3c106DeviceESaIS3_EEEeqERKNS_10OptionBaseE
FN:57,64,_ZNK5neml26OptionISt6vectorINS_10TensorNameIN2at6TensorEEESaIS5_EEEeqERKNS_10OptionBaseE
FN:57,64,_ZNK5neml26OptionISt6vectorINS_10TensorNameINS_10QuaternionEEESaIS4_EEEeqERKNS_10OptionBaseE
FN:57,64,_ZNK5neml26OptionISt6vectorINS_10TensorNameINS_11MillerIndexEEESaIS4_EEEeqERKNS_10OptionBaseE
FN:57,64,_ZNK5neml26OptionISt6vectorINS_10TensorNameINS_2R2EEESaIS4_EEEeqERKNS_10OptionBaseE
FN:57,64,_ZNK5neml26OptionISt6vectorINS_10TensorNameINS_2R3EEESaIS4_EEEeqERKNS_10OptionBaseE
FN:57,64,_ZNK5neml26OptionISt6vectorINS_10TensorNameINS_2R4EEESaIS4_EEEeqERKNS_10OptionBaseE
FN:57,64,_ZNK5neml26OptionISt6vectorINS_10TensorNameINS_2R5EEESaIS4_EEEeqERKNS_10OptionBaseE
FN:57,64,_ZNK5neml26OptionISt6vectorINS_10TensorNameINS_2R8EEESaIS4_EEEeqERKNS_10OptionBaseE
FN:57,64,_ZNK5neml26OptionISt6vectorINS_10TensorNameINS_3RotEEESaIS4_EEEeqERKNS_10OptionBaseE
FN:57,64,_ZNK5neml26OptionISt6vectorINS_10TensorNameINS_3SR2EEESaIS4_EEEeqERKNS_10OptionBaseE
FN:57,64,_ZNK5neml26OptionISt6vectorINS_10TensorNameINS_3VecEEESaIS4_EEEeqERKNS_10OptionBaseE
FN:57,64,_ZNK5neml26OptionISt6vectorINS_10TensorNameINS_3WR2EEESaIS4_EEEeqERKNS_10OptionBaseE
FN:57,64,_ZNK5neml26OptionISt6vectorINS_10TensorNameINS_4SFR3EEESaIS4_EEEeqERKNS_10OptionBaseE
FN:57,64,_ZNK5neml26OptionISt6vectorINS_10TensorNameINS_4SFR4EEESaIS4_EEEeqERKNS_10OptionBaseE
FN:57,64,_ZNK5neml26OptionISt6vectorINS_10TensorNameINS_4SSR4EEESaIS4_EEEeqERKNS_10OptionBaseE
FN:57,64,_ZNK5neml26OptionISt6vectorINS_10TensorNameINS_4SWR4EEESaIS4_EEEeqERKNS_10OptionBaseE
FN:57,64,_ZNK5neml26OptionISt6vectorINS_10TensorNameINS_4WFR4EEESaIS4_EEEeqERKNS_10OptionBaseE
FN:57,64,_ZNK5neml26OptionISt6vectorINS_10TensorNameINS_4WSR4EEESaIS4_EEEeqERKNS_10OptionBaseE
FN:57,64,_ZNK5neml26OptionISt6vectorINS_10TensorNameINS_4WWR4EEESaIS4_EEEeqERKNS_10OptionBaseE
FN:57,64,_ZNK5neml26OptionISt6vectorINS_10TensorNameINS_5SFFR4EEESaIS4_EEEeqERKNS_10OptionBaseE
FN:57,64,_ZNK5neml26OptionISt6vectorINS_10TensorNameINS_5SSFR5EEESaIS4_EEEeqERKNS_10OptionBaseE
FN:57,64,_ZNK5neml26OptionISt6vectorINS_10TensorNameINS_6SSSSR8EEESaIS4_EEEeqERKNS_10OptionBaseE
FN:57,64,_ZNK5neml26OptionISt6vectorINS_10TensorNameINS_6ScalarEEESaIS4_EEEeqERKNS_10OptionBaseE
FN:57,64,_ZNK5neml26OptionISt6vectorINS_10TensorNameINS_6TensorEEESaIS4_EEEeqERKNS_10OptionBaseE
FN:57,64,_ZNK5neml26OptionISt6vectorINS_19LabeledAxisAccessorESaIS2_EEEeqERKNS_10OptionBaseE
FN:57,64,_ZNK5neml26OptionISt6vectorINSt7__cxx1112basic_stringIcSt11char_traitsIcESaIcEEESaIS7_EEEeqERKNS_10OptionBaseE
FN:57,64,_ZNK5neml26OptionISt6vectorIS1_IN3c1011SmallVectorIlLj8EEESaIS4_EESaIS6_EEEeqERKNS_10OptionBaseE
FN:57,64,_ZNK5neml26OptionISt6vectorIS1_IN3c106DeviceESaIS3_EESaIS5_EEEeqERKNS_10OptionBaseE
FN:57,64,_ZNK5neml26OptionISt6vectorIS1_INS_10TensorNameIN2at6TensorEEESaIS5_EESaIS7_EEEeqERKNS_10OptionBaseE
FN:57,64,_ZNK5neml26OptionISt6vectorIS1_INS_10TensorNameINS_10QuaternionEEESaIS4_EESaIS6_EEEeqERKNS_10OptionBaseE
FN:57,64,_ZNK5neml26OptionISt6vectorIS1_INS_10TensorNameINS_11MillerIndexEEESaIS4_EESaIS6_EEEeqERKNS_10OptionBaseE
FN:57,64,_ZNK5neml26OptionISt6vectorIS1_INS_10TensorNameINS_2R2EEESaIS4_EESaIS6_EEEeqERKNS_10OptionBaseE
FN:57,64,_ZNK5neml26OptionISt6vectorIS1_INS_10TensorNameINS_2R3EEESaIS4_EESaIS6_EEEeqERKNS_10OptionBaseE
FN:57,64,_ZNK5neml26OptionISt6vectorIS1_INS_10TensorNameINS_2R4EEESaIS4_EESaIS6_EEEeqERKNS_10OptionBaseE
FN:57,64,_ZNK5neml26OptionISt6vectorIS1_INS_10TensorNameINS_2R5EEESaIS4_EESaIS6_EEEeqERKNS_10OptionBaseE
FN:57,64,_ZNK5neml26OptionISt6vectorIS1_INS_10TensorNameINS_2R8EEESaIS4_EESaIS6_EEEeqERKNS_10OptionBaseE
FN:57,64,_ZNK5neml26OptionISt6vectorIS1_INS_10TensorNameINS_3RotEEESaIS4_EESaIS6_EEEeqERKNS_10OptionBaseE
FN:57,64,_ZNK5neml26OptionISt6vectorIS1_INS_10TensorNameINS_3SR2EEESaIS4_EESaIS6_EEEeqERKNS_10OptionBaseE
FN:57,64,_ZNK5neml26OptionISt6vectorIS1_INS_10TensorNameINS_3VecEEESaIS4_EESaIS6_EEEeqERKNS_10OptionBaseE
FN:57,64,_ZNK5neml26OptionISt6vectorIS1_INS_10TensorNameINS_3WR2EEESaIS4_EESaIS6_EEEeqERKNS_10OptionBaseE
FN:57,64,_ZNK5neml26OptionISt6vectorIS1_INS_10TensorNameINS_4SFR3EEESaIS4_EESaIS6_EEEeqERKNS_10OptionBaseE
FN:57,64,_ZNK5neml26OptionISt6vectorIS1_INS_10TensorNameINS_4SFR4EEESaIS4_EESaIS6_EEEeqERKNS_10OptionBaseE
FN:57,64,_ZNK5neml26OptionISt6vectorIS1_INS_10TensorNameINS_4SSR4EEESaIS4_EESaIS6_EEEeqERKNS_10OptionBaseE
FN:57,64,_ZNK5neml26OptionISt6vectorIS1_INS_10TensorNameINS_4SWR4EEESaIS4_EESaIS6_EEEeqERKNS_10OptionBaseE
FN:57,64,_ZNK5neml26OptionISt6vectorIS1_INS_10TensorNameINS_4WFR4EEESaIS4_EESaIS6_EEEeqERKNS_10OptionBaseE
FN:57,64,_ZNK5neml26OptionISt6vectorIS1_INS_10TensorNameINS_4WSR4EEESaIS4_EESaIS6_EEEeqERKNS_10OptionBaseE
FN:57,64,_ZNK5neml26OptionISt6vectorIS1_INS_10TensorNameINS_4WWR4EEESaIS4_EESaIS6_EEEeqERKNS_10OptionBaseE
FN:57,64,_ZNK5neml26OptionISt6vectorIS1_INS_10TensorNameINS_5SFFR4EEESaIS4_EESaIS6_EEEeqERKNS_10OptionBaseE
FN:57,64,_ZNK5neml26OptionISt6vectorIS1_INS_10TensorNameINS_5SSFR5EEESaIS4_EESaIS6_EEEeqERKNS_10OptionBaseE
FN:57,64,_ZNK5neml26OptionISt6vectorIS1_INS_10TensorNameINS_6SSSSR8EEESaIS4_EESaIS6_EEEeqERKNS_10OptionBaseE
FN:57,64,_ZNK5neml26OptionISt6vectorIS1_INS_10TensorNameINS_6ScalarEEESaIS4_EESaIS6_EEEeqERKNS_10OptionBaseE
FN:57,64,_ZNK5neml26OptionISt6vectorIS1_INS_10TensorNameINS_6TensorEEESaIS4_EESaIS6_EEEeqERKNS_10OptionBaseE
FN:57,64,_ZNK5neml26OptionISt6vectorIS1_INS_19LabeledAxisAccessorESaIS2_EESaIS4_EEEeqERKNS_10OptionBaseE
FN:57,64,_ZNK5neml26OptionISt6vectorIS1_INSt7__cxx1112basic_stringIcSt11char_traitsIcESaIcEEESaIS7_EESaIS9_EEEeqERKNS_10OptionBaseE
FN:57,64,_ZNK5neml26OptionISt6vectorIS1_IbSaIbEESaIS3_EEEeqERKNS_10OptionBaseE
FN:57,64,_ZNK5neml26OptionISt6vectorIS1_IdSaIdEESaIS3_EEEeqERKNS_10OptionBaseE
FN:57,64,_ZNK5neml26OptionISt6vectorIS1_IiSaIiEESaIS3_EEEeqERKNS_10OptionBaseE
FN:57,64,_ZNK5neml26OptionISt6vectorIS1_IjSaIjEESaIS3_EEEeqERKNS_10OptionBaseE
FN:57,64,_ZNK5neml26OptionISt6vectorIS1_IlSaIlEESaIS3_EEEeqERKNS_10OptionBaseE
FN:57,64,_ZNK5neml26OptionISt6vectorIS1_ImSaImEESaIS3_EEEeqERKNS_10OptionBaseE
FN:57,64,_ZNK5neml26OptionISt6vectorIbSaIbEEEeqERKNS_10OptionBaseE
FN:57,64,_ZNK5neml26OptionISt6vectorIdSaIdEEEeqERKNS_10OptionBaseE
FN:57,64,_ZNK5neml26OptionISt6vectorIiSaIiEEEeqERKNS_10OptionBaseE
FN:57,64,_ZNK5neml26OptionISt6vectorIjSaIjEEEeqERKNS_10OptionBaseE
FN:57,64,_ZNK5neml26OptionISt6vectorIlSaIlEEEeqERKNS_10OptionBaseE
FN:57,64,_ZNK5neml26OptionISt6vectorImSaImEEEeqERKNS_10OptionBaseE
FN:57,64,_ZNK5neml26OptionIbEeqERKNS_10OptionBaseE
FN:57,64,_ZNK5neml26OptionIdEeqERKNS_10OptionBaseE
FN:57,64,_ZNK5neml26OptionIiEeqERKNS_10OptionBaseE
FN:57,64,_ZNK5neml26OptionIjEeqERKNS_10OptionBaseE
FN:57,64,_ZNK5neml26OptionIlEeqERKNS_10OptionBaseE
FN:57,64,_ZNK5neml26OptionImEeqERKNS_10OptionBaseE
FN:68,71,_ZNK5neml26OptionIN3c1011SmallVectorIlLj8EEEEneERKNS_10OptionBaseE
FN:68,71,_ZNK5neml26OptionIN3c106DeviceEEneERKNS_10OptionBaseE
FN:68,71,_ZNK5neml26OptionINS_10TensorNameIN2at6TensorEEEEneERKNS_10OptionBaseE
FN:68,71,_ZNK5neml26OptionINS_10TensorNameINS_10QuaternionEEEEneERKNS_10OptionBaseE
FN:68,71,_ZNK5neml26OptionINS_10TensorNameINS_11MillerIndexEEEEneERKNS_10OptionBaseE
FN:68,71,_ZNK5neml26OptionINS_10TensorNameINS_2R2EEEEneERKNS_10OptionBaseE
FN:68,71,_ZNK5neml26OptionINS_10TensorNameINS_2R3EEEEneERKNS_10OptionBaseE
FN:68,71,_ZNK5neml26OptionINS_10TensorNameINS_2R4EEEEneERKNS_10OptionBaseE
FN:68,71,_ZNK5neml26OptionINS_10TensorNameINS_2R5EEEEneERKNS_10OptionBaseE
FN:68,71,_ZNK5neml26OptionINS_10TensorNameINS_2R8EEEEneERKNS_10OptionBaseE
FN:68,71,_ZNK5neml26OptionINS_10TensorNameINS_3RotEEEEneERKNS_10OptionBaseE
FN:68,71,_ZNK5neml26OptionINS_10TensorNameINS_3SR2EEEEneERKNS_10OptionBaseE
FN:68,71,_ZNK5neml26OptionINS_10TensorNameINS_3VecEEEEneERKNS_10OptionBaseE
FN:68,71,_ZNK5neml26OptionINS_10TensorNameINS_3WR2EEEEneERKNS_10OptionBaseE
FN:68,71,_ZNK5neml26OptionINS_10TensorNameINS_4SFR3EEEEneERKNS_10OptionBaseE
FN:68,71,_ZNK5neml26OptionINS_10TensorNameINS_4SFR4EEEEneERKNS_10OptionBaseE
FN:68,71,_ZNK5neml26OptionINS_10TensorNameINS_4SSR4EEEEneERKNS_10OptionBaseE
FN:68,71,_ZNK5neml26OptionINS_10TensorNameINS_4SWR4EEEEneERKNS_10OptionBaseE
FN:68,71,_ZNK5neml26OptionINS_10TensorNameINS_4WFR4EEEEneERKNS_10OptionBaseE
FN:68,71,_ZNK5neml26OptionINS_10TensorNameINS_4WSR4EEEEneERKNS_10OptionBaseE
FN:68,71,_ZNK5neml26OptionINS_10TensorNameINS_4WWR4EEEEneERKNS_10OptionBaseE
FN:68,71,_ZNK5neml26OptionINS_10TensorNameINS_5SFFR4EEEEneERKNS_10OptionBaseE
FN:68,71,_ZNK5neml26OptionINS_10TensorNameINS_5SSFR5EEEEneERKNS_10OptionBaseE
FN:68,71,_ZNK5neml26OptionINS_10TensorNameINS_6SSSSR8EEEEneERKNS_10OptionBaseE
FN:68,71,_ZNK5neml26OptionINS_10TensorNameINS_6ScalarEEEEneERKNS_10OptionBaseE
FN:68,71,_ZNK5neml26OptionINS_10TensorNameINS_6TensorEEEEneERKNS_10OptionBaseE
FN:68,71,_ZNK5neml26OptionINS_13EnumSelectionEEneERKNS_10OptionBaseE
FN:68,71,_ZNK5neml26OptionINS_18MultiEnumSelectionEEneERKNS_10OptionBaseE
FN:68,71,_ZNK5neml26OptionINS_19LabeledAxisAccessorEEneERKNS_10OptionBaseE
FN:68,71,_ZNK5neml26OptionINSt7__cxx1112basic_stringIcSt11char_traitsIcESaIcEEEEneERKNS_10OptionBaseE
FN:68,71,_ZNK5neml26OptionIPNS_11NEML2ObjectEEneERKNS_10OptionBaseE
FN:68,71,_ZNK5neml26OptionIPNS_7FactoryEEneERKNS_10OptionBaseE
FN:68,71,_ZNK5neml26OptionISt10shared_ptrINS_8SettingsEEEneERKNS_10OptionBaseE
FN:68,71,_ZNK5neml26OptionISt6vectorIN3c1011SmallVectorIlLj8EEESaIS4_EEEneERKNS_10OptionBaseE
FN:68,71,_ZNK5neml26OptionISt6vectorIN3c106DeviceESaIS3_EEEneERKNS_10OptionBaseE
FN:68,71,_ZNK5neml26OptionISt6vectorINS_10TensorNameIN2at6TensorEEESaIS5_EEEneERKNS_10OptionBaseE
FN:68,71,_ZNK5neml26OptionISt6vectorINS_10TensorNameINS_10QuaternionEEESaIS4_EEEneERKNS_10OptionBaseE
FN:68,71,_ZNK5neml26OptionISt6vectorINS_10TensorNameINS_11MillerIndexEEESaIS4_EEEneERKNS_10OptionBaseE
FN:68,71,_ZNK5neml26OptionISt6vectorINS_10TensorNameINS_2R2EEESaIS4_EEEneERKNS_10OptionBaseE
FN:68,71,_ZNK5neml26OptionISt6vectorINS_10TensorNameINS_2R3EEESaIS4_EEEneERKNS_10OptionBaseE
FN:68,71,_ZNK5neml26OptionISt6vectorINS_10TensorNameINS_2R4EEESaIS4_EEEneERKNS_10OptionBaseE
FN:68,71,_ZNK5neml26OptionISt6vectorINS_10TensorNameINS_2R5EEESaIS4_EEEneERKNS_10OptionBaseE
FN:68,71,_ZNK5neml26OptionISt6vectorINS_10TensorNameINS_2R8EEESaIS4_EEEneERKNS_10OptionBaseE
FN:68,71,_ZNK5neml26OptionISt6vectorINS_10TensorNameINS_3RotEEESaIS4_EEEneERKNS_10OptionBaseE
FN:68,71,_ZNK5neml26OptionISt6vectorINS_10TensorNameINS_3SR2EEESaIS4_EEEneERKNS_10OptionBaseE
FN:68,71,_ZNK5neml26OptionISt6vectorINS_10TensorNameINS_3VecEEESaIS4_EEEneERKNS_10OptionBaseE
FN:68,71,_ZNK5neml26OptionISt6vectorINS_10TensorNameINS_3WR2EEESaIS4_EEEneERKNS_10OptionBaseE
FN:68,71,_ZNK5neml26OptionISt6vectorINS_10TensorNameINS_4SFR3EEESaIS4_EEEneERKNS_10OptionBaseE
FN:68,71,_ZNK5neml26OptionISt6vectorINS_10TensorNameINS_4SFR4EEESaIS4_EEEneERKNS_10OptionBaseE
FN:68,71,_ZNK5neml26OptionISt6vectorINS_10TensorNameINS_4SSR4EEESaIS4_EEEneERKNS_10OptionBaseE
FN:68,71,_ZNK5neml26OptionISt6vectorINS_10TensorNameINS_4SWR4EEESaIS4_EEEneERKNS_10OptionBaseE
FN:68,71,_ZNK5neml26OptionISt6vectorINS_10TensorNameINS_4WFR4EEESaIS4_EEEneERKNS_10OptionBaseE
FN:68,71,_ZNK5neml26OptionISt6vectorINS_10TensorNameINS_4WSR4EEESaIS4_EEEneERKNS_10OptionBaseE
FN:68,71,_ZNK5neml26OptionISt6vectorINS_10TensorNameINS_4WWR4EEESaIS4_EEEneERKNS_10OptionBaseE
FN:68,71,_ZNK5neml26OptionISt6vectorINS_10TensorNameINS_5SFFR4EEESaIS4_EEEneERKNS_10OptionBaseE
FN:68,71,_ZNK5neml26OptionISt6vectorINS_10TensorNameINS_5SSFR5EEESaIS4_EEEneERKNS_10OptionBaseE
FN:68,71,_ZNK5neml26OptionISt6vectorINS_10TensorNameINS_6SSSSR8EEESaIS4_EEEneERKNS_10OptionBaseE
FN:68,71,_ZNK5neml26OptionISt6vectorINS_10TensorNameINS_6ScalarEEESaIS4_EEEneERKNS_10OptionBaseE
FN:68,71,_ZNK5neml26OptionISt6vectorINS_10TensorNameINS_6TensorEEESaIS4_EEEneERKNS_10OptionBaseE
FN:68,71,_ZNK5neml26OptionISt6vectorINS_19LabeledAxisAccessorESaIS2_EEEneERKNS_10OptionBaseE
FN:68,71,_ZNK5neml26OptionISt6vectorINSt7__cxx1112basic_stringIcSt11char_traitsIcESaIcEEESaIS7_EEEneERKNS_10OptionBaseE
FN:68,71,_ZNK5neml26OptionISt6vectorIS1_IN3c1011SmallVectorIlLj8EEESaIS4_EESaIS6_EEEneERKNS_10OptionBaseE
FN:68,71,_ZNK5neml26OptionISt6vectorIS1_IN3c106DeviceESaIS3_EESaIS5_EEEneERKNS_10OptionBaseE
FN:68,71,_ZNK5neml26OptionISt6vectorIS1_INS_10TensorNameIN2at6TensorEEESaIS5_EESaIS7_EEEneERKNS_10OptionBaseE
FN:68,71,_ZNK5neml26OptionISt6vectorIS1_INS_10TensorNameINS_10QuaternionEEESaIS4_EESaIS6_EEEneERKNS_10OptionBaseE
FN:68,71,_ZNK5neml26OptionISt6vectorIS1_INS_10TensorNameINS_11MillerIndexEEESaIS4_EESaIS6_EEEneERKNS_10OptionBaseE
FN:68,71,_ZNK5neml26OptionISt6vectorIS1_INS_10TensorNameINS_2R2EEESaIS4_EESaIS6_EEEneERKNS_10OptionBaseE
FN:68,71,_ZNK5neml26OptionISt6vectorIS1_INS_10TensorNameINS_2R3EEESaIS4_EESaIS6_EEEneERKNS_10OptionBaseE
FN:68,71,_ZNK5neml26OptionISt6vectorIS1_INS_10TensorNameINS_2R4EEESaIS4_EESaIS6_EEEneERKNS_10OptionBaseE
FN:68,71,_ZNK5neml26OptionISt6vectorIS1_INS_10TensorNameINS_2R5EEESaIS4_EESaIS6_EEEneERKNS_10OptionBaseE
FN:68,71,_ZNK5neml26OptionISt6vectorIS1_INS_10TensorNameINS_2R8EEESaIS4_EESaIS6_EEEneERKNS_10OptionBaseE
FN:68,71,_ZNK5neml26OptionISt6vectorIS1_INS_10TensorNameINS_3RotEEESaIS4_EESaIS6_EEEneERKNS_10OptionBaseE
FN:68,71,_ZNK5neml26OptionISt6vectorIS1_INS_10TensorNameINS_3SR2EEESaIS4_EESaIS6_EEEneERKNS_10OptionBaseE
FN:68,71,_ZNK5neml26OptionISt6vectorIS1_INS_10TensorNameINS_3VecEEESaIS4_EESaIS6_EEEneERKNS_10OptionBaseE
FN:68,71,_ZNK5neml26OptionISt6vectorIS1_INS_10TensorNameINS_3WR2EEESaIS4_EESaIS6_EEEneERKNS_10OptionBaseE
FN:68,71,_ZNK5neml26OptionISt6vectorIS1_INS_10TensorNameINS_4SFR3EEESaIS4_EESaIS6_EEEneERKNS_10OptionBaseE
FN:68,71,_ZNK5neml26OptionISt6vectorIS1_INS_10TensorNameINS_4SFR4EEESaIS4_EESaIS6_EEEneERKNS_10OptionBaseE
FN:68,71,_ZNK5neml26OptionISt6vectorIS1_INS_10TensorNameINS_4SSR4EEESaIS4_EESaIS6_EEEneERKNS_10OptionBaseE
FN:68,71,_ZNK5neml26OptionISt6vectorIS1_INS_10TensorNameINS_4SWR4EEESaIS4_EESaIS6_EEEneERKNS_10OptionBaseE
FN:68,71,_ZNK5neml26OptionISt6vectorIS1_INS_10TensorNameINS_4WFR4EEESaIS4_EESaIS6_EEEneERKNS_10OptionBaseE
FN:68,71,_ZNK5neml26OptionISt6vectorIS1_INS_10TensorNameINS_4WSR4EEESaIS4_EESaIS6_EEEneERKNS_10OptionBaseE
FN:68,71,_ZNK5neml26OptionISt6vectorIS1_INS_10TensorNameINS_4WWR4EEESaIS4_EESaIS6_EEEneERKNS_10OptionBaseE
FN:68,71,_ZNK5neml26OptionISt6vectorIS1_INS_10TensorNameINS_5SFFR4EEESaIS4_EESaIS6_EEEneERKNS_10OptionBaseE
FN:68,71,_ZNK5neml26OptionISt6vectorIS1_INS_10TensorNameINS_5SSFR5EEESaIS4_EESaIS6_EEEneERKNS_10OptionBaseE
FN:68,71,_ZNK5neml26OptionISt6vectorIS1_INS_10TensorNameINS_6SSSSR8EEESaIS4_EESaIS6_EEEneERKNS_10OptionBaseE
FN:68,71,_ZNK5neml26OptionISt6vectorIS1_INS_10TensorNameINS_6ScalarEEESaIS4_EESaIS6_EEEneERKNS_10OptionBaseE
FN:68,71,_ZNK5neml26OptionISt6vectorIS1_INS_10TensorNameINS_6TensorEEESaIS4_EESaIS6_EEEneERKNS_10OptionBaseE
FN:68,71,_ZNK5neml26OptionISt6vectorIS1_INS_19LabeledAxisAccessorESaIS2_EESaIS4_EEEneERKNS_10OptionBaseE
FN:68,71,_ZNK5neml26OptionISt6vectorIS1_INSt7__cxx1112basic_stringIcSt11char_traitsIcESaIcEEESaIS7_EESaIS9_EEEneERKNS_10OptionBaseE
FN:68,71,_ZNK5neml26OptionISt6vectorIS1_IbSaIbEESaIS3_EEEneERKNS_10OptionBaseE
FN:68,71,_ZNK5neml26OptionISt6vectorIS1_IdSaIdEESaIS3_EEEneERKNS_10OptionBaseE
FN:68,71,_ZNK5neml26OptionISt6vectorIS1_IiSaIiEESaIS3_EEEneERKNS_10OptionBaseE
FN:68,71,_ZNK5neml26OptionISt6vectorIS1_IjSaIjEESaIS3_EEEneERKNS_10OptionBaseE
FN:68,71,_ZNK5neml26OptionISt6vectorIS1_IlSaIlEESaIS3_EEEneERKNS_10OptionBaseE
FN:68,71,_ZNK5neml26OptionISt6vectorIS1_ImSaImEESaIS3_EEEneERKNS_10OptionBaseE
FN:68,71,_ZNK5neml26OptionISt6vectorIbSaIbEEEneERKNS_10OptionBaseE
FN:68,71,_ZNK5neml26OptionISt6vectorIdSaIdEEEneERKNS_10OptionBaseE
FN:68,71,_ZNK5neml26OptionISt6vectorIiSaIiEEEneERKNS_10OptionBaseE
FN:68,71,_ZNK5neml26OptionISt6vectorIjSaIjEEEneERKNS_10OptionBaseE
FN:68,71,_ZNK5neml26OptionISt6vectorIlSaIlEEEneERKNS_10OptionBaseE
FN:68,71,_ZNK5neml26OptionISt6vectorImSaImEEEneERKNS_10OptionBaseE
FN:68,71,_ZNK5neml26OptionIbEneERKNS_10OptionBaseE
FN:68,71,_ZNK5neml26OptionIdEneERKNS_10OptionBaseE
FN:68,71,_ZNK5neml26OptionIiEneERKNS_10OptionBaseE
FN:68,71,_ZNK5neml26OptionIjEneERKNS_10OptionBaseE
FN:68,71,_ZNK5neml26OptionIlEneERKNS_10OptionBaseE
FN:68,71,_ZNK5neml26OptionImEneERKNS_10OptionBaseE
FN:84,90,_ZNK5neml26OptionIN3c1011SmallVectorIlLj8EEEE5cloneEv
FN:84,90,_ZNK5neml26OptionIN3c106DeviceEE5cloneEv
FN:84,90,_ZNK5neml26OptionINS_10TensorNameIN2at6TensorEEEE5cloneEv
FN:84,90,_ZNK5neml26OptionINS_10TensorNameINS_10QuaternionEEEE5cloneEv
FN:84,90,_ZNK5neml26OptionINS_10TensorNameINS_11MillerIndexEEEE5cloneEv
FN:84,90,_ZNK5neml26OptionINS_10TensorNameINS_2R2EEEE5cloneEv
FN:84,90,_ZNK5neml26OptionINS_10TensorNameINS_2R3EEEE5cloneEv
FN:84,90,_ZNK5neml26OptionINS_10TensorNameINS_2R4EEEE5cloneEv
FN:84,90,_ZNK5neml26OptionINS_10TensorNameINS_2R5EEEE5cloneEv
FN:84,90,_ZNK5neml26OptionINS_10TensorNameINS_2R8EEEE5cloneEv
FN:84,90,_ZNK5neml26OptionINS_10TensorNameINS_3RotEEEE5cloneEv
FN:84,90,_ZNK5neml26OptionINS_10TensorNameINS_3SR2EEEE5cloneEv
FN:84,90,_ZNK5neml26OptionINS_10TensorNameINS_3VecEEEE5cloneEv
FN:84,90,_ZNK5neml26OptionINS_10TensorNameINS_3WR2EEEE5cloneEv
FN:84,90,_ZNK5neml26OptionINS_10TensorNameINS_4SFR3EEEE5cloneEv
FN:84,90,_ZNK5neml26OptionINS_10TensorNameINS_4SFR4EEEE5cloneEv
FN:84,90,_ZNK5neml26OptionINS_10TensorNameINS_4SSR4EEEE5cloneEv
FN:84,90,_ZNK5neml26OptionINS_10TensorNameINS_4SWR4EEEE5cloneEv
FN:84,90,_ZNK5neml26OptionINS_10TensorNameINS_4WFR4EEEE5cloneEv
FN:84,90,_ZNK5neml26OptionINS_10TensorNameINS_4WSR4EEEE5cloneEv
FN:84,90,_ZNK5neml26OptionINS_10TensorNameINS_4WWR4EEEE5cloneEv
FN:84,90,_ZNK5neml26OptionINS_10TensorNameINS_5SFFR4EEEE5cloneEv
FN:84,90,_ZNK5neml26OptionINS_10TensorNameINS_5SSFR5EEEE5cloneEv
FN:84,90,_ZNK5neml26OptionINS_10TensorNameINS_6SSSSR8EEEE5cloneEv
FN:84,90,_ZNK5neml26OptionINS_10TensorNameINS_6ScalarEEEE5cloneEv
FN:84,90,_ZNK5neml26OptionINS_10TensorNameINS_6TensorEEEE5cloneEv
FN:84,90,_ZNK5neml26OptionINS_13EnumSelectionEE5cloneEv
FN:84,90,_ZNK5neml26OptionINS_18MultiEnumSelectionEE5cloneEv
FN:84,90,_ZNK5neml26OptionINS_19LabeledAxisAccessorEE5cloneEv
FN:84,90,_ZNK5neml26OptionINSt7__cxx1112basic_stringIcSt11char_traitsIcESaIcEEEE5cloneEv
FN:84,90,_ZNK5neml26OptionIPNS_11NEML2ObjectEE5cloneEv
FN:84,90,_ZNK5neml26OptionIPNS_7FactoryEE5cloneEv
FN:84,90,_ZNK5neml26OptionISt10shared_ptrINS_8SettingsEEE5cloneEv
FN:84,90,_ZNK5neml26OptionISt6vectorIN3c1011SmallVectorIlLj8EEESaIS4_EEE5cloneEv
FN:84,90,_ZNK5neml26OptionISt6vectorIN3c106DeviceESaIS3_EEE5cloneEv
FN:84,90,_ZNK5neml26OptionISt6vectorINS_10TensorNameIN2at6TensorEEESaIS5_EEE5cloneEv
FN:84,90,_ZNK5neml26OptionISt6vectorINS_10TensorNameINS_10QuaternionEEESaIS4_EEE5cloneEv
FN:84,90,_ZNK5neml26OptionISt6vectorINS_10TensorNameINS_11MillerIndexEEESaIS4_EEE5cloneEv
FN:84,90,_ZNK5neml26OptionISt6vectorINS_10TensorNameINS_2R2EEESaIS4_EEE5cloneEv
FN:84,90,_ZNK5neml26OptionISt6vectorINS_10TensorNameINS_2R3EEESaIS4_EEE5cloneEv
FN:84,90,_ZNK5neml26OptionISt6vectorINS_10TensorNameINS_2R4EEESaIS4_EEE5cloneEv
FN:84,90,_ZNK5neml26OptionISt6vectorINS_10TensorNameINS_2R5EEESaIS4_EEE5cloneEv
FN:84,90,_ZNK5neml26OptionISt6vectorINS_10TensorNameINS_2R8EEESaIS4_EEE5cloneEv
FN:84,90,_ZNK5neml26OptionISt6vectorINS_10TensorNameINS_3RotEEESaIS4_EEE5cloneEv
FN:84,90,_ZNK5neml26OptionISt6vectorINS_10TensorNameINS_3SR2EEESaIS4_EEE5cloneEv
FN:84,90,_ZNK5neml26OptionISt6vectorINS_10TensorNameINS_3VecEEESaIS4_EEE5cloneEv
FN:84,90,_ZNK5neml26OptionISt6vectorINS_10TensorNameINS_3WR2EEESaIS4_EEE5cloneEv
FN:84,90,_ZNK5neml26OptionISt6vectorINS_10TensorNameINS_4SFR3EEESaIS4_EEE5cloneEv
FN:84,90,_ZNK5neml26OptionISt6vectorINS_10TensorNameINS_4SFR4EEESaIS4_EEE5cloneEv
FN:84,90,_ZNK5neml26OptionISt6vectorINS_10TensorNameINS_4SSR4EEESaIS4_EEE5cloneEv
FN:84,90,_ZNK5neml26OptionISt6vectorINS_10TensorNameINS_4SWR4EEESaIS4_EEE5cloneEv
FN:84,90,_ZNK5neml26OptionISt6vectorINS_10TensorNameINS_4WFR4EEESaIS4_EEE5cloneEv
FN:84,90,_ZNK5neml26OptionISt6vectorINS_10TensorNameINS_4WSR4EEESaIS4_EEE5cloneEv
FN:84,90,_ZNK5neml26OptionISt6vectorINS_10TensorNameINS_4WWR4EEESaIS4_EEE5cloneEv
FN:84,90,_ZNK5neml26OptionISt6vectorINS_10TensorNameINS_5SFFR4EEESaIS4_EEE5cloneEv
FN:84,90,_ZNK5neml26OptionISt6vectorINS_10TensorNameINS_5SSFR5EEESaIS4_EEE5cloneEv
FN:84,90,_ZNK5neml26OptionISt6vectorINS_10TensorNameINS_6SSSSR8EEESaIS4_EEE5cloneEv
FN:84,90,_ZNK5neml26OptionISt6vectorINS_10TensorNameINS_6ScalarEEESaIS4_EEE5cloneEv
FN:84,90,_ZNK5neml26OptionISt6vectorINS_10TensorNameINS_6TensorEEESaIS4_EEE5cloneEv
FN:84,90,_ZNK5neml26OptionISt6vectorINS_19LabeledAxisAccessorESaIS2_EEE5cloneEv
FN:84,90,_ZNK5neml26OptionISt6vectorINSt7__cxx1112basic_stringIcSt11char_traitsIcESaIcEEESaIS7_EEE5cloneEv
FN:84,90,_ZNK5neml26OptionISt6vectorIS1_IN3c1011SmallVectorIlLj8EEESaIS4_EESaIS6_EEE5cloneEv
FN:84,90,_ZNK5neml26OptionISt6vectorIS1_IN3c106DeviceESaIS3_EESaIS5_EEE5cloneEv
FN:84,90,_ZNK5neml26OptionISt6vectorIS1_INS_10TensorNameIN2at6TensorEEESaIS5_EESaIS7_EEE5cloneEv
FN:84,90,_ZNK5neml26OptionISt6vectorIS1_INS_10TensorNameINS_10QuaternionEEESaIS4_EESaIS6_EEE5cloneEv
FN:84,90,_ZNK5neml26OptionISt6vectorIS1_INS_10TensorNameINS_11MillerIndexEEESaIS4_EESaIS6_EEE5cloneEv
FN:84,90,_ZNK5neml26OptionISt6vectorIS1_INS_10TensorNameINS_2R2EEESaIS4_EESaIS6_EEE5cloneEv
FN:84,90,_ZNK5neml26OptionISt6vectorIS1_INS_10TensorNameINS_2R3EEESaIS4_EESaIS6_EEE5cloneEv
FN:84,90,_ZNK5neml26OptionISt6vectorIS1_INS_10TensorNameINS_2R4EEESaIS4_EESaIS6_EEE5cloneEv
FN:84,90,_ZNK5neml26OptionISt6vectorIS1_INS_10TensorNameINS_2R5EEESaIS4_EESaIS6_EEE5cloneEv
FN:84,90,_ZNK5neml26OptionISt6vectorIS1_INS_10TensorNameINS_2R8EEESaIS4_EESaIS6_EEE5cloneEv
FN:84,90,_ZNK5neml26OptionISt6vectorIS1_INS_10TensorNameINS_3RotEEESaIS4_EESaIS6_EEE5cloneEv
FN:84,90,_ZNK5neml26OptionISt6vectorIS1_INS_10TensorNameINS_3SR2EEESaIS4_EESaIS6_EEE5cloneEv
FN:84,90,_ZNK5neml26OptionISt6vectorIS1_INS_10TensorNameINS_3VecEEESaIS4_EESaIS6_EEE5cloneEv
FN:84,90,_ZNK5neml26OptionISt6vectorIS1_INS_10TensorNameINS_3WR2EEESaIS4_EESaIS6_EEE5cloneEv
FN:84,90,_ZNK5neml26OptionISt6vectorIS1_INS_10TensorNameINS_4SFR3EEESaIS4_EESaIS6_EEE5cloneEv
FN:84,90,_ZNK5neml26OptionISt6vectorIS1_INS_10TensorNameINS_4SFR4EEESaIS4_EESaIS6_EEE5cloneEv
FN:84,90,_ZNK5neml26OptionISt6vectorIS1_INS_10TensorNameINS_4SSR4EEESaIS4_EESaIS6_EEE5cloneEv
FN:84,90,_ZNK5neml26OptionISt6vectorIS1_INS_10TensorNameINS_4SWR4EEESaIS4_EESaIS6_EEE5cloneEv
FN:84,90,_ZNK5neml26OptionISt6vectorIS1_INS_10TensorNameINS_4WFR4EEESaIS4_EESaIS6_EEE5cloneEv
FN:84,90,_ZNK5neml26OptionISt6vectorIS1_INS_10TensorNameINS_4WSR4EEESaIS4_EESaIS6_EEE5cloneEv
FN:84,90,_ZNK5neml26OptionISt6vectorIS1_INS_10TensorNameINS_4WWR4EEESaIS4_EESaIS6_EEE5cloneEv
FN:84,90,_ZNK5neml26OptionISt6vectorIS1_INS_10TensorNameINS_5SFFR4EEESaIS4_EESaIS6_EEE5cloneEv
FN:84,90,_ZNK5neml26OptionISt6vectorIS1_INS_10TensorNameINS_5SSFR5EEESaIS4_EESaIS6_EEE5cloneEv
FN:84,90,_ZNK5neml26OptionISt6vectorIS1_INS_10TensorNameINS_6SSSSR8EEESaIS4_EESaIS6_EEE5cloneEv
FN:84,90,_ZNK5neml26OptionISt6vectorIS1_INS_10TensorNameINS_6ScalarEEESaIS4_EESaIS6_EEE5cloneEv
FN:84,90,_ZNK5neml26OptionISt6vectorIS1_INS_10TensorNameINS_6TensorEEESaIS4_EESaIS6_EEE5cloneEv
FN:84,90,_ZNK5neml26OptionISt6vectorIS1_INS_19LabeledAxisAccessorESaIS2_EESaIS4_EEE5cloneEv
FN:84,90,_ZNK5neml26OptionISt6vectorIS1_INSt7__cxx1112basic_stringIcSt11char_traitsIcESaIcEEESaIS7_EESaIS9_EEE5cloneEv
FN:84,90,_ZNK5neml26OptionISt6vectorIS1_IbSaIbEESaIS3_EEE5cloneEv
FN:84,90,_ZNK5neml26OptionISt6vectorIS1_IdSaIdEESaIS3_EEE5cloneEv
FN:84,90,_ZNK5neml26OptionISt6vectorIS1_IiSaIiEESaIS3_EEE5cloneEv
FN:84,90,_ZNK5neml26OptionISt6vectorIS1_IjSaIjEESaIS3_EEE5cloneEv
FN:84,90,_ZNK5neml26OptionISt6vectorIS1_IlSaIlEESaIS3_EEE5cloneEv
FN:84,90,_ZNK5neml26OptionISt6vectorIS1_ImSaImEESaIS3_EEE5cloneEv
FN:84,90,_ZNK5neml26OptionISt6vectorIbSaIbEEE5cloneEv
FN:84,90,_ZNK5neml26OptionISt6vectorIdSaIdEEE5cloneEv
FN:84,90,_ZNK5neml26OptionISt6vectorIiSaIiEEE5cloneEv
FN:84,90,_ZNK5neml26OptionISt6vectorIjSaIjEEE5cloneEv
FN:84,90,_ZNK5neml26OptionISt6vectorIlSaIlEEE5cloneEv
FN:84,90,_ZNK5neml26OptionISt6vectorImSaImEEE5cloneEv
FN:84,90,_ZNK5neml26OptionIbE5cloneEv
FN:84,90,_ZNK5neml26OptionIdE5cloneEv
FN:84,90,_ZNK5neml26OptionIiE5cloneEv
FN:84,90,_ZNK5neml26OptionIjE5cloneEv
FN:84,90,_ZNK5neml26OptionIlE5cloneEv
FN:84,90,_ZNK5neml26OptionImE5cloneEv
FNDA:0,_ZN5neml27details13_print_helperIcEEvRSoPKT_
FNDA:0,_ZN5neml27details13_print_helperIhEEvRSoPKT_
FNDA:0,_ZN5neml27details13_print_helperIbEEvRSoPKSt6vectorIT_SaIS4_EE
FNDA:8715,_ZN5neml26OptionIN3c1011SmallVectorIlLj8EEEEC2ERKNSt7__cxx1112basic_stringIcSt11char_traitsIcESaIcEEE
FNDA:0,_ZN5neml26OptionINS_10TensorNameIN2at6TensorEEEEC2ERKNSt7__cxx1112basic_stringIcSt11char_traitsIcESaIcEEE
FNDA:36,_ZN5neml26OptionINS_10TensorNameINS_10QuaternionEEEEC2ERKNSt7__cxx1112basic_stringIcSt11char_traitsIcESaIcEEE
FNDA:390,_ZN5neml26OptionINS_10TensorNameINS_11MillerIndexEEEEC2ERKNSt7__cxx1112basic_stringIcSt11char_traitsIcESaIcEEE
FNDA:383,_ZN5neml26OptionINS_10TensorNameINS_2R2EEEEC2ERKNSt7__cxx1112basic_stringIcSt11char_traitsIcESaIcEEE
FNDA:200,_ZN5neml26OptionINS_10TensorNameINS_2R3EEEEC2ERKNSt7__cxx1112basic_stringIcSt11char_traitsIcESaIcEEE
FNDA:200,_ZN5neml26OptionINS_10TensorNameINS_2R4EEEEC2ERKNSt7__cxx1112basic_stringIcSt11char_traitsIcESaIcEEE
FNDA:200,_ZN5neml26OptionINS_10TensorNameINS_2R5EEEEC2ERKNSt7__cxx1112basic_stringIcSt11char_traitsIcESaIcEEE
FNDA:36,_ZN5neml26OptionINS_10TensorNameINS_2R8EEEEC2ERKNSt7__cxx1112basic_stringIcSt11char_traitsIcESaIcEEE
FNDA:200,_ZN5neml26OptionINS_10TensorNameINS_3RotEEEEC2ERKNSt7__cxx1112basic_stringIcSt11char_traitsIcESaIcEEE
FNDA:555,_ZN5neml26OptionINS_10TensorNameINS_3SR2EEEEC2ERKNSt7__cxx1112basic_stringIcSt11char_traitsIcESaIcEEE
FNDA:389,_ZN5neml26OptionINS_10TensorNameINS_3VecEEEEC2ERKNSt7__cxx1112basic_stringIcSt11char_traitsIcESaIcEEE
FNDA:57,_ZN5neml26OptionINS_10TensorNameINS_3WR2EEEEC2ERKNSt7__cxx1112basic_stringIcSt11char_traitsIcESaIcEEE
FNDA:200,_ZN5neml26OptionINS_10TensorNameINS_4SFR3EEEEC2ERKNSt7__cxx1112basic_stringIcSt11char_traitsIcESaIcEEE
FNDA:200,_ZN5neml26OptionINS_10TensorNameINS_4SFR4EEEEC2ERKNSt7__cxx1112basic_stringIcSt11char_traitsIcESaIcEEE
FNDA:231,_ZN5neml26OptionINS_10TensorNameINS_4SSR4EEEEC2ERKNSt7__cxx1112basic_stringIcSt11char_traitsIcESaIcEEE
FNDA:36,_ZN5neml26OptionINS_10TensorNameINS_4SWR4EEEEC2ERKNSt7__cxx1112basic_stringIcSt11char_traitsIcESaIcEEE
FNDA:200,_ZN5neml26OptionINS_10TensorNameINS_4WFR4EEEEC2ERKNSt7__cxx1112basic_stringIcSt11char_traitsIcESaIcEEE
FNDA:36,_ZN5neml26OptionINS_10TensorNameINS_4WSR4EEEEC2ERKNSt7__cxx1112basic_stringIcSt11char_traitsIcESaIcEEE
FNDA:36,_ZN5neml26OptionINS_10TensorNameINS_4WWR4EEEEC2ERKNSt7__cxx1112basic_stringIcSt11char_traitsIcESaIcEEE
FNDA:36,_ZN5neml26OptionINS_10TensorNameINS_5SFFR4EEEEC2ERKNSt7__cxx1112basic_stringIcSt11char_traitsIcESaIcEEE
FNDA:200,_ZN5neml26OptionINS_10TensorNameINS_5SSFR5EEEEC2ERKNSt7__cxx1112basic_stringIcSt11char_traitsIcESaIcEEE
FNDA:36,_ZN5neml26OptionINS_10TensorNameINS_6SSSSR8EEEEC2ERKNSt7__cxx1112basic_stringIcSt11char_traitsIcESaIcEEE
FNDA:2850,_ZN5neml26OptionINS_10TensorNameINS_6ScalarEEEEC2ERKNSt7__cxx1112basic_stringIcSt11char_traitsIcESaIcEEE
FNDA:174,_ZN5neml26OptionINS_10TensorNameINS_6TensorEEEEC2ERKNSt7__cxx1112basic_stringIcSt11char_traitsIcESaIcEEE
FNDA:1735,_ZN5neml26OptionINS_13EnumSelectionEEC2ERKNSt7__cxx1112basic_stringIcSt11char_traitsIcESaIcEEE
FNDA:207,_ZN5neml26OptionINS_18MultiEnumSelectionEEC2ERKNSt7__cxx1112basic_stringIcSt11char_traitsIcESaIcEEE
FNDA:6912,_ZN5neml26OptionINS_19LabeledAxisAccessorEEC2ERKNSt7__cxx1112basic_stringIcSt11char_traitsIcESaIcEEE
FNDA:6789,_ZN5neml26OptionINSt7__cxx1112basic_stringIcSt11char_traitsIcESaIcEEEEC2ERKS6_
FNDA:17637,_ZN5neml26OptionIPNS_11NEML2ObjectEEC2ERKNSt7__cxx1112basic_stringIcSt11char_traitsIcESaIcEEE
FNDA:17061,_ZN5neml26OptionIPNS_7FactoryEEC2ERKNSt7__cxx1112basic_stringIcSt11char_traitsIcESaIcEEE
FNDA:17061,_ZN5neml26OptionISt10shared_ptrINS_8SettingsEEEC2ERKNSt7__cxx1112basic_stringIcSt11char_traitsIcESaIcEEE
FNDA:36,_ZN5neml26OptionISt6vectorIN3c1011SmallVectorIlLj8EEESaIS4_EEEC2ERKNSt7__cxx1112basic_stringIcSt11char_traitsIcESaIcEEE
FNDA:52,_ZN5neml26OptionISt6vectorIN3c106DeviceESaIS3_EEEC2ERKNSt7__cxx1112basic_stringIcSt11char_traitsIcESaIcEEE
FNDA:6,_ZN5neml26OptionISt6vectorINS_10TensorNameIN2at6TensorEEESaIS5_EEEC2ERKNSt7__cxx1112basic_stringIcSt11char_traitsIcESaIcEEE
FNDA:2020,_ZN5neml26OptionISt6vectorINS_10TensorNameINS_10QuaternionEEESaIS4_EEEC2ERKNSt7__cxx1112basic_stringIcSt11char_traitsIcESaIcEEE
FNDA:2020,_ZN5neml26OptionISt6vectorINS_10TensorNameINS_11MillerIndexEEESaIS4_EEEC2ERKNSt7__cxx1112basic_stringIcSt11char_traitsIcESaIcEEE
FNDA:2020,_ZN5neml26OptionISt6vectorINS_10TensorNameINS_2R2EEESaIS4_EEEC2ERKNSt7__cxx1112basic_stringIcSt11char_traitsIcESaIcEEE
FNDA:2020,_ZN5neml26OptionISt6vectorINS_10TensorNameINS_2R3EEESaIS4_EEEC2ERKNSt7__cxx1112basic_stringIcSt11char_traitsIcESaIcEEE
FNDA:2020,_ZN5neml26OptionISt6vectorINS_10TensorNameINS_2R4EEESaIS4_EEEC2ERKNSt7__cxx1112basic_stringIcSt11char_traitsIcESaIcEEE
FNDA:2020,_ZN5neml26OptionISt6vectorINS_10TensorNameINS_2R5EEESaIS4_EEEC2ERKNSt7__cxx1112basic_stringIcSt11char_traitsIcESaIcEEE
FNDA:2020,_ZN5neml26OptionISt6vectorINS_10TensorNameINS_2R8EEESaIS4_EEEC2ERKNSt7__cxx1112basic_stringIcSt11char_traitsIcESaIcEEE
FNDA:2020,_ZN5neml26OptionISt6vectorINS_10TensorNameINS_3RotEEESaIS4_EEEC2ERKNSt7__cxx1112basic_stringIcSt11char_traitsIcESaIcEEE
FNDA:2020,_ZN5neml26OptionISt6vectorINS_10TensorNameINS_3SR2EEESaIS4_EEEC2ERKNSt7__cxx1112basic_stringIcSt11char_traitsIcESaIcEEE
FNDA:2020,_ZN5neml26OptionISt6vectorINS_10TensorNameINS_3VecEEESaIS4_EEEC2ERKNSt7__cxx1112basic_stringIcSt11char_traitsIcESaIcEEE
FNDA:2020,_ZN5neml26OptionISt6vectorINS_10TensorNameINS_3WR2EEESaIS4_EEEC2ERKNSt7__cxx1112basic_stringIcSt11char_traitsIcESaIcEEE
FNDA:2020,_ZN5neml26OptionISt6vectorINS_10TensorNameINS_4SFR3EEESaIS4_EEEC2ERKNSt7__cxx1112basic_stringIcSt11char_traitsIcESaIcEEE
FNDA:2020,_ZN5neml26OptionISt6vectorINS_10TensorNameINS_4SFR4EEESaIS4_EEEC2ERKNSt7__cxx1112basic_stringIcSt11char_traitsIcESaIcEEE
FNDA:2020,_ZN5neml26OptionISt6vectorINS_10TensorNameINS_4SSR4EEESaIS4_EEEC2ERKNSt7__cxx1112basic_stringIcSt11char_traitsIcESaIcEEE
FNDA:2020,_ZN5neml26OptionISt6vectorINS_10TensorNameINS_4SWR4EEESaIS4_EEEC2ERKNSt7__cxx1112basic_stringIcSt11char_traitsIcESaIcEEE
FNDA:2020,_ZN5neml26OptionISt6vectorINS_10TensorNameINS_4WFR4EEESaIS4_EEEC2ERKNSt7__cxx1112basic_stringIcSt11char_traitsIcESaIcEEE
FNDA:2020,_ZN5neml26OptionISt6vectorINS_10TensorNameINS_4WSR4EEESaIS4_EEEC2ERKNSt7__cxx1112basic_stringIcSt11char_traitsIcESaIcEEE
FNDA:2020,_ZN5neml26OptionISt6vectorINS_10TensorNameINS_4WWR4EEESaIS4_EEEC2ERKNSt7__cxx1112basic_stringIcSt11char_traitsIcESaIcEEE
FNDA:2020,_ZN5neml26OptionISt6vectorINS_10TensorNameINS_5SFFR4EEESaIS4_EEEC2ERKNSt7__cxx1112basic_stringIcSt11char_traitsIcESaIcEEE
FNDA:2020,_ZN5neml26OptionISt6vectorINS_10TensorNameINS_5SSFR5EEESaIS4_EEEC2ERKNSt7__cxx1112basic_stringIcSt11char_traitsIcESaIcEEE
FNDA:2020,_ZN5neml26OptionISt6vectorINS_10TensorNameINS_6SSSSR8EEESaIS4_EEEC2ERKNSt7__cxx1112basic_stringIcSt11char_traitsIcESaIcEEE
FNDA:3387,_ZN5neml26OptionISt6vectorINS_10TensorNameINS_6ScalarEEESaIS4_EEEC2ERKNSt7__cxx1112basic_stringIcSt11char_traitsIcESaIcEEE
FNDA:2020,_ZN5neml26OptionISt6vectorINS_10TensorNameINS_6TensorEEESaIS4_EEEC2ERKNSt7__cxx1112basic_stringIcSt11char_traitsIcESaIcEEE
FNDA:47096,_ZN5neml26OptionISt6vectorINS_19LabeledAxisAccessorESaIS2_EEEC2ERKNSt7__cxx1112basic_stringIcSt11char_traitsIcESaIcEEE
FNDA:1928,_ZN5neml26OptionISt6vectorINSt7__cxx1112basic_stringIcSt11char_traitsIcESaIcEEESaIS7_EEEC2ERKS7_
FNDA:36,_ZN5neml26OptionISt6vectorIS1_IN3c1011SmallVectorIlLj8EEESaIS4_EESaIS6_EEEC2ERKNSt7__cxx1112basic_stringIcSt11char_traitsIcESaIcEEE
FNDA:36,_ZN5neml26OptionISt6vectorIS1_IN3c106DeviceESaIS3_EESaIS5_EEEC2ERKNSt7__cxx1112basic_stringIcSt11char_traitsIcESaIcEEE
FNDA:0,_ZN5neml26OptionISt6vectorIS1_INS_10TensorNameIN2at6TensorEEESaIS5_EESaIS7_EEEC2ERKNSt7__cxx1112basic_stringIcSt11char_traitsIcESaIcEEE
FNDA:0,_ZN5neml26OptionISt6vectorIS1_INS_10TensorNameINS_10QuaternionEEESaIS4_EESaIS6_EEEC2ERKNSt7__cxx1112basic_stringIcSt11char_traitsIcESaIcEEE
FNDA:0,_ZN5neml26OptionISt6vectorIS1_INS_10TensorNameINS_11MillerIndexEEESaIS4_EESaIS6_EEEC2ERKNSt7__cxx1112basic_stringIcSt11char_traitsIcESaIcEEE
FNDA:0,_ZN5neml26OptionISt6vectorIS1_INS_10TensorNameINS_2R2EEESaIS4_EESaIS6_EEEC2ERKNSt7__cxx1112basic_stringIcSt11char_traitsIcESaIcEEE
FNDA:0,_ZN5neml26OptionISt6vectorIS1_INS_10TensorNameINS_2R3EEESaIS4_EESaIS6_EEEC2ERKNSt7__cxx1112basic_stringIcSt11char_traitsIcESaIcEEE
FNDA:0,_ZN5neml26OptionISt6vectorIS1_INS_10TensorNameINS_2R4EEESaIS4_EESaIS6_EEEC2ERKNSt7__cxx1112basic_stringIcSt11char_traitsIcESaIcEEE
FNDA:0,_ZN5neml26OptionISt6vectorIS1_INS_10TensorNameINS_2R5EEESaIS4_EESaIS6_EEEC2ERKNSt7__cxx1112basic_stringIcSt11char_traitsIcESaIcEEE
FNDA:0,_ZN5neml26OptionISt6vectorIS1_INS_10TensorNameINS_2R8EEESaIS4_EESaIS6_EEEC2ERKNSt7__cxx1112basic_stringIcSt11char_traitsIcESaIcEEE
FNDA:0,_ZN5neml26OptionISt6vectorIS1_INS_10TensorNameINS_3RotEEESaIS4_EESaIS6_EEEC2ERKNSt7__cxx1112basic_stringIcSt11char_traitsIcESaIcEEE
FNDA:0,_ZN5neml26OptionISt6vectorIS1_INS_10TensorNameINS_3SR2EEESaIS4_EESaIS6_EEEC2ERKNSt7__cxx1112basic_stringIcSt11char_traitsIcESaIcEEE
FNDA:0,_ZN5neml26OptionISt6vectorIS1_INS_10TensorNameINS_3VecEEESaIS4_EESaIS6_EEEC2ERKNSt7__cxx1112basic_stringIcSt11char_traitsIcESaIcEEE
FNDA:0,_ZN5neml26OptionISt6vectorIS1_INS_10TensorNameINS_3WR2EEESaIS4_EESaIS6_EEEC2ERKNSt7__cxx1112basic_stringIcSt11char_traitsIcESaIcEEE
FNDA:0,_ZN5neml26OptionISt6vectorIS1_INS_10TensorNameINS_4SFR3EEESaIS4_EESaIS6_EEEC2ERKNSt7__cxx1112basic_stringIcSt11char_traitsIcESaIcEEE
FNDA:0,_ZN5neml26OptionISt6vectorIS1_INS_10TensorNameINS_4SFR4EEESaIS4_EESaIS6_EEEC2ERKNSt7__cxx1112basic_stringIcSt11char_traitsIcESaIcEEE
FNDA:0,_ZN5neml26OptionISt6vectorIS1_INS_10TensorNameINS_4SSR4EEESaIS4_EESaIS6_EEEC2ERKNSt7__cxx1112basic_stringIcSt11char_traitsIcESaIcEEE
FNDA:0,_ZN5neml26OptionISt6vectorIS1_INS_10TensorNameINS_4SWR4EEESaIS4_EESaIS6_EEEC2ERKNSt7__cxx1112basic_stringIcSt11char_traitsIcESaIcEEE
FNDA:0,_ZN5neml26OptionISt6vectorIS1_INS_10TensorNameINS_4WFR4EEESaIS4_EESaIS6_EEEC2ERKNSt7__cxx1112basic_stringIcSt11char_traitsIcESaIcEEE
FNDA:0,_ZN5neml26OptionISt6vectorIS1_INS_10TensorNameINS_4WSR4EEESaIS4_EESaIS6_EEEC2ERKNSt7__cxx1112basic_stringIcSt11char_traitsIcESaIcEEE
FNDA:0,_ZN5neml26OptionISt6vectorIS1_INS_10TensorNameINS_4WWR4EEESaIS4_EESaIS6_EEEC2ERKNSt7__cxx1112basic_stringIcSt11char_traitsIcESaIcEEE
FNDA:0,_ZN5neml26OptionISt6vectorIS1_INS_10TensorNameINS_5SFFR4EEESaIS4_EESaIS6_EEEC2ERKNSt7__cxx1112basic_stringIcSt11char_traitsIcESaIcEEE
FNDA:0,_ZN5neml26OptionISt6vectorIS1_INS_10TensorNameINS_5SSFR5EEESaIS4_EESaIS6_EEEC2ERKNSt7__cxx1112basic_stringIcSt11char_traitsIcESaIcEEE
FNDA:0,_ZN5neml26OptionISt6vectorIS1_INS_10TensorNameINS_6SSSSR8EEESaIS4_EESaIS6_EEEC2ERKNSt7__cxx1112basic_stringIcSt11char_traitsIcESaIcEEE
FNDA:0,_ZN5neml26OptionISt6vectorIS1_INS_10TensorNameINS_6ScalarEEESaIS4_EESaIS6_EEEC2ERKNSt7__cxx1112basic_stringIcSt11char_traitsIcESaIcEEE
FNDA:0,_ZN5neml26OptionISt6vectorIS1_INS_10TensorNameINS_6TensorEEESaIS4_EESaIS6_EEEC2ERKNSt7__cxx1112basic_stringIcSt11char_traitsIcESaIcEEE
FNDA:0,_ZN5neml26OptionISt6vectorIS1_INS_19LabeledAxisAccessorESaIS2_EESaIS4_EEEC2ERKNSt7__cxx1112basic_stringIcSt11char_traitsIcESaIcEEE
FNDA:36,_ZN5neml26OptionISt6vectorIS1_INSt7__cxx1112basic_stringIcSt11char_traitsIcESaIcEEESaIS7_EESaIS9_EEEC2ERKS7_
FNDA:36,_ZN5neml26OptionISt6vectorIS1_IbSaIbEESaIS3_EEEC2ERKNSt7__cxx1112basic_stringIcSt11char_traitsIcESaIcEEE
FNDA:36,_ZN5neml26OptionISt6vectorIS1_IdSaIdEESaIS3_EEEC2ERKNSt7__cxx1112basic_stringIcSt11char_traitsIcESaIcEEE
FNDA:36,_ZN5neml26OptionISt6vectorIS1_IiSaIiEESaIS3_EEEC2ERKNSt7__cxx1112basic_stringIcSt11char_traitsIcESaIcEEE
FNDA:36,_ZN5neml26OptionISt6vectorIS1_IjSaIjEESaIS3_EEEC2ERKNSt7__cxx1112basic_stringIcSt11char_traitsIcESaIcEEE
FNDA:0,_ZN5neml26OptionISt6vectorIS1_IlSaIlEESaIS3_EEEC2ERKNSt7__cxx1112basic_stringIcSt11char_traitsIcESaIcEEE
FNDA:0,_ZN5neml26OptionISt6vectorIS1_ImSaImEESaIS3_EEEC2ERKNSt7__cxx1112basic_stringIcSt11char_traitsIcESaIcEEE
FNDA:425,_ZN5neml26OptionISt6vectorIbSaIbEEEC2ERKNSt7__cxx1112basic_stringIcSt11char_traitsIcESaIcEEE
FNDA:1176,_ZN5neml26OptionISt6vectorIdSaIdEEEC2ERKNSt7__cxx1112basic_stringIcSt11char_traitsIcESaIcEEE
FNDA:36,_ZN5neml26OptionISt6vectorIiSaIiEEEC2ERKNSt7__cxx1112basic_stringIcSt11char_traitsIcESaIcEEE
FNDA:742,_ZN5neml26OptionISt6vectorIjSaIjEEEC2ERKNSt7__cxx1112basic_stringIcSt11char_traitsIcESaIcEEE
FNDA:482,_ZN5neml26OptionISt6vectorIlSaIlEEEC2ERKNSt7__cxx1112basic_stringIcSt11char_traitsIcESaIcEEE
FNDA:32,_ZN5neml26OptionISt6vectorImSaImEEEC2ERKNSt7__cxx1112basic_stringIcSt11char_traitsIcESaIcEEE
FNDA:36559,_ZN5neml26OptionIbEC2ERKNSt7__cxx1112basic_stringIcSt11char_traitsIcESaIcEEE
FNDA:16231,_ZN5neml26OptionIdEC2ERKNSt7__cxx1112basic_stringIcSt11char_traitsIcESaIcEEE
FNDA:742,_ZN5neml26OptionIiEC2ERKNSt7__cxx1112basic_stringIcSt11char_traitsIcESaIcEEE
FNDA:4358,_ZN5neml26OptionIjEC2ERKNSt7__cxx1112basic_stringIcSt11char_traitsIcESaIcEEE
FNDA:4602,_ZN5neml26OptionIlEC2ERKNSt7__cxx1112basic_stringIcSt11char_traitsIcESaIcEEE
FNDA:48,_ZN5neml26OptionImEC2ERKNSt7__cxx1112basic_stringIcSt11char_traitsIcESaIcEEE
FNDA:36,_ZN5neml26OptionIN3c106DeviceEEC2ERKNSt7__cxx1112basic_stringIcSt11char_traitsIcESaIcEEE
FNDA:0,_ZNK5neml26OptionIN3c1011SmallVectorIlLj8EEEEeqERKNS_10OptionBaseE
FNDA:0,_ZNK5neml26OptionIN3c106DeviceEEeqERKNS_10OptionBaseE
FNDA:0,_ZNK5neml26OptionINS_10TensorNameIN2at6TensorEEEEeqERKNS_10OptionBaseE
FNDA:0,_ZNK5neml26OptionINS_10TensorNameINS_10QuaternionEEEEeqERKNS_10OptionBaseE
FNDA:0,_ZNK5neml26OptionINS_10TensorNameINS_11MillerIndexEEEEeqERKNS_10OptionBaseE
FNDA:0,_ZNK5neml26OptionINS_10TensorNameINS_2R2EEEEeqERKNS_10OptionBaseE
FNDA:0,_ZNK5neml26OptionINS_10TensorNameINS_2R3EEEEeqERKNS_10OptionBaseE
FNDA:0,_ZNK5neml26OptionINS_10TensorNameINS_2R4EEEEeqERKNS_10OptionBaseE
FNDA:0,_ZNK5neml26OptionINS_10TensorNameINS_2R5EEEEeqERKNS_10OptionBaseE
FNDA:0,_ZNK5neml26OptionINS_10TensorNameINS_2R8EEEEeqERKNS_10OptionBaseE
FNDA:0,_ZNK5neml26OptionINS_10TensorNameINS_3RotEEEEeqERKNS_10OptionBaseE
FNDA:0,_ZNK5neml26OptionINS_10TensorNameINS_3SR2EEEEeqERKNS_10OptionBaseE
FNDA:0,_ZNK5neml26OptionINS_10TensorNameINS_3VecEEEEeqERKNS_10OptionBaseE
FNDA:0,_ZNK5neml26OptionINS_10TensorNameINS_3WR2EEEEeqERKNS_10OptionBaseE
FNDA:0,_ZNK5neml26OptionINS_10TensorNameINS_4SFR3EEEEeqERKNS_10OptionBaseE
FNDA:0,_ZNK5neml26OptionINS_10TensorNameINS_4SFR4EEEEeqERKNS_10OptionBaseE
FNDA:0,_ZNK5neml26OptionINS_10TensorNameINS_4SSR4EEEEeqERKNS_10OptionBaseE
FNDA:0,_ZNK5neml26OptionINS_10TensorNameINS_4SWR4EEEEeqERKNS_10OptionBaseE
FNDA:0,_ZNK5neml26OptionINS_10TensorNameINS_4WFR4EEEEeqERKNS_10OptionBaseE
FNDA:0,_ZNK5neml26OptionINS_10TensorNameINS_4WSR4EEEEeqERKNS_10OptionBaseE
FNDA:0,_ZNK5neml26OptionINS_10TensorNameINS_4WWR4EEEEeqERKNS_10OptionBaseE
FNDA:0,_ZNK5neml26OptionINS_10TensorNameINS_5SFFR4EEEEeqERKNS_10OptionBaseE
FNDA:0,_ZNK5neml26OptionINS_10TensorNameINS_5SSFR5EEEEeqERKNS_10OptionBaseE
FNDA:0,_ZNK5neml26OptionINS_10TensorNameINS_6SSSSR8EEEEeqERKNS_10OptionBaseE
FNDA:0,_ZNK5neml26OptionINS_10TensorNameINS_6ScalarEEEEeqERKNS_10OptionBaseE
FNDA:0,_ZNK5neml26OptionINS_10TensorNameINS_6TensorEEEEeqERKNS_10OptionBaseE
FNDA:0,_ZNK5neml26OptionINS_13EnumSelectionEEeqERKNS_10OptionBaseE
FNDA:0,_ZNK5neml26OptionINS_18MultiEnumSelectionEEeqERKNS_10OptionBaseE
FNDA:4,_ZNK5neml26OptionINS_19LabeledAxisAccessorEEeqERKNS_10OptionBaseE
FNDA:4,_ZNK5neml26OptionINSt7__cxx1112basic_stringIcSt11char_traitsIcESaIcEEEEeqERKNS_10OptionBaseE
FNDA:10,_ZNK5neml26OptionIPNS_11NEML2ObjectEEeqERKNS_10OptionBaseE
FNDA:2,_ZNK5neml26OptionIPNS_7FactoryEEeqERKNS_10OptionBaseE
FNDA:2,_ZNK5neml26OptionISt10shared_ptrINS_8SettingsEEEeqERKNS_10OptionBaseE
FNDA:0,_ZNK5neml26OptionISt6vectorIN3c1011SmallVectorIlLj8EEESaIS4_EEEeqERKNS_10OptionBaseE
FNDA:0,_ZNK5neml26OptionISt6vectorIN3c106DeviceESaIS3_EEEeqERKNS_10OptionBaseE
FNDA:0,_ZNK5neml26OptionISt6vectorINS_10TensorNameIN2at6TensorEEESaIS5_EEEeqERKNS_10OptionBaseE
FNDA:0,_ZNK5neml26OptionISt6vectorINS_10TensorNameINS_10QuaternionEEESaIS4_EEEeqERKNS_10OptionBaseE
FNDA:0,_ZNK5neml26OptionISt6vectorINS_10TensorNameINS_11MillerIndexEEESaIS4_EEEeqERKNS_10OptionBaseE
FNDA:0,_ZNK5neml26OptionISt6vectorINS_10TensorNameINS_2R2EEESaIS4_EEEeqERKNS_10OptionBaseE
FNDA:0,_ZNK5neml26OptionISt6vectorINS_10TensorNameINS_2R3EEESaIS4_EEEeqERKNS_10OptionBaseE
FNDA:0,_ZNK5neml26OptionISt6vectorINS_10TensorNameINS_2R4EEESaIS4_EEEeqERKNS_10OptionBaseE
FNDA:0,_ZNK5neml26OptionISt6vectorINS_10TensorNameINS_2R5EEESaIS4_EEEeqERKNS_10OptionBaseE
FNDA:0,_ZNK5neml26OptionISt6vectorINS_10TensorNameINS_2R8EEESaIS4_EEEeqERKNS_10OptionBaseE
FNDA:0,_ZNK5neml26OptionISt6vectorINS_10TensorNameINS_3RotEEESaIS4_EEEeqERKNS_10OptionBaseE
FNDA:0,_ZNK5neml26OptionISt6vectorINS_10TensorNameINS_3SR2EEESaIS4_EEEeqERKNS_10OptionBaseE
FNDA:0,_ZNK5neml26OptionISt6vectorINS_10TensorNameINS_3VecEEESaIS4_EEEeqERKNS_10OptionBaseE
FNDA:0,_ZNK5neml26OptionISt6vectorINS_10TensorNameINS_3WR2EEESaIS4_EEEeqERKNS_10OptionBaseE
FNDA:0,_ZNK5neml26OptionISt6vectorINS_10TensorNameINS_4SFR3EEESaIS4_EEEeqERKNS_10OptionBaseE
FNDA:0,_ZNK5neml26OptionISt6vectorINS_10TensorNameINS_4SFR4EEESaIS4_EEEeqERKNS_10OptionBaseE
FNDA:0,_ZNK5neml26OptionISt6vectorINS_10TensorNameINS_4SSR4EEESaIS4_EEEeqERKNS_10OptionBaseE
FNDA:0,_ZNK5neml26OptionISt6vectorINS_10TensorNameINS_4SWR4EEESaIS4_EEEeqERKNS_10OptionBaseE
FNDA:0,_ZNK5neml26OptionISt6vectorINS_10TensorNameINS_4WFR4EEESaIS4_EEEeqERKNS_10OptionBaseE
FNDA:0,_ZNK5neml26OptionISt6vectorINS_10TensorNameINS_4WSR4EEESaIS4_EEEeqERKNS_10OptionBaseE
FNDA:0,_ZNK5neml26OptionISt6vectorINS_10TensorNameINS_4WWR4EEESaIS4_EEEeqERKNS_10OptionBaseE
FNDA:0,_ZNK5neml26OptionISt6vectorINS_10TensorNameINS_5SFFR4EEESaIS4_EEEeqERKNS_10OptionBaseE
FNDA:0,_ZNK5neml26OptionISt6vectorINS_10TensorNameINS_5SSFR5EEESaIS4_EEEeqERKNS_10OptionBaseE
FNDA:0,_ZNK5neml26OptionISt6vectorINS_10TensorNameINS_6SSSSR8EEESaIS4_EEEeqERKNS_10OptionBaseE
FNDA:0,_ZNK5neml26OptionISt6vectorINS_10TensorNameINS_6ScalarEEESaIS4_EEEeqERKNS_10OptionBaseE
FNDA:0,_ZNK5neml26OptionISt6vectorINS_10TensorNameINS_6TensorEEESaIS4_EEEeqERKNS_10OptionBaseE
FNDA:0,_ZNK5neml26OptionISt6vectorINS_19LabeledAxisAccessorESaIS2_EEEeqERKNS_10OptionBaseE
FNDA:0,_ZNK5neml26OptionISt6vectorINSt7__cxx1112basic_stringIcSt11char_traitsIcESaIcEEESaIS7_EEEeqERKNS_10OptionBaseE
FNDA:0,_ZNK5neml26OptionISt6vectorIS1_IN3c1011SmallVectorIlLj8EEESaIS4_EESaIS6_EEEeqERKNS_10OptionBaseE
FNDA:0,_ZNK5neml26OptionISt6vectorIS1_IN3c106DeviceESaIS3_EESaIS5_EEEeqERKNS_10OptionBaseE
FNDA:0,_ZNK5neml26OptionISt6vectorIS1_INS_10TensorNameIN2at6TensorEEESaIS5_EESaIS7_EEEeqERKNS_10OptionBaseE
FNDA:0,_ZNK5neml26OptionISt6vectorIS1_INS_10TensorNameINS_10QuaternionEEESaIS4_EESaIS6_EEEeqERKNS_10OptionBaseE
FNDA:0,_ZNK5neml26OptionISt6vectorIS1_INS_10TensorNameINS_11MillerIndexEEESaIS4_EESaIS6_EEEeqERKNS_10OptionBaseE
FNDA:0,_ZNK5neml26OptionISt6vectorIS1_INS_10TensorNameINS_2R2EEESaIS4_EESaIS6_EEEeqERKNS_10OptionBaseE
FNDA:0,_ZNK5neml26OptionISt6vectorIS1_INS_10TensorNameINS_2R3EEESaIS4_EESaIS6_EEEeqERKNS_10OptionBaseE
FNDA:0,_ZNK5neml26OptionISt6vectorIS1_INS_10TensorNameINS_2R4EEESaIS4_EESaIS6_EEEeqERKNS_10OptionBaseE
FNDA:0,_ZNK5neml26OptionISt6vectorIS1_INS_10TensorNameINS_2R5EEESaIS4_EESaIS6_EEEeqERKNS_10OptionBaseE
FNDA:0,_ZNK5neml26OptionISt6vectorIS1_INS_10TensorNameINS_2R8EEESaIS4_EESaIS6_EEEeqERKNS_10OptionBaseE
FNDA:0,_ZNK5neml26OptionISt6vectorIS1_INS_10TensorNameINS_3RotEEESaIS4_EESaIS6_EEEeqERKNS_10OptionBaseE
FNDA:0,_ZNK5neml26OptionISt6vectorIS1_INS_10TensorNameINS_3SR2EEESaIS4_EESaIS6_EEEeqERKNS_10OptionBaseE
FNDA:0,_ZNK5neml26OptionISt6vectorIS1_INS_10TensorNameINS_3VecEEESaIS4_EESaIS6_EEEeqERKNS_10OptionBaseE
FNDA:0,_ZNK5neml26OptionISt6vectorIS1_INS_10TensorNameINS_3WR2EEESaIS4_EESaIS6_EEEeqERKNS_10OptionBaseE
FNDA:0,_ZNK5neml26OptionISt6vectorIS1_INS_10TensorNameINS_4SFR3EEESaIS4_EESaIS6_EEEeqERKNS_10OptionBaseE
FNDA:0,_ZNK5neml26OptionISt6vectorIS1_INS_10TensorNameINS_4SFR4EEESaIS4_EESaIS6_EEEeqERKNS_10OptionBaseE
FNDA:0,_ZNK5neml26OptionISt6vectorIS1_INS_10TensorNameINS_4SSR4EEESaIS4_EESaIS6_EEEeqERKNS_10OptionBaseE
FNDA:0,_ZNK5neml26OptionISt6vectorIS1_INS_10TensorNameINS_4SWR4EEESaIS4_EESaIS6_EEEeqERKNS_10OptionBaseE
FNDA:0,_ZNK5neml26OptionISt6vectorIS1_INS_10TensorNameINS_4WFR4EEESaIS4_EESaIS6_EEEeqERKNS_10OptionBaseE
FNDA:0,_ZNK5neml26OptionISt6vectorIS1_INS_10TensorNameINS_4WSR4EEESaIS4_EESaIS6_EEEeqERKNS_10OptionBaseE
FNDA:0,_ZNK5neml26OptionISt6vectorIS1_INS_10TensorNameINS_4WWR4EEESaIS4_EESaIS6_EEEeqERKNS_10OptionBaseE
FNDA:0,_ZNK5neml26OptionISt6vectorIS1_INS_10TensorNameINS_5SFFR4EEESaIS4_EESaIS6_EEEeqERKNS_10OptionBaseE
FNDA:0,_ZNK5neml26OptionISt6vectorIS1_INS_10TensorNameINS_5SSFR5EEESaIS4_EESaIS6_EEEeqERKNS_10OptionBaseE
FNDA:0,_ZNK5neml26OptionISt6vectorIS1_INS_10TensorNameINS_6SSSSR8EEESaIS4_EESaIS6_EEEeqERKNS_10OptionBaseE
FNDA:0,_ZNK5neml26OptionISt6vectorIS1_INS_10TensorNameINS_6ScalarEEESaIS4_EESaIS6_EEEeqERKNS_10OptionBaseE
FNDA:0,_ZNK5neml26OptionISt6vectorIS1_INS_10TensorNameINS_6TensorEEESaIS4_EESaIS6_EEEeqERKNS_10OptionBaseE
FNDA:0,_ZNK5neml26OptionISt6vectorIS1_INS_19LabeledAxisAccessorESaIS2_EESaIS4_EEEeqERKNS_10OptionBaseE
FNDA:0,_ZNK5neml26OptionISt6vectorIS1_INSt7__cxx1112basic_stringIcSt11char_traitsIcESaIcEEESaIS7_EESaIS9_EEEeqERKNS_10OptionBaseE
FNDA:0,_ZNK5neml26OptionISt6vectorIS1_IbSaIbEESaIS3_EEEeqERKNS_10OptionBaseE
FNDA:0,_ZNK5neml26OptionISt6vectorIS1_IdSaIdEESaIS3_EEEeqERKNS_10OptionBaseE
FNDA:0,_ZNK5neml26OptionISt6vectorIS1_IiSaIiEESaIS3_EEEeqERKNS_10OptionBaseE
FNDA:0,_ZNK5neml26OptionISt6vectorIS1_IjSaIjEESaIS3_EEEeqERKNS_10OptionBaseE
FNDA:0,_ZNK5neml26OptionISt6vectorIS1_IlSaIlEESaIS3_EEEeqERKNS_10OptionBaseE
FNDA:0,_ZNK5neml26OptionISt6vectorIS1_ImSaImEESaIS3_EEEeqERKNS_10OptionBaseE
FNDA:0,_ZNK5neml26OptionISt6vectorIbSaIbEEEeqERKNS_10OptionBaseE
FNDA:0,_ZNK5neml26OptionISt6vectorIdSaIdEEEeqERKNS_10OptionBaseE
FNDA:0,_ZNK5neml26OptionISt6vectorIiSaIiEEEeqERKNS_10OptionBaseE
FNDA:0,_ZNK5neml26OptionISt6vectorIjSaIjEEEeqERKNS_10OptionBaseE
FNDA:0,_ZNK5neml26OptionISt6vectorIlSaIlEEEeqERKNS_10OptionBaseE
FNDA:0,_ZNK5neml26OptionISt6vectorImSaImEEEeqERKNS_10OptionBaseE
FNDA:14,_ZNK5neml26OptionIbEeqERKNS_10OptionBaseE
FNDA:2,_ZNK5neml26OptionIdEeqERKNS_10OptionBaseE
FNDA:0,_ZNK5neml26OptionIiEeqERKNS_10OptionBaseE
FNDA:2,_ZNK5neml26OptionIjEeqERKNS_10OptionBaseE
FNDA:0,_ZNK5neml26OptionIlEeqERKNS_10OptionBaseE
FNDA:0,_ZNK5neml26OptionImEeqERKNS_10OptionBaseE
FNDA:0,_ZNK5neml26OptionIN3c1011SmallVectorIlLj8EEEEneERKNS_10OptionBaseE
FNDA:0,_ZNK5neml26OptionIN3c106DeviceEEneERKNS_10OptionBaseE
FNDA:0,_ZNK5neml26OptionINS_10TensorNameIN2at6TensorEEEEneERKNS_10OptionBaseE
FNDA:0,_ZNK5neml26OptionINS_10TensorNameINS_10QuaternionEEEEneERKNS_10OptionBaseE
FNDA:0,_ZNK5neml26OptionINS_10TensorNameINS_11MillerIndexEEEEneERKNS_10OptionBaseE
FNDA:0,_ZNK5neml26OptionINS_10TensorNameINS_2R2EEEEneERKNS_10OptionBaseE
FNDA:0,_ZNK5neml26OptionINS_10TensorNameINS_2R3EEEEneERKNS_10OptionBaseE
FNDA:0,_ZNK5neml26OptionINS_10TensorNameINS_2R4EEEEneERKNS_10OptionBaseE
FNDA:0,_ZNK5neml26OptionINS_10TensorNameINS_2R5EEEEneERKNS_10OptionBaseE
FNDA:0,_ZNK5neml26OptionINS_10TensorNameINS_2R8EEEEneERKNS_10OptionBaseE
FNDA:0,_ZNK5neml26OptionINS_10TensorNameINS_3RotEEEEneERKNS_10OptionBaseE
FNDA:0,_ZNK5neml26OptionINS_10TensorNameINS_3SR2EEEEneERKNS_10OptionBaseE
FNDA:0,_ZNK5neml26OptionINS_10TensorNameINS_3VecEEEEneERKNS_10OptionBaseE
FNDA:0,_ZNK5neml26OptionINS_10TensorNameINS_3WR2EEEEneERKNS_10OptionBaseE
FNDA:0,_ZNK5neml26OptionINS_10TensorNameINS_4SFR3EEEEneERKNS_10OptionBaseE
FNDA:0,_ZNK5neml26OptionINS_10TensorNameINS_4SFR4EEEEneERKNS_10OptionBaseE
FNDA:0,_ZNK5neml26OptionINS_10TensorNameINS_4SSR4EEEEneERKNS_10OptionBaseE
FNDA:0,_ZNK5neml26OptionINS_10TensorNameINS_4SWR4EEEEneERKNS_10OptionBaseE
FNDA:0,_ZNK5neml26OptionINS_10TensorNameINS_4WFR4EEEEneERKNS_10OptionBaseE
FNDA:0,_ZNK5neml26OptionINS_10TensorNameINS_4WSR4EEEEneERKNS_10OptionBaseE
FNDA:0,_ZNK5neml26OptionINS_10TensorNameINS_4WWR4EEEEneERKNS_10OptionBaseE
FNDA:0,_ZNK5neml26OptionINS_10TensorNameINS_5SFFR4EEEEneERKNS_10OptionBaseE
FNDA:0,_ZNK5neml26OptionINS_10TensorNameINS_5SSFR5EEEEneERKNS_10OptionBaseE
FNDA:0,_ZNK5neml26OptionINS_10TensorNameINS_6SSSSR8EEEEneERKNS_10OptionBaseE
FNDA:0,_ZNK5neml26OptionINS_10TensorNameINS_6ScalarEEEEneERKNS_10OptionBaseE
FNDA:0,_ZNK5neml26OptionINS_10TensorNameINS_6TensorEEEEneERKNS_10OptionBaseE
FNDA:0,_ZNK5neml26OptionINS_13EnumSelectionEEneERKNS_10OptionBaseE
FNDA:0,_ZNK5neml26OptionINS_18MultiEnumSelectionEEneERKNS_10OptionBaseE
FNDA:4,_ZNK5neml26OptionINS_19LabeledAxisAccessorEEneERKNS_10OptionBaseE
FNDA:4,_ZNK5neml26OptionINSt7__cxx1112basic_stringIcSt11char_traitsIcESaIcEEEEneERKNS_10OptionBaseE
FNDA:10,_ZNK5neml26OptionIPNS_11NEML2ObjectEEneERKNS_10OptionBaseE
FNDA:2,_ZNK5neml26OptionIPNS_7FactoryEEneERKNS_10OptionBaseE
FNDA:2,_ZNK5neml26OptionISt10shared_ptrINS_8SettingsEEEneERKNS_10OptionBaseE
FNDA:0,_ZNK5neml26OptionISt6vectorIN3c1011SmallVectorIlLj8EEESaIS4_EEEneERKNS_10OptionBaseE
FNDA:0,_ZNK5neml26OptionISt6vectorIN3c106DeviceESaIS3_EEEneERKNS_10OptionBaseE
FNDA:0,_ZNK5neml26OptionISt6vectorINS_10TensorNameIN2at6TensorEEESaIS5_EEEneERKNS_10OptionBaseE
FNDA:0,_ZNK5neml26OptionISt6vectorINS_10TensorNameINS_10QuaternionEEESaIS4_EEEneERKNS_10OptionBaseE
FNDA:0,_ZNK5neml26OptionISt6vectorINS_10TensorNameINS_11MillerIndexEEESaIS4_EEEneERKNS_10OptionBaseE
FNDA:0,_ZNK5neml26OptionISt6vectorINS_10TensorNameINS_2R2EEESaIS4_EEEneERKNS_10OptionBaseE
FNDA:0,_ZNK5neml26OptionISt6vectorINS_10TensorNameINS_2R3EEESaIS4_EEEneERKNS_10OptionBaseE
FNDA:0,_ZNK5neml26OptionISt6vectorINS_10TensorNameINS_2R4EEESaIS4_EEEneERKNS_10OptionBaseE
FNDA:0,_ZNK5neml26OptionISt6vectorINS_10TensorNameINS_2R5EEESaIS4_EEEneERKNS_10OptionBaseE
FNDA:0,_ZNK5neml26OptionISt6vectorINS_10TensorNameINS_2R8EEESaIS4_EEEneERKNS_10OptionBaseE
FNDA:0,_ZNK5neml26OptionISt6vectorINS_10TensorNameINS_3RotEEESaIS4_EEEneERKNS_10OptionBaseE
FNDA:0,_ZNK5neml26OptionISt6vectorINS_10TensorNameINS_3SR2EEESaIS4_EEEneERKNS_10OptionBaseE
FNDA:0,_ZNK5neml26OptionISt6vectorINS_10TensorNameINS_3VecEEESaIS4_EEEneERKNS_10OptionBaseE
FNDA:0,_ZNK5neml26OptionISt6vectorINS_10TensorNameINS_3WR2EEESaIS4_EEEneERKNS_10OptionBaseE
FNDA:0,_ZNK5neml26OptionISt6vectorINS_10TensorNameINS_4SFR3EEESaIS4_EEEneERKNS_10OptionBaseE
FNDA:0,_ZNK5neml26OptionISt6vectorINS_10TensorNameINS_4SFR4EEESaIS4_EEEneERKNS_10OptionBaseE
FNDA:0,_ZNK5neml26OptionISt6vectorINS_10TensorNameINS_4SSR4EEESaIS4_EEEneERKNS_10OptionBaseE
FNDA:0,_ZNK5neml26OptionISt6vectorINS_10TensorNameINS_4SWR4EEESaIS4_EEEneERKNS_10OptionBaseE
FNDA:0,_ZNK5neml26OptionISt6vectorINS_10TensorNameINS_4WFR4EEESaIS4_EEEneERKNS_10OptionBaseE
FNDA:0,_ZNK5neml26OptionISt6vectorINS_10TensorNameINS_4WSR4EEESaIS4_EEEneERKNS_10OptionBaseE
FNDA:0,_ZNK5neml26OptionISt6vectorINS_10TensorNameINS_4WWR4EEESaIS4_EEEneERKNS_10OptionBaseE
FNDA:0,_ZNK5neml26OptionISt6vectorINS_10TensorNameINS_5SFFR4EEESaIS4_EEEneERKNS_10OptionBaseE
FNDA:0,_ZNK5neml26OptionISt6vectorINS_10TensorNameINS_5SSFR5EEESaIS4_EEEneERKNS_10OptionBaseE
FNDA:0,_ZNK5neml26OptionISt6vectorINS_10TensorNameINS_6SSSSR8EEESaIS4_EEEneERKNS_10OptionBaseE
FNDA:0,_ZNK5neml26OptionISt6vectorINS_10TensorNameINS_6ScalarEEESaIS4_EEEneERKNS_10OptionBaseE
FNDA:0,_ZNK5neml26OptionISt6vectorINS_10TensorNameINS_6TensorEEESaIS4_EEEneERKNS_10OptionBaseE
FNDA:0,_ZNK5neml26OptionISt6vectorINS_19LabeledAxisAccessorESaIS2_EEEneERKNS_10OptionBaseE
FNDA:0,_ZNK5neml26OptionISt6vectorINSt7__cxx1112basic_stringIcSt11char_traitsIcESaIcEEESaIS7_EEEneERKNS_10OptionBaseE
FNDA:0,_ZNK5neml26OptionISt6vectorIS1_IN3c1011SmallVectorIlLj8EEESaIS4_EESaIS6_EEEneERKNS_10OptionBaseE
FNDA:0,_ZNK5neml26OptionISt6vectorIS1_IN3c106DeviceESaIS3_EESaIS5_EEEneERKNS_10OptionBaseE
FNDA:0,_ZNK5neml26OptionISt6vectorIS1_INS_10TensorNameIN2at6TensorEEESaIS5_EESaIS7_EEEneERKNS_10OptionBaseE
FNDA:0,_ZNK5neml26OptionISt6vectorIS1_INS_10TensorNameINS_10QuaternionEEESaIS4_EESaIS6_EEEneERKNS_10OptionBaseE
FNDA:0,_ZNK5neml26OptionISt6vectorIS1_INS_10TensorNameINS_11MillerIndexEEESaIS4_EESaIS6_EEEneERKNS_10OptionBaseE
FNDA:0,_ZNK5neml26OptionISt6vectorIS1_INS_10TensorNameINS_2R2EEESaIS4_EESaIS6_EEEneERKNS_10OptionBaseE
FNDA:0,_ZNK5neml26OptionISt6vectorIS1_INS_10TensorNameINS_2R3EEESaIS4_EESaIS6_EEEneERKNS_10OptionBaseE
FNDA:0,_ZNK5neml26OptionISt6vectorIS1_INS_10TensorNameINS_2R4EEESaIS4_EESaIS6_EEEneERKNS_10OptionBaseE
FNDA:0,_ZNK5neml26OptionISt6vectorIS1_INS_10TensorNameINS_2R5EEESaIS4_EESaIS6_EEEneERKNS_10OptionBaseE
FNDA:0,_ZNK5neml26OptionISt6vectorIS1_INS_10TensorNameINS_2R8EEESaIS4_EESaIS6_EEEneERKNS_10OptionBaseE
FNDA:0,_ZNK5neml26OptionISt6vectorIS1_INS_10TensorNameINS_3RotEEESaIS4_EESaIS6_EEEneERKNS_10OptionBaseE
FNDA:0,_ZNK5neml26OptionISt6vectorIS1_INS_10TensorNameINS_3SR2EEESaIS4_EESaIS6_EEEneERKNS_10OptionBaseE
FNDA:0,_ZNK5neml26OptionISt6vectorIS1_INS_10TensorNameINS_3VecEEESaIS4_EESaIS6_EEEneERKNS_10OptionBaseE
FNDA:0,_ZNK5neml26OptionISt6vectorIS1_INS_10TensorNameINS_3WR2EEESaIS4_EESaIS6_EEEneERKNS_10OptionBaseE
FNDA:0,_ZNK5neml26OptionISt6vectorIS1_INS_10TensorNameINS_4SFR3EEESaIS4_EESaIS6_EEEneERKNS_10OptionBaseE
FNDA:0,_ZNK5neml26OptionISt6vectorIS1_INS_10TensorNameINS_4SFR4EEESaIS4_EESaIS6_EEEneERKNS_10OptionBaseE
FNDA:0,_ZNK5neml26OptionISt6vectorIS1_INS_10TensorNameINS_4SSR4EEESaIS4_EESaIS6_EEEneERKNS_10OptionBaseE
FNDA:0,_ZNK5neml26OptionISt6vectorIS1_INS_10TensorNameINS_4SWR4EEESaIS4_EESaIS6_EEEneERKNS_10OptionBaseE
FNDA:0,_ZNK5neml26OptionISt6vectorIS1_INS_10TensorNameINS_4WFR4EEESaIS4_EESaIS6_EEEneERKNS_10OptionBaseE
FNDA:0,_ZNK5neml26OptionISt6vectorIS1_INS_10TensorNameINS_4WSR4EEESaIS4_EESaIS6_EEEneERKNS_10OptionBaseE
FNDA:0,_ZNK5neml26OptionISt6vectorIS1_INS_10TensorNameINS_4WWR4EEESaIS4_EESaIS6_EEEneERKNS_10OptionBaseE
FNDA:0,_ZNK5neml26OptionISt6vectorIS1_INS_10TensorNameINS_5SFFR4EEESaIS4_EESaIS6_EEEneERKNS_10OptionBaseE
FNDA:0,_ZNK5neml26OptionISt6vectorIS1_INS_10TensorNameINS_5SSFR5EEESaIS4_EESaIS6_EEEneERKNS_10OptionBaseE
FNDA:0,_ZNK5neml26OptionISt6vectorIS1_INS_10TensorNameINS_6SSSSR8EEESaIS4_EESaIS6_EEEneERKNS_10OptionBaseE
FNDA:0,_ZNK5neml26OptionISt6vectorIS1_INS_10TensorNameINS_6ScalarEEESaIS4_EESaIS6_EEEneERKNS_10OptionBaseE
FNDA:0,_ZNK5neml26OptionISt6vectorIS1_INS_10TensorNameINS_6TensorEEESaIS4_EESaIS6_EEEneERKNS_10OptionBaseE
FNDA:0,_ZNK5neml26OptionISt6vectorIS1_INS_19LabeledAxisAccessorESaIS2_EESaIS4_EEEneERKNS_10OptionBaseE
FNDA:0,_ZNK5neml26OptionISt6vectorIS1_INSt7__cxx1112basic_stringIcSt11char_traitsIcESaIcEEESaIS7_EESaIS9_EEEneERKNS_10OptionBaseE
FNDA:0,_ZNK5neml26OptionISt6vectorIS1_IbSaIbEESaIS3_EEEneERKNS_10OptionBaseE
FNDA:0,_ZNK5neml26OptionISt6vectorIS1_IdSaIdEESaIS3_EEEneERKNS_10OptionBaseE
FNDA:0,_ZNK5neml26OptionISt6vectorIS1_IiSaIiEESaIS3_EEEneERKNS_10OptionBaseE
FNDA:0,_ZNK5neml26OptionISt6vectorIS1_IjSaIjEESaIS3_EEEneERKNS_10OptionBaseE
FNDA:0,_ZNK5neml26OptionISt6vectorIS1_IlSaIlEESaIS3_EEEneERKNS_10OptionBaseE
FNDA:0,_ZNK5neml26OptionISt6vectorIS1_ImSaImEESaIS3_EEEneERKNS_10OptionBaseE
FNDA:0,_ZNK5neml26OptionISt6vectorIbSaIbEEEneERKNS_10OptionBaseE
FNDA:0,_ZNK5neml26OptionISt6vectorIdSaIdEEEneERKNS_10OptionBaseE
FNDA:0,_ZNK5neml26OptionISt6vectorIiSaIiEEEneERKNS_10OptionBaseE
FNDA:0,_ZNK5neml26OptionISt6vectorIjSaIjEEEneERKNS_10OptionBaseE
FNDA:0,_ZNK5neml26OptionISt6vectorIlSaIlEEEneERKNS_10OptionBaseE
FNDA:0,_ZNK5neml26OptionISt6vectorImSaImEEEneERKNS_10OptionBaseE
FNDA:14,_ZNK5neml26OptionIbEneERKNS_10OptionBaseE
FNDA:2,_ZNK5neml26OptionIdEneERKNS_10OptionBaseE
FNDA:0,_ZNK5neml26OptionIiEneERKNS_10OptionBaseE
FNDA:2,_ZNK5neml26OptionIjEneERKNS_10OptionBaseE
FNDA:0,_ZNK5neml26OptionIlEneERKNS_10OptionBaseE
FNDA:0,_ZNK5neml26OptionImEneERKNS_10OptionBaseE
FNDA:8377,_ZNK5neml26OptionIN3c1011SmallVectorIlLj8EEEE5cloneEv
FNDA:34,_ZNK5neml26OptionIN3c106DeviceEE5cloneEv
FNDA:0,_ZNK5neml26OptionINS_10TensorNameIN2at6TensorEEEE5cloneEv
FNDA:24,_ZNK5neml26OptionINS_10TensorNameINS_10QuaternionEEEE5cloneEv
FNDA:370,_ZNK5neml26OptionINS_10TensorNameINS_11MillerIndexEEEE5cloneEv
FNDA:365,_ZNK5neml26OptionINS_10TensorNameINS_2R2EEEE5cloneEv
FNDA:188,_ZNK5neml26OptionINS_10TensorNameINS_2R3EEEE5cloneEv
FNDA:188,_ZNK5neml26OptionINS_10TensorNameINS_2R4EEEE5cloneEv
FNDA:188,_ZNK5neml26OptionINS_10TensorNameINS_2R5EEEE5cloneEv
FNDA:24,_ZNK5neml26OptionINS_10TensorNameINS_2R8EEEE5cloneEv
FNDA:188,_ZNK5neml26OptionINS_10TensorNameINS_3RotEEEE5cloneEv
FNDA:523,_ZNK5neml26OptionINS_10TensorNameINS_3SR2EEEE5cloneEv
FNDA:369,_ZNK5neml26OptionINS_10TensorNameINS_3VecEEEE5cloneEv
FNDA:43,_ZNK5neml26OptionINS_10TensorNameINS_3WR2EEEE5cloneEv
FNDA:188,_ZNK5neml26OptionINS_10TensorNameINS_4SFR3EEEE5cloneEv
FNDA:188,_ZNK5neml26OptionINS_10TensorNameINS_4SFR4EEEE5cloneEv
FNDA:217,_ZNK5neml26OptionINS_10TensorNameINS_4SSR4EEEE5cloneEv
FNDA:24,_ZNK5neml26OptionINS_10TensorNameINS_4SWR4EEEE5cloneEv
FNDA:188,_ZNK5neml26OptionINS_10TensorNameINS_4WFR4EEEE5cloneEv
FNDA:24,_ZNK5neml26OptionINS_10TensorNameINS_4WSR4EEEE5cloneEv
FNDA:24,_ZNK5neml26OptionINS_10TensorNameINS_4WWR4EEEE5cloneEv
FNDA:24,_ZNK5neml26OptionINS_10TensorNameINS_5SFFR4EEEE5cloneEv
FNDA:188,_ZNK5neml26OptionINS_10TensorNameINS_5SSFR5EEEE5cloneEv
FNDA:24,_ZNK5neml26OptionINS_10TensorNameINS_6SSSSR8EEEE5cloneEv
FNDA:2609,_ZNK5neml26OptionINS_10TensorNameINS_6ScalarEEEE5cloneEv
FNDA:150,_ZNK5neml26OptionINS_10TensorNameINS_6TensorEEEE5cloneEv
FNDA:1706,_ZNK5neml26OptionINS_13EnumSelectionEE5cloneEv
FNDA:197,_ZNK5neml26OptionINS_18MultiEnumSelectionEE5cloneEv
FNDA:5947,_ZNK5neml26OptionINS_19LabeledAxisAccessorEE5cloneEv
FNDA:5186,_ZNK5neml26OptionINSt7__cxx1112basic_stringIcSt11char_traitsIcESaIcEEEE5cloneEv
FNDA:16381,_ZNK5neml26OptionIPNS_11NEML2ObjectEE5cloneEv
FNDA:16097,_ZNK5neml26OptionIPNS_7FactoryEE5cloneEv
FNDA:16097,_ZNK5neml26OptionISt10shared_ptrINS_8SettingsEEE5cloneEv
FNDA:34,_ZNK5neml26OptionISt6vectorIN3c1011SmallVectorIlLj8EEESaIS4_EEE5cloneEv
FNDA:44,_ZNK5neml26OptionISt6vectorIN3c106DeviceESaIS3_EEE5cloneEv
FNDA:4,_ZNK5neml26OptionISt6vectorINS_10TensorNameIN2at6TensorEEESaIS5_EEE5cloneEv
FNDA:2000,_ZNK5neml26OptionISt6vectorINS_10TensorNameINS_10QuaternionEEESaIS4_EEE5cloneEv
FNDA:2000,_ZNK5neml26OptionISt6vectorINS_10TensorNameINS_11MillerIndexEEESaIS4_EEE5cloneEv
FNDA:2000,_ZNK5neml26OptionISt6vectorINS_10TensorNameINS_2R2EEESaIS4_EEE5cloneEv
FNDA:2000,_ZNK5neml26OptionISt6vectorINS_10TensorNameINS_2R3EEESaIS4_EEE5cloneEv
FNDA:2000,_ZNK5neml26OptionISt6vectorINS_10TensorNameINS_2R4EEESaIS4_EEE5cloneEv
FNDA:2000,_ZNK5neml26OptionISt6vectorINS_10TensorNameINS_2R5EEESaIS4_EEE5cloneEv
FNDA:2000,_ZNK5neml26OptionISt6vectorINS_10TensorNameINS_2R8EEESaIS4_EEE5cloneEv
FNDA:2000,_ZNK5neml26OptionISt6vectorINS_10TensorNameINS_3RotEEESaIS4_EEE5cloneEv
FNDA:2000,_ZNK5neml26OptionISt6vectorINS_10TensorNameINS_3SR2EEESaIS4_EEE5cloneEv
FNDA:2000,_ZNK5neml26OptionISt6vectorINS_10TensorNameINS_3VecEEESaIS4_EEE5cloneEv
FNDA:2000,_ZNK5neml26OptionISt6vectorINS_10TensorNameINS_3WR2EEESaIS4_EEE5cloneEv
FNDA:2000,_ZNK5neml26OptionISt6vectorINS_10TensorNameINS_4SFR3EEESaIS4_EEE5cloneEv
FNDA:2000,_ZNK5neml26OptionISt6vectorINS_10TensorNameINS_4SFR4EEESaIS4_EEE5cloneEv
FNDA:2000,_ZNK5neml26OptionISt6vectorINS_10TensorNameINS_4SSR4EEESaIS4_EEE5cloneEv
FNDA:2000,_ZNK5neml26OptionISt6vectorINS_10TensorNameINS_4SWR4EEESaIS4_EEE5cloneEv
FNDA:2000,_ZNK5neml26OptionISt6vectorINS_10TensorNameINS_4WFR4EEESaIS4_EEE5cloneEv
FNDA:2000,_ZNK5neml26OptionISt6vectorINS_10TensorNameINS_4WSR4EEESaIS4_EEE5cloneEv
FNDA:2000,_ZNK5neml26OptionISt6vectorINS_10TensorNameINS_4WWR4EEESaIS4_EEE5cloneEv
FNDA:2000,_ZNK5neml26OptionISt6vectorINS_10TensorNameINS_5SFFR4EEESaIS4_EEE5cloneEv
FNDA:2000,_ZNK5neml26OptionISt6vectorINS_10TensorNameINS_5SSFR5EEESaIS4_EEE5cloneEv
FNDA:2000,_ZNK5neml26OptionISt6vectorINS_10TensorNameINS_6SSSSR8EEESaIS4_EEE5cloneEv
FNDA:3338,_ZNK5neml26OptionISt6vectorINS_10TensorNameINS_6ScalarEEESaIS4_EEE5cloneEv
FNDA:2000,_ZNK5neml26OptionISt6vectorINS_10TensorNameINS_6TensorEEESaIS4_EEE5cloneEv
FNDA:46617,_ZNK5neml26OptionISt6vectorINS_19LabeledAxisAccessorESaIS2_EEE5cloneEv
FNDA:1521,_ZNK5neml26OptionISt6vectorINSt7__cxx1112basic_stringIcSt11char_traitsIcESaIcEEESaIS7_EEE5cloneEv
FNDA:34,_ZNK5neml26OptionISt6vectorIS1_IN3c1011SmallVectorIlLj8EEESaIS4_EESaIS6_EEE5cloneEv
FNDA:34,_ZNK5neml26OptionISt6vectorIS1_IN3c106DeviceESaIS3_EESaIS5_EEE5cloneEv
FNDA:0,_ZNK5neml26OptionISt6vectorIS1_INS_10TensorNameIN2at6TensorEEESaIS5_EESaIS7_EEE5cloneEv
FNDA:0,_ZNK5neml26OptionISt6vectorIS1_INS_10TensorNameINS_10QuaternionEEESaIS4_EESaIS6_EEE5cloneEv
FNDA:0,_ZNK5neml26OptionISt6vectorIS1_INS_10TensorNameINS_11MillerIndexEEESaIS4_EESaIS6_EEE5cloneEv
FNDA:0,_ZNK5neml26OptionISt6vectorIS1_INS_10TensorNameINS_2R2EEESaIS4_EESaIS6_EEE5cloneEv
FNDA:0,_ZNK5neml26OptionISt6vectorIS1_INS_10TensorNameINS_2R3EEESaIS4_EESaIS6_EEE5cloneEv
FNDA:0,_ZNK5neml26OptionISt6vectorIS1_INS_10TensorNameINS_2R4EEESaIS4_EESaIS6_EEE5cloneEv
FNDA:0,_ZNK5neml26OptionISt6vectorIS1_INS_10TensorNameINS_2R5EEESaIS4_EESaIS6_EEE5cloneEv
FNDA:0,_ZNK5neml26OptionISt6vectorIS1_INS_10TensorNameINS_2R8EEESaIS4_EESaIS6_EEE5cloneEv
FNDA:0,_ZNK5neml26OptionISt6vectorIS1_INS_10TensorNameINS_3RotEEESaIS4_EESaIS6_EEE5cloneEv
FNDA:0,_ZNK5neml26OptionISt6vectorIS1_INS_10TensorNameINS_3SR2EEESaIS4_EESaIS6_EEE5cloneEv
FNDA:0,_ZNK5neml26OptionISt6vectorIS1_INS_10TensorNameINS_3VecEEESaIS4_EESaIS6_EEE5cloneEv
FNDA:0,_ZNK5neml26OptionISt6vectorIS1_INS_10TensorNameINS_3WR2EEESaIS4_EESaIS6_EEE5cloneEv
FNDA:0,_ZNK5neml26OptionISt6vectorIS1_INS_10TensorNameINS_4SFR3EEESaIS4_EESaIS6_EEE5cloneEv
FNDA:0,_ZNK5neml26OptionISt6vectorIS1_INS_10TensorNameINS_4SFR4EEESaIS4_EESaIS6_EEE5cloneEv
FNDA:0,_ZNK5neml26OptionISt6vectorIS1_INS_10TensorNameINS_4SSR4EEESaIS4_EESaIS6_EEE5cloneEv
FNDA:0,_ZNK5neml26OptionISt6vectorIS1_INS_10TensorNameINS_4SWR4EEESaIS4_EESaIS6_EEE5cloneEv
FNDA:0,_ZNK5neml26OptionISt6vectorIS1_INS_10TensorNameINS_4WFR4EEESaIS4_EESaIS6_EEE5cloneEv
FNDA:0,_ZNK5neml26OptionISt6vectorIS1_INS_10TensorNameINS_4WSR4EEESaIS4_EESaIS6_EEE5cloneEv
FNDA:0,_ZNK5neml26OptionISt6vectorIS1_INS_10TensorNameINS_4WWR4EEESaIS4_EESaIS6_EEE5cloneEv
FNDA:0,_ZNK5neml26OptionISt6vectorIS1_INS_10TensorNameINS_5SFFR4EEESaIS4_EESaIS6_EEE5cloneEv
FNDA:0,_ZNK5neml26OptionISt6vectorIS1_INS_10TensorNameINS_5SSFR5EEESaIS4_EESaIS6_EEE5cloneEv
FNDA:0,_ZNK5neml26OptionISt6vectorIS1_INS_10TensorNameINS_6SSSSR8EEESaIS4_EESaIS6_EEE5cloneEv
FNDA:0,_ZNK5neml26OptionISt6vectorIS1_INS_10TensorNameINS_6ScalarEEESaIS4_EESaIS6_EEE5cloneEv
FNDA:0,_ZNK5neml26OptionISt6vectorIS1_INS_10TensorNameINS_6TensorEEESaIS4_EESaIS6_EEE5cloneEv
FNDA:0,_ZNK5neml26OptionISt6vectorIS1_INS_19LabeledAxisAccessorESaIS2_EESaIS4_EEE5cloneEv
FNDA:34,_ZNK5neml26OptionISt6vectorIS1_INSt7__cxx1112basic_stringIcSt11char_traitsIcESaIcEEESaIS7_EESaIS9_EEE5cloneEv
FNDA:34,_ZNK5neml26OptionISt6vectorIS1_IbSaIbEESaIS3_EEE5cloneEv
FNDA:34,_ZNK5neml26OptionISt6vectorIS1_IdSaIdEESaIS3_EEE5cloneEv
FNDA:34,_ZNK5neml26OptionISt6vectorIS1_IiSaIiEESaIS3_EEE5cloneEv
FNDA:34,_ZNK5neml26OptionISt6vectorIS1_IjSaIjEESaIS3_EEE5cloneEv
FNDA:0,_ZNK5neml26OptionISt6vectorIS1_IlSaIlEESaIS3_EEE5cloneEv
FNDA:0,_ZNK5neml26OptionISt6vectorIS1_ImSaImEESaIS3_EEE5cloneEv
FNDA:402,_ZNK5neml26OptionISt6vectorIbSaIbEEE5cloneEv
FNDA:1117,_ZNK5neml26OptionISt6vectorIdSaIdEEE5cloneEv
FNDA:34,_ZNK5neml26OptionISt6vectorIiSaIiEEE5cloneEv
FNDA:738,_ZNK5neml26OptionISt6vectorIjSaIjEEE5cloneEv
FNDA:480,_ZNK5neml26OptionISt6vectorIlSaIlEEE5cloneEv
FNDA:20,_ZNK5neml26OptionISt6vectorImSaImEEE5cloneEv
FNDA:32073,_ZNK5neml26OptionIbE5cloneEv
FNDA:15484,_ZNK5neml26OptionIdE5cloneEv
FNDA:738,_ZNK5neml26OptionIiE5cloneEv
FNDA:3827,_ZNK5neml26OptionIjE5cloneEv
FNDA:4396,_ZNK5neml26OptionIlE5cloneEv
FNDA:26,_ZNK5neml26OptionImE5cloneEv
FNF:431
FNH:174
DA:40,245628
DA:41,245628
DA:43,245628
DA:44,245628
DA:45,245628
DA:48,36
DA:49,36
DA:51,36
DA:52,36
DA:53,36
DA:57,40
DA:59,40
DA:60,40
DA:61,0
DA:63,40
DA:68,40
DA:70,40
DA:84,231471
DA:86,231471
DA:87,231471
DA:88,231471
DA:89,462942
DA:90,231471
DA:153,0
DA:155,0
DA:156,0
DA:160,0
DA:162,0
DA:163,0
DA:167,0
DA:169,0
DA:170,0
DA:171,0
LF:33
LH:22
end_of_record
TN:
SF:/home/runner/work/neml2/neml2/src/neml2/base/OptionBase.cxx
FN:30,34,_ZN5neml2lsERSoRKNS_10OptionBaseE
FNDA:0,_ZN5neml2lsERSoRKNS_10OptionBaseE
FNF:1
FNH:0
DA:30,0
DA:32,0
DA:33,0
LF:3
LH:0
end_of_record
TN:
SF:/home/runner/work/neml2/neml2/src/neml2/base/OptionSet.cxx
FN:100,103,_ZN5neml29OptionSet5clearEv
FN:105,105,_ZN5neml29OptionSetC2ERKS0_
FN:107,107,_ZN5neml29OptionSetC2EOS0_
FN:110,116,_ZN5neml29OptionSetaSERKS0_
FN:119,125,_ZN5neml29OptionSetaSEOS0_
FN:128,132,_ZN5neml29OptionSetpLERKS0_
FN:135,139,_ZN5neml29OptionSetpLEOS0_
FN:189,192,_ZN5neml29OptionSet5beginB5cxx11Ev
FN:195,198,_ZNK5neml29OptionSet5beginB5cxx11Ev
FN:201,204,_ZN5neml29OptionSet3endB5cxx11Ev
FN:207,210,_ZNK5neml29OptionSet3endB5cxx11Ev
FN:34,44,_ZN5neml218options_compatibleERKNS_9OptionSetES2_
FN:47,50,_ZNK5neml29OptionSet8containsERKNSt7__cxx1112basic_stringIcSt11char_traitsIcESaIcEEE
FN:53,61,_ZNK5neml29OptionSet14user_specifiedERKNSt7__cxx1112basic_stringIcSt11char_traitsIcESaIcEEE
FN:64,73,_ZNK5neml29OptionSet3getERKNSt7__cxx1112basic_stringIcSt11char_traitsIcESaIcEEE
FN:76,85,_ZN5neml29OptionSet3setERKNSt7__cxx1112basic_stringIcSt11char_traitsIcESaIcEEE
FN:88,91,_ZN5neml29OptionSet9set_inputERKNSt7__cxx1112basic_stringIcSt11char_traitsIcESaIcEEE
FN:94,97,_ZN5neml29OptionSet10set_outputERKNSt7__cxx1112basic_stringIcSt11char_traitsIcESaIcEEE
FNDA:16098,_ZN5neml29OptionSet5clearEv
FNDA:11491,_ZN5neml29OptionSetC2ERKS0_
FNDA:0,_ZN5neml29OptionSetC2EOS0_
FNDA:15160,_ZN5neml29OptionSetaSERKS0_
FNDA:938,_ZN5neml29OptionSetaSEOS0_
FNDA:17726,_ZN5neml29OptionSetpLERKS0_
FNDA:498,_ZN5neml29OptionSetpLEOS0_
FNDA:8222,_ZN5neml29OptionSet5beginB5cxx11Ev
FNDA:10,_ZNK5neml29OptionSet5beginB5cxx11Ev
FNDA:8222,_ZN5neml29OptionSet3endB5cxx11Ev
FNDA:10,_ZNK5neml29OptionSet3endB5cxx11Ev
FNDA:10,_ZN5neml218options_compatibleERKNS_9OptionSetES2_
FNDA:78993,_ZNK5neml29OptionSet8containsERKNSt7__cxx1112basic_stringIcSt11char_traitsIcESaIcEEE
FNDA:117,_ZNK5neml29OptionSet14user_specifiedERKNSt7__cxx1112basic_stringIcSt11char_traitsIcESaIcEEE
FNDA:347,_ZNK5neml29OptionSet3getERKNSt7__cxx1112basic_stringIcSt11char_traitsIcESaIcEEE
FNDA:14309,_ZN5neml29OptionSet3setERKNSt7__cxx1112basic_stringIcSt11char_traitsIcESaIcEEE
FNDA:502,_ZN5neml29OptionSet9set_inputERKNSt7__cxx1112basic_stringIcSt11char_traitsIcESaIcEEE
FNDA:395,_ZN5neml29OptionSet10set_outputERKNSt7__cxx1112basic_stringIcSt11char_traitsIcESaIcEEE
FNF:18
FNH:17
DA:34,10
DA:36,50
DA:38,40
DA:39,0
DA:40,40
DA:41,0
DA:43,10
DA:47,78993
DA:49,78993
DA:53,117
DA:55,117
DA:60,117
DA:64,347
DA:66,347
DA:72,347
DA:76,14309
DA:78,14309
DA:84,14309
DA:88,502
DA:90,502
DA:94,395
DA:96,395
DA:100,16098
DA:102,16098
DA:103,16098
DA:105,11491
DA:107,0
DA:110,15160
DA:112,15160
DA:113,15160
DA:114,15160
DA:115,15160
DA:119,938
DA:121,938
DA:122,938
DA:123,938
DA:124,938
DA:128,17726
DA:130,247737
DA:131,230011
DA:132,17726
DA:135,498
DA:137,1958
DA:138,1460
DA:139,498
DA:189,8222
DA:191,8222
DA:195,10
DA:197,10
DA:201,8222
DA:203,8222
DA:207,10
DA:209,10
LF:53
LH:50
end_of_record
TN:
SF:/home/runner/work/neml2/neml2/src/neml2/base/Parser.cxx
FN:109,112,_ZN5neml25utils5parseIN3c106DeviceEEET_RKNSt7__cxx1112basic_stringIcSt11char_traitsIcESaIcEEE
FN:116,130,_ZN5neml25utils6parse_IN3c106DeviceEEEbRT_RKNSt7__cxx1112basic_stringIcSt11char_traitsIcESaIcEEE
FN:39,59,_ZN5neml25utils6parse_IbEEbRT_RKNSt7__cxx1112basic_stringIcSt11char_traitsIcESaIcEEE
FN:63,76,_ZN5neml25utils13parse_vector_IbEEbRSt6vectorIT_SaIS3_EERKNSt7__cxx1112basic_stringIcSt11char_traitsIcESaIcEEE
FN:80,85,_ZN5neml25utils6parse_INS_19LabeledAxisAccessorEEEbRT_RKNSt7__cxx1112basic_stringIcSt11char_traitsIcESaIcEEE
FN:89,105,_ZN5neml25utils6parse_IN3c1011SmallVectorIlLj8EEEEEbRT_RKNSt7__cxx1112basic_stringIcSt11char_traitsIcESaIcEEE
FNDA:0,_ZN5neml25utils5parseIN3c106DeviceEEET_RKNSt7__cxx1112basic_stringIcSt11char_traitsIcESaIcEEE
FNDA:90,_ZN5neml25utils6parse_IN3c106DeviceEEEbRT_RKNSt7__cxx1112basic_stringIcSt11char_traitsIcESaIcEEE
FNDA:367,_ZN5neml25utils6parse_IbEEbRT_RKNSt7__cxx1112basic_stringIcSt11char_traitsIcESaIcEEE
FNDA:55,_ZN5neml25utils13parse_vector_IbEEbRSt6vectorIT_SaIS3_EERKNSt7__cxx1112basic_stringIcSt11char_traitsIcESaIcEEE
FNDA:1166,_ZN5neml25utils6parse_INS_19LabeledAxisAccessorEEEbRT_RKNSt7__cxx1112basic_stringIcSt11char_traitsIcESaIcEEE
FNDA:1631,_ZN5neml25utils6parse_IN3c1011SmallVectorIlLj8EEEEEbRT_RKNSt7__cxx1112basic_stringIcSt11char_traitsIcESaIcEEE
FNF:6
FNH:5
DA:39,367
DA:41,367
DA:42,367
DA:43,367
DA:44,0
DA:46,367
DA:48,235
DA:49,235
DA:52,132
DA:54,131
DA:55,131
DA:58,1
DA:59,367
DA:63,55
DA:65,55
DA:66,55
DA:67,205
DA:69,150
DA:70,150
DA:71,150
DA:72,0
DA:73,150
DA:75,55
DA:76,55
DA:80,1166
DA:82,1166
DA:83,1166
DA:84,1166
DA:85,1166
DA:89,1631
DA:91,1631
DA:92,1
DA:94,3260
DA:95,1630
DA:97,1630
DA:98,4763
DA:100,3133
DA:101,3133
DA:102,0
DA:104,1630
DA:105,1630
DA:109,0
DA:111,0
DA:116,90
DA:118,90
DA:121,90
DA:122,90
DA:124,0
DA:127,0
DA:128,0
DA:129,0
DA:130,90
LF:52
LH:43
end_of_record
TN:
SF:/home/runner/work/neml2/neml2/src/neml2/base/Registry.cxx
FN:36,40,_ZN5neml28Registry3getEv
FN:43,67,_ZN5neml28Registry4loadERKNSt10filesystem7__cxx114pathE
FN:70,73,_ZN5neml28Registry4infoB5cxx11Ev
FN:76,84,_ZN5neml28Registry4infoERKNSt7__cxx1112basic_stringIcSt11char_traitsIcESaIcEEE
FN:87,98,_ZN5neml28Registry9add_innerERKNSt7__cxx1112basic_stringIcSt11char_traitsIcESaIcEEES8_RKNS_9OptionSetEPFSt10shared_ptrINS_11NEML2ObjectEESB_E
FNDA:6175,_ZN5neml28Registry3getEv
FNDA:2,_ZN5neml28Registry4loadERKNSt10filesystem7__cxx114pathE
FNDA:2,_ZN5neml28Registry4infoB5cxx11Ev
FNDA:5299,_ZN5neml28Registry4infoERKNSt7__cxx1112basic_stringIcSt11char_traitsIcESaIcEEE
FNDA:873,_ZN5neml28Registry9add_innerERKNSt7__cxx1112basic_stringIcSt11char_traitsIcESaIcEEES8_RKNS_9OptionSetEPFSt10shared_ptrINS_11NEML2ObjectEESB_E
FNF:5
FNH:5
DA:36,6175
DA:38,6175
DA:39,6175
DA:43,2
DA:48,2
DA:51,2
DA:52,2
DA:53,2
DA:54,4
DA:56,2
DA:59,2
DA:60,2
DA:62,2
DA:66,2
DA:67,2
DA:70,2
DA:72,2
DA:76,5299
DA:78,5299
DA:79,5299
DA:80,5299
DA:83,5299
DA:87,873
DA:92,873
DA:93,873
DA:97,873
DA:98,873
LF:27
LH:27
end_of_record
TN:
SF:/home/runner/work/neml2/neml2/src/neml2/base/Settings.cxx
FN:32,71,_ZN5neml28Settings16expected_optionsEv
FN:73,83,_ZN5neml28SettingsC2ERKNS_9OptionSetE
FNDA:392,_ZN5neml28Settings16expected_optionsEv
FNDA:392,_ZN5neml28SettingsC2ERKNS_9OptionSetE
FNF:2
FNH:2
DA:32,392
DA:34,392
DA:35,392
DA:36,392
DA:38,784
DA:40,784
DA:41,1176
DA:43,392
DA:45,784
DA:46,1176
DA:48,392
DA:50,784
DA:51,1176
DA:54,392
DA:56,784
DA:57,1176
DA:61,392
DA:63,784
DA:64,784
DA:68,392
DA:70,392
DA:71,0
DA:73,392
DA:74,784
DA:75,784
DA:76,784
DA:77,784
DA:78,392
DA:81,393
DA:82,1
DA:83,392
LF:31
LH:30
end_of_record
TN:
SF:/home/runner/work/neml2/neml2/src/neml2/base/TensorName.cxx
FN:36,68,_ZNK5neml210TensorNameIN2at6TensorEE7resolveEPNS_7FactoryE
FN:36,68,_ZNK5neml210TensorNameINS_10QuaternionEE7resolveEPNS_7FactoryE
FN:36,68,_ZNK5neml210TensorNameINS_11MillerIndexEE7resolveEPNS_7FactoryE
FN:36,68,_ZNK5neml210TensorNameINS_2R2EE7resolveEPNS_7FactoryE
FN:36,68,_ZNK5neml210TensorNameINS_2R3EE7resolveEPNS_7FactoryE
FN:36,68,_ZNK5neml210TensorNameINS_2R4EE7resolveEPNS_7FactoryE
FN:36,68,_ZNK5neml210TensorNameINS_2R5EE7resolveEPNS_7FactoryE
FN:36,68,_ZNK5neml210TensorNameINS_2R8EE7resolveEPNS_7FactoryE
FN:36,68,_ZNK5neml210TensorNameINS_3RotEE7resolveEPNS_7FactoryE
FN:36,68,_ZNK5neml210TensorNameINS_3SR2EE7resolveEPNS_7FactoryE
FN:36,68,_ZNK5neml210TensorNameINS_3VecEE7resolveEPNS_7FactoryE
FN:36,68,_ZNK5neml210TensorNameINS_3WR2EE7resolveEPNS_7FactoryE
FN:36,68,_ZNK5neml210TensorNameINS_4SFR3EE7resolveEPNS_7FactoryE
FN:36,68,_ZNK5neml210TensorNameINS_4SFR4EE7resolveEPNS_7FactoryE
FN:36,68,_ZNK5neml210TensorNameINS_4SSR4EE7resolveEPNS_7FactoryE
FN:36,68,_ZNK5neml210TensorNameINS_4SWR4EE7resolveEPNS_7FactoryE
FN:36,68,_ZNK5neml210TensorNameINS_4WFR4EE7resolveEPNS_7FactoryE
FN:36,68,_ZNK5neml210TensorNameINS_4WSR4EE7resolveEPNS_7FactoryE
FN:36,68,_ZNK5neml210TensorNameINS_4WWR4EE7resolveEPNS_7FactoryE
FN:36,68,_ZNK5neml210TensorNameINS_5SFFR4EE7resolveEPNS_7FactoryE
FN:36,68,_ZNK5neml210TensorNameINS_5SSFR5EE7resolveEPNS_7FactoryE
FN:36,68,_ZNK5neml210TensorNameINS_6SSSSR8EE7resolveEPNS_7FactoryE
FN:36,68,_ZNK5neml210TensorNameINS_6ScalarEE7resolveEPNS_7FactoryE
FN:36,68,_ZNK5neml210TensorNameINS_6TensorEE7resolveEPNS_7FactoryE
FN:72,78,_ZNK5neml210TensorNameIN2at6TensorEE14resolve_numberEd
FN:72,78,_ZNK5neml210TensorNameINS_10QuaternionEE14resolve_numberEd
FN:72,78,_ZNK5neml210TensorNameINS_11MillerIndexEE14resolve_numberEd
FN:72,78,_ZNK5neml210TensorNameINS_2R2EE14resolve_numberEd
FN:72,78,_ZNK5neml210TensorNameINS_2R3EE14resolve_numberEd
FN:72,78,_ZNK5neml210TensorNameINS_2R4EE14resolve_numberEd
FN:72,78,_ZNK5neml210TensorNameINS_2R5EE14resolve_numberEd
FN:72,78,_ZNK5neml210TensorNameINS_2R8EE14resolve_numberEd
FN:72,78,_ZNK5neml210TensorNameINS_3RotEE14resolve_numberEd
FN:72,78,_ZNK5neml210TensorNameINS_3SR2EE14resolve_numberEd
FN:72,78,_ZNK5neml210TensorNameINS_3VecEE14resolve_numberEd
FN:72,78,_ZNK5neml210TensorNameINS_3WR2EE14resolve_numberEd
FN:72,78,_ZNK5neml210TensorNameINS_4SFR3EE14resolve_numberEd
FN:72,78,_ZNK5neml210TensorNameINS_4SFR4EE14resolve_numberEd
FN:72,78,_ZNK5neml210TensorNameINS_4SSR4EE14resolve_numberEd
FN:72,78,_ZNK5neml210TensorNameINS_4SWR4EE14resolve_numberEd
FN:72,78,_ZNK5neml210TensorNameINS_4WFR4EE14resolve_numberEd
FN:72,78,_ZNK5neml210TensorNameINS_4WSR4EE14resolve_numberEd
FN:72,78,_ZNK5neml210TensorNameINS_4WWR4EE14resolve_numberEd
FN:72,78,_ZNK5neml210TensorNameINS_5SFFR4EE14resolve_numberEd
FN:72,78,_ZNK5neml210TensorNameINS_5SSFR5EE14resolve_numberEd
FN:72,78,_ZNK5neml210TensorNameINS_6SSSSR8EE14resolve_numberEd
FN:72,78,_ZNK5neml210TensorNameINS_6ScalarEE14resolve_numberEd
FN:72,78,_ZNK5neml210TensorNameINS_6TensorEE14resolve_numberEd
FNDA:1,_ZNK5neml210TensorNameIN2at6TensorEE7resolveEPNS_7FactoryE
FNDA:0,_ZNK5neml210TensorNameINS_10QuaternionEE7resolveEPNS_7FactoryE
FNDA:132,_ZNK5neml210TensorNameINS_11MillerIndexEE7resolveEPNS_7FactoryE
FNDA:40,_ZNK5neml210TensorNameINS_2R2EE7resolveEPNS_7FactoryE
FNDA:4,_ZNK5neml210TensorNameINS_2R3EE7resolveEPNS_7FactoryE
FNDA:4,_ZNK5neml210TensorNameINS_2R4EE7resolveEPNS_7FactoryE
FNDA:4,_ZNK5neml210TensorNameINS_2R5EE7resolveEPNS_7FactoryE
FNDA:0,_ZNK5neml210TensorNameINS_2R8EE7resolveEPNS_7FactoryE
FNDA:21,_ZNK5neml210TensorNameINS_3RotEE7resolveEPNS_7FactoryE
FNDA:168,_ZNK5neml210TensorNameINS_3SR2EE7resolveEPNS_7FactoryE
FNDA:17,_ZNK5neml210TensorNameINS_3VecEE7resolveEPNS_7FactoryE
FNDA:11,_ZNK5neml210TensorNameINS_3WR2EE7resolveEPNS_7FactoryE
FNDA:4,_ZNK5neml210TensorNameINS_4SFR3EE7resolveEPNS_7FactoryE
FNDA:4,_ZNK5neml210TensorNameINS_4SFR4EE7resolveEPNS_7FactoryE
FNDA:15,_ZNK5neml210TensorNameINS_4SSR4EE7resolveEPNS_7FactoryE
FNDA:0,_ZNK5neml210TensorNameINS_4SWR4EE7resolveEPNS_7FactoryE
FNDA:4,_ZNK5neml210TensorNameINS_4WFR4EE7resolveEPNS_7FactoryE
FNDA:0,_ZNK5neml210TensorNameINS_4WSR4EE7resolveEPNS_7FactoryE
FNDA:0,_ZNK5neml210TensorNameINS_4WWR4EE7resolveEPNS_7FactoryE
FNDA:0,_ZNK5neml210TensorNameINS_5SFFR4EE7resolveEPNS_7FactoryE
FNDA:4,_ZNK5neml210TensorNameINS_5SSFR5EE7resolveEPNS_7FactoryE
FNDA:0,_ZNK5neml210TensorNameINS_6SSSSR8EE7resolveEPNS_7FactoryE
FNDA:1938,_ZNK5neml210TensorNameINS_6ScalarEE7resolveEPNS_7FactoryE
FNDA:35,_ZNK5neml210TensorNameINS_6TensorEE7resolveEPNS_7FactoryE
FNDA:1,_ZNK5neml210TensorNameIN2at6TensorEE14resolve_numberEd
FNDA:0,_ZNK5neml210TensorNameINS_10QuaternionEE14resolve_numberEd
FNDA:0,_ZNK5neml210TensorNameINS_11MillerIndexEE14resolve_numberEd
FNDA:1,_ZNK5neml210TensorNameINS_2R2EE14resolve_numberEd
FNDA:0,_ZNK5neml210TensorNameINS_2R3EE14resolve_numberEd
FNDA:0,_ZNK5neml210TensorNameINS_2R4EE14resolve_numberEd
FNDA:0,_ZNK5neml210TensorNameINS_2R5EE14resolve_numberEd
FNDA:0,_ZNK5neml210TensorNameINS_2R8EE14resolve_numberEd
FNDA:0,_ZNK5neml210TensorNameINS_3RotEE14resolve_numberEd
FNDA:14,_ZNK5neml210TensorNameINS_3SR2EE14resolve_numberEd
FNDA:0,_ZNK5neml210TensorNameINS_3VecEE14resolve_numberEd
FNDA:0,_ZNK5neml210TensorNameINS_3WR2EE14resolve_numberEd
FNDA:0,_ZNK5neml210TensorNameINS_4SFR3EE14resolve_numberEd
FNDA:0,_ZNK5neml210TensorNameINS_4SFR4EE14resolve_numberEd
FNDA:0,_ZNK5neml210TensorNameINS_4SSR4EE14resolve_numberEd
FNDA:0,_ZNK5neml210TensorNameINS_4SWR4EE14resolve_numberEd
FNDA:0,_ZNK5neml210TensorNameINS_4WFR4EE14resolve_numberEd
FNDA:0,_ZNK5neml210TensorNameINS_4WSR4EE14resolve_numberEd
FNDA:0,_ZNK5neml210TensorNameINS_4WWR4EE14resolve_numberEd
FNDA:0,_ZNK5neml210TensorNameINS_5SFFR4EE14resolve_numberEd
FNDA:0,_ZNK5neml210TensorNameINS_5SSFR5EE14resolve_numberEd
FNDA:0,_ZNK5neml210TensorNameINS_6SSSSR8EE14resolve_numberEd
FNDA:1600,_ZNK5neml210TensorNameINS_6ScalarEE14resolve_numberEd
FNDA:17,_ZNK5neml210TensorNameINS_6TensorEE14resolve_numberEd
FNF:48
FNH:22
DA:36,2406
DA:39,2406
DA:40,11
DA:41,2395
DA:42,2395
DA:43,2395
DA:44,1633
DA:47,762
DA:48,6
DA:50,756
DA:51,0
DA:53,0
DA:57,2346
DA:58,678
DA:60,156
DA:62,156
DA:63,78
DA:65,78
DA:66,78
DA:72,1633
DA:75,18
DA:77,1615
LF:22
LH:20
end_of_record
TN:
SF:/home/runner/work/neml2/neml2/src/neml2/base/TracingInterface.cxx
FN:106,114,_ZN5neml211TraceWriter20trace_duration_beginERKNSt7__cxx1112basic_stringIcSt11char_traitsIcESaIcEEES8_RKN8nlohmann16json_abi_v3_11_310basic_jsonISt3mapSt6vectorS6_blmdSaNSA_14adl_serializerESD_IhSaIhEEvEEj
FN:117,125,_ZN5neml211TraceWriter18trace_duration_endERKNSt7__cxx1112basic_stringIcSt11char_traitsIcESaIcEEES8_RKN8nlohmann16json_abi_v3_11_310basic_jsonISt3mapSt6vectorS6_blmdSaNSA_14adl_serializerESD_IhSaIhEEvEEj
FN:128,138,_ZN5neml211TraceWriter13trace_instantERKNSt7__cxx1112basic_stringIcSt11char_traitsIcESaIcEEES8_RKN8nlohmann16json_abi_v3_11_310basic_jsonISt3mapSt6vectorS6_blmdSaNSA_14adl_serializerESD_IhSaIhEEvEES8_j
FN:142,149,_ZN5neml216TracingInterface16expected_optionsEv
FN:151,155,_ZN5neml216TracingInterfaceC2ENSt7__cxx1112basic_stringIcSt11char_traitsIcESaIcEEE
FN:157,160,_ZN5neml216TracingInterfaceC2ERKNS_9OptionSetE
FN:163,183,_ZN5neml216TracingInterface11init_writerENSt7__cxx1112basic_stringIcSt11char_traitsIcESaIcEEE
FN:186,191,_ZNK5neml216TracingInterface18event_trace_writerEv
FN:36,40,_ZN5neml219event_trace_writersB5cxx11Ev
FN:42,60,_ZN5neml211TraceWriterC2ERKNSt10filesystem7__cxx114pathE
FN:62,72,_ZN5neml211TraceWriterD2Ev
FN:76,93,_ZN5neml211TraceWriter18write_event_commonERN8nlohmann16json_abi_v3_11_310basic_jsonISt3mapSt6vectorNSt7__cxx1112basic_stringIcSt11char_traitsIcESaIcEEEblmdSaNS2_14adl_serializerES5_IhSaIhEEvEERKSB_SI_RKSF_SI_j
FN:96,103,_ZN5neml211TraceWriter10dump_eventERKN8nlohmann16json_abi_v3_11_310basic_jsonISt3mapSt6vectorNSt7__cxx1112basic_stringIcSt11char_traitsIcESaIcEEEblmdSaNS2_14adl_serializerES5_IhSaIhEEvEEb
FNDA:7,_ZN5neml211TraceWriter20trace_duration_beginERKNSt7__cxx1112basic_stringIcSt11char_traitsIcESaIcEEES8_RKN8nlohmann16json_abi_v3_11_310basic_jsonISt3mapSt6vectorS6_blmdSaNSA_14adl_serializerESD_IhSaIhEEvEEj
FNDA:4,_ZN5neml211TraceWriter18trace_duration_endERKNSt7__cxx1112basic_stringIcSt11char_traitsIcESaIcEEES8_RKN8nlohmann16json_abi_v3_11_310basic_jsonISt3mapSt6vectorS6_blmdSaNSA_14adl_serializerESD_IhSaIhEEvEEj
FNDA:4,_ZN5neml211TraceWriter13trace_instantERKNSt7__cxx1112basic_stringIcSt11char_traitsIcESaIcEEES8_RKN8nlohmann16json_abi_v3_11_310basic_jsonISt3mapSt6vectorS6_blmdSaNSA_14adl_serializerESD_IhSaIhEEvEES8_j
FNDA:17,_ZN5neml216TracingInterface16expected_optionsEv
FNDA:15,_ZN5neml216TracingInterfaceC2ENSt7__cxx1112basic_stringIcSt11char_traitsIcESaIcEEE
FNDA:11,_ZN5neml216TracingInterfaceC2ERKNS_9OptionSetE
FNDA:4,_ZN5neml216TracingInterface11init_writerENSt7__cxx1112basic_stringIcSt11char_traitsIcESaIcEEE
FNDA:4,_ZNK5neml216TracingInterface18event_trace_writerEv
FNDA:8,_ZN5neml219event_trace_writersB5cxx11Ev
FNDA:3,_ZN5neml211TraceWriterC2ERKNSt10filesystem7__cxx114pathE
FNDA:3,_ZN5neml211TraceWriterD2Ev
FNDA:18,_ZN5neml211TraceWriter18write_event_commonERN8nlohmann16json_abi_v3_11_310basic_jsonISt3mapSt6vectorNSt7__cxx1112basic_stringIcSt11char_traitsIcESaIcEEEblmdSaNS2_14adl_serializerES5_IhSaIhEEvEERKSB_SI_RKSF_SI_j
FNDA:18,_ZN5neml211TraceWriter10dump_eventERKN8nlohmann16json_abi_v3_11_310basic_jsonISt3mapSt6vectorNSt7__cxx1112basic_stringIcSt11char_traitsIcESaIcEEEblmdSaNS2_14adl_serializerES5_IhSaIhEEvEEb
FNF:13
FNH:13
DA:36,8
DA:38,8
DA:39,8
DA:42,3
DA:43,3
DA:44,3
DA:48,3
DA:49,3
DA:50,3
DA:55,3
DA:56,3
DA:58,24
DA:60,15
DA:62,6
DA:65,3
DA:66,24
DA:67,3
DA:68,3
DA:69,3
DA:70,3
DA:72,15
DA:76,18
DA:83,18
DA:84,18
DA:85,18
DA:86,36
DA:87,18
DA:88,36
DA:89,18
DA:90,18
DA:91,36
DA:92,18
DA:93,18
DA:96,18
DA:98,18
DA:99,18
DA:100,18
DA:101,15
DA:102,18
DA:103,18
DA:106,7
DA:111,7
DA:112,7
DA:113,7
DA:114,7
DA:117,4
DA:122,4
DA:123,4
DA:124,4
DA:125,4
DA:128,4
DA:134,4
DA:135,4
DA:136,4
DA:137,4
DA:138,4
DA:142,17
DA:144,17
DA:145,34
DA:146,34
DA:147,17
DA:148,17
DA:149,0
DA:151,15
DA:152,30
DA:153,15
DA:155,15
DA:157,11
DA:158,11
DA:160,11
DA:163,4
DA:170,4
DA:172,4
DA:173,4
DA:174,4
DA:175,4
DA:176,1
DA:179,3
DA:180,3
DA:181,3
DA:182,3
DA:183,4
DA:186,4
DA:188,4
DA:189,4
DA:190,4
LF:86
LH:85
end_of_record
TN:
SF:/home/runner/work/neml2/neml2/src/neml2/dispatchers/SimpleMPIScheduler.cxx
FN:111,130,_ZN5neml218SimpleMPIScheduler19determine_my_deviceEv
FN:133,141,_ZNK5neml218SimpleMPIScheduler18schedule_work_implERN3c106DeviceERm
FN:144,147,_ZN5neml218SimpleMPIScheduler20dispatched_work_implEN3c106DeviceEm
FN:150,154,_ZN5neml218SimpleMPIScheduler19completed_work_implEN3c106DeviceEm
FN:157,160,_ZNK5neml218SimpleMPIScheduler18all_work_completedEv
FN:37,53,_ZN5neml218SimpleMPIScheduler16expected_optionsEv
FN:55,69,_ZN5neml218SimpleMPISchedulerC2ERKNS_9OptionSetE
FN:72,108,_ZN5neml218SimpleMPIScheduler5setupEv
FNDA:0,_ZN5neml218SimpleMPIScheduler19determine_my_deviceEv
FNDA:0,_ZNK5neml218SimpleMPIScheduler18schedule_work_implERN3c106DeviceERm
FNDA:0,_ZN5neml218SimpleMPIScheduler20dispatched_work_implEN3c106DeviceEm
FNDA:0,_ZN5neml218SimpleMPIScheduler19completed_work_implEN3c106DeviceEm
FNDA:0,_ZNK5neml218SimpleMPIScheduler18all_work_completedEv
FNDA:2,_ZN5neml218SimpleMPIScheduler16expected_optionsEv
FNDA:0,_ZN5neml218SimpleMPISchedulerC2ERKNS_9OptionSetE
FNDA:0,_ZN5neml218SimpleMPIScheduler5setupEv
FNF:8
FNH:1
DA:37,2
DA:39,2
DA:40,2
DA:41,2
DA:43,4
DA:44,4
DA:46,4
DA:47,2
DA:49,6
DA:50,2
DA:52,2
DA:53,0
DA:55,0
DA:57,0
DA:58,0
DA:59,0
DA:60,0
DA:61,0
DA:62,0
DA:64,0
DA:66,0
DA:67,0
DA:69,0
DA:72,0
DA:74,0
DA:79,0
DA:80,0
DA:82,0
DA:83,0
DA:84,0
DA:86,0
DA:92,0
DA:93,0
DA:95,0
DA:96,0
DA:98,0
DA:99,0
DA:100,0
DA:103,0
DA:105,0
DA:107,0
DA:108,0
DA:111,0
DA:115,0
DA:116,0
DA:117,0
DA:120,0
DA:123,0
DA:124,0
DA:126,0
DA:127,0
DA:130,0
DA:133,0
DA:135,0
DA:136,0
DA:138,0
DA:139,0
DA:140,0
DA:144,0
DA:146,0
DA:147,0
DA:150,0
DA:152,0
DA:153,0
DA:154,0
DA:157,0
DA:159,0
LF:67
LH:11
end_of_record
TN:
SF:/home/runner/work/neml2/neml2/src/neml2/dispatchers/SimpleScheduler.cxx
FN:34,50,_ZN5neml215SimpleScheduler16expected_optionsEv
FN:52,59,_ZN5neml215SimpleSchedulerC2ERKNS_9OptionSetE
FN:62,70,_ZNK5neml215SimpleScheduler18schedule_work_implERN3c106DeviceERm
FN:73,76,_ZN5neml215SimpleScheduler20dispatched_work_implEN3c106DeviceEm
FN:79,83,_ZN5neml215SimpleScheduler19completed_work_implEN3c106DeviceEm
FN:86,89,_ZNK5neml215SimpleScheduler18all_work_completedEv
FNDA:11,_ZN5neml215SimpleScheduler16expected_optionsEv
FNDA:9,_ZN5neml215SimpleSchedulerC2ERKNS_9OptionSetE
FNDA:84,_ZNK5neml215SimpleScheduler18schedule_work_implERN3c106DeviceERm
FNDA:23,_ZN5neml215SimpleScheduler20dispatched_work_implEN3c106DeviceEm
FNDA:23,_ZN5neml215SimpleScheduler19completed_work_implEN3c106DeviceEm
FNDA:12,_ZNK5neml215SimpleScheduler18all_work_completedEv
FNF:6
FNH:6
DA:34,11
DA:36,11
DA:37,11
DA:39,22
DA:40,22
DA:42,22
DA:43,22
DA:45,22
DA:46,22
DA:47,11
DA:49,11
DA:50,0
DA:52,9
DA:54,18
DA:55,18
DA:56,9
DA:57,9
DA:59,9
DA:62,84
DA:64,84
DA:65,38
DA:67,46
DA:68,46
DA:69,46
DA:73,23
DA:75,23
DA:76,23
DA:79,23
DA:81,23
DA:82,23
DA:83,23
DA:86,12
DA:88,12
LF:33
LH:32
end_of_record
TN:
SF:/home/runner/work/neml2/neml2/src/neml2/dispatchers/SliceGenerator.cxx
FN:30,39,_ZN5neml214SliceGeneratorC2Emm
FN:42,45,_ZNK5neml214SliceGenerator5totalEv
FN:48,53,_ZN5neml214SliceGenerator8generateEm
FNDA:14,_ZN5neml214SliceGeneratorC2Emm
FNDA:71,_ZNK5neml214SliceGenerator5totalEv
FNDA:57,_ZN5neml214SliceGenerator8generateEm
FNF:3
FNH:3
DA:30,14
DA:31,14
DA:32,14
DA:34,14
DA:36,14
DA:38,14
DA:39,14
DA:42,71
DA:44,71
DA:48,57
DA:50,57
DA:51,57
DA:52,114
DA:53,57
LF:14
LH:14
end_of_record
TN:
SF:/home/runner/work/neml2/neml2/src/neml2/dispatchers/StaticHybridScheduler.cxx
FN:140,143,_ZN5neml221StaticHybridScheduler27set_availability_calculatorESt8functionIFdRKNS0_12DeviceStatusEEE
FN:146,165,_ZNK5neml221StaticHybridScheduler18schedule_work_implERN3c106DeviceERm
FN:168,180,_ZN5neml221StaticHybridScheduler20dispatched_work_implEN3c106DeviceEm
FN:183,194,_ZN5neml221StaticHybridScheduler19completed_work_implEN3c106DeviceEm
FN:197,203,_ZNK5neml221StaticHybridScheduler18all_work_completedEv
FN:36,54,_ZN5neml221StaticHybridScheduler16expected_optionsEv
FN:56,60,_ZN5neml221StaticHybridSchedulerC2ERKNS_9OptionSetE
FN:63,137,_ZN5neml221StaticHybridScheduler5setupEv
FNDA:0,_ZN5neml221StaticHybridScheduler27set_availability_calculatorESt8functionIFdRKNS0_12DeviceStatusEEE
FNDA:0,_ZNK5neml221StaticHybridScheduler18schedule_work_implERN3c106DeviceERm
FNDA:5,_ZN5neml221StaticHybridScheduler20dispatched_work_implEN3c106DeviceEm
FNDA:4,_ZN5neml221StaticHybridScheduler19completed_work_implEN3c106DeviceEm
FNDA:0,_ZNK5neml221StaticHybridScheduler18all_work_completedEv
FNDA:4,_ZN5neml221StaticHybridScheduler16expected_optionsEv
FNDA:2,_ZN5neml221StaticHybridSchedulerC2ERKNS_9OptionSetE
FNDA:2,_ZN5neml221StaticHybridScheduler5setupEv
FNF:8
FNH:5
DA:36,4
DA:38,4
DA:39,4
DA:41,8
DA:42,8
DA:44,8
DA:45,4
DA:47,12
DA:48,4
DA:50,12
DA:51,4
DA:53,4
DA:54,0
DA:56,2
DA:58,6
DA:60,2
DA:63,2
DA:65,2
DA:67,4
DA:68,4
DA:69,4
DA:70,4
DA:76,6
DA:77,4
DA:79,2
DA:80,2
DA:82,2
DA:83,2
DA:85,0
DA:90,2
DA:91,2
DA:93,1
DA:94,4
DA:96,3
DA:97,1
DA:98,2
DA:99,2
DA:100,2
DA:103,2
DA:105,1
DA:108,2
DA:109,2
DA:110,1
DA:112,1
DA:116,2
DA:117,2
DA:118,0
DA:119,2
DA:120,1
DA:122,1
DA:126,2
DA:127,2
DA:128,0
DA:130,2
DA:134,6
DA:135,4
DA:136,4
DA:137,2
DA:140,0
DA:142,0
DA:143,0
DA:146,0
DA:148,0
DA:149,0
DA:151,0
DA:152,0
DA:155,0
DA:156,0
DA:158,0
DA:159,0
DA:160,0
DA:164,0
DA:168,5
DA:170,8
DA:171,8
DA:173,5
DA:175,5
DA:176,5
DA:179,0
DA:183,4
DA:185,7
DA:186,7
DA:188,4
DA:189,4
DA:190,4
DA:193,0
DA:197,0
DA:199,0
DA:200,0
DA:201,0
DA:202,0
LF:91
LH:66
end_of_record
TN:
SF:/home/runner/work/neml2/neml2/src/neml2/dispatchers/TensorLoader.cxx
FN:29,34,_ZN5neml212TensorLoaderC2ERKNS_6TensorEl
FN:37,40,_ZNK5neml212TensorLoader5totalEv
FN:43,48,_ZN5neml212TensorLoader8generateEm
FNDA:1,_ZN5neml212TensorLoaderC2ERKNS_6TensorEl
FNDA:5,_ZNK5neml212TensorLoader5totalEv
FNDA:3,_ZN5neml212TensorLoader8generateEm
FNF:3
FNH:3
DA:29,1
DA:30,1
DA:31,1
DA:32,1
DA:34,1
DA:37,5
DA:39,5
DA:43,3
DA:45,3
DA:46,3
DA:47,6
DA:48,3
LF:12
LH:12
end_of_record
TN:
SF:/home/runner/work/neml2/neml2/src/neml2/dispatchers/ValueMapLoader.cxx
FN:31,49,_ZN5neml220broadcast_batch_sizeERKSt3mapINS_19LabeledAxisAccessorENS_6TensorESt4lessIS1_ESaISt4pairIKS1_S2_EEEl
FN:51,56,_ZN5neml214ValueMapLoaderC2ERKSt3mapINS_19LabeledAxisAccessorENS_6TensorESt4lessIS2_ESaISt4pairIKS2_S3_EEEl
FN:59,62,_ZNK5neml214ValueMapLoader5totalEv
FN:65,74,_ZN5neml214ValueMapLoader8generateEm
FNDA:6,_ZN5neml220broadcast_batch_sizeERKSt3mapINS_19LabeledAxisAccessorENS_6TensorESt4lessIS1_ESaISt4pairIKS1_S2_EEEl
FNDA:6,_ZN5neml214ValueMapLoaderC2ERKSt3mapINS_19LabeledAxisAccessorENS_6TensorESt4lessIS2_ESaISt4pairIKS2_S3_EEEl
FNDA:17,_ZNK5neml214ValueMapLoader5totalEv
FNDA:13,_ZN5neml214ValueMapLoader8generateEm
FNF:4
FNH:4
DA:31,6
DA:33,6
DA:34,18
DA:35,12
DA:36,18
DA:38,12
DA:39,12
DA:48,6
DA:51,6
DA:52,6
DA:53,6
DA:54,6
DA:56,6
DA:59,17
DA:61,17
DA:65,13
DA:67,13
DA:69,13
DA:70,39
DA:71,26
DA:73,26
DA:74,13
LF:22
LH:22
end_of_record
TN:
SF:/home/runner/work/neml2/neml2/src/neml2/dispatchers/WorkScheduler.cxx
FN:105,114,_ZN5neml213WorkScheduler14completed_workEN3c106DeviceEm
FN:117,134,_ZN5neml213WorkScheduler19wait_for_completionEv
FN:128,128,_ZZN5neml213WorkScheduler19wait_for_completionEvENKUlvE_clEv
FN:32,39,_ZN5neml213WorkScheduler16expected_optionsEv
FN:41,45,_ZN5neml213WorkSchedulerC2ERKNS_9OptionSetE
FN:49,55,_ZN5neml2L7to_jsonERKN3c106DeviceERKm
FN:59,85,_ZN5neml213WorkScheduler13schedule_workERN3c106DeviceERm
FN:78,78,_ZZN5neml213WorkScheduler13schedule_workERN3c106DeviceERmENKUlvE_clEv
FN:88,102,_ZN5neml213WorkScheduler15dispatched_workEN3c106DeviceEm
FNDA:27,_ZN5neml213WorkScheduler14completed_workEN3c106DeviceEm
FNDA:4,_ZN5neml213WorkScheduler19wait_for_completionEv
FNDA:8,_ZZN5neml213WorkScheduler19wait_for_completionEvENKUlvE_clEv
FNDA:17,_ZN5neml213WorkScheduler16expected_optionsEv
FNDA:11,_ZN5neml213WorkSchedulerC2ERKNS_9OptionSetE
FNDA:0,_ZN5neml2L7to_jsonERKN3c106DeviceERKm
FNDA:46,_ZN5neml213WorkScheduler13schedule_workERN3c106DeviceERm
FNDA:38,_ZZN5neml213WorkScheduler13schedule_workERN3c106DeviceERmENKUlvE_clEv
FNDA:28,_ZN5neml213WorkScheduler15dispatched_workEN3c106DeviceEm
FNF:9
FNH:8
DA:32,17
DA:34,17
DA:35,17
DA:36,17
DA:38,17
DA:39,0
DA:41,11
DA:43,11
DA:45,11
DA:49,0
DA:51,0
DA:52,0
DA:53,0
DA:54,0
DA:55,0
DA:59,46
DA:61,46
DA:64,46
DA:65,0
DA:68,46
DA:71,27
DA:72,0
DA:73,0
DA:75,27
DA:77,19
DA:78,38
DA:81,19
DA:82,0
DA:83,0
DA:85,46
DA:88,28
DA:91,28
DA:92,0
DA:95,28
DA:96,28
DA:99,28
DA:100,0
DA:102,28
DA:105,27
DA:108,27
DA:109,0
DA:111,27
DA:112,27
DA:113,27
DA:114,27
DA:117,4
DA:119,4
DA:120,4
DA:123,0
DA:124,0
DA:126,0
DA:128,12
DA:131,4
DA:132,0
DA:134,4
LF:55
LH:36
end_of_record
TN:
SF:/home/runner/work/neml2/neml2/src/neml2/dispatchers/derivmap_helpers.cxx
FN:33,62,_ZN5neml219derivmap_cat_reduceEOSt6vectorISt3mapINS_19LabeledAxisAccessorES1_IS2_NS_6TensorESt4lessIS2_ESaISt4pairIKS2_S3_EEES5_SaIS6_IS7_SA_EEESaISD_EEl
FN:65,72,_ZN5neml220derivmap_move_deviceEOSt3mapINS_19LabeledAxisAccessorES0_IS1_NS_6TensorESt4lessIS1_ESaISt4pairIKS1_S2_EEES4_SaIS5_IS6_S9_EEEN3c106DeviceE
FN:75,78,_ZN5neml221derivmap_no_operationEOSt3mapINS_19LabeledAxisAccessorES0_IS1_NS_6TensorESt4lessIS1_ESaISt4pairIKS1_S2_EEES4_SaIS5_IS6_S9_EEE
FNDA:1,_ZN5neml219derivmap_cat_reduceEOSt6vectorISt3mapINS_19LabeledAxisAccessorES1_IS2_NS_6TensorESt4lessIS2_ESaISt4pairIKS2_S3_EEES5_SaIS6_IS7_SA_EEESaISD_EEl
FNDA:0,_ZN5neml220derivmap_move_deviceEOSt3mapINS_19LabeledAxisAccessorES0_IS1_NS_6TensorESt4lessIS1_ESaISt4pairIKS1_S2_EEES4_SaIS5_IS6_S9_EEEN3c106DeviceE
FNDA:1,_ZN5neml221derivmap_no_operationEOSt3mapINS_19LabeledAxisAccessorES0_IS1_NS_6TensorESt4lessIS1_ESaISt4pairIKS1_S2_EEES4_SaIS5_IS6_S9_EEE
FNF:3
FNH:2
DA:33,1
DA:36,1
DA:37,3
DA:38,4
DA:39,4
DA:40,2
DA:43,1
DA:44,2
DA:45,2
DA:47,1
DA:50,0
DA:51,0
DA:52,0
DA:53,0
DA:55,0
DA:58,1
DA:61,2
DA:62,1
DA:65,0
DA:68,0
DA:69,0
DA:70,0
DA:71,0
DA:75,1
DA:77,1
LF:25
LH:15
end_of_record
TN:
SF:/home/runner/work/neml2/neml2/src/neml2/dispatchers/valuemap_helpers.cxx
FN:32,46,_ZN5neml219valuemap_cat_reduceEOSt6vectorISt3mapINS_19LabeledAxisAccessorENS_6TensorESt4lessIS2_ESaISt4pairIKS2_S3_EEESaISA_EEl
FN:49,55,_ZN5neml220valuemap_move_deviceEOSt3mapINS_19LabeledAxisAccessorENS_6TensorESt4lessIS1_ESaISt4pairIKS1_S2_EEEN3c106DeviceE
FN:58,61,_ZN5neml221valuemap_no_operationEOSt3mapINS_19LabeledAxisAccessorENS_6TensorESt4lessIS1_ESaISt4pairIKS1_S2_EEE
FNDA:3,_ZN5neml219valuemap_cat_reduceEOSt6vectorISt3mapINS_19LabeledAxisAccessorENS_6TensorESt4lessIS2_ESaISt4pairIKS2_S3_EEESaISA_EEl
FNDA:10,_ZN5neml220valuemap_move_deviceEOSt3mapINS_19LabeledAxisAccessorENS_6TensorESt4lessIS1_ESaISt4pairIKS1_S2_EEEN3c106DeviceE
FNDA:11,_ZN5neml221valuemap_no_operationEOSt3mapINS_19LabeledAxisAccessorENS_6TensorESt4lessIS1_ESaISt4pairIKS1_S2_EEE
FNF:3
FNH:3
DA:32,3
DA:35,3
DA:36,15
DA:37,26
DA:38,14
DA:41,3
DA:42,7
DA:43,4
DA:45,6
DA:46,3
DA:49,10
DA:52,30
DA:53,20
DA:54,10
DA:58,11
DA:60,11
LF:16
LH:16
end_of_record
TN:
SF:/home/runner/work/neml2/neml2/src/neml2/drivers/Driver.cxx
FN:33,45,_ZN5neml26Driver16expected_optionsEv
FN:47,54,_ZN5neml26DriverC2ERKNS_9OptionSetE
FNDA:14,_ZN5neml26Driver16expected_optionsEv
FNDA:190,_ZN5neml26DriverC2ERKNS_9OptionSetE
FNF:2
FNH:2
DA:33,14
DA:35,14
DA:36,14
DA:38,28
DA:39,28
DA:41,28
DA:42,14
DA:44,14
DA:45,0
DA:47,190
DA:50,570
DA:52,380
DA:53,0
DA:54,190
LF:14
LH:12
end_of_record
TN:
SF:/home/runner/work/neml2/neml2/src/neml2/drivers/ModelDriver.cxx
FN:109,120,_ZZN5neml211ModelDriver5setupEvENKUlOSt3mapINS_19LabeledAxisAccessorENS_6TensorESt4lessIS2_ESaISt4pairIKS2_S3_EEEN3c106DeviceEE_clESB_SD_
FN:145,149,_ZNK5neml211ModelDriver8diagnoseEv
FN:36,66,_ZN5neml211ModelDriver16expected_optionsEv
FN:68,81,_ZN5neml211ModelDriverC2ERKNS_9OptionSetE
FN:84,142,_ZN5neml211ModelDriver5setupEv
FN:92,93,_ZZN5neml211ModelDriver5setupEvENKUlOSt6vectorISt3mapINS_19LabeledAxisAccessorENS_6TensorESt4lessIS3_ESaISt4pairIKS3_S4_EEESaISB_EEE_clESE_
FN:95,96,_ZZN5neml211ModelDriver5setupEvENKUlOSt3mapINS_19LabeledAxisAccessorENS_6TensorESt4lessIS2_ESaISt4pairIKS2_S3_EEEE_clESB_
FN:98,104,_ZZN5neml211ModelDriver5setupEvENKUlN3c106DeviceEE_clES2_
FNDA:0,_ZZN5neml211ModelDriver5setupEvENKUlOSt3mapINS_19LabeledAxisAccessorENS_6TensorESt4lessIS2_ESaISt4pairIKS2_S3_EEEN3c106DeviceEE_clESB_SD_
FNDA:7,_ZNK5neml211ModelDriver8diagnoseEv
FNDA:8,_ZN5neml211ModelDriver16expected_optionsEv
FNDA:7,_ZN5neml211ModelDriverC2ERKNS_9OptionSetE
FNDA:7,_ZN5neml211ModelDriver5setupEv
FNDA:0,_ZZN5neml211ModelDriver5setupEvENKUlOSt6vectorISt3mapINS_19LabeledAxisAccessorENS_6TensorESt4lessIS3_ESaISt4pairIKS3_S4_EEESaISB_EEE_clESE_
FNDA:0,_ZZN5neml211ModelDriver5setupEvENKUlOSt3mapINS_19LabeledAxisAccessorENS_6TensorESt4lessIS2_ESaISt4pairIKS2_S3_EEEE_clESB_
FNDA:0,_ZZN5neml211ModelDriver5setupEvENKUlN3c106DeviceEE_clES2_
FNF:8
FNH:4
DA:36,8
DA:38,8
DA:40,16
DA:41,16
DA:43,16
DA:44,24
DA:49,8
DA:51,16
DA:52,16
DA:53,16
DA:54,16
DA:55,16
DA:56,16
DA:59,16
DA:60,16
DA:61,16
DA:62,8
DA:65,8
DA:66,0
DA:68,7
DA:70,7
DA:71,21
DA:72,14
DA:73,14
DA:74,14
DA:77,7
DA:78,28
DA:81,7
DA:84,7
DA:86,7
DA:87,7
DA:90,7
DA:92,0
DA:93,0
DA:95,0
DA:96,0
DA:98,0
DA:100,0
DA:101,0
DA:102,0
DA:103,0
DA:104,0
DA:106,0
DA:107,0
DA:108,0
DA:109,0
DA:111,0
DA:115,0
DA:116,0
DA:118,0
DA:119,0
DA:122,0
DA:124,0
DA:142,7
DA:145,7
DA:147,7
DA:148,7
DA:149,7
LF:58
LH:36
end_of_record
TN:
SF:/home/runner/work/neml2/neml2/src/neml2/drivers/TransientDriver.cxx
FN:108,145,_ZN5neml215TransientDriver16expected_optionsEv
FN:147,170,_ZN5neml215TransientDriverC2ERKNS_9OptionSetE
FN:173,176,_ZN5neml215TransientDriver5setupEv
FN:179,213,_ZNK5neml215TransientDriver8diagnoseEv
FN:216,224,_ZN5neml215TransientDriver3runEv
FN:227,258,_ZN5neml215TransientDriver5solveEv
FN:261,278,_ZN5neml215TransientDriver12advance_stepEv
FN:281,288,_ZN5neml215TransientDriver13update_forcesEv
FN:291,318,_ZN5neml215TransientDriver8apply_icEv
FN:321,354,_ZN5neml215TransientDriver15apply_predictorEv
FN:357,369,_ZN5neml215TransientDriver10solve_stepEv
FN:372,375,_ZN5neml215TransientDriver11store_inputEv
FN:378,381,_ZNK5neml215TransientDriver12save_as_pathB5cxx11Ev
FN:384,412,_ZNK5neml215TransientDriver6resultEv
FN:415,436,_ZNK5neml215TransientDriver6outputEv
FN:439,442,_ZNK5neml215TransientDriver9output_ptERKNSt10filesystem7__cxx114pathE
FN:45,72,_ZN5neml26set_icINS_10QuaternionEEEvRSt3mapINS_19LabeledAxisAccessorENS_6TensorESt4lessIS3_ESaISt4pairIKS3_S4_EEERKNS_9OptionSetERKNSt7__cxx1112basic_stringIcSt11char_traitsIcESaIcEEESN_RKN3c106DeviceE
FN:45,72,_ZN5neml26set_icINS_11MillerIndexEEEvRSt3mapINS_19LabeledAxisAccessorENS_6TensorESt4lessIS3_ESaISt4pairIKS3_S4_EEERKNS_9OptionSetERKNSt7__cxx1112basic_stringIcSt11char_traitsIcESaIcEEESN_RKN3c106DeviceE
FN:45,72,_ZN5neml26set_icINS_2R2EEEvRSt3mapINS_19LabeledAxisAccessorENS_6TensorESt4lessIS3_ESaISt4pairIKS3_S4_EEERKNS_9OptionSetERKNSt7__cxx1112basic_stringIcSt11char_traitsIcESaIcEEESN_RKN3c106DeviceE
FN:45,72,_ZN5neml26set_icINS_2R3EEEvRSt3mapINS_19LabeledAxisAccessorENS_6TensorESt4lessIS3_ESaISt4pairIKS3_S4_EEERKNS_9OptionSetERKNSt7__cxx1112basic_stringIcSt11char_traitsIcESaIcEEESN_RKN3c106DeviceE
FN:45,72,_ZN5neml26set_icINS_2R4EEEvRSt3mapINS_19LabeledAxisAccessorENS_6TensorESt4lessIS3_ESaISt4pairIKS3_S4_EEERKNS_9OptionSetERKNSt7__cxx1112basic_stringIcSt11char_traitsIcESaIcEEESN_RKN3c106DeviceE
FN:45,72,_ZN5neml26set_icINS_2R5EEEvRSt3mapINS_19LabeledAxisAccessorENS_6TensorESt4lessIS3_ESaISt4pairIKS3_S4_EEERKNS_9OptionSetERKNSt7__cxx1112basic_stringIcSt11char_traitsIcESaIcEEESN_RKN3c106DeviceE
FN:45,72,_ZN5neml26set_icINS_2R8EEEvRSt3mapINS_19LabeledAxisAccessorENS_6TensorESt4lessIS3_ESaISt4pairIKS3_S4_EEERKNS_9OptionSetERKNSt7__cxx1112basic_stringIcSt11char_traitsIcESaIcEEESN_RKN3c106DeviceE
FN:45,72,_ZN5neml26set_icINS_3RotEEEvRSt3mapINS_19LabeledAxisAccessorENS_6TensorESt4lessIS3_ESaISt4pairIKS3_S4_EEERKNS_9OptionSetERKNSt7__cxx1112basic_stringIcSt11char_traitsIcESaIcEEESN_RKN3c106DeviceE
FN:45,72,_ZN5neml26set_icINS_3SR2EEEvRSt3mapINS_19LabeledAxisAccessorENS_6TensorESt4lessIS3_ESaISt4pairIKS3_S4_EEERKNS_9OptionSetERKNSt7__cxx1112basic_stringIcSt11char_traitsIcESaIcEEESN_RKN3c106DeviceE
FN:45,72,_ZN5neml26set_icINS_3VecEEEvRSt3mapINS_19LabeledAxisAccessorENS_6TensorESt4lessIS3_ESaISt4pairIKS3_S4_EEERKNS_9OptionSetERKNSt7__cxx1112basic_stringIcSt11char_traitsIcESaIcEEESN_RKN3c106DeviceE
FN:45,72,_ZN5neml26set_icINS_3WR2EEEvRSt3mapINS_19LabeledAxisAccessorENS_6TensorESt4lessIS3_ESaISt4pairIKS3_S4_EEERKNS_9OptionSetERKNSt7__cxx1112basic_stringIcSt11char_traitsIcESaIcEEESN_RKN3c106DeviceE
FN:45,72,_ZN5neml26set_icINS_4SFR3EEEvRSt3mapINS_19LabeledAxisAccessorENS_6TensorESt4lessIS3_ESaISt4pairIKS3_S4_EEERKNS_9OptionSetERKNSt7__cxx1112basic_stringIcSt11char_traitsIcESaIcEEESN_RKN3c106DeviceE
FN:45,72,_ZN5neml26set_icINS_4SFR4EEEvRSt3mapINS_19LabeledAxisAccessorENS_6TensorESt4lessIS3_ESaISt4pairIKS3_S4_EEERKNS_9OptionSetERKNSt7__cxx1112basic_stringIcSt11char_traitsIcESaIcEEESN_RKN3c106DeviceE
FN:45,72,_ZN5neml26set_icINS_4SSR4EEEvRSt3mapINS_19LabeledAxisAccessorENS_6TensorESt4lessIS3_ESaISt4pairIKS3_S4_EEERKNS_9OptionSetERKNSt7__cxx1112basic_stringIcSt11char_traitsIcESaIcEEESN_RKN3c106DeviceE
FN:45,72,_ZN5neml26set_icINS_4SWR4EEEvRSt3mapINS_19LabeledAxisAccessorENS_6TensorESt4lessIS3_ESaISt4pairIKS3_S4_EEERKNS_9OptionSetERKNSt7__cxx1112basic_stringIcSt11char_traitsIcESaIcEEESN_RKN3c106DeviceE
FN:45,72,_ZN5neml26set_icINS_4WFR4EEEvRSt3mapINS_19LabeledAxisAccessorENS_6TensorESt4lessIS3_ESaISt4pairIKS3_S4_EEERKNS_9OptionSetERKNSt7__cxx1112basic_stringIcSt11char_traitsIcESaIcEEESN_RKN3c106DeviceE
FN:45,72,_ZN5neml26set_icINS_4WSR4EEEvRSt3mapINS_19LabeledAxisAccessorENS_6TensorESt4lessIS3_ESaISt4pairIKS3_S4_EEERKNS_9OptionSetERKNSt7__cxx1112basic_stringIcSt11char_traitsIcESaIcEEESN_RKN3c106DeviceE
FN:45,72,_ZN5neml26set_icINS_4WWR4EEEvRSt3mapINS_19LabeledAxisAccessorENS_6TensorESt4lessIS3_ESaISt4pairIKS3_S4_EEERKNS_9OptionSetERKNSt7__cxx1112basic_stringIcSt11char_traitsIcESaIcEEESN_RKN3c106DeviceE
FN:45,72,_ZN5neml26set_icINS_5SFFR4EEEvRSt3mapINS_19LabeledAxisAccessorENS_6TensorESt4lessIS3_ESaISt4pairIKS3_S4_EEERKNS_9OptionSetERKNSt7__cxx1112basic_stringIcSt11char_traitsIcESaIcEEESN_RKN3c106DeviceE
FN:45,72,_ZN5neml26set_icINS_5SSFR5EEEvRSt3mapINS_19LabeledAxisAccessorENS_6TensorESt4lessIS3_ESaISt4pairIKS3_S4_EEERKNS_9OptionSetERKNSt7__cxx1112basic_stringIcSt11char_traitsIcESaIcEEESN_RKN3c106DeviceE
FN:45,72,_ZN5neml26set_icINS_6SSSSR8EEEvRSt3mapINS_19LabeledAxisAccessorENS_6TensorESt4lessIS3_ESaISt4pairIKS3_S4_EEERKNS_9OptionSetERKNSt7__cxx1112basic_stringIcSt11char_traitsIcESaIcEEESN_RKN3c106DeviceE
FN:45,72,_ZN5neml26set_icINS_6ScalarEEEvRSt3mapINS_19LabeledAxisAccessorENS_6TensorESt4lessIS3_ESaISt4pairIKS3_S4_EEERKNS_9OptionSetERKNSt7__cxx1112basic_stringIcSt11char_traitsIcESaIcEEESN_RKN3c106DeviceE
FN:45,72,_ZN5neml26set_icINS_6TensorEEEvRSt3mapINS_19LabeledAxisAccessorES1_St4lessIS3_ESaISt4pairIKS3_S1_EEERKNS_9OptionSetERKNSt7__cxx1112basic_stringIcSt11char_traitsIcESaIcEEESM_RKN3c106DeviceE
FN:76,105,_ZN5neml29get_forceINS_10QuaternionEEEvRSt6vectorINS_19LabeledAxisAccessorESaIS3_EERS2_INS_6TensorESaIS7_EERKNS_9OptionSetERKNSt7__cxx1112basic_stringIcSt11char_traitsIcESaIcEEESL_RKN3c106DeviceE
FN:76,105,_ZN5neml29get_forceINS_11MillerIndexEEEvRSt6vectorINS_19LabeledAxisAccessorESaIS3_EERS2_INS_6TensorESaIS7_EERKNS_9OptionSetERKNSt7__cxx1112basic_stringIcSt11char_traitsIcESaIcEEESL_RKN3c106DeviceE
FN:76,105,_ZN5neml29get_forceINS_2R2EEEvRSt6vectorINS_19LabeledAxisAccessorESaIS3_EERS2_INS_6TensorESaIS7_EERKNS_9OptionSetERKNSt7__cxx1112basic_stringIcSt11char_traitsIcESaIcEEESL_RKN3c106DeviceE
FN:76,105,_ZN5neml29get_forceINS_2R3EEEvRSt6vectorINS_19LabeledAxisAccessorESaIS3_EERS2_INS_6TensorESaIS7_EERKNS_9OptionSetERKNSt7__cxx1112basic_stringIcSt11char_traitsIcESaIcEEESL_RKN3c106DeviceE
FN:76,105,_ZN5neml29get_forceINS_2R4EEEvRSt6vectorINS_19LabeledAxisAccessorESaIS3_EERS2_INS_6TensorESaIS7_EERKNS_9OptionSetERKNSt7__cxx1112basic_stringIcSt11char_traitsIcESaIcEEESL_RKN3c106DeviceE
FN:76,105,_ZN5neml29get_forceINS_2R5EEEvRSt6vectorINS_19LabeledAxisAccessorESaIS3_EERS2_INS_6TensorESaIS7_EERKNS_9OptionSetERKNSt7__cxx1112basic_stringIcSt11char_traitsIcESaIcEEESL_RKN3c106DeviceE
FN:76,105,_ZN5neml29get_forceINS_2R8EEEvRSt6vectorINS_19LabeledAxisAccessorESaIS3_EERS2_INS_6TensorESaIS7_EERKNS_9OptionSetERKNSt7__cxx1112basic_stringIcSt11char_traitsIcESaIcEEESL_RKN3c106DeviceE
FN:76,105,_ZN5neml29get_forceINS_3RotEEEvRSt6vectorINS_19LabeledAxisAccessorESaIS3_EERS2_INS_6TensorESaIS7_EERKNS_9OptionSetERKNSt7__cxx1112basic_stringIcSt11char_traitsIcESaIcEEESL_RKN3c106DeviceE
FN:76,105,_ZN5neml29get_forceINS_3SR2EEEvRSt6vectorINS_19LabeledAxisAccessorESaIS3_EERS2_INS_6TensorESaIS7_EERKNS_9OptionSetERKNSt7__cxx1112basic_stringIcSt11char_traitsIcESaIcEEESL_RKN3c106DeviceE
FN:76,105,_ZN5neml29get_forceINS_3VecEEEvRSt6vectorINS_19LabeledAxisAccessorESaIS3_EERS2_INS_6TensorESaIS7_EERKNS_9OptionSetERKNSt7__cxx1112basic_stringIcSt11char_traitsIcESaIcEEESL_RKN3c106DeviceE
FN:76,105,_ZN5neml29get_forceINS_3WR2EEEvRSt6vectorINS_19LabeledAxisAccessorESaIS3_EERS2_INS_6TensorESaIS7_EERKNS_9OptionSetERKNSt7__cxx1112basic_stringIcSt11char_traitsIcESaIcEEESL_RKN3c106DeviceE
FN:76,105,_ZN5neml29get_forceINS_4SFR3EEEvRSt6vectorINS_19LabeledAxisAccessorESaIS3_EERS2_INS_6TensorESaIS7_EERKNS_9OptionSetERKNSt7__cxx1112basic_stringIcSt11char_traitsIcESaIcEEESL_RKN3c106DeviceE
FN:76,105,_ZN5neml29get_forceINS_4SFR4EEEvRSt6vectorINS_19LabeledAxisAccessorESaIS3_EERS2_INS_6TensorESaIS7_EERKNS_9OptionSetERKNSt7__cxx1112basic_stringIcSt11char_traitsIcESaIcEEESL_RKN3c106DeviceE
FN:76,105,_ZN5neml29get_forceINS_4SSR4EEEvRSt6vectorINS_19LabeledAxisAccessorESaIS3_EERS2_INS_6TensorESaIS7_EERKNS_9OptionSetERKNSt7__cxx1112basic_stringIcSt11char_traitsIcESaIcEEESL_RKN3c106DeviceE
FN:76,105,_ZN5neml29get_forceINS_4SWR4EEEvRSt6vectorINS_19LabeledAxisAccessorESaIS3_EERS2_INS_6TensorESaIS7_EERKNS_9OptionSetERKNSt7__cxx1112basic_stringIcSt11char_traitsIcESaIcEEESL_RKN3c106DeviceE
FN:76,105,_ZN5neml29get_forceINS_4WFR4EEEvRSt6vectorINS_19LabeledAxisAccessorESaIS3_EERS2_INS_6TensorESaIS7_EERKNS_9OptionSetERKNSt7__cxx1112basic_stringIcSt11char_traitsIcESaIcEEESL_RKN3c106DeviceE
FN:76,105,_ZN5neml29get_forceINS_4WSR4EEEvRSt6vectorINS_19LabeledAxisAccessorESaIS3_EERS2_INS_6TensorESaIS7_EERKNS_9OptionSetERKNSt7__cxx1112basic_stringIcSt11char_traitsIcESaIcEEESL_RKN3c106DeviceE
FN:76,105,_ZN5neml29get_forceINS_4WWR4EEEvRSt6vectorINS_19LabeledAxisAccessorESaIS3_EERS2_INS_6TensorESaIS7_EERKNS_9OptionSetERKNSt7__cxx1112basic_stringIcSt11char_traitsIcESaIcEEESL_RKN3c106DeviceE
FN:76,105,_ZN5neml29get_forceINS_5SFFR4EEEvRSt6vectorINS_19LabeledAxisAccessorESaIS3_EERS2_INS_6TensorESaIS7_EERKNS_9OptionSetERKNSt7__cxx1112basic_stringIcSt11char_traitsIcESaIcEEESL_RKN3c106DeviceE
FN:76,105,_ZN5neml29get_forceINS_5SSFR5EEEvRSt6vectorINS_19LabeledAxisAccessorESaIS3_EERS2_INS_6TensorESaIS7_EERKNS_9OptionSetERKNSt7__cxx1112basic_stringIcSt11char_traitsIcESaIcEEESL_RKN3c106DeviceE
FN:76,105,_ZN5neml29get_forceINS_6SSSSR8EEEvRSt6vectorINS_19LabeledAxisAccessorESaIS3_EERS2_INS_6TensorESaIS7_EERKNS_9OptionSetERKNSt7__cxx1112basic_stringIcSt11char_traitsIcESaIcEEESL_RKN3c106DeviceE
FN:76,105,_ZN5neml29get_forceINS_6ScalarEEEvRSt6vectorINS_19LabeledAxisAccessorESaIS3_EERS2_INS_6TensorESaIS7_EERKNS_9OptionSetERKNSt7__cxx1112basic_stringIcSt11char_traitsIcESaIcEEESL_RKN3c106DeviceE
FN:76,105,_ZN5neml29get_forceINS_6TensorEEEvRSt6vectorINS_19LabeledAxisAccessorESaIS3_EERS2_IS1_SaIS1_EERKNS_9OptionSetERKNSt7__cxx1112basic_stringIcSt11char_traitsIcESaIcEEESK_RKN3c106DeviceE
FNDA:8,_ZN5neml215TransientDriver16expected_optionsEv
FNDA:7,_ZN5neml215TransientDriverC2ERKNS_9OptionSetE
FNDA:7,_ZN5neml215TransientDriver5setupEv
FNDA:7,_ZNK5neml215TransientDriver8diagnoseEv
FNDA:7,_ZN5neml215TransientDriver3runEv
FNDA:7,_ZN5neml215TransientDriver5solveEv
FNDA:63,_ZN5neml215TransientDriver12advance_stepEv
FNDA:70,_ZN5neml215TransientDriver13update_forcesEv
FNDA:7,_ZN5neml215TransientDriver8apply_icEv
FNDA:63,_ZN5neml215TransientDriver15apply_predictorEv
FNDA:63,_ZN5neml215TransientDriver10solve_stepEv
FNDA:70,_ZN5neml215TransientDriver11store_inputEv
FNDA:12,_ZNK5neml215TransientDriver12save_as_pathB5cxx11Ev
FNDA:5,_ZNK5neml215TransientDriver6resultEv
FNDA:5,_ZNK5neml215TransientDriver6outputEv
FNDA:5,_ZNK5neml215TransientDriver9output_ptERKNSt10filesystem7__cxx114pathE
FNDA:7,_ZN5neml26set_icINS_10QuaternionEEEvRSt3mapINS_19LabeledAxisAccessorENS_6TensorESt4lessIS3_ESaISt4pairIKS3_S4_EEERKNS_9OptionSetERKNSt7__cxx1112basic_stringIcSt11char_traitsIcESaIcEEESN_RKN3c106DeviceE
FNDA:7,_ZN5neml26set_icINS_11MillerIndexEEEvRSt3mapINS_19LabeledAxisAccessorENS_6TensorESt4lessIS3_ESaISt4pairIKS3_S4_EEERKNS_9OptionSetERKNSt7__cxx1112basic_stringIcSt11char_traitsIcESaIcEEESN_RKN3c106DeviceE
FNDA:7,_ZN5neml26set_icINS_2R2EEEvRSt3mapINS_19LabeledAxisAccessorENS_6TensorESt4lessIS3_ESaISt4pairIKS3_S4_EEERKNS_9OptionSetERKNSt7__cxx1112basic_stringIcSt11char_traitsIcESaIcEEESN_RKN3c106DeviceE
FNDA:7,_ZN5neml26set_icINS_2R3EEEvRSt3mapINS_19LabeledAxisAccessorENS_6TensorESt4lessIS3_ESaISt4pairIKS3_S4_EEERKNS_9OptionSetERKNSt7__cxx1112basic_stringIcSt11char_traitsIcESaIcEEESN_RKN3c106DeviceE
FNDA:7,_ZN5neml26set_icINS_2R4EEEvRSt3mapINS_19LabeledAxisAccessorENS_6TensorESt4lessIS3_ESaISt4pairIKS3_S4_EEERKNS_9OptionSetERKNSt7__cxx1112basic_stringIcSt11char_traitsIcESaIcEEESN_RKN3c106DeviceE
FNDA:7,_ZN5neml26set_icINS_2R5EEEvRSt3mapINS_19LabeledAxisAccessorENS_6TensorESt4lessIS3_ESaISt4pairIKS3_S4_EEERKNS_9OptionSetERKNSt7__cxx1112basic_stringIcSt11char_traitsIcESaIcEEESN_RKN3c106DeviceE
FNDA:7,_ZN5neml26set_icINS_2R8EEEvRSt3mapINS_19LabeledAxisAccessorENS_6TensorESt4lessIS3_ESaISt4pairIKS3_S4_EEERKNS_9OptionSetERKNSt7__cxx1112basic_stringIcSt11char_traitsIcESaIcEEESN_RKN3c106DeviceE
FNDA:7,_ZN5neml26set_icINS_3RotEEEvRSt3mapINS_19LabeledAxisAccessorENS_6TensorESt4lessIS3_ESaISt4pairIKS3_S4_EEERKNS_9OptionSetERKNSt7__cxx1112basic_stringIcSt11char_traitsIcESaIcEEESN_RKN3c106DeviceE
FNDA:7,_ZN5neml26set_icINS_3SR2EEEvRSt3mapINS_19LabeledAxisAccessorENS_6TensorESt4lessIS3_ESaISt4pairIKS3_S4_EEERKNS_9OptionSetERKNSt7__cxx1112basic_stringIcSt11char_traitsIcESaIcEEESN_RKN3c106DeviceE
FNDA:7,_ZN5neml26set_icINS_3VecEEEvRSt3mapINS_19LabeledAxisAccessorENS_6TensorESt4lessIS3_ESaISt4pairIKS3_S4_EEERKNS_9OptionSetERKNSt7__cxx1112basic_stringIcSt11char_traitsIcESaIcEEESN_RKN3c106DeviceE
FNDA:7,_ZN5neml26set_icINS_3WR2EEEvRSt3mapINS_19LabeledAxisAccessorENS_6TensorESt4lessIS3_ESaISt4pairIKS3_S4_EEERKNS_9OptionSetERKNSt7__cxx1112basic_stringIcSt11char_traitsIcESaIcEEESN_RKN3c106DeviceE
FNDA:7,_ZN5neml26set_icINS_4SFR3EEEvRSt3mapINS_19LabeledAxisAccessorENS_6TensorESt4lessIS3_ESaISt4pairIKS3_S4_EEERKNS_9OptionSetERKNSt7__cxx1112basic_stringIcSt11char_traitsIcESaIcEEESN_RKN3c106DeviceE
FNDA:7,_ZN5neml26set_icINS_4SFR4EEEvRSt3mapINS_19LabeledAxisAccessorENS_6TensorESt4lessIS3_ESaISt4pairIKS3_S4_EEERKNS_9OptionSetERKNSt7__cxx1112basic_stringIcSt11char_traitsIcESaIcEEESN_RKN3c106DeviceE
FNDA:7,_ZN5neml26set_icINS_4SSR4EEEvRSt3mapINS_19LabeledAxisAccessorENS_6TensorESt4lessIS3_ESaISt4pairIKS3_S4_EEERKNS_9OptionSetERKNSt7__cxx1112basic_stringIcSt11char_traitsIcESaIcEEESN_RKN3c106DeviceE
FNDA:7,_ZN5neml26set_icINS_4SWR4EEEvRSt3mapINS_19LabeledAxisAccessorENS_6TensorESt4lessIS3_ESaISt4pairIKS3_S4_EEERKNS_9OptionSetERKNSt7__cxx1112basic_stringIcSt11char_traitsIcESaIcEEESN_RKN3c106DeviceE
FNDA:7,_ZN5neml26set_icINS_4WFR4EEEvRSt3mapINS_19LabeledAxisAccessorENS_6TensorESt4lessIS3_ESaISt4pairIKS3_S4_EEERKNS_9OptionSetERKNSt7__cxx1112basic_stringIcSt11char_traitsIcESaIcEEESN_RKN3c106DeviceE
FNDA:7,_ZN5neml26set_icINS_4WSR4EEEvRSt3mapINS_19LabeledAxisAccessorENS_6TensorESt4lessIS3_ESaISt4pairIKS3_S4_EEERKNS_9OptionSetERKNSt7__cxx1112basic_stringIcSt11char_traitsIcESaIcEEESN_RKN3c106DeviceE
FNDA:7,_ZN5neml26set_icINS_4WWR4EEEvRSt3mapINS_19LabeledAxisAccessorENS_6TensorESt4lessIS3_ESaISt4pairIKS3_S4_EEERKNS_9OptionSetERKNSt7__cxx1112basic_stringIcSt11char_traitsIcESaIcEEESN_RKN3c106DeviceE
FNDA:7,_ZN5neml26set_icINS_5SFFR4EEEvRSt3mapINS_19LabeledAxisAccessorENS_6TensorESt4lessIS3_ESaISt4pairIKS3_S4_EEERKNS_9OptionSetERKNSt7__cxx1112basic_stringIcSt11char_traitsIcESaIcEEESN_RKN3c106DeviceE
FNDA:7,_ZN5neml26set_icINS_5SSFR5EEEvRSt3mapINS_19LabeledAxisAccessorENS_6TensorESt4lessIS3_ESaISt4pairIKS3_S4_EEERKNS_9OptionSetERKNSt7__cxx1112basic_stringIcSt11char_traitsIcESaIcEEESN_RKN3c106DeviceE
FNDA:7,_ZN5neml26set_icINS_6SSSSR8EEEvRSt3mapINS_19LabeledAxisAccessorENS_6TensorESt4lessIS3_ESaISt4pairIKS3_S4_EEERKNS_9OptionSetERKNSt7__cxx1112basic_stringIcSt11char_traitsIcESaIcEEESN_RKN3c106DeviceE
FNDA:7,_ZN5neml26set_icINS_6ScalarEEEvRSt3mapINS_19LabeledAxisAccessorENS_6TensorESt4lessIS3_ESaISt4pairIKS3_S4_EEERKNS_9OptionSetERKNSt7__cxx1112basic_stringIcSt11char_traitsIcESaIcEEESN_RKN3c106DeviceE
FNDA:7,_ZN5neml26set_icINS_6TensorEEEvRSt3mapINS_19LabeledAxisAccessorES1_St4lessIS3_ESaISt4pairIKS3_S1_EEERKNS_9OptionSetERKNSt7__cxx1112basic_stringIcSt11char_traitsIcESaIcEEESM_RKN3c106DeviceE
FNDA:7,_ZN5neml29get_forceINS_10QuaternionEEEvRSt6vectorINS_19LabeledAxisAccessorESaIS3_EERS2_INS_6TensorESaIS7_EERKNS_9OptionSetERKNSt7__cxx1112basic_stringIcSt11char_traitsIcESaIcEEESL_RKN3c106DeviceE
FNDA:7,_ZN5neml29get_forceINS_11MillerIndexEEEvRSt6vectorINS_19LabeledAxisAccessorESaIS3_EERS2_INS_6TensorESaIS7_EERKNS_9OptionSetERKNSt7__cxx1112basic_stringIcSt11char_traitsIcESaIcEEESL_RKN3c106DeviceE
FNDA:7,_ZN5neml29get_forceINS_2R2EEEvRSt6vectorINS_19LabeledAxisAccessorESaIS3_EERS2_INS_6TensorESaIS7_EERKNS_9OptionSetERKNSt7__cxx1112basic_stringIcSt11char_traitsIcESaIcEEESL_RKN3c106DeviceE
FNDA:7,_ZN5neml29get_forceINS_2R3EEEvRSt6vectorINS_19LabeledAxisAccessorESaIS3_EERS2_INS_6TensorESaIS7_EERKNS_9OptionSetERKNSt7__cxx1112basic_stringIcSt11char_traitsIcESaIcEEESL_RKN3c106DeviceE
FNDA:7,_ZN5neml29get_forceINS_2R4EEEvRSt6vectorINS_19LabeledAxisAccessorESaIS3_EERS2_INS_6TensorESaIS7_EERKNS_9OptionSetERKNSt7__cxx1112basic_stringIcSt11char_traitsIcESaIcEEESL_RKN3c106DeviceE
FNDA:7,_ZN5neml29get_forceINS_2R5EEEvRSt6vectorINS_19LabeledAxisAccessorESaIS3_EERS2_INS_6TensorESaIS7_EERKNS_9OptionSetERKNSt7__cxx1112basic_stringIcSt11char_traitsIcESaIcEEESL_RKN3c106DeviceE
FNDA:7,_ZN5neml29get_forceINS_2R8EEEvRSt6vectorINS_19LabeledAxisAccessorESaIS3_EERS2_INS_6TensorESaIS7_EERKNS_9OptionSetERKNSt7__cxx1112basic_stringIcSt11char_traitsIcESaIcEEESL_RKN3c106DeviceE
FNDA:7,_ZN5neml29get_forceINS_3RotEEEvRSt6vectorINS_19LabeledAxisAccessorESaIS3_EERS2_INS_6TensorESaIS7_EERKNS_9OptionSetERKNSt7__cxx1112basic_stringIcSt11char_traitsIcESaIcEEESL_RKN3c106DeviceE
FNDA:7,_ZN5neml29get_forceINS_3SR2EEEvRSt6vectorINS_19LabeledAxisAccessorESaIS3_EERS2_INS_6TensorESaIS7_EERKNS_9OptionSetERKNSt7__cxx1112basic_stringIcSt11char_traitsIcESaIcEEESL_RKN3c106DeviceE
FNDA:7,_ZN5neml29get_forceINS_3VecEEEvRSt6vectorINS_19LabeledAxisAccessorESaIS3_EERS2_INS_6TensorESaIS7_EERKNS_9OptionSetERKNSt7__cxx1112basic_stringIcSt11char_traitsIcESaIcEEESL_RKN3c106DeviceE
FNDA:7,_ZN5neml29get_forceINS_3WR2EEEvRSt6vectorINS_19LabeledAxisAccessorESaIS3_EERS2_INS_6TensorESaIS7_EERKNS_9OptionSetERKNSt7__cxx1112basic_stringIcSt11char_traitsIcESaIcEEESL_RKN3c106DeviceE
FNDA:7,_ZN5neml29get_forceINS_4SFR3EEEvRSt6vectorINS_19LabeledAxisAccessorESaIS3_EERS2_INS_6TensorESaIS7_EERKNS_9OptionSetERKNSt7__cxx1112basic_stringIcSt11char_traitsIcESaIcEEESL_RKN3c106DeviceE
FNDA:7,_ZN5neml29get_forceINS_4SFR4EEEvRSt6vectorINS_19LabeledAxisAccessorESaIS3_EERS2_INS_6TensorESaIS7_EERKNS_9OptionSetERKNSt7__cxx1112basic_stringIcSt11char_traitsIcESaIcEEESL_RKN3c106DeviceE
FNDA:7,_ZN5neml29get_forceINS_4SSR4EEEvRSt6vectorINS_19LabeledAxisAccessorESaIS3_EERS2_INS_6TensorESaIS7_EERKNS_9OptionSetERKNSt7__cxx1112basic_stringIcSt11char_traitsIcESaIcEEESL_RKN3c106DeviceE
FNDA:7,_ZN5neml29get_forceINS_4SWR4EEEvRSt6vectorINS_19LabeledAxisAccessorESaIS3_EERS2_INS_6TensorESaIS7_EERKNS_9OptionSetERKNSt7__cxx1112basic_stringIcSt11char_traitsIcESaIcEEESL_RKN3c106DeviceE
FNDA:7,_ZN5neml29get_forceINS_4WFR4EEEvRSt6vectorINS_19LabeledAxisAccessorESaIS3_EERS2_INS_6TensorESaIS7_EERKNS_9OptionSetERKNSt7__cxx1112basic_stringIcSt11char_traitsIcESaIcEEESL_RKN3c106DeviceE
FNDA:7,_ZN5neml29get_forceINS_4WSR4EEEvRSt6vectorINS_19LabeledAxisAccessorESaIS3_EERS2_INS_6TensorESaIS7_EERKNS_9OptionSetERKNSt7__cxx1112basic_stringIcSt11char_traitsIcESaIcEEESL_RKN3c106DeviceE
FNDA:7,_ZN5neml29get_forceINS_4WWR4EEEvRSt6vectorINS_19LabeledAxisAccessorESaIS3_EERS2_INS_6TensorESaIS7_EERKNS_9OptionSetERKNSt7__cxx1112basic_stringIcSt11char_traitsIcESaIcEEESL_RKN3c106DeviceE
FNDA:7,_ZN5neml29get_forceINS_5SFFR4EEEvRSt6vectorINS_19LabeledAxisAccessorESaIS3_EERS2_INS_6TensorESaIS7_EERKNS_9OptionSetERKNSt7__cxx1112basic_stringIcSt11char_traitsIcESaIcEEESL_RKN3c106DeviceE
FNDA:7,_ZN5neml29get_forceINS_5SSFR5EEEvRSt6vectorINS_19LabeledAxisAccessorESaIS3_EERS2_INS_6TensorESaIS7_EERKNS_9OptionSetERKNSt7__cxx1112basic_stringIcSt11char_traitsIcESaIcEEESL_RKN3c106DeviceE
FNDA:7,_ZN5neml29get_forceINS_6SSSSR8EEEvRSt6vectorINS_19LabeledAxisAccessorESaIS3_EERS2_INS_6TensorESaIS7_EERKNS_9OptionSetERKNSt7__cxx1112basic_stringIcSt11char_traitsIcESaIcEEESL_RKN3c106DeviceE
FNDA:7,_ZN5neml29get_forceINS_6ScalarEEEvRSt6vectorINS_19LabeledAxisAccessorESaIS3_EERS2_INS_6TensorESaIS7_EERKNS_9OptionSetERKNSt7__cxx1112basic_stringIcSt11char_traitsIcESaIcEEESL_RKN3c106DeviceE
FNDA:7,_ZN5neml29get_forceINS_6TensorEEEvRSt6vectorINS_19LabeledAxisAccessorESaIS3_EERS2_IS1_SaIS1_EERKNS_9OptionSetERKNSt7__cxx1112basic_stringIcSt11char_traitsIcESaIcEEESK_RKN3c106DeviceE
FNF:62
FNH:62
DA:45,161
DA:51,161
DA:52,161
DA:53,161
DA:59,161
DA:61,322
DA:63,161
DA:64,161
DA:65,162
DA:67,1
DA:70,1
DA:72,161
DA:76,161
DA:83,161
DA:84,161
DA:85,161
DA:91,161
DA:93,322
DA:95,161
DA:96,161
DA:97,161
DA:99,0
DA:102,0
DA:103,0
DA:105,161
DA:108,8
DA:110,8
DA:111,8
DA:113,24
DA:114,16
DA:115,16
DA:116,24
DA:118,8
DA:120,32
DA:121,8
DA:122,16
DA:123,16
DA:124,24
DA:131,1472
DA:138,1472
DA:140,16
DA:141,16
DA:142,8
DA:144,16
DA:145,8
DA:147,7
DA:149,7
DA:150,14
DA:151,7
DA:152,7
DA:153,14
DA:154,14
DA:155,35
DA:157,7
DA:160,644
DA:169,644
DA:170,7
DA:173,7
DA:175,7
DA:176,7
DA:179,7
DA:181,7
DA:183,7
DA:184,7
DA:186,7
DA:188,7
DA:190,0
DA:192,0
DA:194,0
DA:195,0
DA:197,0
DA:200,0
DA:205,7
DA:206,7
DA:207,7
DA:208,20
DA:209,13
DA:213,7
DA:216,7
DA:218,7
DA:220,7
DA:221,5
DA:223,7
DA:227,7
DA:229,77
DA:231,70
DA:236,70
DA:237,63
DA:238,70
DA:239,70
DA:241,7
DA:242,7
DA:246,63
DA:247,63
DA:248,63
DA:251,70
DA:257,7
DA:261,63
DA:264,63
DA:266,63
DA:267,180
DA:268,117
DA:269,63
DA:272,63
DA:274,63
DA:275,171
DA:276,108
DA:277,63
DA:278,63
DA:281,70
DA:283,70
DA:284,140
DA:286,70
DA:287,0
DA:288,140
DA:291,7
DA:293,7
DA:296,7
DA:297,22
DA:298,15
DA:299,1
DA:300,24
DA:301,17
DA:302,7
DA:305,22
DA:306,15
DA:308,14
DA:309,14
DA:310,28
DA:311,28
DA:312,28
DA:313,42
DA:315,0
DA:316,0
DA:318,7
DA:321,63
DA:323,63
DA:324,27
DA:326,36
DA:327,117
DA:328,81
DA:330,162
DA:331,72
DA:332,18
DA:335,9
DA:336,1
DA:340,8
DA:341,8
DA:342,8
DA:343,8
DA:344,8
DA:346,8
DA:347,8
DA:348,8
DA:349,8
DA:352,0
DA:354,36
DA:357,63
DA:360,63
DA:362,0
DA:363,0
DA:364,0
DA:365,0
DA:368,63
DA:372,70
DA:374,70
DA:375,70
DA:378,12
DA:380,12
DA:384,5
DA:387,5
DA:388,55
DA:391,50
DA:392,414
DA:393,364
DA:394,50
DA:395,50
DA:398,5
DA:399,55
DA:402,50
DA:403,180
DA:404,130
DA:405,50
DA:406,50
DA:409,5
DA:410,25
DA:411,10
DA:412,10
DA:415,5
DA:417,5
DA:422,5
DA:423,5
DA:425,5
DA:426,5
DA:432,5
DA:436,5
DA:439,5
DA:441,5
DA:442,5
LF:199
LH:182
end_of_record
TN:
SF:/home/runner/work/neml2/neml2/src/neml2/drivers/solid_mechanics/LDISolidMechanicsDriver.cxx
FN:105,110,_ZN5neml223LDISolidMechanicsDriver22init_vorticity_controlERKNS_9OptionSetE
FN:113,139,_ZNK5neml223LDISolidMechanicsDriver8diagnoseEv
FN:142,146,_ZN5neml223LDISolidMechanicsDriver13update_forcesEv
FN:149,160,_ZN5neml223LDISolidMechanicsDriver15apply_predictorEv
FN:35,70,_ZN5neml223LDISolidMechanicsDriver16expected_optionsEv
FN:72,79,_ZN5neml223LDISolidMechanicsDriverC2ERKNS_9OptionSetE
FN:82,86,_ZN5neml223LDISolidMechanicsDriver5setupEv
FN:89,94,_ZN5neml223LDISolidMechanicsDriver19init_strain_controlERKNS_9OptionSetE
FN:97,102,_ZN5neml223LDISolidMechanicsDriver19init_stress_controlERKNS_9OptionSetE
FNDA:1,_ZN5neml223LDISolidMechanicsDriver22init_vorticity_controlERKNS_9OptionSetE
FNDA:1,_ZNK5neml223LDISolidMechanicsDriver8diagnoseEv
FNDA:10,_ZN5neml223LDISolidMechanicsDriver13update_forcesEv
FNDA:9,_ZN5neml223LDISolidMechanicsDriver15apply_predictorEv
FNDA:2,_ZN5neml223LDISolidMechanicsDriver16expected_optionsEv
FNDA:1,_ZN5neml223LDISolidMechanicsDriverC2ERKNS_9OptionSetE
FNDA:1,_ZN5neml223LDISolidMechanicsDriver5setupEv
FNDA:1,_ZN5neml223LDISolidMechanicsDriver19init_strain_controlERKNS_9OptionSetE
FNDA:0,_ZN5neml223LDISolidMechanicsDriver19init_stress_controlERKNS_9OptionSetE
FNF:9
FNH:8
DA:35,2
DA:37,2
DA:38,2
DA:39,2
DA:41,6
DA:42,4
DA:43,4
DA:44,4
DA:45,2
DA:47,6
DA:48,4
DA:49,4
DA:50,4
DA:51,2
DA:53,6
DA:54,4
DA:55,4
DA:56,4
DA:58,4
DA:59,6
DA:61,2
DA:62,4
DA:63,4
DA:64,2
DA:65,6
DA:66,4
DA:67,2
DA:69,2
DA:70,0
DA:72,1
DA:74,1
DA:75,2
DA:76,2
DA:77,3
DA:79,1
DA:82,1
DA:84,1
DA:85,1
DA:86,1
DA:89,1
DA:91,1
DA:92,2
DA:93,1
DA:94,1
DA:97,0
DA:99,0
DA:100,0
DA:101,0
DA:102,0
DA:105,1
DA:107,1
DA:108,2
DA:109,1
DA:110,1
DA:113,1
DA:115,1
DA:117,1
DA:119,1
DA:122,1
DA:123,1
DA:125,1
DA:127,2
DA:131,1
DA:133,1
DA:134,1
DA:136,1
DA:139,1
DA:142,10
DA:144,10
DA:145,20
DA:146,20
DA:149,9
DA:151,9
DA:153,9
DA:155,1
DA:156,1
DA:157,1
DA:158,1
DA:159,1
DA:160,9
LF:80
LH:74
end_of_record
TN:
SF:/home/runner/work/neml2/neml2/src/neml2/drivers/solid_mechanics/SDTSolidMechanicsDriver.cxx
FN:32,49,_ZN5neml223SDTSolidMechanicsDriver16expected_optionsEv
FN:51,54,_ZN5neml223SDTSolidMechanicsDriverC2ERKNS_9OptionSetE
FN:57,62,_ZN5neml223SDTSolidMechanicsDriver19init_strain_controlERKNS_9OptionSetE
FN:65,70,_ZN5neml223SDTSolidMechanicsDriver19init_stress_controlERKNS_9OptionSetE
FNDA:2,_ZN5neml223SDTSolidMechanicsDriver16expected_optionsEv
FNDA:6,_ZN5neml223SDTSolidMechanicsDriverC2ERKNS_9OptionSetE
FNDA:4,_ZN5neml223SDTSolidMechanicsDriver19init_strain_controlERKNS_9OptionSetE
FNDA:1,_ZN5neml223SDTSolidMechanicsDriver19init_stress_controlERKNS_9OptionSetE
FNF:4
FNH:4
DA:32,2
DA:34,2
DA:35,2
DA:36,2
DA:38,6
DA:39,4
DA:40,4
DA:41,2
DA:43,6
DA:44,4
DA:45,4
DA:46,2
DA:48,2
DA:49,0
DA:51,6
DA:52,6
DA:54,6
DA:57,4
DA:59,4
DA:60,8
DA:61,4
DA:62,4
DA:65,1
DA:67,1
DA:68,2
DA:69,1
DA:70,1
LF:27
LH:26
end_of_record
TN:
SF:/home/runner/work/neml2/neml2/src/neml2/drivers/solid_mechanics/SolidMechanicsDriver.cxx
FN:106,111,_ZN5neml220SolidMechanicsDriver24init_temperature_controlERKNS_9OptionSetE
FN:114,159,_ZNK5neml220SolidMechanicsDriver8diagnoseEv
FN:162,173,_ZN5neml220SolidMechanicsDriver13update_forcesEv
FN:31,64,_ZN5neml220SolidMechanicsDriver16expected_optionsEv
FN:66,71,_ZN5neml220SolidMechanicsDriverC2ERKNS_9OptionSetE
FN:74,91,_ZN5neml220SolidMechanicsDriver5setupEv
FN:94,103,_ZN5neml220SolidMechanicsDriver18init_mixed_controlERKNS_9OptionSetE
FNDA:1,_ZN5neml220SolidMechanicsDriver24init_temperature_controlERKNS_9OptionSetE
FNDA:7,_ZNK5neml220SolidMechanicsDriver8diagnoseEv
FNDA:70,_ZN5neml220SolidMechanicsDriver13update_forcesEv
FNDA:4,_ZN5neml220SolidMechanicsDriver16expected_optionsEv
FNDA:7,_ZN5neml220SolidMechanicsDriverC2ERKNS_9OptionSetE
FNDA:7,_ZN5neml220SolidMechanicsDriver5setupEv
FNDA:1,_ZN5neml220SolidMechanicsDriver18init_mixed_controlERKNS_9OptionSetE
FNF:7
FNH:7
DA:31,4
DA:33,4
DA:34,4
DA:36,16
DA:37,4
DA:38,8
DA:39,12
DA:41,12
DA:42,8
DA:43,8
DA:44,8
DA:45,4
DA:47,12
DA:48,8
DA:49,8
DA:50,8
DA:53,4
DA:55,12
DA:56,12
DA:57,4
DA:58,8
DA:59,8
DA:61,4
DA:63,8
DA:64,4
DA:66,7
DA:68,7
DA:69,28
DA:71,7
DA:74,7
DA:76,7
DA:78,14
DA:79,5
DA:80,4
DA:81,1
DA:82,2
DA:83,1
DA:89,7
DA:90,1
DA:91,7
DA:94,1
DA:96,1
DA:97,2
DA:98,1
DA:100,1
DA:101,2
DA:102,1
DA:103,1
DA:106,1
DA:108,1
DA:109,2
DA:110,1
DA:111,1
DA:114,7
DA:116,7
DA:118,7
DA:121,7
DA:123,7
DA:126,14
DA:128,14
DA:131,7
DA:133,1
DA:136,1
DA:138,1
DA:139,1
DA:141,2
DA:143,2
DA:147,14
DA:149,1
DA:152,1
DA:153,1
DA:154,1
DA:156,2
DA:159,7
DA:162,70
DA:164,70
DA:166,140
DA:168,70
DA:169,20
DA:171,140
DA:172,20
DA:173,160
LF:82
LH:82
end_of_record
TN:
SF:/home/runner/work/neml2/neml2/src/neml2/jit/TraceableSize.cxx
FN:33,36,_ZNK5neml213TraceableSize9traceableEv
FN:39,49,_ZNK5neml213TraceableSize8concreteEv
FN:52,58,_ZNK5neml213TraceableSize9as_tensorEv
FN:61,64,_ZN5neml2eqERKNS_13TraceableSizeES2_
FN:67,70,_ZN5neml2neERKNS_13TraceableSizeES2_
FN:73,77,_ZN5neml2lsERSoRKNS_13TraceableSizeE
FNDA:1867546,_ZNK5neml213TraceableSize9traceableEv
FNDA:1850228,_ZNK5neml213TraceableSize8concreteEv
FNDA:4067,_ZNK5neml213TraceableSize9as_tensorEv
FNDA:23,_ZN5neml2eqERKNS_13TraceableSizeES2_
FNDA:0,_ZN5neml2neERKNS_13TraceableSizeES2_
FNDA:0,_ZN5neml2lsERSoRKNS_13TraceableSizeE
FNF:6
FNH:4
DA:33,1867546
DA:35,1867546
DA:39,1850228
DA:41,1850228
DA:43,392785
DA:44,392785
DA:45,392785
DA:48,1457443
DA:52,4067
DA:54,4067
DA:55,833
DA:57,3234
DA:61,23
DA:63,23
DA:67,0
DA:69,0
DA:73,0
DA:75,0
DA:76,0
LF:19
LH:14
end_of_record
TN:
SF:/home/runner/work/neml2/neml2/src/neml2/jit/TraceableTensorShape.cxx
FN:105,108,_ZN5neml2neERKNS_20TraceableTensorShapeES2_
FN:32,36,_ZN5neml220TraceableTensorShapeC2ERKN3c1011SmallVectorIlLj8EEE
FN:38,42,_ZN5neml220TraceableTensorShapeC2EN3c108ArrayRefIlEE
FN:44,47,_ZN5neml220TraceableTensorShapeC2El
FN:49,56,_ZN5neml220TraceableTensorShapeC2ERKN2at6TensorE
FN:59,67,_ZNK5neml220TraceableTensorShape5sliceEll
FN:70,75,_ZNK5neml220TraceableTensorShape5sliceEl
FN:78,84,_ZNK5neml220TraceableTensorShape8concreteEv
FN:87,96,_ZNK5neml220TraceableTensorShape9as_tensorEv
FN:99,102,_ZN5neml2eqERKNS_20TraceableTensorShapeES2_
FNDA:106063,_ZN5neml2neERKNS_20TraceableTensorShapeES2_
FNDA:107169,_ZN5neml220TraceableTensorShapeC2ERKN3c1011SmallVectorIlLj8EEE
FNDA:2744957,_ZN5neml220TraceableTensorShapeC2EN3c108ArrayRefIlEE
FNDA:0,_ZN5neml220TraceableTensorShapeC2El
FNDA:1329,_ZN5neml220TraceableTensorShapeC2ERKN2at6TensorE
FNDA:674700,_ZNK5neml220TraceableTensorShape5sliceEll
FNDA:0,_ZNK5neml220TraceableTensorShape5sliceEl
FNDA:5429813,_ZNK5neml220TraceableTensorShape8concreteEv
FNDA:20150,_ZNK5neml220TraceableTensorShape9as_tensorEv
FNDA:2652232,_ZN5neml2eqERKNS_20TraceableTensorShapeES2_
FNF:10
FNH:8
DA:32,107169
DA:34,160689
DA:35,53520
DA:36,107169
DA:38,2744957
DA:40,3668883
DA:41,923926
DA:42,2744957
DA:44,0
DA:45,0
DA:47,0
DA:49,1329
DA:51,1329
DA:52,1329
DA:54,2783
DA:55,1454
DA:56,1329
DA:59,674700
DA:61,674700
DA:62,0
DA:63,674700
DA:64,108
DA:66,674700
DA:70,0
DA:72,0
DA:73,0
DA:74,0
DA:78,5429813
DA:80,5429813
DA:81,7276835
DA:82,1847022
DA:83,5429813
DA:84,0
DA:87,20150
DA:89,20150
DA:90,16275
DA:92,3875
DA:93,7942
DA:94,4067
DA:95,3875
DA:96,3875
DA:99,2652232
DA:101,2652232
DA:105,106063
DA:107,106063
LF:45
LH:36
end_of_record
TN:
SF:/home/runner/work/neml2/neml2/src/neml2/jit/utils.cxx
FN:32,35,_ZN5neml219neml_assert_tracingEv
FN:38,41,_ZN5neml223neml_assert_not_tracingEv
FN:44,49,_ZN5neml223neml_assert_tracing_dbgEv
FN:52,57,_ZN5neml227neml_assert_not_tracing_dbgEv
FN:62,75,_ZN5neml25utils19extract_batch_sizesERKN2at6TensorEl
FN:78,81,_ZN5neml25utils29last_executed_optimized_graphEv
FNDA:0,_ZN5neml219neml_assert_tracingEv
FNDA:0,_ZN5neml223neml_assert_not_tracingEv
FNDA:0,_ZN5neml223neml_assert_tracing_dbgEv
FNDA:0,_ZN5neml227neml_assert_not_tracing_dbgEv
FNDA:67605,_ZN5neml25utils19extract_batch_sizesERKN2at6TensorEl
FNDA:0,_ZN5neml25utils29last_executed_optimized_graphEv
FNF:6
FNH:1
DA:32,0
DA:34,0
DA:35,0
DA:38,0
DA:40,0
DA:41,0
DA:44,0
DA:47,0
DA:49,0
DA:52,0
DA:55,0
DA:57,0
DA:62,67605
DA:66,67605
DA:68,10544
DA:69,13988
DA:70,3444
DA:71,10544
DA:72,10544
DA:74,57061
DA:78,0
DA:80,0
LF:22
LH:8
end_of_record
TN:
SF:/home/runner/work/neml2/neml2/src/neml2/misc/defaults.cxx
FN:30,33,_ZN5neml217set_default_dtypeEN3c1010ScalarTypeE
FN:36,39,_ZN5neml217get_default_dtypeEv
FN:42,45,_ZN5neml222default_tensor_optionsEv
FN:48,51,_ZN5neml225set_default_integer_dtypeEN3c1010ScalarTypeE
FN:54,57,_ZN5neml225get_default_integer_dtypeEv
FN:60,63,_ZN5neml230default_integer_tensor_optionsEv
FN:68,72,_ZN5neml27details21default_integer_dtypeEv
FNDA:2,_ZN5neml217set_default_dtypeEN3c1010ScalarTypeE
FNDA:0,_ZN5neml217get_default_dtypeEv
FNDA:7293,_ZN5neml222default_tensor_optionsEv
FNDA:0,_ZN5neml225set_default_integer_dtypeEN3c1010ScalarTypeE
FNDA:822,_ZN5neml225get_default_integer_dtypeEv
FNDA:151,_ZN5neml230default_integer_tensor_optionsEv
FNDA:822,_ZN5neml27details21default_integer_dtypeEv
FNF:7
FNH:5
DA:30,2
DA:32,2
DA:33,2
DA:36,0
DA:38,0
DA:42,7293
DA:44,7293
DA:48,0
DA:50,0
DA:51,0
DA:54,822
DA:56,822
DA:60,151
DA:62,151
DA:68,822
DA:71,822
LF:16
LH:11
end_of_record
TN:
SF:/home/runner/work/neml2/neml2/src/neml2/misc/errors.cxx
FN:30,33,_ZNK5neml213NEMLException4whatEv
FN:36,39,_ZNK5neml214SetupException4whatEv
FNDA:32,_ZNK5neml213NEMLException4whatEv
FNDA:80,_ZNK5neml214SetupException4whatEv
FNF:2
FNH:2
DA:30,32
DA:32,32
DA:36,80
DA:38,80
LF:4
LH:4
end_of_record
TN:
SF:/home/runner/work/neml2/neml2/src/neml2/misc/string_utils.cxx
FN:32,36,_ZN5neml25utils8demangleB5cxx11EPKc
FN:39,49,_ZN5neml25utils4joinERKSt6vectorINSt7__cxx1112basic_stringIcSt11char_traitsIcESaIcEEESaIS7_EERKS7_
FN:52,70,_ZN5neml25utils5splitERKNSt7__cxx1112basic_stringIcSt11char_traitsIcESaIcEEES8_
FN:73,80,_ZN5neml25utils4trimERKNSt7__cxx1112basic_stringIcSt11char_traitsIcESaIcEEES8_
FN:83,86,_ZN5neml25utils10start_withESt17basic_string_viewIcSt11char_traitsIcEES4_
FN:89,93,_ZN5neml25utils8end_withESt17basic_string_viewIcSt11char_traitsIcEES4_
FNDA:498397,_ZN5neml25utils8demangleB5cxx11EPKc
FNDA:0,_ZN5neml25utils4joinERKSt6vectorINSt7__cxx1112basic_stringIcSt11char_traitsIcESaIcEEESaIS7_EERKS7_
FNDA:4921,_ZN5neml25utils5splitERKNSt7__cxx1112basic_stringIcSt11char_traitsIcESaIcEEES8_
FNDA:16872,_ZN5neml25utils4trimERKNSt7__cxx1112basic_stringIcSt11char_traitsIcESaIcEEES8_
FNDA:36220,_ZN5neml25utils10start_withESt17basic_string_viewIcSt11char_traitsIcEES4_
FNDA:2012,_ZN5neml25utils8end_withESt17basic_string_viewIcSt11char_traitsIcEES4_
FNF:6
FNH:5
DA:32,498397
DA:35,498397
DA:39,0
DA:41,0
DA:42,0
DA:44,0
DA:45,0
DA:46,0
DA:48,0
DA:49,0
DA:52,4921
DA:54,4921
DA:56,4921
DA:57,4921
DA:59,12083
DA:61,12064
DA:63,12064
DA:64,12064
DA:65,4902
DA:66,7162
DA:69,4921
DA:70,0
DA:73,16872
DA:75,16872
DA:76,16872
DA:77,36
DA:78,16854
DA:79,16854
DA:83,36220
DA:85,36220
DA:89,2012
DA:91,4024
DA:92,4024
LF:33
LH:24
end_of_record
TN:
SF:/home/runner/work/neml2/neml2/src/neml2/misc/types.cxx
FN:34,48,_ZN5neml217machine_precisionEN3c1010ScalarTypeE
FN:51,67,_ZN5neml2lsERSoNS_5FTypeE
FNDA:83,_ZN5neml217machine_precisionEN3c1010ScalarTypeE
FNDA:0,_ZN5neml2lsERSoNS_5FTypeE
FNF:2
FNH:1
DA:34,83
DA:36,83
DA:38,83
DA:39,83
DA:40,0
DA:41,0
DA:42,0
DA:44,0
DA:45,0
DA:46,0
DA:51,0
DA:53,0
DA:54,0
DA:55,0
DA:56,0
DA:57,0
DA:58,0
DA:59,0
DA:60,0
DA:61,0
DA:62,0
DA:64,0
DA:66,0
LF:23
LH:4
end_of_record
TN:
SF:/home/runner/work/neml2/neml2/src/neml2/models/ArrheniusParameter.cxx
FN:34,60,_ZN5neml218ArrheniusParameter16expected_optionsEv
FN:62,70,_ZN5neml218ArrheniusParameterC2ERKNS_9OptionSetE
FN:73,91,_ZN5neml218ArrheniusParameter9set_valueEbbb
FNDA:2,_ZN5neml218ArrheniusParameter16expected_optionsEv
FNDA:2,_ZN5neml218ArrheniusParameterC2ERKNS_9OptionSetE
FNDA:4,_ZN5neml218ArrheniusParameter9set_valueEbbb
FNF:3
FNH:3
DA:34,2
DA:36,2
DA:37,2
DA:40,2
DA:42,4
DA:44,4
DA:45,4
DA:47,4
DA:48,4
DA:50,4
DA:51,2
DA:53,6
DA:54,2
DA:56,6
DA:57,2
DA:59,2
DA:60,0
DA:62,2
DA:64,6
DA:65,10
DA:66,2
DA:67,2
DA:68,4
DA:70,2
DA:73,4
DA:75,4
DA:77,4
DA:78,2
DA:80,4
DA:81,4
DA:83,2
DA:85,2
DA:86,1
DA:88,2
DA:89,1
DA:90,2
DA:91,4
LF:37
LH:36
end_of_record
TN:
SF:/home/runner/work/neml2/neml2/src/neml2/models/Assembler.cxx
FN:107,183,_ZNK5neml215MatrixAssembler20assemble_by_variableERKSt3mapINS_19LabeledAxisAccessorES1_IS2_NS_6TensorESt4lessIS2_ESaISt4pairIKS2_S3_EEES5_SaIS6_IS7_SA_EEE
FN:186,203,_ZNK5neml215MatrixAssembler17split_by_variableERKNS_6TensorE
FN:206,223,_ZNK5neml215MatrixAssembler16split_by_subaxisERKNS_6TensorE
FN:32,76,_ZNK5neml215VectorAssembler20assemble_by_variableERKSt3mapINS_19LabeledAxisAccessorENS_6TensorESt4lessIS2_ESaISt4pairIKS2_S3_EEE
FN:79,90,_ZNK5neml215VectorAssembler17split_by_variableERKNS_6TensorE
FN:93,104,_ZNK5neml215VectorAssembler16split_by_subaxisERKNS_6TensorE
FNDA:1254,_ZNK5neml215MatrixAssembler20assemble_by_variableERKSt3mapINS_19LabeledAxisAccessorES1_IS2_NS_6TensorESt4lessIS2_ESaISt4pairIKS2_S3_EEES5_SaIS6_IS7_SA_EEE
FNDA:9,_ZNK5neml215MatrixAssembler17split_by_variableERKNS_6TensorE
FNDA:3,_ZNK5neml215MatrixAssembler16split_by_subaxisERKNS_6TensorE
FNDA:1766,_ZNK5neml215VectorAssembler20assemble_by_variableERKSt3mapINS_19LabeledAxisAccessorENS_6TensorESt4lessIS2_ESaISt4pairIKS2_S3_EEE
FNDA:1599,_ZNK5neml215VectorAssembler17split_by_variableERKNS_6TensorE
FNDA:1,_ZNK5neml215VectorAssembler16split_by_subaxisERKNS_6TensorE
FNF:6
FNH:6
DA:32,1766
DA:34,1766
DA:37,1766
DA:38,1766
DA:43,1766
DA:44,6888
DA:46,5122
DA:47,5122
DA:49,5119
DA:50,5119
DA:52,5119
DA:54,5119
DA:56,5119
DA:57,5119
DA:59,1766
DA:60,1766
DA:65,1766
DA:68,1766
DA:69,6888
DA:70,5122
DA:71,5119
DA:73,3
DA:75,3532
DA:76,1766
DA:79,1599
DA:81,1599
DA:83,1599
DA:84,1599
DA:86,6267
DA:87,4668
DA:89,3198
DA:90,1599
DA:93,1
DA:95,1
DA:97,1
DA:98,1
DA:100,3
DA:101,2
DA:103,2
DA:104,1
DA:107,1254
DA:109,1254
DA:110,1254
DA:113,1254
DA:114,1254
DA:117,1254
DA:118,4933
DA:120,3679
DA:121,3679
DA:122,0
DA:127,3679
DA:128,14915
DA:130,11236
DA:131,11236
DA:133,11224
DA:134,11224
DA:136,11224
DA:138,11224
DA:140,11224
DA:142,22448
DA:143,11224
DA:145,11224
DA:147,11224
DA:149,22448
DA:151,11224
DA:152,11224
DA:154,1254
DA:155,1254
DA:160,3679
DA:163,3679
DA:164,14915
DA:165,11236
DA:166,11224
DA:168,24
DA:169,24
DA:171,3679
DA:172,3679
DA:175,1254
DA:176,4933
DA:177,3679
DA:178,3679
DA:180,0
DA:182,2508
DA:183,1254
DA:186,9
DA:188,9
DA:190,9
DA:191,9
DA:193,9
DA:194,30
DA:196,21
DA:197,60
DA:198,78
DA:199,117
DA:200,21
DA:202,18
DA:203,9
DA:206,3
DA:208,3
DA:210,3
DA:211,3
DA:213,3
DA:214,6
DA:216,3
DA:217,15
DA:218,24
DA:219,36
DA:220,3
DA:222,6
DA:223,3
LF:110
LH:108
end_of_record
TN:
SF:/home/runner/work/neml2/neml2/src/neml2/models/BackwardEulerTimeIntegration.cxx
FN:31,52,_ZN5neml228BackwardEulerTimeIntegrationINS_2R2EE16expected_optionsEv
FN:31,52,_ZN5neml228BackwardEulerTimeIntegrationINS_3SR2EE16expected_optionsEv
FN:31,52,_ZN5neml228BackwardEulerTimeIntegrationINS_3VecEE16expected_optionsEv
FN:31,52,_ZN5neml228BackwardEulerTimeIntegrationINS_6ScalarEE16expected_optionsEv
FN:55,66,_ZN5neml228BackwardEulerTimeIntegrationINS_2R2EEC2ERKNS_9OptionSetE
FN:55,66,_ZN5neml228BackwardEulerTimeIntegrationINS_3SR2EEC2ERKNS_9OptionSetE
FN:55,66,_ZN5neml228BackwardEulerTimeIntegrationINS_3VecEEC2ERKNS_9OptionSetE
FN:55,66,_ZN5neml228BackwardEulerTimeIntegrationINS_6ScalarEEC2ERKNS_9OptionSetE
FN:70,76,_ZNK5neml228BackwardEulerTimeIntegrationINS_2R2EE8diagnoseEv
FN:70,76,_ZNK5neml228BackwardEulerTimeIntegrationINS_3SR2EE8diagnoseEv
FN:70,76,_ZNK5neml228BackwardEulerTimeIntegrationINS_3VecEE8diagnoseEv
FN:70,76,_ZNK5neml228BackwardEulerTimeIntegrationINS_6ScalarEE8diagnoseEv
FN:80,99,_ZN5neml228BackwardEulerTimeIntegrationINS_2R2EE9set_valueEbbb
FN:80,99,_ZN5neml228BackwardEulerTimeIntegrationINS_3SR2EE9set_valueEbbb
FN:80,99,_ZN5neml228BackwardEulerTimeIntegrationINS_3VecEE9set_valueEbbb
FN:80,99,_ZN5neml228BackwardEulerTimeIntegrationINS_6ScalarEE9set_valueEbbb
FNDA:2,_ZN5neml228BackwardEulerTimeIntegrationINS_2R2EE16expected_optionsEv
FNDA:2,_ZN5neml228BackwardEulerTimeIntegrationINS_3SR2EE16expected_optionsEv
FNDA:2,_ZN5neml228BackwardEulerTimeIntegrationINS_3VecEE16expected_optionsEv
FNDA:2,_ZN5neml228BackwardEulerTimeIntegrationINS_6ScalarEE16expected_optionsEv
FNDA:0,_ZN5neml228BackwardEulerTimeIntegrationINS_2R2EEC2ERKNS_9OptionSetE
FNDA:10,_ZN5neml228BackwardEulerTimeIntegrationINS_3SR2EEC2ERKNS_9OptionSetE
FNDA:0,_ZN5neml228BackwardEulerTimeIntegrationINS_3VecEEC2ERKNS_9OptionSetE
FNDA:18,_ZN5neml228BackwardEulerTimeIntegrationINS_6ScalarEEC2ERKNS_9OptionSetE
FNDA:0,_ZNK5neml228BackwardEulerTimeIntegrationINS_2R2EE8diagnoseEv
FNDA:6,_ZNK5neml228BackwardEulerTimeIntegrationINS_3SR2EE8diagnoseEv
FNDA:0,_ZNK5neml228BackwardEulerTimeIntegrationINS_3VecEE8diagnoseEv
FNDA:3,_ZNK5neml228BackwardEulerTimeIntegrationINS_6ScalarEE8diagnoseEv
FNDA:0,_ZN5neml228BackwardEulerTimeIntegrationINS_2R2EE9set_valueEbbb
FNDA:20,_ZN5neml228BackwardEulerTimeIntegrationINS_3SR2EE9set_valueEbbb
FNDA:0,_ZN5neml228BackwardEulerTimeIntegrationINS_3VecEE9set_valueEbbb
FNDA:35,_ZN5neml228BackwardEulerTimeIntegrationINS_6ScalarEE9set_valueEbbb
FNF:16
FNH:10
DA:31,8
DA:33,8
DA:34,8
DA:40,8
DA:42,16
DA:43,16
DA:45,16
DA:46,8
DA:48,24
DA:49,8
DA:51,8
DA:52,0
DA:55,28
DA:57,28
DA:58,28
DA:59,56
DA:60,110
DA:61,28
DA:62,28
DA:63,28
DA:64,56
DA:66,28
DA:70,9
DA:72,9
DA:73,9
DA:74,9
DA:75,9
DA:76,9
DA:80,55
DA:82,55
DA:83,54
DA:85,55
DA:87,31
DA:89,31
DA:90,31
DA:92,31
DA:93,18
DA:95,13
DA:96,13
DA:97,13
DA:98,31
LF:41
LH:40
end_of_record
TN:
SF:/home/runner/work/neml2/neml2/src/neml2/models/BilinearInterpolation.cxx
FN:37,61,_ZN5neml221BilinearInterpolationINS_3SR2EE16expected_optionsEv
FN:37,61,_ZN5neml221BilinearInterpolationINS_3VecEE16expected_optionsEv
FN:37,61,_ZN5neml221BilinearInterpolationINS_6ScalarEE16expected_optionsEv
FN:64,71,_ZN5neml221BilinearInterpolationINS_3SR2EEC2ERKNS_9OptionSetE
FN:64,71,_ZN5neml221BilinearInterpolationINS_3VecEEC2ERKNS_9OptionSetE
FN:64,71,_ZN5neml221BilinearInterpolationINS_6ScalarEEC2ERKNS_9OptionSetE
FN:74,85,_ZN5neml2L22parametric_coordinatesERKNS_6ScalarES2_
FN:89,94,_ZN5neml2L10apply_maskINS_3SR2EEET_RKS2_RKNS_6ScalarE
FN:89,94,_ZN5neml2L10apply_maskINS_3VecEEET_RKS2_RKNS_6ScalarE
FN:89,94,_ZN5neml2L10apply_maskINS_6ScalarEEET_RKS2_RKS1_
FN:98,150,_ZN5neml221BilinearInterpolationINS_3SR2EE9set_valueEbbb
FN:98,150,_ZN5neml221BilinearInterpolationINS_3VecEE9set_valueEbbb
FN:98,150,_ZN5neml221BilinearInterpolationINS_6ScalarEE9set_valueEbbb
FNDA:2,_ZN5neml221BilinearInterpolationINS_3SR2EE16expected_optionsEv
FNDA:2,_ZN5neml221BilinearInterpolationINS_3VecEE16expected_optionsEv
FNDA:2,_ZN5neml221BilinearInterpolationINS_6ScalarEE16expected_optionsEv
FNDA:0,_ZN5neml221BilinearInterpolationINS_3SR2EEC2ERKNS_9OptionSetE
FNDA:0,_ZN5neml221BilinearInterpolationINS_3VecEEC2ERKNS_9OptionSetE
FNDA:4,_ZN5neml221BilinearInterpolationINS_6ScalarEEC2ERKNS_9OptionSetE
FNDA:24,_ZN5neml2L22parametric_coordinatesERKNS_6ScalarES2_
FNDA:0,_ZN5neml2L10apply_maskINS_3SR2EEET_RKS2_RKNS_6ScalarE
FNDA:0,_ZN5neml2L10apply_maskINS_3VecEEET_RKS2_RKNS_6ScalarE
FNDA:48,_ZN5neml2L10apply_maskINS_6ScalarEEET_RKS2_RKS1_
FNDA:0,_ZN5neml221BilinearInterpolationINS_3SR2EE9set_valueEbbb
FNDA:0,_ZN5neml221BilinearInterpolationINS_3VecEE9set_valueEbbb
FNDA:12,_ZN5neml221BilinearInterpolationINS_6ScalarEE9set_valueEbbb
FNF:13
FNH:7
DA:37,6
DA:39,6
DA:40,6
DA:42,12
DA:44,12
DA:45,12
DA:48,12
DA:49,12
DA:52,12
DA:53,12
DA:56,12
DA:57,6
DA:60,6
DA:61,0
DA:64,4
DA:66,12
DA:67,16
DA:68,4
DA:69,8
DA:71,4
DA:74,24
DA:78,120
DA:79,144
DA:80,168
DA:81,168
DA:82,24
DA:83,24
DA:84,48
DA:85,312
DA:89,48
DA:91,192
DA:92,48
DA:93,192
DA:94,144
DA:98,12
DA:104,12
DA:105,12
DA:106,12
DA:115,72
DA:116,72
DA:117,72
DA:118,72
DA:119,12
DA:120,12
DA:121,12
DA:122,12
DA:129,12
DA:130,12
DA:131,12
DA:133,12
DA:134,4
DA:136,12
DA:138,4
DA:139,4
DA:140,4
DA:141,4
DA:144,12
DA:145,4
DA:147,4
DA:148,4
DA:150,156
LF:61
LH:60
end_of_record
TN:
SF:/home/runner/work/neml2/neml2/src/neml2/models/BufferStore.cxx
FN:117,138,_ZN5neml211BufferStore19assign_buffer_stackERSt6vectorIN3c106IValueESaIS3_EE
FN:141,149,_ZNK5neml211BufferStore20collect_buffer_stackEv
FN:35,38,_ZN5neml211BufferStoreC2EPNS_11NEML2ObjectE
FN:41,46,_ZN5neml211BufferStore13named_buffersB5cxx11Ev
FN:49,54,_ZN5neml211BufferStore10get_bufferERKNSt7__cxx1112basic_stringIcSt11char_traitsIcESaIcEEE
FN:57,61,_ZN5neml211BufferStore15send_buffers_toERKN3c1013TensorOptionsE
FN:65,86,_ZN5neml211BufferStore14declare_bufferINS_10QuaternionEvEERKT_RKNSt7__cxx1112basic_stringIcSt11char_traitsIcESaIcEEES5_
FN:65,86,_ZN5neml211BufferStore14declare_bufferINS_11MillerIndexEvEERKT_RKNSt7__cxx1112basic_stringIcSt11char_traitsIcESaIcEEES5_
FN:65,86,_ZN5neml211BufferStore14declare_bufferINS_2R2EvEERKT_RKNSt7__cxx1112basic_stringIcSt11char_traitsIcESaIcEEES5_
FN:65,86,_ZN5neml211BufferStore14declare_bufferINS_2R3EvEERKT_RKNSt7__cxx1112basic_stringIcSt11char_traitsIcESaIcEEES5_
FN:65,86,_ZN5neml211BufferStore14declare_bufferINS_2R4EvEERKT_RKNSt7__cxx1112basic_stringIcSt11char_traitsIcESaIcEEES5_
FN:65,86,_ZN5neml211BufferStore14declare_bufferINS_2R5EvEERKT_RKNSt7__cxx1112basic_stringIcSt11char_traitsIcESaIcEEES5_
FN:65,86,_ZN5neml211BufferStore14declare_bufferINS_2R8EvEERKT_RKNSt7__cxx1112basic_stringIcSt11char_traitsIcESaIcEEES5_
FN:65,86,_ZN5neml211BufferStore14declare_bufferINS_3RotEvEERKT_RKNSt7__cxx1112basic_stringIcSt11char_traitsIcESaIcEEES5_
FN:65,86,_ZN5neml211BufferStore14declare_bufferINS_3SR2EvEERKT_RKNSt7__cxx1112basic_stringIcSt11char_traitsIcESaIcEEES5_
FN:65,86,_ZN5neml211BufferStore14declare_bufferINS_3VecEvEERKT_RKNSt7__cxx1112basic_stringIcSt11char_traitsIcESaIcEEES5_
FN:65,86,_ZN5neml211BufferStore14declare_bufferINS_3WR2EvEERKT_RKNSt7__cxx1112basic_stringIcSt11char_traitsIcESaIcEEES5_
FN:65,86,_ZN5neml211BufferStore14declare_bufferINS_4SFR3EvEERKT_RKNSt7__cxx1112basic_stringIcSt11char_traitsIcESaIcEEES5_
FN:65,86,_ZN5neml211BufferStore14declare_bufferINS_4SFR4EvEERKT_RKNSt7__cxx1112basic_stringIcSt11char_traitsIcESaIcEEES5_
FN:65,86,_ZN5neml211BufferStore14declare_bufferINS_4SSR4EvEERKT_RKNSt7__cxx1112basic_stringIcSt11char_traitsIcESaIcEEES5_
FN:65,86,_ZN5neml211BufferStore14declare_bufferINS_4SWR4EvEERKT_RKNSt7__cxx1112basic_stringIcSt11char_traitsIcESaIcEEES5_
FN:65,86,_ZN5neml211BufferStore14declare_bufferINS_4WFR4EvEERKT_RKNSt7__cxx1112basic_stringIcSt11char_traitsIcESaIcEEES5_
FN:65,86,_ZN5neml211BufferStore14declare_bufferINS_4WSR4EvEERKT_RKNSt7__cxx1112basic_stringIcSt11char_traitsIcESaIcEEES5_
FN:65,86,_ZN5neml211BufferStore14declare_bufferINS_4WWR4EvEERKT_RKNSt7__cxx1112basic_stringIcSt11char_traitsIcESaIcEEES5_
FN:65,86,_ZN5neml211BufferStore14declare_bufferINS_5SFFR4EvEERKT_RKNSt7__cxx1112basic_stringIcSt11char_traitsIcESaIcEEES5_
FN:65,86,_ZN5neml211BufferStore14declare_bufferINS_5SSFR5EvEERKT_RKNSt7__cxx1112basic_stringIcSt11char_traitsIcESaIcEEES5_
FN:65,86,_ZN5neml211BufferStore14declare_bufferINS_6SSSSR8EvEERKT_RKNSt7__cxx1112basic_stringIcSt11char_traitsIcESaIcEEES5_
FN:65,86,_ZN5neml211BufferStore14declare_bufferINS_6ScalarEvEERKT_RKNSt7__cxx1112basic_stringIcSt11char_traitsIcESaIcEEES5_
FN:65,86,_ZN5neml211BufferStore14declare_bufferINS_6TensorEvEERKT_RKNSt7__cxx1112basic_stringIcSt11char_traitsIcESaIcEEES5_
FN:90,95,_ZN5neml211BufferStore14declare_bufferINS_10QuaternionEvEERKT_RKNSt7__cxx1112basic_stringIcSt11char_traitsIcESaIcEEERKNS_10TensorNameIS3_EE
FN:90,95,_ZN5neml211BufferStore14declare_bufferINS_11MillerIndexEvEERKT_RKNSt7__cxx1112basic_stringIcSt11char_traitsIcESaIcEEERKNS_10TensorNameIS3_EE
FN:90,95,_ZN5neml211BufferStore14declare_bufferINS_2R2EvEERKT_RKNSt7__cxx1112basic_stringIcSt11char_traitsIcESaIcEEERKNS_10TensorNameIS3_EE
FN:90,95,_ZN5neml211BufferStore14declare_bufferINS_2R3EvEERKT_RKNSt7__cxx1112basic_stringIcSt11char_traitsIcESaIcEEERKNS_10TensorNameIS3_EE
FN:90,95,_ZN5neml211BufferStore14declare_bufferINS_2R4EvEERKT_RKNSt7__cxx1112basic_stringIcSt11char_traitsIcESaIcEEERKNS_10TensorNameIS3_EE
FN:90,95,_ZN5neml211BufferStore14declare_bufferINS_2R5EvEERKT_RKNSt7__cxx1112basic_stringIcSt11char_traitsIcESaIcEEERKNS_10TensorNameIS3_EE
FN:90,95,_ZN5neml211BufferStore14declare_bufferINS_2R8EvEERKT_RKNSt7__cxx1112basic_stringIcSt11char_traitsIcESaIcEEERKNS_10TensorNameIS3_EE
FN:90,95,_ZN5neml211BufferStore14declare_bufferINS_3RotEvEERKT_RKNSt7__cxx1112basic_stringIcSt11char_traitsIcESaIcEEERKNS_10TensorNameIS3_EE
FN:90,95,_ZN5neml211BufferStore14declare_bufferINS_3SR2EvEERKT_RKNSt7__cxx1112basic_stringIcSt11char_traitsIcESaIcEEERKNS_10TensorNameIS3_EE
FN:90,95,_ZN5neml211BufferStore14declare_bufferINS_3VecEvEERKT_RKNSt7__cxx1112basic_stringIcSt11char_traitsIcESaIcEEERKNS_10TensorNameIS3_EE
FN:90,95,_ZN5neml211BufferStore14declare_bufferINS_3WR2EvEERKT_RKNSt7__cxx1112basic_stringIcSt11char_traitsIcESaIcEEERKNS_10TensorNameIS3_EE
FN:90,95,_ZN5neml211BufferStore14declare_bufferINS_4SFR3EvEERKT_RKNSt7__cxx1112basic_stringIcSt11char_traitsIcESaIcEEERKNS_10TensorNameIS3_EE
FN:90,95,_ZN5neml211BufferStore14declare_bufferINS_4SFR4EvEERKT_RKNSt7__cxx1112basic_stringIcSt11char_traitsIcESaIcEEERKNS_10TensorNameIS3_EE
FN:90,95,_ZN5neml211BufferStore14declare_bufferINS_4SSR4EvEERKT_RKNSt7__cxx1112basic_stringIcSt11char_traitsIcESaIcEEERKNS_10TensorNameIS3_EE
FN:90,95,_ZN5neml211BufferStore14declare_bufferINS_4SWR4EvEERKT_RKNSt7__cxx1112basic_stringIcSt11char_traitsIcESaIcEEERKNS_10TensorNameIS3_EE
FN:90,95,_ZN5neml211BufferStore14declare_bufferINS_4WFR4EvEERKT_RKNSt7__cxx1112basic_stringIcSt11char_traitsIcESaIcEEERKNS_10TensorNameIS3_EE
FN:90,95,_ZN5neml211BufferStore14declare_bufferINS_4WSR4EvEERKT_RKNSt7__cxx1112basic_stringIcSt11char_traitsIcESaIcEEERKNS_10TensorNameIS3_EE
FN:90,95,_ZN5neml211BufferStore14declare_bufferINS_4WWR4EvEERKT_RKNSt7__cxx1112basic_stringIcSt11char_traitsIcESaIcEEERKNS_10TensorNameIS3_EE
FN:90,95,_ZN5neml211BufferStore14declare_bufferINS_5SFFR4EvEERKT_RKNSt7__cxx1112basic_stringIcSt11char_traitsIcESaIcEEERKNS_10TensorNameIS3_EE
FN:90,95,_ZN5neml211BufferStore14declare_bufferINS_5SSFR5EvEERKT_RKNSt7__cxx1112basic_stringIcSt11char_traitsIcESaIcEEERKNS_10TensorNameIS3_EE
FN:90,95,_ZN5neml211BufferStore14declare_bufferINS_6SSSSR8EvEERKT_RKNSt7__cxx1112basic_stringIcSt11char_traitsIcESaIcEEERKNS_10TensorNameIS3_EE
FN:90,95,_ZN5neml211BufferStore14declare_bufferINS_6ScalarEvEERKT_RKNSt7__cxx1112basic_stringIcSt11char_traitsIcESaIcEEERKNS_10TensorNameIS3_EE
FN:90,95,_ZN5neml211BufferStore14declare_bufferINS_6TensorEvEERKT_RKNSt7__cxx1112basic_stringIcSt11char_traitsIcESaIcEEERKNS_10TensorNameIS3_EE
FN:99,108,_ZN5neml211BufferStore14declare_bufferINS_10QuaternionEvEERKT_RKNSt7__cxx1112basic_stringIcSt11char_traitsIcESaIcEEESD_
FN:99,108,_ZN5neml211BufferStore14declare_bufferINS_11MillerIndexEvEERKT_RKNSt7__cxx1112basic_stringIcSt11char_traitsIcESaIcEEESD_
FN:99,108,_ZN5neml211BufferStore14declare_bufferINS_2R2EvEERKT_RKNSt7__cxx1112basic_stringIcSt11char_traitsIcESaIcEEESD_
FN:99,108,_ZN5neml211BufferStore14declare_bufferINS_2R3EvEERKT_RKNSt7__cxx1112basic_stringIcSt11char_traitsIcESaIcEEESD_
FN:99,108,_ZN5neml211BufferStore14declare_bufferINS_2R4EvEERKT_RKNSt7__cxx1112basic_stringIcSt11char_traitsIcESaIcEEESD_
FN:99,108,_ZN5neml211BufferStore14declare_bufferINS_2R5EvEERKT_RKNSt7__cxx1112basic_stringIcSt11char_traitsIcESaIcEEESD_
FN:99,108,_ZN5neml211BufferStore14declare_bufferINS_2R8EvEERKT_RKNSt7__cxx1112basic_stringIcSt11char_traitsIcESaIcEEESD_
FN:99,108,_ZN5neml211BufferStore14declare_bufferINS_3RotEvEERKT_RKNSt7__cxx1112basic_stringIcSt11char_traitsIcESaIcEEESD_
FN:99,108,_ZN5neml211BufferStore14declare_bufferINS_3SR2EvEERKT_RKNSt7__cxx1112basic_stringIcSt11char_traitsIcESaIcEEESD_
FN:99,108,_ZN5neml211BufferStore14declare_bufferINS_3VecEvEERKT_RKNSt7__cxx1112basic_stringIcSt11char_traitsIcESaIcEEESD_
FN:99,108,_ZN5neml211BufferStore14declare_bufferINS_3WR2EvEERKT_RKNSt7__cxx1112basic_stringIcSt11char_traitsIcESaIcEEESD_
FN:99,108,_ZN5neml211BufferStore14declare_bufferINS_4SFR3EvEERKT_RKNSt7__cxx1112basic_stringIcSt11char_traitsIcESaIcEEESD_
FN:99,108,_ZN5neml211BufferStore14declare_bufferINS_4SFR4EvEERKT_RKNSt7__cxx1112basic_stringIcSt11char_traitsIcESaIcEEESD_
FN:99,108,_ZN5neml211BufferStore14declare_bufferINS_4SSR4EvEERKT_RKNSt7__cxx1112basic_stringIcSt11char_traitsIcESaIcEEESD_
FN:99,108,_ZN5neml211BufferStore14declare_bufferINS_4SWR4EvEERKT_RKNSt7__cxx1112basic_stringIcSt11char_traitsIcESaIcEEESD_
FN:99,108,_ZN5neml211BufferStore14declare_bufferINS_4WFR4EvEERKT_RKNSt7__cxx1112basic_stringIcSt11char_traitsIcESaIcEEESD_
FN:99,108,_ZN5neml211BufferStore14declare_bufferINS_4WSR4EvEERKT_RKNSt7__cxx1112basic_stringIcSt11char_traitsIcESaIcEEESD_
FN:99,108,_ZN5neml211BufferStore14declare_bufferINS_4WWR4EvEERKT_RKNSt7__cxx1112basic_stringIcSt11char_traitsIcESaIcEEESD_
FN:99,108,_ZN5neml211BufferStore14declare_bufferINS_5SFFR4EvEERKT_RKNSt7__cxx1112basic_stringIcSt11char_traitsIcESaIcEEESD_
FN:99,108,_ZN5neml211BufferStore14declare_bufferINS_5SSFR5EvEERKT_RKNSt7__cxx1112basic_stringIcSt11char_traitsIcESaIcEEESD_
FN:99,108,_ZN5neml211BufferStore14declare_bufferINS_6SSSSR8EvEERKT_RKNSt7__cxx1112basic_stringIcSt11char_traitsIcESaIcEEESD_
FN:99,108,_ZN5neml211BufferStore14declare_bufferINS_6ScalarEvEERKT_RKNSt7__cxx1112basic_stringIcSt11char_traitsIcESaIcEEESD_
FN:99,108,_ZN5neml211BufferStore14declare_bufferINS_6TensorEvEERKT_RKNSt7__cxx1112basic_stringIcSt11char_traitsIcESaIcEEESD_
FNDA:0,_ZN5neml211BufferStore19assign_buffer_stackERSt6vectorIN3c106IValueESaIS3_EE
FNDA:0,_ZNK5neml211BufferStore20collect_buffer_stackEv
FNDA:512,_ZN5neml211BufferStoreC2EPNS_11NEML2ObjectE
FNDA:157358,_ZN5neml211BufferStore13named_buffersB5cxx11Ev
FNDA:3,_ZN5neml211BufferStore10get_bufferERKNSt7__cxx1112basic_stringIcSt11char_traitsIcESaIcEEE
FNDA:91,_ZN5neml211BufferStore15send_buffers_toERKN3c1013TensorOptionsE
FNDA:0,_ZN5neml211BufferStore14declare_bufferINS_10QuaternionEvEERKT_RKNSt7__cxx1112basic_stringIcSt11char_traitsIcESaIcEEES5_
FNDA:88,_ZN5neml211BufferStore14declare_bufferINS_11MillerIndexEvEERKT_RKNSt7__cxx1112basic_stringIcSt11char_traitsIcESaIcEEES5_
FNDA:44,_ZN5neml211BufferStore14declare_bufferINS_2R2EvEERKT_RKNSt7__cxx1112basic_stringIcSt11char_traitsIcESaIcEEES5_
FNDA:0,_ZN5neml211BufferStore14declare_bufferINS_2R3EvEERKT_RKNSt7__cxx1112basic_stringIcSt11char_traitsIcESaIcEEES5_
FNDA:0,_ZN5neml211BufferStore14declare_bufferINS_2R4EvEERKT_RKNSt7__cxx1112basic_stringIcSt11char_traitsIcESaIcEEES5_
FNDA:0,_ZN5neml211BufferStore14declare_bufferINS_2R5EvEERKT_RKNSt7__cxx1112basic_stringIcSt11char_traitsIcESaIcEEES5_
FNDA:0,_ZN5neml211BufferStore14declare_bufferINS_2R8EvEERKT_RKNSt7__cxx1112basic_stringIcSt11char_traitsIcESaIcEEES5_
FNDA:0,_ZN5neml211BufferStore14declare_bufferINS_3RotEvEERKT_RKNSt7__cxx1112basic_stringIcSt11char_traitsIcESaIcEEES5_
FNDA:44,_ZN5neml211BufferStore14declare_bufferINS_3SR2EvEERKT_RKNSt7__cxx1112basic_stringIcSt11char_traitsIcESaIcEEES5_
FNDA:176,_ZN5neml211BufferStore14declare_bufferINS_3VecEvEERKT_RKNSt7__cxx1112basic_stringIcSt11char_traitsIcESaIcEEES5_
FNDA:44,_ZN5neml211BufferStore14declare_bufferINS_3WR2EvEERKT_RKNSt7__cxx1112basic_stringIcSt11char_traitsIcESaIcEEES5_
FNDA:0,_ZN5neml211BufferStore14declare_bufferINS_4SFR3EvEERKT_RKNSt7__cxx1112basic_stringIcSt11char_traitsIcESaIcEEES5_
FNDA:0,_ZN5neml211BufferStore14declare_bufferINS_4SFR4EvEERKT_RKNSt7__cxx1112basic_stringIcSt11char_traitsIcESaIcEEES5_
FNDA:0,_ZN5neml211BufferStore14declare_bufferINS_4SSR4EvEERKT_RKNSt7__cxx1112basic_stringIcSt11char_traitsIcESaIcEEES5_
FNDA:0,_ZN5neml211BufferStore14declare_bufferINS_4SWR4EvEERKT_RKNSt7__cxx1112basic_stringIcSt11char_traitsIcESaIcEEES5_
FNDA:0,_ZN5neml211BufferStore14declare_bufferINS_4WFR4EvEERKT_RKNSt7__cxx1112basic_stringIcSt11char_traitsIcESaIcEEES5_
FNDA:0,_ZN5neml211BufferStore14declare_bufferINS_4WSR4EvEERKT_RKNSt7__cxx1112basic_stringIcSt11char_traitsIcESaIcEEES5_
FNDA:0,_ZN5neml211BufferStore14declare_bufferINS_4WWR4EvEERKT_RKNSt7__cxx1112basic_stringIcSt11char_traitsIcESaIcEEES5_
FNDA:0,_ZN5neml211BufferStore14declare_bufferINS_5SFFR4EvEERKT_RKNSt7__cxx1112basic_stringIcSt11char_traitsIcESaIcEEES5_
FNDA:0,_ZN5neml211BufferStore14declare_bufferINS_5SSFR5EvEERKT_RKNSt7__cxx1112basic_stringIcSt11char_traitsIcESaIcEEES5_
FNDA:0,_ZN5neml211BufferStore14declare_bufferINS_6SSSSR8EvEERKT_RKNSt7__cxx1112basic_stringIcSt11char_traitsIcESaIcEEES5_
FNDA:126,_ZN5neml211BufferStore14declare_bufferINS_6ScalarEvEERKT_RKNSt7__cxx1112basic_stringIcSt11char_traitsIcESaIcEEES5_
FNDA:5,_ZN5neml211BufferStore14declare_bufferINS_6TensorEvEERKT_RKNSt7__cxx1112basic_stringIcSt11char_traitsIcESaIcEEES5_
FNDA:0,_ZN5neml211BufferStore14declare_bufferINS_10QuaternionEvEERKT_RKNSt7__cxx1112basic_stringIcSt11char_traitsIcESaIcEEERKNS_10TensorNameIS3_EE
FNDA:66,_ZN5neml211BufferStore14declare_bufferINS_11MillerIndexEvEERKT_RKNSt7__cxx1112basic_stringIcSt11char_traitsIcESaIcEEERKNS_10TensorNameIS3_EE
FNDA:0,_ZN5neml211BufferStore14declare_bufferINS_2R2EvEERKT_RKNSt7__cxx1112basic_stringIcSt11char_traitsIcESaIcEEERKNS_10TensorNameIS3_EE
FNDA:0,_ZN5neml211BufferStore14declare_bufferINS_2R3EvEERKT_RKNSt7__cxx1112basic_stringIcSt11char_traitsIcESaIcEEERKNS_10TensorNameIS3_EE
FNDA:0,_ZN5neml211BufferStore14declare_bufferINS_2R4EvEERKT_RKNSt7__cxx1112basic_stringIcSt11char_traitsIcESaIcEEERKNS_10TensorNameIS3_EE
FNDA:0,_ZN5neml211BufferStore14declare_bufferINS_2R5EvEERKT_RKNSt7__cxx1112basic_stringIcSt11char_traitsIcESaIcEEERKNS_10TensorNameIS3_EE
FNDA:0,_ZN5neml211BufferStore14declare_bufferINS_2R8EvEERKT_RKNSt7__cxx1112basic_stringIcSt11char_traitsIcESaIcEEERKNS_10TensorNameIS3_EE
FNDA:0,_ZN5neml211BufferStore14declare_bufferINS_3RotEvEERKT_RKNSt7__cxx1112basic_stringIcSt11char_traitsIcESaIcEEERKNS_10TensorNameIS3_EE
FNDA:0,_ZN5neml211BufferStore14declare_bufferINS_3SR2EvEERKT_RKNSt7__cxx1112basic_stringIcSt11char_traitsIcESaIcEEERKNS_10TensorNameIS3_EE
FNDA:0,_ZN5neml211BufferStore14declare_bufferINS_3VecEvEERKT_RKNSt7__cxx1112basic_stringIcSt11char_traitsIcESaIcEEERKNS_10TensorNameIS3_EE
FNDA:0,_ZN5neml211BufferStore14declare_bufferINS_3WR2EvEERKT_RKNSt7__cxx1112basic_stringIcSt11char_traitsIcESaIcEEERKNS_10TensorNameIS3_EE
FNDA:0,_ZN5neml211BufferStore14declare_bufferINS_4SFR3EvEERKT_RKNSt7__cxx1112basic_stringIcSt11char_traitsIcESaIcEEERKNS_10TensorNameIS3_EE
FNDA:0,_ZN5neml211BufferStore14declare_bufferINS_4SFR4EvEERKT_RKNSt7__cxx1112basic_stringIcSt11char_traitsIcESaIcEEERKNS_10TensorNameIS3_EE
FNDA:0,_ZN5neml211BufferStore14declare_bufferINS_4SSR4EvEERKT_RKNSt7__cxx1112basic_stringIcSt11char_traitsIcESaIcEEERKNS_10TensorNameIS3_EE
FNDA:0,_ZN5neml211BufferStore14declare_bufferINS_4SWR4EvEERKT_RKNSt7__cxx1112basic_stringIcSt11char_traitsIcESaIcEEERKNS_10TensorNameIS3_EE
FNDA:0,_ZN5neml211BufferStore14declare_bufferINS_4WFR4EvEERKT_RKNSt7__cxx1112basic_stringIcSt11char_traitsIcESaIcEEERKNS_10TensorNameIS3_EE
FNDA:0,_ZN5neml211BufferStore14declare_bufferINS_4WSR4EvEERKT_RKNSt7__cxx1112basic_stringIcSt11char_traitsIcESaIcEEERKNS_10TensorNameIS3_EE
FNDA:0,_ZN5neml211BufferStore14declare_bufferINS_4WWR4EvEERKT_RKNSt7__cxx1112basic_stringIcSt11char_traitsIcESaIcEEERKNS_10TensorNameIS3_EE
FNDA:0,_ZN5neml211BufferStore14declare_bufferINS_5SFFR4EvEERKT_RKNSt7__cxx1112basic_stringIcSt11char_traitsIcESaIcEEERKNS_10TensorNameIS3_EE
FNDA:0,_ZN5neml211BufferStore14declare_bufferINS_5SSFR5EvEERKT_RKNSt7__cxx1112basic_stringIcSt11char_traitsIcESaIcEEERKNS_10TensorNameIS3_EE
FNDA:0,_ZN5neml211BufferStore14declare_bufferINS_6SSSSR8EvEERKT_RKNSt7__cxx1112basic_stringIcSt11char_traitsIcESaIcEEERKNS_10TensorNameIS3_EE
FNDA:50,_ZN5neml211BufferStore14declare_bufferINS_6ScalarEvEERKT_RKNSt7__cxx1112basic_stringIcSt11char_traitsIcESaIcEEERKNS_10TensorNameIS3_EE
FNDA:3,_ZN5neml211BufferStore14declare_bufferINS_6TensorEvEERKT_RKNSt7__cxx1112basic_stringIcSt11char_traitsIcESaIcEEERKNS_10TensorNameIS3_EE
FNDA:0,_ZN5neml211BufferStore14declare_bufferINS_10QuaternionEvEERKT_RKNSt7__cxx1112basic_stringIcSt11char_traitsIcESaIcEEESD_
FNDA:66,_ZN5neml211BufferStore14declare_bufferINS_11MillerIndexEvEERKT_RKNSt7__cxx1112basic_stringIcSt11char_traitsIcESaIcEEESD_
FNDA:0,_ZN5neml211BufferStore14declare_bufferINS_2R2EvEERKT_RKNSt7__cxx1112basic_stringIcSt11char_traitsIcESaIcEEESD_
FNDA:0,_ZN5neml211BufferStore14declare_bufferINS_2R3EvEERKT_RKNSt7__cxx1112basic_stringIcSt11char_traitsIcESaIcEEESD_
FNDA:0,_ZN5neml211BufferStore14declare_bufferINS_2R4EvEERKT_RKNSt7__cxx1112basic_stringIcSt11char_traitsIcESaIcEEESD_
FNDA:0,_ZN5neml211BufferStore14declare_bufferINS_2R5EvEERKT_RKNSt7__cxx1112basic_stringIcSt11char_traitsIcESaIcEEESD_
FNDA:0,_ZN5neml211BufferStore14declare_bufferINS_2R8EvEERKT_RKNSt7__cxx1112basic_stringIcSt11char_traitsIcESaIcEEESD_
FNDA:0,_ZN5neml211BufferStore14declare_bufferINS_3RotEvEERKT_RKNSt7__cxx1112basic_stringIcSt11char_traitsIcESaIcEEESD_
FNDA:0,_ZN5neml211BufferStore14declare_bufferINS_3SR2EvEERKT_RKNSt7__cxx1112basic_stringIcSt11char_traitsIcESaIcEEESD_
FNDA:0,_ZN5neml211BufferStore14declare_bufferINS_3VecEvEERKT_RKNSt7__cxx1112basic_stringIcSt11char_traitsIcESaIcEEESD_
FNDA:0,_ZN5neml211BufferStore14declare_bufferINS_3WR2EvEERKT_RKNSt7__cxx1112basic_stringIcSt11char_traitsIcESaIcEEESD_
FNDA:0,_ZN5neml211BufferStore14declare_bufferINS_4SFR3EvEERKT_RKNSt7__cxx1112basic_stringIcSt11char_traitsIcESaIcEEESD_
FNDA:0,_ZN5neml211BufferStore14declare_bufferINS_4SFR4EvEERKT_RKNSt7__cxx1112basic_stringIcSt11char_traitsIcESaIcEEESD_
FNDA:0,_ZN5neml211BufferStore14declare_bufferINS_4SSR4EvEERKT_RKNSt7__cxx1112basic_stringIcSt11char_traitsIcESaIcEEESD_
FNDA:0,_ZN5neml211BufferStore14declare_bufferINS_4SWR4EvEERKT_RKNSt7__cxx1112basic_stringIcSt11char_traitsIcESaIcEEESD_
FNDA:0,_ZN5neml211BufferStore14declare_bufferINS_4WFR4EvEERKT_RKNSt7__cxx1112basic_stringIcSt11char_traitsIcESaIcEEESD_
FNDA:0,_ZN5neml211BufferStore14declare_bufferINS_4WSR4EvEERKT_RKNSt7__cxx1112basic_stringIcSt11char_traitsIcESaIcEEESD_
FNDA:0,_ZN5neml211BufferStore14declare_bufferINS_4WWR4EvEERKT_RKNSt7__cxx1112basic_stringIcSt11char_traitsIcESaIcEEESD_
FNDA:0,_ZN5neml211BufferStore14declare_bufferINS_5SFFR4EvEERKT_RKNSt7__cxx1112basic_stringIcSt11char_traitsIcESaIcEEESD_
FNDA:0,_ZN5neml211BufferStore14declare_bufferINS_5SSFR5EvEERKT_RKNSt7__cxx1112basic_stringIcSt11char_traitsIcESaIcEEESD_
FNDA:0,_ZN5neml211BufferStore14declare_bufferINS_6SSSSR8EvEERKT_RKNSt7__cxx1112basic_stringIcSt11char_traitsIcESaIcEEESD_
FNDA:11,_ZN5neml211BufferStore14declare_bufferINS_6ScalarEvEERKT_RKNSt7__cxx1112basic_stringIcSt11char_traitsIcESaIcEEESD_
FNDA:3,_ZN5neml211BufferStore14declare_bufferINS_6TensorEvEERKT_RKNSt7__cxx1112basic_stringIcSt11char_traitsIcESaIcEEESD_
FNF:75
FNH:17
DA:35,512
DA:36,512
DA:38,512
DA:41,157358
DA:43,157358
DA:45,157358
DA:49,3
DA:51,3
DA:52,3
DA:53,3
DA:57,91
DA:59,112
DA:60,21
DA:61,91
DA:65,527
DA:67,527
DA:68,432
DA:69,288
DA:71,383
DA:74,383
DA:75,3
DA:78,380
DA:79,380
DA:80,380
DA:81,380
DA:83,383
DA:84,383
DA:85,383
DA:90,119
DA:92,119
DA:93,119
DA:94,119
DA:99,80
DA:101,80
DA:102,80
DA:104,0
DA:117,0
DA:119,0
DA:121,0
DA:123,0
DA:125,0
DA:129,0
DA:130,0
DA:132,0
DA:133,0
DA:134,0
DA:137,0
DA:138,0
DA:141,0
DA:143,0
DA:144,0
DA:145,0
DA:146,0
DA:147,0
DA:148,0
DA:149,0
LF:56
LH:35
end_of_record
TN:
SF:/home/runner/work/neml2/neml2/src/neml2/models/ComposedModel.cxx
FN:179,182,_ZNK5neml213ComposedModel26named_nonlinear_parametersB5cxx11Eb
FN:185,197,_ZN5neml213ComposedModel20link_input_variablesEPNS_5ModelE
FN:200,205,_ZN5neml213ComposedModel21link_output_variablesEPNS_5ModelE
FN:208,229,_ZN5neml213ComposedModel9set_valueEbbb
FN:33,61,_ZN5neml213ComposedModel16expected_optionsEv
FN:63,176,_ZN5neml213ComposedModelC2ERKNS_9OptionSetE
FNDA:32,_ZNK5neml213ComposedModel26named_nonlinear_parametersB5cxx11Eb
FNDA:260,_ZN5neml213ComposedModel20link_input_variablesEPNS_5ModelE
FNDA:260,_ZN5neml213ComposedModel21link_output_variablesEPNS_5ModelE
FNDA:199,_ZN5neml213ComposedModel9set_valueEbbb
FNDA:2,_ZN5neml213ComposedModel16expected_optionsEv
FNDA:77,_ZN5neml213ComposedModelC2ERKNS_9OptionSetE
FNF:6
FNH:6
DA:33,2
DA:35,2
DA:36,2
DA:39,2
DA:41,2
DA:43,4
DA:44,4
DA:46,4
DA:47,6
DA:49,2
DA:51,4
DA:52,6
DA:54,2
DA:56,4
DA:57,4
DA:58,2
DA:60,2
DA:61,0
DA:63,77
DA:65,154
DA:66,231
DA:71,338
DA:72,261
DA:82,77
DA:83,77
DA:84,261
DA:85,262
DA:86,78
DA:87,156
DA:88,260
DA:91,337
DA:92,260
DA:93,79
DA:94,2
DA:97,77
DA:98,77
DA:99,77
DA:100,0
DA:103,77
DA:104,77
DA:105,77
DA:106,77
DA:109,77
DA:110,337
DA:111,260
DA:112,77
DA:115,475
DA:116,398
DA:117,321
DA:120,180
DA:121,103
DA:124,261
DA:125,262
DA:126,78
DA:127,184
DA:130,77
DA:131,337
DA:132,260
DA:134,0
DA:135,0
DA:136,0
DA:137,0
DA:141,77
DA:143,77
DA:144,337
DA:145,260
DA:147,0
DA:148,0
DA:149,0
DA:154,77
DA:156,77
DA:157,191
DA:158,166
DA:160,52
DA:161,52
DA:166,77
DA:169,77
DA:170,321
DA:171,250
DA:173,4
DA:174,4
DA:176,77
DA:179,32
DA:181,32
DA:185,260
DA:187,2311
DA:188,2051
DA:189,398
DA:191,1698
DA:192,1438
DA:194,197
DA:195,197
DA:197,260
DA:200,260
DA:202,673
DA:203,413
DA:204,103
DA:205,260
DA:208,199
DA:210,844
DA:212,645
DA:213,364
DA:214,281
DA:215,233
DA:216,48
DA:217,48
DA:219,0
DA:222,199
DA:223,155
DA:224,85
DA:226,199
DA:227,32
DA:228,16
DA:229,199
LF:114
LH:104
end_of_record
TN:
SF:/home/runner/work/neml2/neml2/src/neml2/models/ConstantParameter.cxx
FN:32,41,_ZN5neml217ConstantParameterINS_10QuaternionEE16expected_optionsEv
FN:32,41,_ZN5neml217ConstantParameterINS_11MillerIndexEE16expected_optionsEv
FN:32,41,_ZN5neml217ConstantParameterINS_2R2EE16expected_optionsEv
FN:32,41,_ZN5neml217ConstantParameterINS_2R3EE16expected_optionsEv
FN:32,41,_ZN5neml217ConstantParameterINS_2R4EE16expected_optionsEv
FN:32,41,_ZN5neml217ConstantParameterINS_2R5EE16expected_optionsEv
FN:32,41,_ZN5neml217ConstantParameterINS_2R8EE16expected_optionsEv
FN:32,41,_ZN5neml217ConstantParameterINS_3RotEE16expected_optionsEv
FN:32,41,_ZN5neml217ConstantParameterINS_3SR2EE16expected_optionsEv
FN:32,41,_ZN5neml217ConstantParameterINS_3VecEE16expected_optionsEv
FN:32,41,_ZN5neml217ConstantParameterINS_3WR2EE16expected_optionsEv
FN:32,41,_ZN5neml217ConstantParameterINS_4SFR3EE16expected_optionsEv
FN:32,41,_ZN5neml217ConstantParameterINS_4SFR4EE16expected_optionsEv
FN:32,41,_ZN5neml217ConstantParameterINS_4SSR4EE16expected_optionsEv
FN:32,41,_ZN5neml217ConstantParameterINS_4SWR4EE16expected_optionsEv
FN:32,41,_ZN5neml217ConstantParameterINS_4WFR4EE16expected_optionsEv
FN:32,41,_ZN5neml217ConstantParameterINS_4WSR4EE16expected_optionsEv
FN:32,41,_ZN5neml217ConstantParameterINS_4WWR4EE16expected_optionsEv
FN:32,41,_ZN5neml217ConstantParameterINS_5SFFR4EE16expected_optionsEv
FN:32,41,_ZN5neml217ConstantParameterINS_5SSFR5EE16expected_optionsEv
FN:32,41,_ZN5neml217ConstantParameterINS_6SSSSR8EE16expected_optionsEv
FN:32,41,_ZN5neml217ConstantParameterINS_6ScalarEE16expected_optionsEv
FN:44,49,_ZN5neml217ConstantParameterINS_10QuaternionEEC2ERKNS_9OptionSetE
FN:44,49,_ZN5neml217ConstantParameterINS_11MillerIndexEEC2ERKNS_9OptionSetE
FN:44,49,_ZN5neml217ConstantParameterINS_2R2EEC2ERKNS_9OptionSetE
FN:44,49,_ZN5neml217ConstantParameterINS_2R3EEC2ERKNS_9OptionSetE
FN:44,49,_ZN5neml217ConstantParameterINS_2R4EEC2ERKNS_9OptionSetE
FN:44,49,_ZN5neml217ConstantParameterINS_2R5EEC2ERKNS_9OptionSetE
FN:44,49,_ZN5neml217ConstantParameterINS_2R8EEC2ERKNS_9OptionSetE
FN:44,49,_ZN5neml217ConstantParameterINS_3RotEEC2ERKNS_9OptionSetE
FN:44,49,_ZN5neml217ConstantParameterINS_3SR2EEC2ERKNS_9OptionSetE
FN:44,49,_ZN5neml217ConstantParameterINS_3VecEEC2ERKNS_9OptionSetE
FN:44,49,_ZN5neml217ConstantParameterINS_3WR2EEC2ERKNS_9OptionSetE
FN:44,49,_ZN5neml217ConstantParameterINS_4SFR3EEC2ERKNS_9OptionSetE
FN:44,49,_ZN5neml217ConstantParameterINS_4SFR4EEC2ERKNS_9OptionSetE
FN:44,49,_ZN5neml217ConstantParameterINS_4SSR4EEC2ERKNS_9OptionSetE
FN:44,49,_ZN5neml217ConstantParameterINS_4SWR4EEC2ERKNS_9OptionSetE
FN:44,49,_ZN5neml217ConstantParameterINS_4WFR4EEC2ERKNS_9OptionSetE
FN:44,49,_ZN5neml217ConstantParameterINS_4WSR4EEC2ERKNS_9OptionSetE
FN:44,49,_ZN5neml217ConstantParameterINS_4WWR4EEC2ERKNS_9OptionSetE
FN:44,49,_ZN5neml217ConstantParameterINS_5SFFR4EEC2ERKNS_9OptionSetE
FN:44,49,_ZN5neml217ConstantParameterINS_5SSFR5EEC2ERKNS_9OptionSetE
FN:44,49,_ZN5neml217ConstantParameterINS_6SSSSR8EEC2ERKNS_9OptionSetE
FN:44,49,_ZN5neml217ConstantParameterINS_6ScalarEEC2ERKNS_9OptionSetE
FN:53,64,_ZN5neml217ConstantParameterINS_10QuaternionEE9set_valueEbbb
FN:53,64,_ZN5neml217ConstantParameterINS_11MillerIndexEE9set_valueEbbb
FN:53,64,_ZN5neml217ConstantParameterINS_2R2EE9set_valueEbbb
FN:53,64,_ZN5neml217ConstantParameterINS_2R3EE9set_valueEbbb
FN:53,64,_ZN5neml217ConstantParameterINS_2R4EE9set_valueEbbb
FN:53,64,_ZN5neml217ConstantParameterINS_2R5EE9set_valueEbbb
FN:53,64,_ZN5neml217ConstantParameterINS_2R8EE9set_valueEbbb
FN:53,64,_ZN5neml217ConstantParameterINS_3RotEE9set_valueEbbb
FN:53,64,_ZN5neml217ConstantParameterINS_3SR2EE9set_valueEbbb
FN:53,64,_ZN5neml217ConstantParameterINS_3VecEE9set_valueEbbb
FN:53,64,_ZN5neml217ConstantParameterINS_3WR2EE9set_valueEbbb
FN:53,64,_ZN5neml217ConstantParameterINS_4SFR3EE9set_valueEbbb
FN:53,64,_ZN5neml217ConstantParameterINS_4SFR4EE9set_valueEbbb
FN:53,64,_ZN5neml217ConstantParameterINS_4SSR4EE9set_valueEbbb
FN:53,64,_ZN5neml217ConstantParameterINS_4SWR4EE9set_valueEbbb
FN:53,64,_ZN5neml217ConstantParameterINS_4WFR4EE9set_valueEbbb
FN:53,64,_ZN5neml217ConstantParameterINS_4WSR4EE9set_valueEbbb
FN:53,64,_ZN5neml217ConstantParameterINS_4WWR4EE9set_valueEbbb
FN:53,64,_ZN5neml217ConstantParameterINS_5SFFR4EE9set_valueEbbb
FN:53,64,_ZN5neml217ConstantParameterINS_5SSFR5EE9set_valueEbbb
FN:53,64,_ZN5neml217ConstantParameterINS_6SSSSR8EE9set_valueEbbb
FN:53,64,_ZN5neml217ConstantParameterINS_6ScalarEE9set_valueEbbb
FNDA:2,_ZN5neml217ConstantParameterINS_10QuaternionEE16expected_optionsEv
FNDA:2,_ZN5neml217ConstantParameterINS_11MillerIndexEE16expected_optionsEv
FNDA:2,_ZN5neml217ConstantParameterINS_2R2EE16expected_optionsEv
FNDA:2,_ZN5neml217ConstantParameterINS_2R3EE16expected_optionsEv
FNDA:2,_ZN5neml217ConstantParameterINS_2R4EE16expected_optionsEv
FNDA:2,_ZN5neml217ConstantParameterINS_2R5EE16expected_optionsEv
FNDA:2,_ZN5neml217ConstantParameterINS_2R8EE16expected_optionsEv
FNDA:2,_ZN5neml217ConstantParameterINS_3RotEE16expected_optionsEv
FNDA:2,_ZN5neml217ConstantParameterINS_3SR2EE16expected_optionsEv
FNDA:2,_ZN5neml217ConstantParameterINS_3VecEE16expected_optionsEv
FNDA:2,_ZN5neml217ConstantParameterINS_3WR2EE16expected_optionsEv
FNDA:2,_ZN5neml217ConstantParameterINS_4SFR3EE16expected_optionsEv
FNDA:2,_ZN5neml217ConstantParameterINS_4SFR4EE16expected_optionsEv
FNDA:2,_ZN5neml217ConstantParameterINS_4SSR4EE16expected_optionsEv
FNDA:2,_ZN5neml217ConstantParameterINS_4SWR4EE16expected_optionsEv
FNDA:2,_ZN5neml217ConstantParameterINS_4WFR4EE16expected_optionsEv
FNDA:2,_ZN5neml217ConstantParameterINS_4WSR4EE16expected_optionsEv
FNDA:2,_ZN5neml217ConstantParameterINS_4WWR4EE16expected_optionsEv
FNDA:2,_ZN5neml217ConstantParameterINS_5SFFR4EE16expected_optionsEv
FNDA:2,_ZN5neml217ConstantParameterINS_5SSFR5EE16expected_optionsEv
FNDA:2,_ZN5neml217ConstantParameterINS_6SSSSR8EE16expected_optionsEv
FNDA:2,_ZN5neml217ConstantParameterINS_6ScalarEE16expected_optionsEv
FNDA:0,_ZN5neml217ConstantParameterINS_10QuaternionEEC2ERKNS_9OptionSetE
FNDA:0,_ZN5neml217ConstantParameterINS_11MillerIndexEEC2ERKNS_9OptionSetE
FNDA:0,_ZN5neml217ConstantParameterINS_2R2EEC2ERKNS_9OptionSetE
FNDA:0,_ZN5neml217ConstantParameterINS_2R3EEC2ERKNS_9OptionSetE
FNDA:0,_ZN5neml217ConstantParameterINS_2R4EEC2ERKNS_9OptionSetE
FNDA:0,_ZN5neml217ConstantParameterINS_2R5EEC2ERKNS_9OptionSetE
FNDA:0,_ZN5neml217ConstantParameterINS_2R8EEC2ERKNS_9OptionSetE
FNDA:0,_ZN5neml217ConstantParameterINS_3RotEEC2ERKNS_9OptionSetE
FNDA:1,_ZN5neml217ConstantParameterINS_3SR2EEC2ERKNS_9OptionSetE
FNDA:0,_ZN5neml217ConstantParameterINS_3VecEEC2ERKNS_9OptionSetE
FNDA:0,_ZN5neml217ConstantParameterINS_3WR2EEC2ERKNS_9OptionSetE
FNDA:0,_ZN5neml217ConstantParameterINS_4SFR3EEC2ERKNS_9OptionSetE
FNDA:0,_ZN5neml217ConstantParameterINS_4SFR4EEC2ERKNS_9OptionSetE
FNDA:0,_ZN5neml217ConstantParameterINS_4SSR4EEC2ERKNS_9OptionSetE
FNDA:0,_ZN5neml217ConstantParameterINS_4SWR4EEC2ERKNS_9OptionSetE
FNDA:0,_ZN5neml217ConstantParameterINS_4WFR4EEC2ERKNS_9OptionSetE
FNDA:0,_ZN5neml217ConstantParameterINS_4WSR4EEC2ERKNS_9OptionSetE
FNDA:0,_ZN5neml217ConstantParameterINS_4WWR4EEC2ERKNS_9OptionSetE
FNDA:0,_ZN5neml217ConstantParameterINS_5SFFR4EEC2ERKNS_9OptionSetE
FNDA:0,_ZN5neml217ConstantParameterINS_5SSFR5EEC2ERKNS_9OptionSetE
FNDA:0,_ZN5neml217ConstantParameterINS_6SSSSR8EEC2ERKNS_9OptionSetE
FNDA:4,_ZN5neml217ConstantParameterINS_6ScalarEEC2ERKNS_9OptionSetE
FNDA:0,_ZN5neml217ConstantParameterINS_10QuaternionEE9set_valueEbbb
FNDA:0,_ZN5neml217ConstantParameterINS_11MillerIndexEE9set_valueEbbb
FNDA:0,_ZN5neml217ConstantParameterINS_2R2EE9set_valueEbbb
FNDA:0,_ZN5neml217ConstantParameterINS_2R3EE9set_valueEbbb
FNDA:0,_ZN5neml217ConstantParameterINS_2R4EE9set_valueEbbb
FNDA:0,_ZN5neml217ConstantParameterINS_2R5EE9set_valueEbbb
FNDA:0,_ZN5neml217ConstantParameterINS_2R8EE9set_valueEbbb
FNDA:0,_ZN5neml217ConstantParameterINS_3RotEE9set_valueEbbb
FNDA:2,_ZN5neml217ConstantParameterINS_3SR2EE9set_valueEbbb
FNDA:0,_ZN5neml217ConstantParameterINS_3VecEE9set_valueEbbb
FNDA:0,_ZN5neml217ConstantParameterINS_3WR2EE9set_valueEbbb
FNDA:0,_ZN5neml217ConstantParameterINS_4SFR3EE9set_valueEbbb
FNDA:0,_ZN5neml217ConstantParameterINS_4SFR4EE9set_valueEbbb
FNDA:0,_ZN5neml217ConstantParameterINS_4SSR4EE9set_valueEbbb
FNDA:0,_ZN5neml217ConstantParameterINS_4SWR4EE9set_valueEbbb
FNDA:0,_ZN5neml217ConstantParameterINS_4WFR4EE9set_valueEbbb
FNDA:0,_ZN5neml217ConstantParameterINS_4WSR4EE9set_valueEbbb
FNDA:0,_ZN5neml217ConstantParameterINS_4WWR4EE9set_valueEbbb
FNDA:0,_ZN5neml217ConstantParameterINS_5SFFR4EE9set_valueEbbb
FNDA:0,_ZN5neml217ConstantParameterINS_5SSFR5EE9set_valueEbbb
FNDA:0,_ZN5neml217ConstantParameterINS_6SSSSR8EE9set_valueEbbb
FNDA:2,_ZN5neml217ConstantParameterINS_6ScalarEE9set_valueEbbb
FNF:66
FNH:26
DA:32,44
DA:34,44
DA:35,44
DA:38,88
DA:39,44
DA:40,44
DA:41,0
DA:44,5
DA:46,15
DA:47,10
DA:49,5
DA:53,4
DA:55,4
DA:56,2
DA:58,4
DA:59,6
DA:60,0
DA:64,4
LF:18
LH:16
end_of_record
TN:
SF:/home/runner/work/neml2/neml2/src/neml2/models/CopyVariable.cxx
FN:32,44,_ZN5neml212CopyVariableINS_10QuaternionEE16expected_optionsEv
FN:32,44,_ZN5neml212CopyVariableINS_11MillerIndexEE16expected_optionsEv
FN:32,44,_ZN5neml212CopyVariableINS_2R2EE16expected_optionsEv
FN:32,44,_ZN5neml212CopyVariableINS_2R3EE16expected_optionsEv
FN:32,44,_ZN5neml212CopyVariableINS_2R4EE16expected_optionsEv
FN:32,44,_ZN5neml212CopyVariableINS_2R5EE16expected_optionsEv
FN:32,44,_ZN5neml212CopyVariableINS_2R8EE16expected_optionsEv
FN:32,44,_ZN5neml212CopyVariableINS_3RotEE16expected_optionsEv
FN:32,44,_ZN5neml212CopyVariableINS_3SR2EE16expected_optionsEv
FN:32,44,_ZN5neml212CopyVariableINS_3VecEE16expected_optionsEv
FN:32,44,_ZN5neml212CopyVariableINS_3WR2EE16expected_optionsEv
FN:32,44,_ZN5neml212CopyVariableINS_4SFR3EE16expected_optionsEv
FN:32,44,_ZN5neml212CopyVariableINS_4SFR4EE16expected_optionsEv
FN:32,44,_ZN5neml212CopyVariableINS_4SSR4EE16expected_optionsEv
FN:32,44,_ZN5neml212CopyVariableINS_4SWR4EE16expected_optionsEv
FN:32,44,_ZN5neml212CopyVariableINS_4WFR4EE16expected_optionsEv
FN:32,44,_ZN5neml212CopyVariableINS_4WSR4EE16expected_optionsEv
FN:32,44,_ZN5neml212CopyVariableINS_4WWR4EE16expected_optionsEv
FN:32,44,_ZN5neml212CopyVariableINS_5SFFR4EE16expected_optionsEv
FN:32,44,_ZN5neml212CopyVariableINS_5SSFR5EE16expected_optionsEv
FN:32,44,_ZN5neml212CopyVariableINS_6SSSSR8EE16expected_optionsEv
FN:32,44,_ZN5neml212CopyVariableINS_6ScalarEE16expected_optionsEv
FN:47,52,_ZN5neml212CopyVariableINS_10QuaternionEEC2ERKNS_9OptionSetE
FN:47,52,_ZN5neml212CopyVariableINS_11MillerIndexEEC2ERKNS_9OptionSetE
FN:47,52,_ZN5neml212CopyVariableINS_2R2EEC2ERKNS_9OptionSetE
FN:47,52,_ZN5neml212CopyVariableINS_2R3EEC2ERKNS_9OptionSetE
FN:47,52,_ZN5neml212CopyVariableINS_2R4EEC2ERKNS_9OptionSetE
FN:47,52,_ZN5neml212CopyVariableINS_2R5EEC2ERKNS_9OptionSetE
FN:47,52,_ZN5neml212CopyVariableINS_2R8EEC2ERKNS_9OptionSetE
FN:47,52,_ZN5neml212CopyVariableINS_3RotEEC2ERKNS_9OptionSetE
FN:47,52,_ZN5neml212CopyVariableINS_3SR2EEC2ERKNS_9OptionSetE
FN:47,52,_ZN5neml212CopyVariableINS_3VecEEC2ERKNS_9OptionSetE
FN:47,52,_ZN5neml212CopyVariableINS_3WR2EEC2ERKNS_9OptionSetE
FN:47,52,_ZN5neml212CopyVariableINS_4SFR3EEC2ERKNS_9OptionSetE
FN:47,52,_ZN5neml212CopyVariableINS_4SFR4EEC2ERKNS_9OptionSetE
FN:47,52,_ZN5neml212CopyVariableINS_4SSR4EEC2ERKNS_9OptionSetE
FN:47,52,_ZN5neml212CopyVariableINS_4SWR4EEC2ERKNS_9OptionSetE
FN:47,52,_ZN5neml212CopyVariableINS_4WFR4EEC2ERKNS_9OptionSetE
FN:47,52,_ZN5neml212CopyVariableINS_4WSR4EEC2ERKNS_9OptionSetE
FN:47,52,_ZN5neml212CopyVariableINS_4WWR4EEC2ERKNS_9OptionSetE
FN:47,52,_ZN5neml212CopyVariableINS_5SFFR4EEC2ERKNS_9OptionSetE
FN:47,52,_ZN5neml212CopyVariableINS_5SSFR5EEC2ERKNS_9OptionSetE
FN:47,52,_ZN5neml212CopyVariableINS_6SSSSR8EEC2ERKNS_9OptionSetE
FN:47,52,_ZN5neml212CopyVariableINS_6ScalarEEC2ERKNS_9OptionSetE
FN:56,69,_ZN5neml212CopyVariableINS_10QuaternionEE9set_valueEbbb
FN:56,69,_ZN5neml212CopyVariableINS_11MillerIndexEE9set_valueEbbb
FN:56,69,_ZN5neml212CopyVariableINS_2R2EE9set_valueEbbb
FN:56,69,_ZN5neml212CopyVariableINS_2R3EE9set_valueEbbb
FN:56,69,_ZN5neml212CopyVariableINS_2R4EE9set_valueEbbb
FN:56,69,_ZN5neml212CopyVariableINS_2R5EE9set_valueEbbb
FN:56,69,_ZN5neml212CopyVariableINS_2R8EE9set_valueEbbb
FN:56,69,_ZN5neml212CopyVariableINS_3RotEE9set_valueEbbb
FN:56,69,_ZN5neml212CopyVariableINS_3SR2EE9set_valueEbbb
FN:56,69,_ZN5neml212CopyVariableINS_3VecEE9set_valueEbbb
FN:56,69,_ZN5neml212CopyVariableINS_3WR2EE9set_valueEbbb
FN:56,69,_ZN5neml212CopyVariableINS_4SFR3EE9set_valueEbbb
FN:56,69,_ZN5neml212CopyVariableINS_4SFR4EE9set_valueEbbb
FN:56,69,_ZN5neml212CopyVariableINS_4SSR4EE9set_valueEbbb
FN:56,69,_ZN5neml212CopyVariableINS_4SWR4EE9set_valueEbbb
FN:56,69,_ZN5neml212CopyVariableINS_4WFR4EE9set_valueEbbb
FN:56,69,_ZN5neml212CopyVariableINS_4WSR4EE9set_valueEbbb
FN:56,69,_ZN5neml212CopyVariableINS_4WWR4EE9set_valueEbbb
FN:56,69,_ZN5neml212CopyVariableINS_5SFFR4EE9set_valueEbbb
FN:56,69,_ZN5neml212CopyVariableINS_5SSFR5EE9set_valueEbbb
FN:56,69,_ZN5neml212CopyVariableINS_6SSSSR8EE9set_valueEbbb
FN:56,69,_ZN5neml212CopyVariableINS_6ScalarEE9set_valueEbbb
FNDA:2,_ZN5neml212CopyVariableINS_10QuaternionEE16expected_optionsEv
FNDA:2,_ZN5neml212CopyVariableINS_11MillerIndexEE16expected_optionsEv
FNDA:2,_ZN5neml212CopyVariableINS_2R2EE16expected_optionsEv
FNDA:2,_ZN5neml212CopyVariableINS_2R3EE16expected_optionsEv
FNDA:2,_ZN5neml212CopyVariableINS_2R4EE16expected_optionsEv
FNDA:2,_ZN5neml212CopyVariableINS_2R5EE16expected_optionsEv
FNDA:2,_ZN5neml212CopyVariableINS_2R8EE16expected_optionsEv
FNDA:2,_ZN5neml212CopyVariableINS_3RotEE16expected_optionsEv
FNDA:2,_ZN5neml212CopyVariableINS_3SR2EE16expected_optionsEv
FNDA:2,_ZN5neml212CopyVariableINS_3VecEE16expected_optionsEv
FNDA:2,_ZN5neml212CopyVariableINS_3WR2EE16expected_optionsEv
FNDA:2,_ZN5neml212CopyVariableINS_4SFR3EE16expected_optionsEv
FNDA:2,_ZN5neml212CopyVariableINS_4SFR4EE16expected_optionsEv
FNDA:2,_ZN5neml212CopyVariableINS_4SSR4EE16expected_optionsEv
FNDA:2,_ZN5neml212CopyVariableINS_4SWR4EE16expected_optionsEv
FNDA:2,_ZN5neml212CopyVariableINS_4WFR4EE16expected_optionsEv
FNDA:2,_ZN5neml212CopyVariableINS_4WSR4EE16expected_optionsEv
FNDA:2,_ZN5neml212CopyVariableINS_4WWR4EE16expected_optionsEv
FNDA:2,_ZN5neml212CopyVariableINS_5SFFR4EE16expected_optionsEv
FNDA:2,_ZN5neml212CopyVariableINS_5SSFR5EE16expected_optionsEv
FNDA:2,_ZN5neml212CopyVariableINS_6SSSSR8EE16expected_optionsEv
FNDA:2,_ZN5neml212CopyVariableINS_6ScalarEE16expected_optionsEv
FNDA:0,_ZN5neml212CopyVariableINS_10QuaternionEEC2ERKNS_9OptionSetE
FNDA:0,_ZN5neml212CopyVariableINS_11MillerIndexEEC2ERKNS_9OptionSetE
FNDA:0,_ZN5neml212CopyVariableINS_2R2EEC2ERKNS_9OptionSetE
FNDA:0,_ZN5neml212CopyVariableINS_2R3EEC2ERKNS_9OptionSetE
FNDA:0,_ZN5neml212CopyVariableINS_2R4EEC2ERKNS_9OptionSetE
FNDA:0,_ZN5neml212CopyVariableINS_2R5EEC2ERKNS_9OptionSetE
FNDA:0,_ZN5neml212CopyVariableINS_2R8EEC2ERKNS_9OptionSetE
FNDA:0,_ZN5neml212CopyVariableINS_3RotEEC2ERKNS_9OptionSetE
FNDA:1,_ZN5neml212CopyVariableINS_3SR2EEC2ERKNS_9OptionSetE
FNDA:0,_ZN5neml212CopyVariableINS_3VecEEC2ERKNS_9OptionSetE
FNDA:0,_ZN5neml212CopyVariableINS_3WR2EEC2ERKNS_9OptionSetE
FNDA:0,_ZN5neml212CopyVariableINS_4SFR3EEC2ERKNS_9OptionSetE
FNDA:0,_ZN5neml212CopyVariableINS_4SFR4EEC2ERKNS_9OptionSetE
FNDA:0,_ZN5neml212CopyVariableINS_4SSR4EEC2ERKNS_9OptionSetE
FNDA:0,_ZN5neml212CopyVariableINS_4SWR4EEC2ERKNS_9OptionSetE
FNDA:0,_ZN5neml212CopyVariableINS_4WFR4EEC2ERKNS_9OptionSetE
FNDA:0,_ZN5neml212CopyVariableINS_4WSR4EEC2ERKNS_9OptionSetE
FNDA:0,_ZN5neml212CopyVariableINS_4WWR4EEC2ERKNS_9OptionSetE
FNDA:0,_ZN5neml212CopyVariableINS_5SFFR4EEC2ERKNS_9OptionSetE
FNDA:0,_ZN5neml212CopyVariableINS_5SSFR5EEC2ERKNS_9OptionSetE
FNDA:0,_ZN5neml212CopyVariableINS_6SSSSR8EEC2ERKNS_9OptionSetE
FNDA:4,_ZN5neml212CopyVariableINS_6ScalarEEC2ERKNS_9OptionSetE
FNDA:0,_ZN5neml212CopyVariableINS_10QuaternionEE9set_valueEbbb
FNDA:0,_ZN5neml212CopyVariableINS_11MillerIndexEE9set_valueEbbb
FNDA:0,_ZN5neml212CopyVariableINS_2R2EE9set_valueEbbb
FNDA:0,_ZN5neml212CopyVariableINS_2R3EE9set_valueEbbb
FNDA:0,_ZN5neml212CopyVariableINS_2R4EE9set_valueEbbb
FNDA:0,_ZN5neml212CopyVariableINS_2R5EE9set_valueEbbb
FNDA:0,_ZN5neml212CopyVariableINS_2R8EE9set_valueEbbb
FNDA:0,_ZN5neml212CopyVariableINS_3RotEE9set_valueEbbb
FNDA:2,_ZN5neml212CopyVariableINS_3SR2EE9set_valueEbbb
FNDA:0,_ZN5neml212CopyVariableINS_3VecEE9set_valueEbbb
FNDA:0,_ZN5neml212CopyVariableINS_3WR2EE9set_valueEbbb
FNDA:0,_ZN5neml212CopyVariableINS_4SFR3EE9set_valueEbbb
FNDA:0,_ZN5neml212CopyVariableINS_4SFR4EE9set_valueEbbb
FNDA:0,_ZN5neml212CopyVariableINS_4SSR4EE9set_valueEbbb
FNDA:0,_ZN5neml212CopyVariableINS_4SWR4EE9set_valueEbbb
FNDA:0,_ZN5neml212CopyVariableINS_4WFR4EE9set_valueEbbb
FNDA:0,_ZN5neml212CopyVariableINS_4WSR4EE9set_valueEbbb
FNDA:0,_ZN5neml212CopyVariableINS_4WWR4EE9set_valueEbbb
FNDA:0,_ZN5neml212CopyVariableINS_5SFFR4EE9set_valueEbbb
FNDA:0,_ZN5neml212CopyVariableINS_5SSFR5EE9set_valueEbbb
FNDA:0,_ZN5neml212CopyVariableINS_6SSSSR8EE9set_valueEbbb
FNDA:3,_ZN5neml212CopyVariableINS_6ScalarEE9set_valueEbbb
FNF:66
FNH:26
DA:32,44
DA:34,44
DA:35,44
DA:37,88
DA:38,88
DA:40,88
DA:41,44
DA:43,44
DA:44,0
DA:47,5
DA:49,5
DA:50,10
DA:52,5
DA:56,5
DA:58,5
DA:59,5
DA:61,5
DA:62,5
DA:63,3
DA:69,5
LF:20
LH:19
end_of_record
TN:
SF:/home/runner/work/neml2/neml2/src/neml2/models/Data.cxx
FN:31,36,_ZN5neml24Data16expected_optionsEv
FN:38,42,_ZN5neml24DataC2ERKNS_9OptionSetE
FNDA:485,_ZN5neml24Data16expected_optionsEv
FNDA:512,_ZN5neml24DataC2ERKNS_9OptionSetE
FNF:2
FNH:2
DA:31,485
DA:33,485
DA:34,485
DA:35,485
DA:36,0
DA:38,512
DA:40,512
DA:42,512
LF:8
LH:7
end_of_record
TN:
SF:/home/runner/work/neml2/neml2/src/neml2/models/Determinant.cxx
FN:38,50,_ZN5neml211DeterminantINS_2R2EE16expected_optionsEv
FN:38,50,_ZN5neml211DeterminantINS_3SR2EE16expected_optionsEv
FN:53,58,_ZN5neml211DeterminantINS_2R2EEC2ERKNS_9OptionSetE
FN:53,58,_ZN5neml211DeterminantINS_3SR2EEC2ERKNS_9OptionSetE
FN:62,70,_ZN5neml211DeterminantINS_2R2EE9set_valueEbbb
FN:62,70,_ZN5neml211DeterminantINS_3SR2EE9set_valueEbbb
FNDA:2,_ZN5neml211DeterminantINS_2R2EE16expected_optionsEv
FNDA:2,_ZN5neml211DeterminantINS_3SR2EE16expected_optionsEv
FNDA:1,_ZN5neml211DeterminantINS_2R2EEC2ERKNS_9OptionSetE
FNDA:0,_ZN5neml211DeterminantINS_3SR2EEC2ERKNS_9OptionSetE
FNDA:2,_ZN5neml211DeterminantINS_2R2EE9set_valueEbbb
FNDA:0,_ZN5neml211DeterminantINS_3SR2EE9set_valueEbbb
FNF:6
FNH:4
DA:38,4
DA:40,4
DA:41,4
DA:43,12
DA:44,4
DA:46,12
DA:47,4
DA:49,4
DA:50,0
DA:53,1
DA:55,1
DA:56,2
DA:58,1
DA:62,2
DA:64,2
DA:65,1
DA:67,2
DA:68,1
DA:69,1
DA:70,2
LF:20
LH:19
end_of_record
TN:
SF:/home/runner/work/neml2/neml2/src/neml2/models/FischerBurmeister.cxx
FN:33,66,_ZN5neml217FischerBurmeister16expected_optionsEv
FN:68,76,_ZN5neml217FischerBurmeisterC2ERKNS_9OptionSetE
FN:79,104,_ZN5neml217FischerBurmeister9set_valueEbbb
FNDA:2,_ZN5neml217FischerBurmeister16expected_optionsEv
FNDA:3,_ZN5neml217FischerBurmeisterC2ERKNS_9OptionSetE
FNDA:6,_ZN5neml217FischerBurmeister9set_valueEbbb
FNF:3
FNH:3
DA:33,2
DA:35,2
DA:36,2
DA:42,2
DA:44,6
DA:45,2
DA:47,6
DA:48,4
DA:50,8
DA:51,2
DA:52,4
DA:53,4
DA:54,6
DA:56,8
DA:57,2
DA:58,4
DA:59,4
DA:60,6
DA:62,6
DA:63,2
DA:65,4
DA:66,2
DA:68,3
DA:70,3
DA:71,3
DA:72,6
DA:73,3
DA:74,6
DA:76,3
DA:79,6
DA:81,6
DA:82,6
DA:85,6
DA:86,12
DA:87,4
DA:89,6
DA:90,12
DA:91,2
DA:93,6
DA:95,3
DA:98,6
DA:100,3
DA:101,3
DA:102,3
DA:103,3
DA:104,6
LF:46
LH:46
end_of_record
TN:
SF:/home/runner/work/neml2/neml2/src/neml2/models/ForwardEulerTimeIntegration.cxx
FN:35,54,_ZN5neml227ForwardEulerTimeIntegrationINS_3SR2EE16expected_optionsEv
FN:35,54,_ZN5neml227ForwardEulerTimeIntegrationINS_3VecEE16expected_optionsEv
FN:35,54,_ZN5neml227ForwardEulerTimeIntegrationINS_6ScalarEE16expected_optionsEv
FN:57,67,_ZN5neml227ForwardEulerTimeIntegrationINS_3SR2EEC2ERKNS_9OptionSetE
FN:57,67,_ZN5neml227ForwardEulerTimeIntegrationINS_3VecEEC2ERKNS_9OptionSetE
FN:57,67,_ZN5neml227ForwardEulerTimeIntegrationINS_6ScalarEEC2ERKNS_9OptionSetE
FN:71,77,_ZNK5neml227ForwardEulerTimeIntegrationINS_3SR2EE8diagnoseEv
FN:71,77,_ZNK5neml227ForwardEulerTimeIntegrationINS_3VecEE8diagnoseEv
FN:71,77,_ZNK5neml227ForwardEulerTimeIntegrationINS_6ScalarEE8diagnoseEv
FN:81,99,_ZN5neml227ForwardEulerTimeIntegrationINS_3SR2EE9set_valueEbbb
FN:81,99,_ZN5neml227ForwardEulerTimeIntegrationINS_3VecEE9set_valueEbbb
FN:81,99,_ZN5neml227ForwardEulerTimeIntegrationINS_6ScalarEE9set_valueEbbb
FNDA:2,_ZN5neml227ForwardEulerTimeIntegrationINS_3SR2EE16expected_optionsEv
FNDA:2,_ZN5neml227ForwardEulerTimeIntegrationINS_3VecEE16expected_optionsEv
FNDA:2,_ZN5neml227ForwardEulerTimeIntegrationINS_6ScalarEE16expected_optionsEv
FNDA:3,_ZN5neml227ForwardEulerTimeIntegrationINS_3SR2EEC2ERKNS_9OptionSetE
FNDA:0,_ZN5neml227ForwardEulerTimeIntegrationINS_3VecEEC2ERKNS_9OptionSetE
FNDA:1,_ZN5neml227ForwardEulerTimeIntegrationINS_6ScalarEEC2ERKNS_9OptionSetE
FNDA:3,_ZNK5neml227ForwardEulerTimeIntegrationINS_3SR2EE8diagnoseEv
FNDA:0,_ZNK5neml227ForwardEulerTimeIntegrationINS_3VecEE8diagnoseEv
FNDA:0,_ZNK5neml227ForwardEulerTimeIntegrationINS_6ScalarEE8diagnoseEv
FNDA:3,_ZN5neml227ForwardEulerTimeIntegrationINS_3SR2EE9set_valueEbbb
FNDA:0,_ZN5neml227ForwardEulerTimeIntegrationINS_3VecEE9set_valueEbbb
FNDA:2,_ZN5neml227ForwardEulerTimeIntegrationINS_6ScalarEE9set_valueEbbb
FNF:12
FNH:8
DA:35,6
DA:37,6
DA:38,6
DA:44,12
DA:45,12
DA:47,12
DA:48,6
DA:50,18
DA:51,6
DA:53,6
DA:54,0
DA:57,4
DA:59,4
DA:60,4
DA:61,8
DA:62,16
DA:63,4
DA:64,4
DA:65,8
DA:67,4
DA:71,3
DA:73,3
DA:74,3
DA:75,3
DA:76,3
DA:77,3
DA:81,5
DA:83,5
DA:84,4
DA:86,5
DA:88,1
DA:90,1
DA:92,1
DA:93,0
DA:95,1
DA:96,1
DA:97,1
DA:98,1
LF:38
LH:36
end_of_record
TN:
SF:/home/runner/work/neml2/neml2/src/neml2/models/HermiteSmoothStep.cxx
FN:35,56,_ZN5neml217HermiteSmoothStep16expected_optionsEv
FN:58,66,_ZN5neml217HermiteSmoothStepC2ERKNS_9OptionSetE
FN:69,91,_ZN5neml217HermiteSmoothStep9set_valueEbbb
FNDA:2,_ZN5neml217HermiteSmoothStep16expected_optionsEv
FNDA:2,_ZN5neml217HermiteSmoothStepC2ERKNS_9OptionSetE
FNDA:4,_ZN5neml217HermiteSmoothStep9set_valueEbbb
FNF:3
FNH:3
DA:35,2
DA:37,2
DA:38,2
DA:40,4
DA:41,4
DA:43,4
DA:44,4
DA:46,4
DA:47,4
DA:49,4
DA:50,4
DA:52,4
DA:53,2
DA:55,2
DA:56,0
DA:58,2
DA:60,2
DA:61,2
DA:62,8
DA:63,10
DA:64,4
DA:66,2
DA:69,4
DA:71,4
DA:73,4
DA:74,4
DA:76,4
DA:78,2
DA:79,1
DA:81,1
DA:84,4
DA:86,2
DA:87,1
DA:89,1
DA:91,4
LF:35
LH:34
end_of_record
TN:
SF:/home/runner/work/neml2/neml2/src/neml2/models/ImplicitUpdate.cxx
FN:100,105,_ZN5neml214ImplicitUpdate21link_output_variablesEv
FN:108,168,_ZN5neml214ImplicitUpdate9set_valueEbbb
FN:37,55,_ZN5neml214ImplicitUpdate16expected_optionsEv
FN:57,75,_ZN5neml214ImplicitUpdateC2ERKNS_9OptionSetE
FN:78,97,_ZNK5neml214ImplicitUpdate8diagnoseEv
FNDA:10,_ZN5neml214ImplicitUpdate21link_output_variablesEv
FNDA:191,_ZN5neml214ImplicitUpdate9set_valueEbbb
FNDA:2,_ZN5neml214ImplicitUpdate16expected_optionsEv
FNDA:10,_ZN5neml214ImplicitUpdateC2ERKNS_9OptionSetE
FNDA:5,_ZNK5neml214ImplicitUpdate8diagnoseEv
FNF:5
FNH:5
DA:37,2
DA:39,2
DA:40,2
DA:41,2
DA:43,4
DA:44,6
DA:45,2
DA:47,4
DA:48,4
DA:51,4
DA:52,2
DA:54,2
DA:55,0
DA:57,10
DA:59,10
DA:60,30
DA:62,10
DA:64,10
DA:66,10
DA:73,33
DA:74,23
DA:75,10
DA:78,5
DA:80,5
DA:81,5
DA:83,5
DA:84,5
DA:86,5
DA:87,5
DA:89,5
DA:90,15
DA:91,5
DA:94,5
DA:96,5
DA:97,5
DA:100,10
DA:102,10
DA:103,33
DA:104,23
DA:105,10
DA:108,191
DA:111,191
DA:112,191
DA:117,191
DA:120,191
DA:122,191
DA:123,191
DA:124,191
DA:125,191
DA:126,191
DA:128,191
DA:140,189
DA:141,26
DA:145,191
DA:148,3
DA:149,3
DA:150,3
DA:151,3
DA:152,3
DA:155,3
DA:158,15
DA:160,12
DA:161,3
DA:163,9
DA:164,9
DA:165,18
DA:167,3
DA:168,191
LF:68
LH:67
end_of_record
TN:
SF:/home/runner/work/neml2/neml2/src/neml2/models/IncrementToRate.cxx
FN:37,55,_ZN5neml215IncrementToRateINS_2R2EE16expected_optionsEv
FN:37,55,_ZN5neml215IncrementToRateINS_3SR2EE16expected_optionsEv
FN:37,55,_ZN5neml215IncrementToRateINS_3VecEE16expected_optionsEv
FN:37,55,_ZN5neml215IncrementToRateINS_6ScalarEE16expected_optionsEv
FN:58,67,_ZN5neml215IncrementToRateINS_2R2EEC2ERKNS_9OptionSetE
FN:58,67,_ZN5neml215IncrementToRateINS_3SR2EEC2ERKNS_9OptionSetE
FN:58,67,_ZN5neml215IncrementToRateINS_3VecEEC2ERKNS_9OptionSetE
FN:58,67,_ZN5neml215IncrementToRateINS_6ScalarEEC2ERKNS_9OptionSetE
FN:71,87,_ZN5neml215IncrementToRateINS_2R2EE9set_valueEbbb
FN:71,87,_ZN5neml215IncrementToRateINS_3SR2EE9set_valueEbbb
FN:71,87,_ZN5neml215IncrementToRateINS_3VecEE9set_valueEbbb
FN:71,87,_ZN5neml215IncrementToRateINS_6ScalarEE9set_valueEbbb
FNDA:2,_ZN5neml215IncrementToRateINS_2R2EE16expected_optionsEv
FNDA:2,_ZN5neml215IncrementToRateINS_3SR2EE16expected_optionsEv
FNDA:2,_ZN5neml215IncrementToRateINS_3VecEE16expected_optionsEv
FNDA:2,_ZN5neml215IncrementToRateINS_6ScalarEE16expected_optionsEv
FNDA:1,_ZN5neml215IncrementToRateINS_2R2EEC2ERKNS_9OptionSetE
FNDA:1,_ZN5neml215IncrementToRateINS_3SR2EEC2ERKNS_9OptionSetE
FNDA:1,_ZN5neml215IncrementToRateINS_3VecEEC2ERKNS_9OptionSetE
FNDA:1,_ZN5neml215IncrementToRateINS_6ScalarEEC2ERKNS_9OptionSetE
FNDA:2,_ZN5neml215IncrementToRateINS_2R2EE9set_valueEbbb
FNDA:2,_ZN5neml215IncrementToRateINS_3SR2EE9set_valueEbbb
FNDA:2,_ZN5neml215IncrementToRateINS_3VecEE9set_valueEbbb
FNDA:2,_ZN5neml215IncrementToRateINS_6ScalarEE9set_valueEbbb
FNF:12
FNH:12
DA:37,8
DA:39,8
DA:40,8
DA:45,16
DA:46,16
DA:48,16
DA:49,8
DA:51,24
DA:52,8
DA:54,8
DA:55,0
DA:58,4
DA:60,4
DA:61,4
DA:62,4
DA:63,8
DA:64,8
DA:65,8
DA:67,4
DA:71,8
DA:73,8
DA:75,8
DA:76,4
DA:78,8
DA:80,4
DA:81,4
DA:82,4
DA:83,4
DA:84,4
DA:85,4
DA:87,8
LF:31
LH:30
end_of_record
TN:
SF:/home/runner/work/neml2/neml2/src/neml2/models/InputParameter.cxx
FN:33,49,_ZN5neml214InputParameterINS_10QuaternionEE16expected_optionsEv
FN:33,49,_ZN5neml214InputParameterINS_11MillerIndexEE16expected_optionsEv
FN:33,49,_ZN5neml214InputParameterINS_2R2EE16expected_optionsEv
FN:33,49,_ZN5neml214InputParameterINS_2R3EE16expected_optionsEv
FN:33,49,_ZN5neml214InputParameterINS_2R4EE16expected_optionsEv
FN:33,49,_ZN5neml214InputParameterINS_2R5EE16expected_optionsEv
FN:33,49,_ZN5neml214InputParameterINS_2R8EE16expected_optionsEv
FN:33,49,_ZN5neml214InputParameterINS_3RotEE16expected_optionsEv
FN:33,49,_ZN5neml214InputParameterINS_3SR2EE16expected_optionsEv
FN:33,49,_ZN5neml214InputParameterINS_3VecEE16expected_optionsEv
FN:33,49,_ZN5neml214InputParameterINS_3WR2EE16expected_optionsEv
FN:33,49,_ZN5neml214InputParameterINS_4SFR3EE16expected_optionsEv
FN:33,49,_ZN5neml214InputParameterINS_4SFR4EE16expected_optionsEv
FN:33,49,_ZN5neml214InputParameterINS_4SSR4EE16expected_optionsEv
FN:33,49,_ZN5neml214InputParameterINS_4SWR4EE16expected_optionsEv
FN:33,49,_ZN5neml214InputParameterINS_4WFR4EE16expected_optionsEv
FN:33,49,_ZN5neml214InputParameterINS_4WSR4EE16expected_optionsEv
FN:33,49,_ZN5neml214InputParameterINS_4WWR4EE16expected_optionsEv
FN:33,49,_ZN5neml214InputParameterINS_5SFFR4EE16expected_optionsEv
FN:33,49,_ZN5neml214InputParameterINS_5SSFR5EE16expected_optionsEv
FN:33,49,_ZN5neml214InputParameterINS_6SSSSR8EE16expected_optionsEv
FN:33,49,_ZN5neml214InputParameterINS_6ScalarEE16expected_optionsEv
FN:52,59,_ZN5neml214InputParameterINS_10QuaternionEEC2ERKNS_9OptionSetE
FN:52,59,_ZN5neml214InputParameterINS_11MillerIndexEEC2ERKNS_9OptionSetE
FN:52,59,_ZN5neml214InputParameterINS_2R2EEC2ERKNS_9OptionSetE
FN:52,59,_ZN5neml214InputParameterINS_2R3EEC2ERKNS_9OptionSetE
FN:52,59,_ZN5neml214InputParameterINS_2R4EEC2ERKNS_9OptionSetE
FN:52,59,_ZN5neml214InputParameterINS_2R5EEC2ERKNS_9OptionSetE
FN:52,59,_ZN5neml214InputParameterINS_2R8EEC2ERKNS_9OptionSetE
FN:52,59,_ZN5neml214InputParameterINS_3RotEEC2ERKNS_9OptionSetE
FN:52,59,_ZN5neml214InputParameterINS_3SR2EEC2ERKNS_9OptionSetE
FN:52,59,_ZN5neml214InputParameterINS_3VecEEC2ERKNS_9OptionSetE
FN:52,59,_ZN5neml214InputParameterINS_3WR2EEC2ERKNS_9OptionSetE
FN:52,59,_ZN5neml214InputParameterINS_4SFR3EEC2ERKNS_9OptionSetE
FN:52,59,_ZN5neml214InputParameterINS_4SFR4EEC2ERKNS_9OptionSetE
FN:52,59,_ZN5neml214InputParameterINS_4SSR4EEC2ERKNS_9OptionSetE
FN:52,59,_ZN5neml214InputParameterINS_4SWR4EEC2ERKNS_9OptionSetE
FN:52,59,_ZN5neml214InputParameterINS_4WFR4EEC2ERKNS_9OptionSetE
FN:52,59,_ZN5neml214InputParameterINS_4WSR4EEC2ERKNS_9OptionSetE
FN:52,59,_ZN5neml214InputParameterINS_4WWR4EEC2ERKNS_9OptionSetE
FN:52,59,_ZN5neml214InputParameterINS_5SFFR4EEC2ERKNS_9OptionSetE
FN:52,59,_ZN5neml214InputParameterINS_5SSFR5EEC2ERKNS_9OptionSetE
FN:52,59,_ZN5neml214InputParameterINS_6SSSSR8EEC2ERKNS_9OptionSetE
FN:52,59,_ZN5neml214InputParameterINS_6ScalarEEC2ERKNS_9OptionSetE
FN:63,71,_ZN5neml214InputParameterINS_10QuaternionEE9set_valueEbbb
FN:63,71,_ZN5neml214InputParameterINS_11MillerIndexEE9set_valueEbbb
FN:63,71,_ZN5neml214InputParameterINS_2R2EE9set_valueEbbb
FN:63,71,_ZN5neml214InputParameterINS_2R3EE9set_valueEbbb
FN:63,71,_ZN5neml214InputParameterINS_2R4EE9set_valueEbbb
FN:63,71,_ZN5neml214InputParameterINS_2R5EE9set_valueEbbb
FN:63,71,_ZN5neml214InputParameterINS_2R8EE9set_valueEbbb
FN:63,71,_ZN5neml214InputParameterINS_3RotEE9set_valueEbbb
FN:63,71,_ZN5neml214InputParameterINS_3SR2EE9set_valueEbbb
FN:63,71,_ZN5neml214InputParameterINS_3VecEE9set_valueEbbb
FN:63,71,_ZN5neml214InputParameterINS_3WR2EE9set_valueEbbb
FN:63,71,_ZN5neml214InputParameterINS_4SFR3EE9set_valueEbbb
FN:63,71,_ZN5neml214InputParameterINS_4SFR4EE9set_valueEbbb
FN:63,71,_ZN5neml214InputParameterINS_4SSR4EE9set_valueEbbb
FN:63,71,_ZN5neml214InputParameterINS_4SWR4EE9set_valueEbbb
FN:63,71,_ZN5neml214InputParameterINS_4WFR4EE9set_valueEbbb
FN:63,71,_ZN5neml214InputParameterINS_4WSR4EE9set_valueEbbb
FN:63,71,_ZN5neml214InputParameterINS_4WWR4EE9set_valueEbbb
FN:63,71,_ZN5neml214InputParameterINS_5SFFR4EE9set_valueEbbb
FN:63,71,_ZN5neml214InputParameterINS_5SSFR5EE9set_valueEbbb
FN:63,71,_ZN5neml214InputParameterINS_6SSSSR8EE9set_valueEbbb
FN:63,71,_ZN5neml214InputParameterINS_6ScalarEE9set_valueEbbb
FNDA:2,_ZN5neml214InputParameterINS_10QuaternionEE16expected_optionsEv
FNDA:2,_ZN5neml214InputParameterINS_11MillerIndexEE16expected_optionsEv
FNDA:2,_ZN5neml214InputParameterINS_2R2EE16expected_optionsEv
FNDA:2,_ZN5neml214InputParameterINS_2R3EE16expected_optionsEv
FNDA:2,_ZN5neml214InputParameterINS_2R4EE16expected_optionsEv
FNDA:2,_ZN5neml214InputParameterINS_2R5EE16expected_optionsEv
FNDA:2,_ZN5neml214InputParameterINS_2R8EE16expected_optionsEv
FNDA:2,_ZN5neml214InputParameterINS_3RotEE16expected_optionsEv
FNDA:2,_ZN5neml214InputParameterINS_3SR2EE16expected_optionsEv
FNDA:2,_ZN5neml214InputParameterINS_3VecEE16expected_optionsEv
FNDA:2,_ZN5neml214InputParameterINS_3WR2EE16expected_optionsEv
FNDA:2,_ZN5neml214InputParameterINS_4SFR3EE16expected_optionsEv
FNDA:2,_ZN5neml214InputParameterINS_4SFR4EE16expected_optionsEv
FNDA:2,_ZN5neml214InputParameterINS_4SSR4EE16expected_optionsEv
FNDA:2,_ZN5neml214InputParameterINS_4SWR4EE16expected_optionsEv
FNDA:2,_ZN5neml214InputParameterINS_4WFR4EE16expected_optionsEv
FNDA:2,_ZN5neml214InputParameterINS_4WSR4EE16expected_optionsEv
FNDA:2,_ZN5neml214InputParameterINS_4WWR4EE16expected_optionsEv
FNDA:2,_ZN5neml214InputParameterINS_5SFFR4EE16expected_optionsEv
FNDA:2,_ZN5neml214InputParameterINS_5SSFR5EE16expected_optionsEv
FNDA:2,_ZN5neml214InputParameterINS_6SSSSR8EE16expected_optionsEv
FNDA:69,_ZN5neml214InputParameterINS_6ScalarEE16expected_optionsEv
FNDA:0,_ZN5neml214InputParameterINS_10QuaternionEEC2ERKNS_9OptionSetE
FNDA:0,_ZN5neml214InputParameterINS_11MillerIndexEEC2ERKNS_9OptionSetE
FNDA:0,_ZN5neml214InputParameterINS_2R2EEC2ERKNS_9OptionSetE
FNDA:0,_ZN5neml214InputParameterINS_2R3EEC2ERKNS_9OptionSetE
FNDA:0,_ZN5neml214InputParameterINS_2R4EEC2ERKNS_9OptionSetE
FNDA:0,_ZN5neml214InputParameterINS_2R5EEC2ERKNS_9OptionSetE
FNDA:0,_ZN5neml214InputParameterINS_2R8EEC2ERKNS_9OptionSetE
FNDA:0,_ZN5neml214InputParameterINS_3RotEEC2ERKNS_9OptionSetE
FNDA:0,_ZN5neml214InputParameterINS_3SR2EEC2ERKNS_9OptionSetE
FNDA:0,_ZN5neml214InputParameterINS_3VecEEC2ERKNS_9OptionSetE
FNDA:0,_ZN5neml214InputParameterINS_3WR2EEC2ERKNS_9OptionSetE
FNDA:0,_ZN5neml214InputParameterINS_4SFR3EEC2ERKNS_9OptionSetE
FNDA:0,_ZN5neml214InputParameterINS_4SFR4EEC2ERKNS_9OptionSetE
FNDA:2,_ZN5neml214InputParameterINS_4SSR4EEC2ERKNS_9OptionSetE
FNDA:0,_ZN5neml214InputParameterINS_4SWR4EEC2ERKNS_9OptionSetE
FNDA:0,_ZN5neml214InputParameterINS_4WFR4EEC2ERKNS_9OptionSetE
FNDA:0,_ZN5neml214InputParameterINS_4WSR4EEC2ERKNS_9OptionSetE
FNDA:0,_ZN5neml214InputParameterINS_4WWR4EEC2ERKNS_9OptionSetE
FNDA:0,_ZN5neml214InputParameterINS_5SFFR4EEC2ERKNS_9OptionSetE
FNDA:0,_ZN5neml214InputParameterINS_5SSFR5EEC2ERKNS_9OptionSetE
FNDA:0,_ZN5neml214InputParameterINS_6SSSSR8EEC2ERKNS_9OptionSetE
FNDA:65,_ZN5neml214InputParameterINS_6ScalarEEC2ERKNS_9OptionSetE
FNDA:0,_ZN5neml214InputParameterINS_10QuaternionEE9set_valueEbbb
FNDA:0,_ZN5neml214InputParameterINS_11MillerIndexEE9set_valueEbbb
FNDA:0,_ZN5neml214InputParameterINS_2R2EE9set_valueEbbb
FNDA:0,_ZN5neml214InputParameterINS_2R3EE9set_valueEbbb
FNDA:0,_ZN5neml214InputParameterINS_2R4EE9set_valueEbbb
FNDA:0,_ZN5neml214InputParameterINS_2R5EE9set_valueEbbb
FNDA:0,_ZN5neml214InputParameterINS_2R8EE9set_valueEbbb
FNDA:0,_ZN5neml214InputParameterINS_3RotEE9set_valueEbbb
FNDA:0,_ZN5neml214InputParameterINS_3SR2EE9set_valueEbbb
FNDA:0,_ZN5neml214InputParameterINS_3VecEE9set_valueEbbb
FNDA:0,_ZN5neml214InputParameterINS_3WR2EE9set_valueEbbb
FNDA:0,_ZN5neml214InputParameterINS_4SFR3EE9set_valueEbbb
FNDA:0,_ZN5neml214InputParameterINS_4SFR4EE9set_valueEbbb
FNDA:4,_ZN5neml214InputParameterINS_4SSR4EE9set_valueEbbb
FNDA:0,_ZN5neml214InputParameterINS_4SWR4EE9set_valueEbbb
FNDA:0,_ZN5neml214InputParameterINS_4WFR4EE9set_valueEbbb
FNDA:0,_ZN5neml214InputParameterINS_4WSR4EE9set_valueEbbb
FNDA:0,_ZN5neml214InputParameterINS_4WWR4EE9set_valueEbbb
FNDA:0,_ZN5neml214InputParameterINS_5SFFR4EE9set_valueEbbb
FNDA:0,_ZN5neml214InputParameterINS_5SSFR5EE9set_valueEbbb
FNDA:0,_ZN5neml214InputParameterINS_6SSSSR8EE9set_valueEbbb
FNDA:145,_ZN5neml214InputParameterINS_6ScalarEE9set_valueEbbb
FNF:66
FNH:26
DA:33,111
DA:35,111
DA:36,111
DA:40,222
DA:42,222
DA:43,222
DA:45,222
DA:46,111
DA:48,111
DA:49,0
DA:52,67
DA:54,67
DA:55,67
DA:56,67
DA:57,134
DA:59,67
DA:63,149
DA:65,149
DA:66,149
DA:68,149
DA:69,82
DA:70,82
DA:71,149
LF:23
LH:22
end_of_record
TN:
SF:/home/runner/work/neml2/neml2/src/neml2/models/Interpolation.cxx
FN:33,51,_ZN5neml213InterpolationINS_10QuaternionEE16expected_optionsEv
FN:33,51,_ZN5neml213InterpolationINS_11MillerIndexEE16expected_optionsEv
FN:33,51,_ZN5neml213InterpolationINS_2R2EE16expected_optionsEv
FN:33,51,_ZN5neml213InterpolationINS_2R3EE16expected_optionsEv
FN:33,51,_ZN5neml213InterpolationINS_2R4EE16expected_optionsEv
FN:33,51,_ZN5neml213InterpolationINS_2R5EE16expected_optionsEv
FN:33,51,_ZN5neml213InterpolationINS_2R8EE16expected_optionsEv
FN:33,51,_ZN5neml213InterpolationINS_3RotEE16expected_optionsEv
FN:33,51,_ZN5neml213InterpolationINS_3SR2EE16expected_optionsEv
FN:33,51,_ZN5neml213InterpolationINS_3VecEE16expected_optionsEv
FN:33,51,_ZN5neml213InterpolationINS_3WR2EE16expected_optionsEv
FN:33,51,_ZN5neml213InterpolationINS_4SFR3EE16expected_optionsEv
FN:33,51,_ZN5neml213InterpolationINS_4SFR4EE16expected_optionsEv
FN:33,51,_ZN5neml213InterpolationINS_4SSR4EE16expected_optionsEv
FN:33,51,_ZN5neml213InterpolationINS_4SWR4EE16expected_optionsEv
FN:33,51,_ZN5neml213InterpolationINS_4WFR4EE16expected_optionsEv
FN:33,51,_ZN5neml213InterpolationINS_4WSR4EE16expected_optionsEv
FN:33,51,_ZN5neml213InterpolationINS_4WWR4EE16expected_optionsEv
FN:33,51,_ZN5neml213InterpolationINS_5SFFR4EE16expected_optionsEv
FN:33,51,_ZN5neml213InterpolationINS_5SSFR5EE16expected_optionsEv
FN:33,51,_ZN5neml213InterpolationINS_6SSSSR8EE16expected_optionsEv
FN:33,51,_ZN5neml213InterpolationINS_6ScalarEE16expected_optionsEv
FN:54,61,_ZN5neml213InterpolationINS_10QuaternionEEC2ERKNS_9OptionSetE
FN:54,61,_ZN5neml213InterpolationINS_11MillerIndexEEC2ERKNS_9OptionSetE
FN:54,61,_ZN5neml213InterpolationINS_2R2EEC2ERKNS_9OptionSetE
FN:54,61,_ZN5neml213InterpolationINS_2R3EEC2ERKNS_9OptionSetE
FN:54,61,_ZN5neml213InterpolationINS_2R4EEC2ERKNS_9OptionSetE
FN:54,61,_ZN5neml213InterpolationINS_2R5EEC2ERKNS_9OptionSetE
FN:54,61,_ZN5neml213InterpolationINS_2R8EEC2ERKNS_9OptionSetE
FN:54,61,_ZN5neml213InterpolationINS_3RotEEC2ERKNS_9OptionSetE
FN:54,61,_ZN5neml213InterpolationINS_3SR2EEC2ERKNS_9OptionSetE
FN:54,61,_ZN5neml213InterpolationINS_3VecEEC2ERKNS_9OptionSetE
FN:54,61,_ZN5neml213InterpolationINS_3WR2EEC2ERKNS_9OptionSetE
FN:54,61,_ZN5neml213InterpolationINS_4SFR3EEC2ERKNS_9OptionSetE
FN:54,61,_ZN5neml213InterpolationINS_4SFR4EEC2ERKNS_9OptionSetE
FN:54,61,_ZN5neml213InterpolationINS_4SSR4EEC2ERKNS_9OptionSetE
FN:54,61,_ZN5neml213InterpolationINS_4SWR4EEC2ERKNS_9OptionSetE
FN:54,61,_ZN5neml213InterpolationINS_4WFR4EEC2ERKNS_9OptionSetE
FN:54,61,_ZN5neml213InterpolationINS_4WSR4EEC2ERKNS_9OptionSetE
FN:54,61,_ZN5neml213InterpolationINS_4WWR4EEC2ERKNS_9OptionSetE
FN:54,61,_ZN5neml213InterpolationINS_5SFFR4EEC2ERKNS_9OptionSetE
FN:54,61,_ZN5neml213InterpolationINS_5SSFR5EEC2ERKNS_9OptionSetE
FN:54,61,_ZN5neml213InterpolationINS_6SSSSR8EEC2ERKNS_9OptionSetE
FN:54,61,_ZN5neml213InterpolationINS_6ScalarEEC2ERKNS_9OptionSetE
FNDA:0,_ZN5neml213InterpolationINS_10QuaternionEE16expected_optionsEv
FNDA:0,_ZN5neml213InterpolationINS_11MillerIndexEE16expected_optionsEv
FNDA:0,_ZN5neml213InterpolationINS_2R2EE16expected_optionsEv
FNDA:0,_ZN5neml213InterpolationINS_2R3EE16expected_optionsEv
FNDA:0,_ZN5neml213InterpolationINS_2R4EE16expected_optionsEv
FNDA:0,_ZN5neml213InterpolationINS_2R5EE16expected_optionsEv
FNDA:0,_ZN5neml213InterpolationINS_2R8EE16expected_optionsEv
FNDA:0,_ZN5neml213InterpolationINS_3RotEE16expected_optionsEv
FNDA:4,_ZN5neml213InterpolationINS_3SR2EE16expected_optionsEv
FNDA:4,_ZN5neml213InterpolationINS_3VecEE16expected_optionsEv
FNDA:0,_ZN5neml213InterpolationINS_3WR2EE16expected_optionsEv
FNDA:0,_ZN5neml213InterpolationINS_4SFR3EE16expected_optionsEv
FNDA:0,_ZN5neml213InterpolationINS_4SFR4EE16expected_optionsEv
FNDA:0,_ZN5neml213InterpolationINS_4SSR4EE16expected_optionsEv
FNDA:0,_ZN5neml213InterpolationINS_4SWR4EE16expected_optionsEv
FNDA:0,_ZN5neml213InterpolationINS_4WFR4EE16expected_optionsEv
FNDA:0,_ZN5neml213InterpolationINS_4WSR4EE16expected_optionsEv
FNDA:0,_ZN5neml213InterpolationINS_4WWR4EE16expected_optionsEv
FNDA:0,_ZN5neml213InterpolationINS_5SFFR4EE16expected_optionsEv
FNDA:0,_ZN5neml213InterpolationINS_5SSFR5EE16expected_optionsEv
FNDA:0,_ZN5neml213InterpolationINS_6SSSSR8EE16expected_optionsEv
FNDA:4,_ZN5neml213InterpolationINS_6ScalarEE16expected_optionsEv
FNDA:0,_ZN5neml213InterpolationINS_10QuaternionEEC2ERKNS_9OptionSetE
FNDA:0,_ZN5neml213InterpolationINS_11MillerIndexEEC2ERKNS_9OptionSetE
FNDA:0,_ZN5neml213InterpolationINS_2R2EEC2ERKNS_9OptionSetE
FNDA:0,_ZN5neml213InterpolationINS_2R3EEC2ERKNS_9OptionSetE
FNDA:0,_ZN5neml213InterpolationINS_2R4EEC2ERKNS_9OptionSetE
FNDA:0,_ZN5neml213InterpolationINS_2R5EEC2ERKNS_9OptionSetE
FNDA:0,_ZN5neml213InterpolationINS_2R8EEC2ERKNS_9OptionSetE
FNDA:0,_ZN5neml213InterpolationINS_3RotEEC2ERKNS_9OptionSetE
FNDA:4,_ZN5neml213InterpolationINS_3SR2EEC2ERKNS_9OptionSetE
FNDA:0,_ZN5neml213InterpolationINS_3VecEEC2ERKNS_9OptionSetE
FNDA:0,_ZN5neml213InterpolationINS_3WR2EEC2ERKNS_9OptionSetE
FNDA:0,_ZN5neml213InterpolationINS_4SFR3EEC2ERKNS_9OptionSetE
FNDA:0,_ZN5neml213InterpolationINS_4SFR4EEC2ERKNS_9OptionSetE
FNDA:0,_ZN5neml213InterpolationINS_4SSR4EEC2ERKNS_9OptionSetE
FNDA:0,_ZN5neml213InterpolationINS_4SWR4EEC2ERKNS_9OptionSetE
FNDA:0,_ZN5neml213InterpolationINS_4WFR4EEC2ERKNS_9OptionSetE
FNDA:0,_ZN5neml213InterpolationINS_4WSR4EEC2ERKNS_9OptionSetE
FNDA:0,_ZN5neml213InterpolationINS_4WWR4EEC2ERKNS_9OptionSetE
FNDA:0,_ZN5neml213InterpolationINS_5SFFR4EEC2ERKNS_9OptionSetE
FNDA:0,_ZN5neml213InterpolationINS_5SSFR5EEC2ERKNS_9OptionSetE
FNDA:0,_ZN5neml213InterpolationINS_6SSSSR8EEC2ERKNS_9OptionSetE
FNDA:12,_ZN5neml213InterpolationINS_6ScalarEEC2ERKNS_9OptionSetE
FNF:44
FNH:5
DA:33,12
DA:37,12
DA:39,12
DA:40,12
DA:44,12
DA:45,36
DA:47,12
DA:48,36
DA:50,24
DA:51,12
DA:54,16
DA:56,64
DA:57,16
DA:58,16
DA:59,32
DA:61,16
LF:16
LH:16
end_of_record
TN:
SF:/home/runner/work/neml2/neml2/src/neml2/models/LinearCombination.cxx
FN:136,165,_ZN5neml217LinearCombinationINS_2R2EE9set_valueEbbb
FN:136,165,_ZN5neml217LinearCombinationINS_3SR2EE9set_valueEbbb
FN:136,165,_ZN5neml217LinearCombinationINS_3VecEE9set_valueEbbb
FN:136,165,_ZN5neml217LinearCombinationINS_6ScalarEE9set_valueEbbb
FN:37,82,_ZN5neml217LinearCombinationINS_2R2EE16expected_optionsEv
FN:37,82,_ZN5neml217LinearCombinationINS_3SR2EE16expected_optionsEv
FN:37,82,_ZN5neml217LinearCombinationINS_3VecEE16expected_optionsEv
FN:37,82,_ZN5neml217LinearCombinationINS_6ScalarEE16expected_optionsEv
FN:85,132,_ZN5neml217LinearCombinationINS_2R2EEC2ERKNS_9OptionSetE
FN:85,132,_ZN5neml217LinearCombinationINS_3SR2EEC2ERKNS_9OptionSetE
FN:85,132,_ZN5neml217LinearCombinationINS_3VecEEC2ERKNS_9OptionSetE
FN:85,132,_ZN5neml217LinearCombinationINS_6ScalarEEC2ERKNS_9OptionSetE
FNDA:0,_ZN5neml217LinearCombinationINS_2R2EE9set_valueEbbb
FNDA:26,_ZN5neml217LinearCombinationINS_3SR2EE9set_valueEbbb
FNDA:0,_ZN5neml217LinearCombinationINS_3VecEE9set_valueEbbb
FNDA:18,_ZN5neml217LinearCombinationINS_6ScalarEE9set_valueEbbb
FNDA:2,_ZN5neml217LinearCombinationINS_2R2EE16expected_optionsEv
FNDA:2,_ZN5neml217LinearCombinationINS_3SR2EE16expected_optionsEv
FNDA:2,_ZN5neml217LinearCombinationINS_3VecEE16expected_optionsEv
FNDA:3,_ZN5neml217LinearCombinationINS_6ScalarEE16expected_optionsEv
FNDA:0,_ZN5neml217LinearCombinationINS_2R2EEC2ERKNS_9OptionSetE
FNDA:12,_ZN5neml217LinearCombinationINS_3SR2EEC2ERKNS_9OptionSetE
FNDA:0,_ZN5neml217LinearCombinationINS_3VecEEC2ERKNS_9OptionSetE
FNDA:13,_ZN5neml217LinearCombinationINS_6ScalarEEC2ERKNS_9OptionSetE
FNF:12
FNH:8
DA:37,9
DA:41,9
DA:43,9
DA:44,9
DA:50,18
DA:52,9
DA:53,27
DA:55,18
DA:56,9
DA:58,27
DA:60,18
DA:65,36
DA:66,18
DA:69,18
DA:70,9
DA:75,27
DA:76,9
DA:81,18
DA:82,45
DA:85,25
DA:87,25
DA:89,101
DA:90,51
DA:92,25
DA:93,25
DA:95,25
DA:97,25
DA:101,25
DA:102,19
DA:104,25
DA:105,25
DA:107,25
DA:109,25
DA:113,25
DA:114,76
DA:116,51
DA:117,51
DA:118,24
DA:119,12
DA:121,39
DA:124,50
DA:126,4
DA:127,4
DA:128,10
DA:130,10
DA:132,25
DA:136,44
DA:138,44
DA:140,41
DA:141,82
DA:142,41
DA:143,41
DA:144,41
DA:146,44
DA:148,25
DA:149,75
DA:151,50
DA:152,48
DA:154,50
DA:155,7
DA:157,75
DA:158,2
DA:159,25
DA:165,44
LF:64
LH:64
end_of_record
TN:
SF:/home/runner/work/neml2/neml2/src/neml2/models/LinearInterpolation.cxx
FN:36,50,_ZN5neml219LinearInterpolationINS_3SR2EE16expected_optionsEv
FN:36,50,_ZN5neml219LinearInterpolationINS_3VecEE16expected_optionsEv
FN:36,50,_ZN5neml219LinearInterpolationINS_6ScalarEE16expected_optionsEv
FN:53,58,_ZN5neml219LinearInterpolationINS_3SR2EEC2ERKNS_9OptionSetE
FN:53,58,_ZN5neml219LinearInterpolationINS_3VecEEC2ERKNS_9OptionSetE
FN:53,58,_ZN5neml219LinearInterpolationINS_6ScalarEEC2ERKNS_9OptionSetE
FN:62,93,_ZN5neml219LinearInterpolationINS_3SR2EE9set_valueEbbb
FN:62,93,_ZN5neml219LinearInterpolationINS_3VecEE9set_valueEbbb
FN:62,93,_ZN5neml219LinearInterpolationINS_6ScalarEE9set_valueEbbb
FNDA:2,_ZN5neml219LinearInterpolationINS_3SR2EE16expected_optionsEv
FNDA:2,_ZN5neml219LinearInterpolationINS_3VecEE16expected_optionsEv
FNDA:2,_ZN5neml219LinearInterpolationINS_6ScalarEE16expected_optionsEv
FNDA:4,_ZN5neml219LinearInterpolationINS_3SR2EEC2ERKNS_9OptionSetE
FNDA:0,_ZN5neml219LinearInterpolationINS_3VecEEC2ERKNS_9OptionSetE
FNDA:8,_ZN5neml219LinearInterpolationINS_6ScalarEEC2ERKNS_9OptionSetE
FNDA:12,_ZN5neml219LinearInterpolationINS_3SR2EE9set_valueEbbb
FNDA:0,_ZN5neml219LinearInterpolationINS_3VecEE9set_valueEbbb
FNDA:17,_ZN5neml219LinearInterpolationINS_6ScalarEE9set_valueEbbb
FNF:9
FNH:7
DA:36,6
DA:38,6
DA:39,6
DA:41,12
DA:43,12
DA:44,12
DA:46,12
DA:47,6
DA:49,6
DA:50,0
DA:53,12
DA:55,36
DA:56,24
DA:58,12
DA:62,29
DA:64,58
DA:65,58
DA:66,116
DA:68,116
DA:70,116
DA:73,29
DA:74,29
DA:76,29
DA:78,29
DA:80,13
DA:81,13
DA:82,13
DA:83,13
DA:85,29
DA:86,11
DA:87,11
DA:93,203
LF:32
LH:31
end_of_record
TN:
SF:/home/runner/work/neml2/neml2/src/neml2/models/Model.cxx
FN:114,125,_ZN5neml25Model2toERKN3c1013TensorOptionsE
FN:128,139,_ZN5neml25Model5setupEv
FN:142,161,_ZNK5neml25Model8diagnoseEv
FN:164,185,_ZNK5neml25Model15diagnose_nl_sysEv
FN:188,191,_ZNK5neml25Model23diagnostic_assert_stateERKNS_12VariableBaseE
FN:194,198,_ZNK5neml25Model27diagnostic_assert_old_stateERKNS_12VariableBaseE
FN:201,204,_ZNK5neml25Model23diagnostic_assert_forceERKNS_12VariableBaseE
FN:207,211,_ZNK5neml25Model27diagnostic_assert_old_forceERKNS_12VariableBaseE
FN:214,218,_ZNK5neml25Model26diagnostic_assert_residualERKNS_12VariableBaseE
FN:221,240,_ZNK5neml25Model31diagnostic_check_input_variableERKNS_12VariableBaseE
FN:243,257,_ZNK5neml25Model32diagnostic_check_output_variableERKNS_12VariableBaseE
FN:260,267,_ZN5neml25Model20link_input_variablesEv
FN:270,274,_ZN5neml25Model20link_input_variablesEPS0_
FN:277,284,_ZN5neml25Model21link_output_variablesEv
FN:287,289,_ZN5neml25Model21link_output_variablesEPS0_
FN:292,303,_ZN5neml25Model10request_ADERNS_12VariableBaseERKS1_
FN:306,317,_ZN5neml25Model10request_ADERNS_12VariableBaseERKS1_S4_
FN:320,325,_ZN5neml25Model11clear_inputEv
FN:328,333,_ZN5neml25Model12clear_outputEv
FN:336,341,_ZN5neml25Model10zero_inputEv
FN:344,349,_ZN5neml25Model11zero_outputEv
FN:352,363,_ZNK5neml25Model20compute_trace_schemaEv
FN:366,369,_ZNK5neml25Model22forward_operator_indexEbbb
FN:372,401,_ZN5neml25Model7forwardEbbb
FN:404,465,_ZN5neml25Model17forward_maybe_jitEbbb
FN:43,47,_ZN5neml210load_modelERKNSt10filesystem7__cxx114pathERKNSt7__cxx1112basic_stringIcSt11char_traitsIcESaIcEEE
FN:436,441,_ZZN5neml25Model17forward_maybe_jitEbbbENKUlSt6vectorIN3c106IValueESaIS3_EEE_clES5_
FN:445,445,_ZZN5neml25Model17forward_maybe_jitEbbbENKUlRKN2at6TensorEE_clES4_
FN:468,495,_ZN5neml25Model20variable_name_lookupB5cxx11ERKN2at6TensorE
FN:498,508,_ZNK5neml25Model15check_precisionEv
FN:50,53,_ZNK5neml25Model11TraceSchemaeqERKS1_
FN:511,519,_ZN5neml25Model5valueERKSt3mapINS_19LabeledAxisAccessorENS_6TensorESt4lessIS2_ESaISt4pairIKS2_S3_EEE
FN:522,530,_ZN5neml25Model5valueEOSt3mapINS_19LabeledAxisAccessorENS_6TensorESt4lessIS2_ESaISt4pairIKS2_S3_EEE
FN:533,542,_ZN5neml25Model16value_and_dvalueERKSt3mapINS_19LabeledAxisAccessorENS_6TensorESt4lessIS2_ESaISt4pairIKS2_S3_EEE
FN:545,554,_ZN5neml25Model16value_and_dvalueEOSt3mapINS_19LabeledAxisAccessorENS_6TensorESt4lessIS2_ESaISt4pairIKS2_S3_EEE
FN:557,565,_ZN5neml25Model6dvalueERKSt3mapINS_19LabeledAxisAccessorENS_6TensorESt4lessIS2_ESaISt4pairIKS2_S3_EEE
FN:56,61,_ZNK5neml25Model11TraceSchemaltERKS1_
FN:568,576,_ZN5neml25Model6dvalueEOSt3mapINS_19LabeledAxisAccessorENS_6TensorESt4lessIS2_ESaISt4pairIKS2_S3_EEE
FN:579,589,_ZN5neml25Model28value_and_dvalue_and_d2valueERKSt3mapINS_19LabeledAxisAccessorENS_6TensorESt4lessIS2_ESaISt4pairIKS2_S3_EEE
FN:592,602,_ZN5neml25Model28value_and_dvalue_and_d2valueEOSt3mapINS_19LabeledAxisAccessorENS_6TensorESt4lessIS2_ESaISt4pairIKS2_S3_EEE
FN:605,614,_ZN5neml25Model18dvalue_and_d2valueERKSt3mapINS_19LabeledAxisAccessorENS_6TensorESt4lessIS2_ESaISt4pairIKS2_S3_EEE
FN:617,626,_ZN5neml25Model18dvalue_and_d2valueEOSt3mapINS_19LabeledAxisAccessorENS_6TensorESt4lessIS2_ESaISt4pairIKS2_S3_EEE
FN:629,637,_ZN5neml25Model7d2valueERKSt3mapINS_19LabeledAxisAccessorENS_6TensorESt4lessIS2_ESaISt4pairIKS2_S3_EEE
FN:64,96,_ZN5neml25Model16expected_optionsEv
FN:640,648,_ZN5neml25Model7d2valueEOSt3mapINS_19LabeledAxisAccessorENS_6TensorESt4lessIS2_ESaISt4pairIKS2_S3_EEE
FN:651,659,_ZNK5neml25Model16registered_modelERKNSt7__cxx1112basic_stringIcSt11char_traitsIcESaIcEEE
FN:662,669,_ZN5neml25Model28register_nonlinear_parameterERKNSt7__cxx1112basic_stringIcSt11char_traitsIcESaIcEEERKNS_18NonlinearParameterE
FN:672,682,_ZNK5neml25Model12has_nl_paramEb
FN:685,688,_ZNK5neml25Model8nl_paramERKNSt7__cxx1112basic_stringIcSt11char_traitsIcESaIcEEE
FN:691,708,_ZNK5neml25Model26named_nonlinear_parametersB5cxx11Eb
FN:711,715,_ZNK5neml25Model14consumed_itemsEv
FN:718,722,_ZNK5neml25Model14provided_itemsEv
FN:725,740,_ZN5neml25Model18assign_input_stackERSt6vectorIN3c106IValueESaIS3_EE
FN:743,753,_ZNK5neml25Model19collect_input_stackEv
FN:756,760,_ZN5neml25Model9set_guessERKNS_15NonlinearSystem3SolILb0EEE
FN:763,778,_ZN5neml25Model8assembleEPNS_15NonlinearSystem3ResILb0EEEPNS1_3JacILb0EEE
FN:781,794,_ZNK5neml25Model13AD_need_valueEbb
FN:797,801,_ZN5neml25Model9enable_ADEv
FN:804,878,_ZN5neml25Model22extract_AD_derivativesEbb
FN:98,111,_ZN5neml25ModelC2ERKNS_9OptionSetE
FNDA:91,_ZN5neml25Model2toERKN3c1013TensorOptionsE
FNDA:479,_ZN5neml25Model5setupEv
FNDA:99,_ZNK5neml25Model8diagnoseEv
FNDA:72,_ZNK5neml25Model15diagnose_nl_sysEv
FNDA:26,_ZNK5neml25Model23diagnostic_assert_stateERKNS_12VariableBaseE
FNDA:0,_ZNK5neml25Model27diagnostic_assert_old_stateERKNS_12VariableBaseE
FNDA:19,_ZNK5neml25Model23diagnostic_assert_forceERKNS_12VariableBaseE
FNDA:0,_ZNK5neml25Model27diagnostic_assert_old_forceERKNS_12VariableBaseE
FNDA:0,_ZNK5neml25Model26diagnostic_assert_residualERKNS_12VariableBaseE
FNDA:302,_ZNK5neml25Model31diagnostic_check_input_variableERKNS_12VariableBaseE
FNDA:120,_ZNK5neml25Model32diagnostic_check_output_variableERKNS_12VariableBaseE
FNDA:480,_ZN5neml25Model20link_input_variablesEv
FNDA:14,_ZN5neml25Model20link_input_variablesEPS0_
FNDA:480,_ZN5neml25Model21link_output_variablesEv
FNDA:14,_ZN5neml25Model21link_output_variablesEPS0_
FNDA:14,_ZN5neml25Model10request_ADERNS_12VariableBaseERKS1_
FNDA:48,_ZN5neml25Model10request_ADERNS_12VariableBaseERKS1_S4_
FNDA:9213,_ZN5neml25Model11clear_inputEv
FNDA:9213,_ZN5neml25Model12clear_outputEv
FNDA:9213,_ZN5neml25Model10zero_inputEv
FNDA:9213,_ZN5neml25Model11zero_outputEv
FNDA:6956,_ZNK5neml25Model20compute_trace_schemaEv
FNDA:6956,_ZNK5neml25Model22forward_operator_indexEbbb
FNDA:1209,_ZN5neml25Model7forwardEbbb
FNDA:7715,_ZN5neml25Model17forward_maybe_jitEbbb
FNDA:15,_ZN5neml210load_modelERKNSt10filesystem7__cxx114pathERKNSt7__cxx1112basic_stringIcSt11char_traitsIcESaIcEEE
FNDA:450,_ZZN5neml25Model17forward_maybe_jitEbbbENKUlSt6vectorIN3c106IValueESaIS3_EEE_clES5_
FNDA:41729,_ZZN5neml25Model17forward_maybe_jitEbbbENKUlRKN2at6TensorEE_clES4_
FNDA:160161,_ZN5neml25Model20variable_name_lookupB5cxx11ERKN2at6TensorE
FNDA:3786,_ZNK5neml25Model15check_precisionEv
FNDA:0,_ZNK5neml25Model11TraceSchemaeqERKS1_
FNDA:2672,_ZN5neml25Model5valueERKSt3mapINS_19LabeledAxisAccessorENS_6TensorESt4lessIS2_ESaISt4pairIKS2_S3_EEE
FNDA:2,_ZN5neml25Model5valueEOSt3mapINS_19LabeledAxisAccessorENS_6TensorESt4lessIS2_ESaISt4pairIKS2_S3_EEE
FNDA:0,_ZN5neml25Model16value_and_dvalueERKSt3mapINS_19LabeledAxisAccessorENS_6TensorESt4lessIS2_ESaISt4pairIKS2_S3_EEE
FNDA:0,_ZN5neml25Model16value_and_dvalueEOSt3mapINS_19LabeledAxisAccessorENS_6TensorESt4lessIS2_ESaISt4pairIKS2_S3_EEE
FNDA:1050,_ZN5neml25Model6dvalueERKSt3mapINS_19LabeledAxisAccessorENS_6TensorESt4lessIS2_ESaISt4pairIKS2_S3_EEE
FNDA:13012,_ZNK5neml25Model11TraceSchemaltERKS1_
FNDA:0,_ZN5neml25Model6dvalueEOSt3mapINS_19LabeledAxisAccessorENS_6TensorESt4lessIS2_ESaISt4pairIKS2_S3_EEE
FNDA:0,_ZN5neml25Model28value_and_dvalue_and_d2valueERKSt3mapINS_19LabeledAxisAccessorENS_6TensorESt4lessIS2_ESaISt4pairIKS2_S3_EEE
FNDA:0,_ZN5neml25Model28value_and_dvalue_and_d2valueEOSt3mapINS_19LabeledAxisAccessorENS_6TensorESt4lessIS2_ESaISt4pairIKS2_S3_EEE
FNDA:0,_ZN5neml25Model18dvalue_and_d2valueERKSt3mapINS_19LabeledAxisAccessorENS_6TensorESt4lessIS2_ESaISt4pairIKS2_S3_EEE
FNDA:0,_ZN5neml25Model18dvalue_and_d2valueEOSt3mapINS_19LabeledAxisAccessorENS_6TensorESt4lessIS2_ESaISt4pairIKS2_S3_EEE
FNDA:62,_ZN5neml25Model7d2valueERKSt3mapINS_19LabeledAxisAccessorENS_6TensorESt4lessIS2_ESaISt4pairIKS2_S3_EEE
FNDA:481,_ZN5neml25Model16expected_optionsEv
FNDA:0,_ZN5neml25Model7d2valueEOSt3mapINS_19LabeledAxisAccessorENS_6TensorESt4lessIS2_ESaISt4pairIKS2_S3_EEE
FNDA:260,_ZNK5neml25Model16registered_modelERKNSt7__cxx1112basic_stringIcSt11char_traitsIcESaIcEEE
FNDA:78,_ZN5neml25Model28register_nonlinear_parameterERKNSt7__cxx1112basic_stringIcSt11char_traitsIcESaIcEEERKNS_18NonlinearParameterE
FNDA:0,_ZNK5neml25Model12has_nl_paramEb
FNDA:385,_ZNK5neml25Model8nl_paramERKNSt7__cxx1112basic_stringIcSt11char_traitsIcESaIcEEE
FNDA:597,_ZNK5neml25Model26named_nonlinear_parametersB5cxx11Eb
FNDA:260,_ZNK5neml25Model14consumed_itemsEv
FNDA:260,_ZNK5neml25Model14provided_itemsEv
FNDA:450,_ZN5neml25Model18assign_input_stackERSt6vectorIN3c106IValueESaIS3_EE
FNDA:6956,_ZNK5neml25Model19collect_input_stackEv
FNDA:1572,_ZN5neml25Model9set_guessERKNS_15NonlinearSystem3SolILb0EEE
FNDA:2823,_ZN5neml25Model8assembleEPNS_15NonlinearSystem3ResILb0EEEPNS1_3JacILb0EEE
FNDA:264,_ZNK5neml25Model13AD_need_valueEbb
FNDA:545,_ZN5neml25Model9enable_ADEv
FNDA:545,_ZN5neml25Model22extract_AD_derivativesEbb
FNDA:479,_ZN5neml25ModelC2ERKNS_9OptionSetE
FNF:60
FNH:47
DA:43,15
DA:45,15
DA:46,30
DA:47,15
DA:50,0
DA:52,0
DA:56,13012
DA:58,13012
DA:59,0
DA:60,13012
DA:64,481
DA:66,481
DA:67,481
DA:68,481
DA:70,481
DA:73,962
DA:74,962
DA:75,962
DA:76,962
DA:77,962
DA:78,962
DA:83,962
DA:84,962
DA:86,962
DA:87,962
DA:89,962
DA:90,962
DA:93,481
DA:95,481
DA:96,0
DA:98,479
DA:104,958
DA:105,958
DA:106,958
DA:107,479
DA:108,1425
DA:109,1916
DA:111,479
DA:114,91
DA:116,91
DA:117,91
DA:118,91
DA:120,174
DA:121,83
DA:123,92
DA:124,92
DA:125,91
DA:128,479
DA:130,479
DA:132,479
DA:134,206
DA:135,206
DA:138,479
DA:139,479
DA:142,99
DA:144,187
DA:145,88
DA:148,401
DA:149,302
DA:150,219
DA:151,120
DA:153,99
DA:154,5
DA:156,99
DA:157,9
DA:158,3
DA:161,99
DA:164,72
DA:166,139
DA:167,67
DA:170,72
DA:171,253
DA:172,181
DA:173,109
DA:176,72
DA:177,145
DA:178,76
DA:179,76
DA:185,72
DA:188,26
DA:190,26
DA:191,26
DA:194,0
DA:196,0
DA:197,0
DA:198,0
DA:201,19
DA:203,19
DA:204,19
DA:207,0
DA:209,0
DA:210,0
DA:211,0
DA:214,0
DA:216,0
DA:217,0
DA:218,0
DA:221,302
DA:223,770
DA:224,468
DA:226,302
DA:240,302
DA:243,120
DA:245,120
DA:247,120
DA:257,120
DA:260,480
DA:262,754
DA:264,274
DA:265,274
DA:267,480
DA:270,14
DA:272,98
DA:273,84
DA:274,14
DA:277,480
DA:279,754
DA:281,274
DA:282,274
DA:284,480
DA:287,14
DA:289,14
DA:292,14
DA:294,14
DA:296,14
DA:299,14
DA:300,14
DA:302,14
DA:303,14
DA:306,48
DA:308,48
DA:310,48
DA:313,48
DA:314,48
DA:316,48
DA:317,48
DA:320,9213
DA:322,9213
DA:323,14640
DA:324,5427
DA:325,9213
DA:328,9213
DA:330,9213
DA:331,14640
DA:332,5427
DA:333,9213
DA:336,9213
DA:338,9213
DA:339,14640
DA:340,5427
DA:341,9213
DA:344,9213
DA:346,9213
DA:347,14640
DA:348,5427
DA:349,9213
DA:352,6956
DA:354,6956
DA:355,43897
DA:356,36941
DA:357,23573
DA:358,16617
DA:360,6956
DA:362,13912
DA:363,6956
DA:366,6956
DA:368,6956
DA:372,1209
DA:374,1209
DA:376,1209
DA:378,1209
DA:380,1209
DA:382,1209
DA:384,1209
DA:387,1209
DA:388,545
DA:390,1209
DA:392,1209
DA:393,545
DA:395,1209
DA:397,1209
DA:398,545
DA:400,2418
DA:401,1209
DA:404,7715
DA:406,7715
DA:408,759
DA:409,759
DA:413,6956
DA:415,6956
DA:416,6956
DA:417,6956
DA:419,6956
DA:421,6506
DA:422,6506
DA:423,6506
DA:424,6506
DA:425,6506
DA:426,6506
DA:431,450
DA:433,450
DA:436,450
DA:438,450
DA:439,450
DA:440,450
DA:441,450
DA:442,2250
DA:443,900
DA:445,42629
DA:447,450
DA:449,0
DA:451,0
DA:452,0
DA:453,0
DA:454,450
DA:456,900
DA:457,450
DA:458,0
DA:459,900
DA:460,450
DA:463,450
DA:464,450
DA:465,6956
DA:468,160161
DA:471,566348
DA:472,407829
DA:473,1642
DA:474,340524
DA:475,182346
DA:476,341
DA:479,1101535
DA:480,944177
DA:481,820
DA:482,859281
DA:483,702084
DA:484,161
DA:487,275233
DA:489,118432
DA:490,118432
DA:491,396
DA:492,118432
DA:494,313602
DA:498,3786
DA:500,3786
DA:501,3786
DA:502,7572
DA:508,3786
DA:511,2672
DA:513,2672
DA:515,2672
DA:516,2672
DA:517,2672
DA:518,2672
DA:519,0
DA:522,2
DA:524,2
DA:526,2
DA:527,2
DA:528,2
DA:529,2
DA:530,0
DA:533,0
DA:535,0
DA:537,0
DA:538,0
DA:539,0
DA:540,0
DA:541,0
DA:542,0
DA:545,0
DA:547,0
DA:549,0
DA:550,0
DA:551,0
DA:552,0
DA:553,0
DA:554,0
DA:557,1050
DA:559,1050
DA:561,1050
DA:562,1050
DA:563,1050
DA:564,1050
DA:565,0
DA:568,0
DA:570,0
DA:572,0
DA:573,0
DA:574,0
DA:575,0
DA:576,0
DA:579,0
DA:581,0
DA:583,0
DA:584,0
DA:585,0
DA:586,0
DA:587,0
DA:588,0
DA:589,0
DA:592,0
DA:594,0
DA:596,0
DA:597,0
DA:598,0
DA:599,0
DA:600,0
DA:601,0
DA:602,0
DA:605,0
DA:607,0
DA:609,0
DA:610,0
DA:611,0
DA:612,0
DA:613,0
DA:614,0
DA:617,0
DA:619,0
DA:621,0
DA:622,0
DA:623,0
DA:624,0
DA:625,0
DA:626,0
DA:629,62
DA:631,62
DA:633,62
DA:634,62
DA:635,62
DA:636,62
DA:637,0
DA:640,0
DA:642,0
DA:644,0
DA:645,0
DA:646,0
DA:647,0
DA:648,0
DA:651,260
DA:653,861
DA:654,861
DA:655,260
DA:657,0
DA:658,0
DA:662,78
DA:664,78
DA:668,78
DA:669,78
DA:672,0
DA:674,0
DA:675,0
DA:677,0
DA:678,0
DA:679,0
DA:681,0
DA:685,385
DA:687,385
DA:691,597
DA:693,597
DA:694,79
DA:696,518
DA:698,674
DA:699,156
DA:700,0
DA:701,156
DA:703,532
DA:704,14
DA:705,14
DA:707,518
DA:708,518
DA:711,260
DA:713,260
DA:714,520
DA:715,260
DA:718,260
DA:720,260
DA:721,520
DA:722,260
DA:725,450
DA:728,450
DA:729,450
DA:730,450
DA:732,450
DA:738,450
DA:739,450
DA:740,450
DA:743,6956
DA:745,6956
DA:746,6956
DA:751,6956
DA:752,13912
DA:753,6956
DA:756,1572
DA:758,1572
DA:759,1572
DA:760,1572
DA:763,2823
DA:765,2823
DA:767,2823
DA:769,1572
DA:770,1572
DA:772,2823
DA:775,1251
DA:776,1251
DA:778,2823
DA:781,264
DA:783,264
DA:784,201
DA:785,2
DA:787,262
DA:788,66
DA:789,0
DA:790,0
DA:791,0
DA:793,262
DA:797,545
DA:799,551
DA:800,6
DA:801,545
DA:804,545
DA:806,545
DA:808,549
DA:810,4
DA:811,0
DA:812,0
DA:815,4
DA:816,18
DA:817,14
DA:818,14
DA:821,4
DA:822,18
DA:823,14
DA:824,14
DA:825,0
DA:826,0
DA:828,4
DA:832,4
DA:834,4
DA:835,18
DA:836,14
DA:838,14
DA:839,14
DA:840,14
DA:842,4
DA:844,545
DA:846,114
DA:847,0
DA:849,0
DA:850,0
DA:852,0
DA:854,0
DA:855,0
DA:857,0
DA:858,0
DA:859,0
DA:860,0
DA:866,0
DA:868,0
DA:869,0
DA:870,0
DA:872,0
DA:873,0
DA:874,0
DA:876,0
DA:878,545
LF:466
LH:342
end_of_record
TN:
SF:/home/runner/work/neml2/neml2/src/neml2/models/ParameterStore.cxx
FN:108,251,_ZN5neml219resolve_tensor_nameINS_10QuaternionEEERKT_RKNS_10TensorNameIS2_EEPNS_5ModelERKNSt7__cxx1112basic_stringIcSt11char_traitsIcESaIcEEE
FN:108,251,_ZN5neml219resolve_tensor_nameINS_11MillerIndexEEERKT_RKNS_10TensorNameIS2_EEPNS_5ModelERKNSt7__cxx1112basic_stringIcSt11char_traitsIcESaIcEEE
FN:108,251,_ZN5neml219resolve_tensor_nameINS_2R2EEERKT_RKNS_10TensorNameIS2_EEPNS_5ModelERKNSt7__cxx1112basic_stringIcSt11char_traitsIcESaIcEEE
FN:108,251,_ZN5neml219resolve_tensor_nameINS_2R3EEERKT_RKNS_10TensorNameIS2_EEPNS_5ModelERKNSt7__cxx1112basic_stringIcSt11char_traitsIcESaIcEEE
FN:108,251,_ZN5neml219resolve_tensor_nameINS_2R4EEERKT_RKNS_10TensorNameIS2_EEPNS_5ModelERKNSt7__cxx1112basic_stringIcSt11char_traitsIcESaIcEEE
FN:108,251,_ZN5neml219resolve_tensor_nameINS_2R5EEERKT_RKNS_10TensorNameIS2_EEPNS_5ModelERKNSt7__cxx1112basic_stringIcSt11char_traitsIcESaIcEEE
FN:108,251,_ZN5neml219resolve_tensor_nameINS_2R8EEERKT_RKNS_10TensorNameIS2_EEPNS_5ModelERKNSt7__cxx1112basic_stringIcSt11char_traitsIcESaIcEEE
FN:108,251,_ZN5neml219resolve_tensor_nameINS_3RotEEERKT_RKNS_10TensorNameIS2_EEPNS_5ModelERKNSt7__cxx1112basic_stringIcSt11char_traitsIcESaIcEEE
FN:108,251,_ZN5neml219resolve_tensor_nameINS_3SR2EEERKT_RKNS_10TensorNameIS2_EEPNS_5ModelERKNSt7__cxx1112basic_stringIcSt11char_traitsIcESaIcEEE
FN:108,251,_ZN5neml219resolve_tensor_nameINS_3VecEEERKT_RKNS_10TensorNameIS2_EEPNS_5ModelERKNSt7__cxx1112basic_stringIcSt11char_traitsIcESaIcEEE
FN:108,251,_ZN5neml219resolve_tensor_nameINS_3WR2EEERKT_RKNS_10TensorNameIS2_EEPNS_5ModelERKNSt7__cxx1112basic_stringIcSt11char_traitsIcESaIcEEE
FN:108,251,_ZN5neml219resolve_tensor_nameINS_4SFR3EEERKT_RKNS_10TensorNameIS2_EEPNS_5ModelERKNSt7__cxx1112basic_stringIcSt11char_traitsIcESaIcEEE
FN:108,251,_ZN5neml219resolve_tensor_nameINS_4SFR4EEERKT_RKNS_10TensorNameIS2_EEPNS_5ModelERKNSt7__cxx1112basic_stringIcSt11char_traitsIcESaIcEEE
FN:108,251,_ZN5neml219resolve_tensor_nameINS_4SSR4EEERKT_RKNS_10TensorNameIS2_EEPNS_5ModelERKNSt7__cxx1112basic_stringIcSt11char_traitsIcESaIcEEE
FN:108,251,_ZN5neml219resolve_tensor_nameINS_4SWR4EEERKT_RKNS_10TensorNameIS2_EEPNS_5ModelERKNSt7__cxx1112basic_stringIcSt11char_traitsIcESaIcEEE
FN:108,251,_ZN5neml219resolve_tensor_nameINS_4WFR4EEERKT_RKNS_10TensorNameIS2_EEPNS_5ModelERKNSt7__cxx1112basic_stringIcSt11char_traitsIcESaIcEEE
FN:108,251,_ZN5neml219resolve_tensor_nameINS_4WSR4EEERKT_RKNS_10TensorNameIS2_EEPNS_5ModelERKNSt7__cxx1112basic_stringIcSt11char_traitsIcESaIcEEE
FN:108,251,_ZN5neml219resolve_tensor_nameINS_4WWR4EEERKT_RKNS_10TensorNameIS2_EEPNS_5ModelERKNSt7__cxx1112basic_stringIcSt11char_traitsIcESaIcEEE
FN:108,251,_ZN5neml219resolve_tensor_nameINS_5SFFR4EEERKT_RKNS_10TensorNameIS2_EEPNS_5ModelERKNSt7__cxx1112basic_stringIcSt11char_traitsIcESaIcEEE
FN:108,251,_ZN5neml219resolve_tensor_nameINS_5SSFR5EEERKT_RKNS_10TensorNameIS2_EEPNS_5ModelERKNSt7__cxx1112basic_stringIcSt11char_traitsIcESaIcEEE
FN:108,251,_ZN5neml219resolve_tensor_nameINS_6SSSSR8EEERKT_RKNS_10TensorNameIS2_EEPNS_5ModelERKNSt7__cxx1112basic_stringIcSt11char_traitsIcESaIcEEE
FN:108,251,_ZN5neml219resolve_tensor_nameINS_6ScalarEEERKT_RKNS_10TensorNameIS2_EEPNS_5ModelERKNSt7__cxx1112basic_stringIcSt11char_traitsIcESaIcEEE
FN:255,287,_ZN5neml214ParameterStore17declare_parameterINS_10QuaternionEvEERKT_RKNSt7__cxx1112basic_stringIcSt11char_traitsIcESaIcEEERKNS_10TensorNameIS3_EEb
FN:255,287,_ZN5neml214ParameterStore17declare_parameterINS_11MillerIndexEvEERKT_RKNSt7__cxx1112basic_stringIcSt11char_traitsIcESaIcEEERKNS_10TensorNameIS3_EEb
FN:255,287,_ZN5neml214ParameterStore17declare_parameterINS_2R2EvEERKT_RKNSt7__cxx1112basic_stringIcSt11char_traitsIcESaIcEEERKNS_10TensorNameIS3_EEb
FN:255,287,_ZN5neml214ParameterStore17declare_parameterINS_2R3EvEERKT_RKNSt7__cxx1112basic_stringIcSt11char_traitsIcESaIcEEERKNS_10TensorNameIS3_EEb
FN:255,287,_ZN5neml214ParameterStore17declare_parameterINS_2R4EvEERKT_RKNSt7__cxx1112basic_stringIcSt11char_traitsIcESaIcEEERKNS_10TensorNameIS3_EEb
FN:255,287,_ZN5neml214ParameterStore17declare_parameterINS_2R5EvEERKT_RKNSt7__cxx1112basic_stringIcSt11char_traitsIcESaIcEEERKNS_10TensorNameIS3_EEb
FN:255,287,_ZN5neml214ParameterStore17declare_parameterINS_2R8EvEERKT_RKNSt7__cxx1112basic_stringIcSt11char_traitsIcESaIcEEERKNS_10TensorNameIS3_EEb
FN:255,287,_ZN5neml214ParameterStore17declare_parameterINS_3RotEvEERKT_RKNSt7__cxx1112basic_stringIcSt11char_traitsIcESaIcEEERKNS_10TensorNameIS3_EEb
FN:255,287,_ZN5neml214ParameterStore17declare_parameterINS_3SR2EvEERKT_RKNSt7__cxx1112basic_stringIcSt11char_traitsIcESaIcEEERKNS_10TensorNameIS3_EEb
FN:255,287,_ZN5neml214ParameterStore17declare_parameterINS_3VecEvEERKT_RKNSt7__cxx1112basic_stringIcSt11char_traitsIcESaIcEEERKNS_10TensorNameIS3_EEb
FN:255,287,_ZN5neml214ParameterStore17declare_parameterINS_3WR2EvEERKT_RKNSt7__cxx1112basic_stringIcSt11char_traitsIcESaIcEEERKNS_10TensorNameIS3_EEb
FN:255,287,_ZN5neml214ParameterStore17declare_parameterINS_4SFR3EvEERKT_RKNSt7__cxx1112basic_stringIcSt11char_traitsIcESaIcEEERKNS_10TensorNameIS3_EEb
FN:255,287,_ZN5neml214ParameterStore17declare_parameterINS_4SFR4EvEERKT_RKNSt7__cxx1112basic_stringIcSt11char_traitsIcESaIcEEERKNS_10TensorNameIS3_EEb
FN:255,287,_ZN5neml214ParameterStore17declare_parameterINS_4SSR4EvEERKT_RKNSt7__cxx1112basic_stringIcSt11char_traitsIcESaIcEEERKNS_10TensorNameIS3_EEb
FN:255,287,_ZN5neml214ParameterStore17declare_parameterINS_4SWR4EvEERKT_RKNSt7__cxx1112basic_stringIcSt11char_traitsIcESaIcEEERKNS_10TensorNameIS3_EEb
FN:255,287,_ZN5neml214ParameterStore17declare_parameterINS_4WFR4EvEERKT_RKNSt7__cxx1112basic_stringIcSt11char_traitsIcESaIcEEERKNS_10TensorNameIS3_EEb
FN:255,287,_ZN5neml214ParameterStore17declare_parameterINS_4WSR4EvEERKT_RKNSt7__cxx1112basic_stringIcSt11char_traitsIcESaIcEEERKNS_10TensorNameIS3_EEb
FN:255,287,_ZN5neml214ParameterStore17declare_parameterINS_4WWR4EvEERKT_RKNSt7__cxx1112basic_stringIcSt11char_traitsIcESaIcEEERKNS_10TensorNameIS3_EEb
FN:255,287,_ZN5neml214ParameterStore17declare_parameterINS_5SFFR4EvEERKT_RKNSt7__cxx1112basic_stringIcSt11char_traitsIcESaIcEEERKNS_10TensorNameIS3_EEb
FN:255,287,_ZN5neml214ParameterStore17declare_parameterINS_5SSFR5EvEERKT_RKNSt7__cxx1112basic_stringIcSt11char_traitsIcESaIcEEERKNS_10TensorNameIS3_EEb
FN:255,287,_ZN5neml214ParameterStore17declare_parameterINS_6SSSSR8EvEERKT_RKNSt7__cxx1112basic_stringIcSt11char_traitsIcESaIcEEERKNS_10TensorNameIS3_EEb
FN:255,287,_ZN5neml214ParameterStore17declare_parameterINS_6ScalarEvEERKT_RKNSt7__cxx1112basic_stringIcSt11char_traitsIcESaIcEEERKNS_10TensorNameIS3_EEb
FN:291,303,_ZN5neml214ParameterStore17declare_parameterINS_10QuaternionEvEERKT_RKNSt7__cxx1112basic_stringIcSt11char_traitsIcESaIcEEESD_b
FN:291,303,_ZN5neml214ParameterStore17declare_parameterINS_11MillerIndexEvEERKT_RKNSt7__cxx1112basic_stringIcSt11char_traitsIcESaIcEEESD_b
FN:291,303,_ZN5neml214ParameterStore17declare_parameterINS_2R2EvEERKT_RKNSt7__cxx1112basic_stringIcSt11char_traitsIcESaIcEEESD_b
FN:291,303,_ZN5neml214ParameterStore17declare_parameterINS_2R3EvEERKT_RKNSt7__cxx1112basic_stringIcSt11char_traitsIcESaIcEEESD_b
FN:291,303,_ZN5neml214ParameterStore17declare_parameterINS_2R4EvEERKT_RKNSt7__cxx1112basic_stringIcSt11char_traitsIcESaIcEEESD_b
FN:291,303,_ZN5neml214ParameterStore17declare_parameterINS_2R5EvEERKT_RKNSt7__cxx1112basic_stringIcSt11char_traitsIcESaIcEEESD_b
FN:291,303,_ZN5neml214ParameterStore17declare_parameterINS_2R8EvEERKT_RKNSt7__cxx1112basic_stringIcSt11char_traitsIcESaIcEEESD_b
FN:291,303,_ZN5neml214ParameterStore17declare_parameterINS_3RotEvEERKT_RKNSt7__cxx1112basic_stringIcSt11char_traitsIcESaIcEEESD_b
FN:291,303,_ZN5neml214ParameterStore17declare_parameterINS_3SR2EvEERKT_RKNSt7__cxx1112basic_stringIcSt11char_traitsIcESaIcEEESD_b
FN:291,303,_ZN5neml214ParameterStore17declare_parameterINS_3VecEvEERKT_RKNSt7__cxx1112basic_stringIcSt11char_traitsIcESaIcEEESD_b
FN:291,303,_ZN5neml214ParameterStore17declare_parameterINS_3WR2EvEERKT_RKNSt7__cxx1112basic_stringIcSt11char_traitsIcESaIcEEESD_b
FN:291,303,_ZN5neml214ParameterStore17declare_parameterINS_4SFR3EvEERKT_RKNSt7__cxx1112basic_stringIcSt11char_traitsIcESaIcEEESD_b
FN:291,303,_ZN5neml214ParameterStore17declare_parameterINS_4SFR4EvEERKT_RKNSt7__cxx1112basic_stringIcSt11char_traitsIcESaIcEEESD_b
FN:291,303,_ZN5neml214ParameterStore17declare_parameterINS_4SSR4EvEERKT_RKNSt7__cxx1112basic_stringIcSt11char_traitsIcESaIcEEESD_b
FN:291,303,_ZN5neml214ParameterStore17declare_parameterINS_4SWR4EvEERKT_RKNSt7__cxx1112basic_stringIcSt11char_traitsIcESaIcEEESD_b
FN:291,303,_ZN5neml214ParameterStore17declare_parameterINS_4WFR4EvEERKT_RKNSt7__cxx1112basic_stringIcSt11char_traitsIcESaIcEEESD_b
FN:291,303,_ZN5neml214ParameterStore17declare_parameterINS_4WSR4EvEERKT_RKNSt7__cxx1112basic_stringIcSt11char_traitsIcESaIcEEESD_b
FN:291,303,_ZN5neml214ParameterStore17declare_parameterINS_4WWR4EvEERKT_RKNSt7__cxx1112basic_stringIcSt11char_traitsIcESaIcEEESD_b
FN:291,303,_ZN5neml214ParameterStore17declare_parameterINS_5SFFR4EvEERKT_RKNSt7__cxx1112basic_stringIcSt11char_traitsIcESaIcEEESD_b
FN:291,303,_ZN5neml214ParameterStore17declare_parameterINS_5SSFR5EvEERKT_RKNSt7__cxx1112basic_stringIcSt11char_traitsIcESaIcEEESD_b
FN:291,303,_ZN5neml214ParameterStore17declare_parameterINS_6SSSSR8EvEERKT_RKNSt7__cxx1112basic_stringIcSt11char_traitsIcESaIcEEESD_b
FN:291,303,_ZN5neml214ParameterStore17declare_parameterINS_6ScalarEvEERKT_RKNSt7__cxx1112basic_stringIcSt11char_traitsIcESaIcEEESD_b
FN:317,338,_ZN5neml214ParameterStore22assign_parameter_stackERSt6vectorIN3c106IValueESaIS3_EE
FN:341,349,_ZNK5neml214ParameterStore23collect_parameter_stackEv
FN:37,40,_ZN5neml214ParameterStoreC2EPNS_5ModelE
FN:43,47,_ZN5neml214ParameterStore18send_parameters_toERKN3c1013TensorOptionsE
FN:50,55,_ZN5neml214ParameterStore13set_parameterERKNSt7__cxx1112basic_stringIcSt11char_traitsIcESaIcEEERKNS_6TensorE
FN:58,63,_ZN5neml214ParameterStore13get_parameterERKNSt7__cxx1112basic_stringIcSt11char_traitsIcESaIcEEE
FN:66,70,_ZN5neml214ParameterStore14set_parametersERKSt3mapINSt7__cxx1112basic_stringIcSt11char_traitsIcESaIcEEENS_6TensorESt4lessIS7_ESaISt4pairIKS7_S8_EEE
FN:73,78,_ZN5neml214ParameterStore16named_parametersB5cxx11Ev
FN:82,104,_ZN5neml214ParameterStore17declare_parameterINS_10QuaternionEvEERKT_RKNSt7__cxx1112basic_stringIcSt11char_traitsIcESaIcEEES5_
FN:82,104,_ZN5neml214ParameterStore17declare_parameterINS_11MillerIndexEvEERKT_RKNSt7__cxx1112basic_stringIcSt11char_traitsIcESaIcEEES5_
FN:82,104,_ZN5neml214ParameterStore17declare_parameterINS_2R2EvEERKT_RKNSt7__cxx1112basic_stringIcSt11char_traitsIcESaIcEEES5_
FN:82,104,_ZN5neml214ParameterStore17declare_parameterINS_2R3EvEERKT_RKNSt7__cxx1112basic_stringIcSt11char_traitsIcESaIcEEES5_
FN:82,104,_ZN5neml214ParameterStore17declare_parameterINS_2R4EvEERKT_RKNSt7__cxx1112basic_stringIcSt11char_traitsIcESaIcEEES5_
FN:82,104,_ZN5neml214ParameterStore17declare_parameterINS_2R5EvEERKT_RKNSt7__cxx1112basic_stringIcSt11char_traitsIcESaIcEEES5_
FN:82,104,_ZN5neml214ParameterStore17declare_parameterINS_2R8EvEERKT_RKNSt7__cxx1112basic_stringIcSt11char_traitsIcESaIcEEES5_
FN:82,104,_ZN5neml214ParameterStore17declare_parameterINS_3RotEvEERKT_RKNSt7__cxx1112basic_stringIcSt11char_traitsIcESaIcEEES5_
FN:82,104,_ZN5neml214ParameterStore17declare_parameterINS_3SR2EvEERKT_RKNSt7__cxx1112basic_stringIcSt11char_traitsIcESaIcEEES5_
FN:82,104,_ZN5neml214ParameterStore17declare_parameterINS_3VecEvEERKT_RKNSt7__cxx1112basic_stringIcSt11char_traitsIcESaIcEEES5_
FN:82,104,_ZN5neml214ParameterStore17declare_parameterINS_3WR2EvEERKT_RKNSt7__cxx1112basic_stringIcSt11char_traitsIcESaIcEEES5_
FN:82,104,_ZN5neml214ParameterStore17declare_parameterINS_4SFR3EvEERKT_RKNSt7__cxx1112basic_stringIcSt11char_traitsIcESaIcEEES5_
FN:82,104,_ZN5neml214ParameterStore17declare_parameterINS_4SFR4EvEERKT_RKNSt7__cxx1112basic_stringIcSt11char_traitsIcESaIcEEES5_
FN:82,104,_ZN5neml214ParameterStore17declare_parameterINS_4SSR4EvEERKT_RKNSt7__cxx1112basic_stringIcSt11char_traitsIcESaIcEEES5_
FN:82,104,_ZN5neml214ParameterStore17declare_parameterINS_4SWR4EvEERKT_RKNSt7__cxx1112basic_stringIcSt11char_traitsIcESaIcEEES5_
FN:82,104,_ZN5neml214ParameterStore17declare_parameterINS_4WFR4EvEERKT_RKNSt7__cxx1112basic_stringIcSt11char_traitsIcESaIcEEES5_
FN:82,104,_ZN5neml214ParameterStore17declare_parameterINS_4WSR4EvEERKT_RKNSt7__cxx1112basic_stringIcSt11char_traitsIcESaIcEEES5_
FN:82,104,_ZN5neml214ParameterStore17declare_parameterINS_4WWR4EvEERKT_RKNSt7__cxx1112basic_stringIcSt11char_traitsIcESaIcEEES5_
FN:82,104,_ZN5neml214ParameterStore17declare_parameterINS_5SFFR4EvEERKT_RKNSt7__cxx1112basic_stringIcSt11char_traitsIcESaIcEEES5_
FN:82,104,_ZN5neml214ParameterStore17declare_parameterINS_5SSFR5EvEERKT_RKNSt7__cxx1112basic_stringIcSt11char_traitsIcESaIcEEES5_
FN:82,104,_ZN5neml214ParameterStore17declare_parameterINS_6SSSSR8EvEERKT_RKNSt7__cxx1112basic_stringIcSt11char_traitsIcESaIcEEES5_
FN:82,104,_ZN5neml214ParameterStore17declare_parameterINS_6ScalarEvEERKT_RKNSt7__cxx1112basic_stringIcSt11char_traitsIcESaIcEEES5_
FN:82,104,_ZN5neml214ParameterStore17declare_parameterINS_6TensorEvEERKT_RKNSt7__cxx1112basic_stringIcSt11char_traitsIcESaIcEEES5_
FNDA:0,_ZN5neml219resolve_tensor_nameINS_10QuaternionEEERKT_RKNS_10TensorNameIS2_EEPNS_5ModelERKNSt7__cxx1112basic_stringIcSt11char_traitsIcESaIcEEE
FNDA:0,_ZN5neml219resolve_tensor_nameINS_11MillerIndexEEERKT_RKNS_10TensorNameIS2_EEPNS_5ModelERKNSt7__cxx1112basic_stringIcSt11char_traitsIcESaIcEEE
FNDA:0,_ZN5neml219resolve_tensor_nameINS_2R2EEERKT_RKNS_10TensorNameIS2_EEPNS_5ModelERKNSt7__cxx1112basic_stringIcSt11char_traitsIcESaIcEEE
FNDA:0,_ZN5neml219resolve_tensor_nameINS_2R3EEERKT_RKNS_10TensorNameIS2_EEPNS_5ModelERKNSt7__cxx1112basic_stringIcSt11char_traitsIcESaIcEEE
FNDA:0,_ZN5neml219resolve_tensor_nameINS_2R4EEERKT_RKNS_10TensorNameIS2_EEPNS_5ModelERKNSt7__cxx1112basic_stringIcSt11char_traitsIcESaIcEEE
FNDA:0,_ZN5neml219resolve_tensor_nameINS_2R5EEERKT_RKNS_10TensorNameIS2_EEPNS_5ModelERKNSt7__cxx1112basic_stringIcSt11char_traitsIcESaIcEEE
FNDA:0,_ZN5neml219resolve_tensor_nameINS_2R8EEERKT_RKNS_10TensorNameIS2_EEPNS_5ModelERKNSt7__cxx1112basic_stringIcSt11char_traitsIcESaIcEEE
FNDA:0,_ZN5neml219resolve_tensor_nameINS_3RotEEERKT_RKNS_10TensorNameIS2_EEPNS_5ModelERKNSt7__cxx1112basic_stringIcSt11char_traitsIcESaIcEEE
FNDA:0,_ZN5neml219resolve_tensor_nameINS_3SR2EEERKT_RKNS_10TensorNameIS2_EEPNS_5ModelERKNSt7__cxx1112basic_stringIcSt11char_traitsIcESaIcEEE
FNDA:0,_ZN5neml219resolve_tensor_nameINS_3VecEEERKT_RKNS_10TensorNameIS2_EEPNS_5ModelERKNSt7__cxx1112basic_stringIcSt11char_traitsIcESaIcEEE
FNDA:0,_ZN5neml219resolve_tensor_nameINS_3WR2EEERKT_RKNS_10TensorNameIS2_EEPNS_5ModelERKNSt7__cxx1112basic_stringIcSt11char_traitsIcESaIcEEE
FNDA:0,_ZN5neml219resolve_tensor_nameINS_4SFR3EEERKT_RKNS_10TensorNameIS2_EEPNS_5ModelERKNSt7__cxx1112basic_stringIcSt11char_traitsIcESaIcEEE
FNDA:0,_ZN5neml219resolve_tensor_nameINS_4SFR4EEERKT_RKNS_10TensorNameIS2_EEPNS_5ModelERKNSt7__cxx1112basic_stringIcSt11char_traitsIcESaIcEEE
FNDA:2,_ZN5neml219resolve_tensor_nameINS_4SSR4EEERKT_RKNS_10TensorNameIS2_EEPNS_5ModelERKNSt7__cxx1112basic_stringIcSt11char_traitsIcESaIcEEE
FNDA:0,_ZN5neml219resolve_tensor_nameINS_4SWR4EEERKT_RKNS_10TensorNameIS2_EEPNS_5ModelERKNSt7__cxx1112basic_stringIcSt11char_traitsIcESaIcEEE
FNDA:0,_ZN5neml219resolve_tensor_nameINS_4WFR4EEERKT_RKNS_10TensorNameIS2_EEPNS_5ModelERKNSt7__cxx1112basic_stringIcSt11char_traitsIcESaIcEEE
FNDA:0,_ZN5neml219resolve_tensor_nameINS_4WSR4EEERKT_RKNS_10TensorNameIS2_EEPNS_5ModelERKNSt7__cxx1112basic_stringIcSt11char_traitsIcESaIcEEE
FNDA:0,_ZN5neml219resolve_tensor_nameINS_4WWR4EEERKT_RKNS_10TensorNameIS2_EEPNS_5ModelERKNSt7__cxx1112basic_stringIcSt11char_traitsIcESaIcEEE
FNDA:0,_ZN5neml219resolve_tensor_nameINS_5SFFR4EEERKT_RKNS_10TensorNameIS2_EEPNS_5ModelERKNSt7__cxx1112basic_stringIcSt11char_traitsIcESaIcEEE
FNDA:0,_ZN5neml219resolve_tensor_nameINS_5SSFR5EEERKT_RKNS_10TensorNameIS2_EEPNS_5ModelERKNSt7__cxx1112basic_stringIcSt11char_traitsIcESaIcEEE
FNDA:0,_ZN5neml219resolve_tensor_nameINS_6SSSSR8EEERKT_RKNS_10TensorNameIS2_EEPNS_5ModelERKNSt7__cxx1112basic_stringIcSt11char_traitsIcESaIcEEE
FNDA:76,_ZN5neml219resolve_tensor_nameINS_6ScalarEEERKT_RKNS_10TensorNameIS2_EEPNS_5ModelERKNSt7__cxx1112basic_stringIcSt11char_traitsIcESaIcEEE
FNDA:0,_ZN5neml214ParameterStore17declare_parameterINS_10QuaternionEvEERKT_RKNSt7__cxx1112basic_stringIcSt11char_traitsIcESaIcEEERKNS_10TensorNameIS3_EEb
FNDA:0,_ZN5neml214ParameterStore17declare_parameterINS_11MillerIndexEvEERKT_RKNSt7__cxx1112basic_stringIcSt11char_traitsIcESaIcEEERKNS_10TensorNameIS3_EEb
FNDA:0,_ZN5neml214ParameterStore17declare_parameterINS_2R2EvEERKT_RKNSt7__cxx1112basic_stringIcSt11char_traitsIcESaIcEEERKNS_10TensorNameIS3_EEb
FNDA:0,_ZN5neml214ParameterStore17declare_parameterINS_2R3EvEERKT_RKNSt7__cxx1112basic_stringIcSt11char_traitsIcESaIcEEERKNS_10TensorNameIS3_EEb
FNDA:0,_ZN5neml214ParameterStore17declare_parameterINS_2R4EvEERKT_RKNSt7__cxx1112basic_stringIcSt11char_traitsIcESaIcEEERKNS_10TensorNameIS3_EEb
FNDA:0,_ZN5neml214ParameterStore17declare_parameterINS_2R5EvEERKT_RKNSt7__cxx1112basic_stringIcSt11char_traitsIcESaIcEEERKNS_10TensorNameIS3_EEb
FNDA:0,_ZN5neml214ParameterStore17declare_parameterINS_2R8EvEERKT_RKNSt7__cxx1112basic_stringIcSt11char_traitsIcESaIcEEERKNS_10TensorNameIS3_EEb
FNDA:0,_ZN5neml214ParameterStore17declare_parameterINS_3RotEvEERKT_RKNSt7__cxx1112basic_stringIcSt11char_traitsIcESaIcEEERKNS_10TensorNameIS3_EEb
FNDA:5,_ZN5neml214ParameterStore17declare_parameterINS_3SR2EvEERKT_RKNSt7__cxx1112basic_stringIcSt11char_traitsIcESaIcEEERKNS_10TensorNameIS3_EEb
FNDA:0,_ZN5neml214ParameterStore17declare_parameterINS_3VecEvEERKT_RKNSt7__cxx1112basic_stringIcSt11char_traitsIcESaIcEEERKNS_10TensorNameIS3_EEb
FNDA:0,_ZN5neml214ParameterStore17declare_parameterINS_3WR2EvEERKT_RKNSt7__cxx1112basic_stringIcSt11char_traitsIcESaIcEEERKNS_10TensorNameIS3_EEb
FNDA:0,_ZN5neml214ParameterStore17declare_parameterINS_4SFR3EvEERKT_RKNSt7__cxx1112basic_stringIcSt11char_traitsIcESaIcEEERKNS_10TensorNameIS3_EEb
FNDA:0,_ZN5neml214ParameterStore17declare_parameterINS_4SFR4EvEERKT_RKNSt7__cxx1112basic_stringIcSt11char_traitsIcESaIcEEERKNS_10TensorNameIS3_EEb
FNDA:5,_ZN5neml214ParameterStore17declare_parameterINS_4SSR4EvEERKT_RKNSt7__cxx1112basic_stringIcSt11char_traitsIcESaIcEEERKNS_10TensorNameIS3_EEb
FNDA:0,_ZN5neml214ParameterStore17declare_parameterINS_4SWR4EvEERKT_RKNSt7__cxx1112basic_stringIcSt11char_traitsIcESaIcEEERKNS_10TensorNameIS3_EEb
FNDA:0,_ZN5neml214ParameterStore17declare_parameterINS_4WFR4EvEERKT_RKNSt7__cxx1112basic_stringIcSt11char_traitsIcESaIcEEERKNS_10TensorNameIS3_EEb
FNDA:0,_ZN5neml214ParameterStore17declare_parameterINS_4WSR4EvEERKT_RKNSt7__cxx1112basic_stringIcSt11char_traitsIcESaIcEEERKNS_10TensorNameIS3_EEb
FNDA:0,_ZN5neml214ParameterStore17declare_parameterINS_4WWR4EvEERKT_RKNSt7__cxx1112basic_stringIcSt11char_traitsIcESaIcEEERKNS_10TensorNameIS3_EEb
FNDA:0,_ZN5neml214ParameterStore17declare_parameterINS_5SFFR4EvEERKT_RKNSt7__cxx1112basic_stringIcSt11char_traitsIcESaIcEEERKNS_10TensorNameIS3_EEb
FNDA:0,_ZN5neml214ParameterStore17declare_parameterINS_5SSFR5EvEERKT_RKNSt7__cxx1112basic_stringIcSt11char_traitsIcESaIcEEERKNS_10TensorNameIS3_EEb
FNDA:0,_ZN5neml214ParameterStore17declare_parameterINS_6SSSSR8EvEERKT_RKNSt7__cxx1112basic_stringIcSt11char_traitsIcESaIcEEERKNS_10TensorNameIS3_EEb
FNDA:299,_ZN5neml214ParameterStore17declare_parameterINS_6ScalarEvEERKT_RKNSt7__cxx1112basic_stringIcSt11char_traitsIcESaIcEEERKNS_10TensorNameIS3_EEb
FNDA:0,_ZN5neml214ParameterStore17declare_parameterINS_10QuaternionEvEERKT_RKNSt7__cxx1112basic_stringIcSt11char_traitsIcESaIcEEESD_b
FNDA:0,_ZN5neml214ParameterStore17declare_parameterINS_11MillerIndexEvEERKT_RKNSt7__cxx1112basic_stringIcSt11char_traitsIcESaIcEEESD_b
FNDA:0,_ZN5neml214ParameterStore17declare_parameterINS_2R2EvEERKT_RKNSt7__cxx1112basic_stringIcSt11char_traitsIcESaIcEEESD_b
FNDA:0,_ZN5neml214ParameterStore17declare_parameterINS_2R3EvEERKT_RKNSt7__cxx1112basic_stringIcSt11char_traitsIcESaIcEEESD_b
FNDA:0,_ZN5neml214ParameterStore17declare_parameterINS_2R4EvEERKT_RKNSt7__cxx1112basic_stringIcSt11char_traitsIcESaIcEEESD_b
FNDA:0,_ZN5neml214ParameterStore17declare_parameterINS_2R5EvEERKT_RKNSt7__cxx1112basic_stringIcSt11char_traitsIcESaIcEEESD_b
FNDA:0,_ZN5neml214ParameterStore17declare_parameterINS_2R8EvEERKT_RKNSt7__cxx1112basic_stringIcSt11char_traitsIcESaIcEEESD_b
FNDA:0,_ZN5neml214ParameterStore17declare_parameterINS_3RotEvEERKT_RKNSt7__cxx1112basic_stringIcSt11char_traitsIcESaIcEEESD_b
FNDA:5,_ZN5neml214ParameterStore17declare_parameterINS_3SR2EvEERKT_RKNSt7__cxx1112basic_stringIcSt11char_traitsIcESaIcEEESD_b
FNDA:0,_ZN5neml214ParameterStore17declare_parameterINS_3VecEvEERKT_RKNSt7__cxx1112basic_stringIcSt11char_traitsIcESaIcEEESD_b
FNDA:0,_ZN5neml214ParameterStore17declare_parameterINS_3WR2EvEERKT_RKNSt7__cxx1112basic_stringIcSt11char_traitsIcESaIcEEESD_b
FNDA:0,_ZN5neml214ParameterStore17declare_parameterINS_4SFR3EvEERKT_RKNSt7__cxx1112basic_stringIcSt11char_traitsIcESaIcEEESD_b
FNDA:0,_ZN5neml214ParameterStore17declare_parameterINS_4SFR4EvEERKT_RKNSt7__cxx1112basic_stringIcSt11char_traitsIcESaIcEEESD_b
FNDA:5,_ZN5neml214ParameterStore17declare_parameterINS_4SSR4EvEERKT_RKNSt7__cxx1112basic_stringIcSt11char_traitsIcESaIcEEESD_b
FNDA:0,_ZN5neml214ParameterStore17declare_parameterINS_4SWR4EvEERKT_RKNSt7__cxx1112basic_stringIcSt11char_traitsIcESaIcEEESD_b
FNDA:0,_ZN5neml214ParameterStore17declare_parameterINS_4WFR4EvEERKT_RKNSt7__cxx1112basic_stringIcSt11char_traitsIcESaIcEEESD_b
FNDA:0,_ZN5neml214ParameterStore17declare_parameterINS_4WSR4EvEERKT_RKNSt7__cxx1112basic_stringIcSt11char_traitsIcESaIcEEESD_b
FNDA:0,_ZN5neml214ParameterStore17declare_parameterINS_4WWR4EvEERKT_RKNSt7__cxx1112basic_stringIcSt11char_traitsIcESaIcEEESD_b
FNDA:0,_ZN5neml214ParameterStore17declare_parameterINS_5SFFR4EvEERKT_RKNSt7__cxx1112basic_stringIcSt11char_traitsIcESaIcEEESD_b
FNDA:0,_ZN5neml214ParameterStore17declare_parameterINS_5SSFR5EvEERKT_RKNSt7__cxx1112basic_stringIcSt11char_traitsIcESaIcEEESD_b
FNDA:0,_ZN5neml214ParameterStore17declare_parameterINS_6SSSSR8EvEERKT_RKNSt7__cxx1112basic_stringIcSt11char_traitsIcESaIcEEESD_b
FNDA:209,_ZN5neml214ParameterStore17declare_parameterINS_6ScalarEvEERKT_RKNSt7__cxx1112basic_stringIcSt11char_traitsIcESaIcEEESD_b
FNDA:450,_ZN5neml214ParameterStore22assign_parameter_stackERSt6vectorIN3c106IValueESaIS3_EE
FNDA:6956,_ZNK5neml214ParameterStore23collect_parameter_stackEv
FNDA:479,_ZN5neml214ParameterStoreC2EPNS_5ModelE
FNDA:91,_ZN5neml214ParameterStore18send_parameters_toERKN3c1013TensorOptionsE
FNDA:804,_ZN5neml214ParameterStore13set_parameterERKNSt7__cxx1112basic_stringIcSt11char_traitsIcESaIcEEERKNS_6TensorE
FNDA:7,_ZN5neml214ParameterStore13get_parameterERKNSt7__cxx1112basic_stringIcSt11char_traitsIcESaIcEEE
FNDA:0,_ZN5neml214ParameterStore14set_parametersERKSt3mapINSt7__cxx1112basic_stringIcSt11char_traitsIcESaIcEEENS_6TensorESt4lessIS7_ESaISt4pairIKS7_S8_EEE
FNDA:175096,_ZN5neml214ParameterStore16named_parametersB5cxx11Ev
FNDA:0,_ZN5neml214ParameterStore17declare_parameterINS_10QuaternionEvEERKT_RKNSt7__cxx1112basic_stringIcSt11char_traitsIcESaIcEEES5_
FNDA:0,_ZN5neml214ParameterStore17declare_parameterINS_11MillerIndexEvEERKT_RKNSt7__cxx1112basic_stringIcSt11char_traitsIcESaIcEEES5_
FNDA:0,_ZN5neml214ParameterStore17declare_parameterINS_2R2EvEERKT_RKNSt7__cxx1112basic_stringIcSt11char_traitsIcESaIcEEES5_
FNDA:0,_ZN5neml214ParameterStore17declare_parameterINS_2R3EvEERKT_RKNSt7__cxx1112basic_stringIcSt11char_traitsIcESaIcEEES5_
FNDA:0,_ZN5neml214ParameterStore17declare_parameterINS_2R4EvEERKT_RKNSt7__cxx1112basic_stringIcSt11char_traitsIcESaIcEEES5_
FNDA:0,_ZN5neml214ParameterStore17declare_parameterINS_2R5EvEERKT_RKNSt7__cxx1112basic_stringIcSt11char_traitsIcESaIcEEES5_
FNDA:0,_ZN5neml214ParameterStore17declare_parameterINS_2R8EvEERKT_RKNSt7__cxx1112basic_stringIcSt11char_traitsIcESaIcEEES5_
FNDA:0,_ZN5neml214ParameterStore17declare_parameterINS_3RotEvEERKT_RKNSt7__cxx1112basic_stringIcSt11char_traitsIcESaIcEEES5_
FNDA:5,_ZN5neml214ParameterStore17declare_parameterINS_3SR2EvEERKT_RKNSt7__cxx1112basic_stringIcSt11char_traitsIcESaIcEEES5_
FNDA:0,_ZN5neml214ParameterStore17declare_parameterINS_3VecEvEERKT_RKNSt7__cxx1112basic_stringIcSt11char_traitsIcESaIcEEES5_
FNDA:0,_ZN5neml214ParameterStore17declare_parameterINS_3WR2EvEERKT_RKNSt7__cxx1112basic_stringIcSt11char_traitsIcESaIcEEES5_
FNDA:0,_ZN5neml214ParameterStore17declare_parameterINS_4SFR3EvEERKT_RKNSt7__cxx1112basic_stringIcSt11char_traitsIcESaIcEEES5_
FNDA:0,_ZN5neml214ParameterStore17declare_parameterINS_4SFR4EvEERKT_RKNSt7__cxx1112basic_stringIcSt11char_traitsIcESaIcEEES5_
FNDA:3,_ZN5neml214ParameterStore17declare_parameterINS_4SSR4EvEERKT_RKNSt7__cxx1112basic_stringIcSt11char_traitsIcESaIcEEES5_
FNDA:0,_ZN5neml214ParameterStore17declare_parameterINS_4SWR4EvEERKT_RKNSt7__cxx1112basic_stringIcSt11char_traitsIcESaIcEEES5_
FNDA:0,_ZN5neml214ParameterStore17declare_parameterINS_4WFR4EvEERKT_RKNSt7__cxx1112basic_stringIcSt11char_traitsIcESaIcEEES5_
FNDA:0,_ZN5neml214ParameterStore17declare_parameterINS_4WSR4EvEERKT_RKNSt7__cxx1112basic_stringIcSt11char_traitsIcESaIcEEES5_
FNDA:0,_ZN5neml214ParameterStore17declare_parameterINS_4WWR4EvEERKT_RKNSt7__cxx1112basic_stringIcSt11char_traitsIcESaIcEEES5_
FNDA:0,_ZN5neml214ParameterStore17declare_parameterINS_5SFFR4EvEERKT_RKNSt7__cxx1112basic_stringIcSt11char_traitsIcESaIcEEES5_
FNDA:0,_ZN5neml214ParameterStore17declare_parameterINS_5SSFR5EvEERKT_RKNSt7__cxx1112basic_stringIcSt11char_traitsIcESaIcEEES5_
FNDA:0,_ZN5neml214ParameterStore17declare_parameterINS_6SSSSR8EvEERKT_RKNSt7__cxx1112basic_stringIcSt11char_traitsIcESaIcEEES5_
FNDA:338,_ZN5neml214ParameterStore17declare_parameterINS_6ScalarEvEERKT_RKNSt7__cxx1112basic_stringIcSt11char_traitsIcESaIcEEES5_
FNDA:0,_ZN5neml214ParameterStore17declare_parameterINS_6TensorEvEERKT_RKNSt7__cxx1112basic_stringIcSt11char_traitsIcESaIcEEES5_
FNF:97
FNH:18
DA:37,479
DA:38,479
DA:40,479
DA:43,91
DA:45,130
DA:46,39
DA:47,91
DA:50,804
DA:52,804
DA:53,804
DA:54,804
DA:55,804
DA:58,7
DA:60,7
DA:61,7
DA:62,7
DA:66,0
DA:68,0
DA:69,0
DA:70,0
DA:73,175096
DA:75,175096
DA:77,175096
DA:82,346
DA:84,346
DA:85,264
DA:86,176
DA:88,258
DA:91,258
DA:92,5
DA:96,253
DA:97,253
DA:98,253
DA:99,253
DA:101,258
DA:102,258
DA:103,258
DA:108,78
DA:110,78
DA:111,0
DA:118,78
DA:119,156
DA:125,78
DA:126,78
DA:130,78
DA:131,78
DA:132,0
DA:138,78
DA:141,78
DA:145,223
DA:149,11
DA:150,11
DA:151,0
DA:152,0
DA:154,11
DA:155,0
DA:156,0
DA:162,0
DA:165,11
DA:168,134
DA:170,67
DA:171,67
DA:172,0
DA:173,0
DA:178,0
DA:181,67
DA:182,67
DA:183,67
DA:184,134
DA:185,134
DA:186,134
DA:187,268
DA:188,67
DA:189,67
DA:190,67
DA:191,201
DA:193,4
DA:194,2
DA:195,0
DA:200,195
DA:203,134
DA:207,67
DA:208,67
DA:213,0
DA:216,0
DA:220,0
DA:221,0
DA:222,0
DA:224,0
DA:225,0
DA:231,78
DA:234,78
DA:235,78
DA:236,78
DA:237,0
DA:247,78
DA:250,156
DA:251,156
DA:255,309
DA:259,309
DA:260,309
DA:264,309
DA:266,156
DA:268,78
DA:271,78
DA:273,0
DA:275,0
DA:278,0
DA:281,0
DA:282,0
DA:291,219
DA:295,219
DA:296,438
DA:297,657
DA:299,0
DA:317,450
DA:319,450
DA:321,450
DA:323,450
DA:325,450
DA:329,450
DA:330,1020
DA:332,570
DA:333,570
DA:334,570
DA:337,450
DA:338,450
DA:341,6956
DA:343,6956
DA:344,6956
DA:345,6956
DA:346,23573
DA:347,16617
DA:348,6956
DA:349,0
LF:135
LH:105
end_of_record
TN:
SF:/home/runner/work/neml2/neml2/src/neml2/models/ParameterToState.cxx
FN:33,47,_ZN5neml216ParameterToStateINS_10QuaternionEE16expected_optionsEv
FN:33,47,_ZN5neml216ParameterToStateINS_11MillerIndexEE16expected_optionsEv
FN:33,47,_ZN5neml216ParameterToStateINS_2R2EE16expected_optionsEv
FN:33,47,_ZN5neml216ParameterToStateINS_2R3EE16expected_optionsEv
FN:33,47,_ZN5neml216ParameterToStateINS_2R4EE16expected_optionsEv
FN:33,47,_ZN5neml216ParameterToStateINS_2R5EE16expected_optionsEv
FN:33,47,_ZN5neml216ParameterToStateINS_2R8EE16expected_optionsEv
FN:33,47,_ZN5neml216ParameterToStateINS_3RotEE16expected_optionsEv
FN:33,47,_ZN5neml216ParameterToStateINS_3SR2EE16expected_optionsEv
FN:33,47,_ZN5neml216ParameterToStateINS_3VecEE16expected_optionsEv
FN:33,47,_ZN5neml216ParameterToStateINS_3WR2EE16expected_optionsEv
FN:33,47,_ZN5neml216ParameterToStateINS_4SFR3EE16expected_optionsEv
FN:33,47,_ZN5neml216ParameterToStateINS_4SFR4EE16expected_optionsEv
FN:33,47,_ZN5neml216ParameterToStateINS_4SSR4EE16expected_optionsEv
FN:33,47,_ZN5neml216ParameterToStateINS_4SWR4EE16expected_optionsEv
FN:33,47,_ZN5neml216ParameterToStateINS_4WFR4EE16expected_optionsEv
FN:33,47,_ZN5neml216ParameterToStateINS_4WSR4EE16expected_optionsEv
FN:33,47,_ZN5neml216ParameterToStateINS_4WWR4EE16expected_optionsEv
FN:33,47,_ZN5neml216ParameterToStateINS_5SFFR4EE16expected_optionsEv
FN:33,47,_ZN5neml216ParameterToStateINS_5SSFR5EE16expected_optionsEv
FN:33,47,_ZN5neml216ParameterToStateINS_6SSSSR8EE16expected_optionsEv
FN:33,47,_ZN5neml216ParameterToStateINS_6ScalarEE16expected_optionsEv
FN:50,57,_ZN5neml216ParameterToStateINS_10QuaternionEEC2ERKNS_9OptionSetE
FN:50,57,_ZN5neml216ParameterToStateINS_11MillerIndexEEC2ERKNS_9OptionSetE
FN:50,57,_ZN5neml216ParameterToStateINS_2R2EEC2ERKNS_9OptionSetE
FN:50,57,_ZN5neml216ParameterToStateINS_2R3EEC2ERKNS_9OptionSetE
FN:50,57,_ZN5neml216ParameterToStateINS_2R4EEC2ERKNS_9OptionSetE
FN:50,57,_ZN5neml216ParameterToStateINS_2R5EEC2ERKNS_9OptionSetE
FN:50,57,_ZN5neml216ParameterToStateINS_2R8EEC2ERKNS_9OptionSetE
FN:50,57,_ZN5neml216ParameterToStateINS_3RotEEC2ERKNS_9OptionSetE
FN:50,57,_ZN5neml216ParameterToStateINS_3SR2EEC2ERKNS_9OptionSetE
FN:50,57,_ZN5neml216ParameterToStateINS_3VecEEC2ERKNS_9OptionSetE
FN:50,57,_ZN5neml216ParameterToStateINS_3WR2EEC2ERKNS_9OptionSetE
FN:50,57,_ZN5neml216ParameterToStateINS_4SFR3EEC2ERKNS_9OptionSetE
FN:50,57,_ZN5neml216ParameterToStateINS_4SFR4EEC2ERKNS_9OptionSetE
FN:50,57,_ZN5neml216ParameterToStateINS_4SSR4EEC2ERKNS_9OptionSetE
FN:50,57,_ZN5neml216ParameterToStateINS_4SWR4EEC2ERKNS_9OptionSetE
FN:50,57,_ZN5neml216ParameterToStateINS_4WFR4EEC2ERKNS_9OptionSetE
FN:50,57,_ZN5neml216ParameterToStateINS_4WSR4EEC2ERKNS_9OptionSetE
FN:50,57,_ZN5neml216ParameterToStateINS_4WWR4EEC2ERKNS_9OptionSetE
FN:50,57,_ZN5neml216ParameterToStateINS_5SFFR4EEC2ERKNS_9OptionSetE
FN:50,57,_ZN5neml216ParameterToStateINS_5SSFR5EEC2ERKNS_9OptionSetE
FN:50,57,_ZN5neml216ParameterToStateINS_6SSSSR8EEC2ERKNS_9OptionSetE
FN:50,57,_ZN5neml216ParameterToStateINS_6ScalarEEC2ERKNS_9OptionSetE
FN:61,67,_ZN5neml216ParameterToStateINS_10QuaternionEE9set_valueEbbb
FN:61,67,_ZN5neml216ParameterToStateINS_11MillerIndexEE9set_valueEbbb
FN:61,67,_ZN5neml216ParameterToStateINS_2R2EE9set_valueEbbb
FN:61,67,_ZN5neml216ParameterToStateINS_2R3EE9set_valueEbbb
FN:61,67,_ZN5neml216ParameterToStateINS_2R4EE9set_valueEbbb
FN:61,67,_ZN5neml216ParameterToStateINS_2R5EE9set_valueEbbb
FN:61,67,_ZN5neml216ParameterToStateINS_2R8EE9set_valueEbbb
FN:61,67,_ZN5neml216ParameterToStateINS_3RotEE9set_valueEbbb
FN:61,67,_ZN5neml216ParameterToStateINS_3SR2EE9set_valueEbbb
FN:61,67,_ZN5neml216ParameterToStateINS_3VecEE9set_valueEbbb
FN:61,67,_ZN5neml216ParameterToStateINS_3WR2EE9set_valueEbbb
FN:61,67,_ZN5neml216ParameterToStateINS_4SFR3EE9set_valueEbbb
FN:61,67,_ZN5neml216ParameterToStateINS_4SFR4EE9set_valueEbbb
FN:61,67,_ZN5neml216ParameterToStateINS_4SSR4EE9set_valueEbbb
FN:61,67,_ZN5neml216ParameterToStateINS_4SWR4EE9set_valueEbbb
FN:61,67,_ZN5neml216ParameterToStateINS_4WFR4EE9set_valueEbbb
FN:61,67,_ZN5neml216ParameterToStateINS_4WSR4EE9set_valueEbbb
FN:61,67,_ZN5neml216ParameterToStateINS_4WWR4EE9set_valueEbbb
FN:61,67,_ZN5neml216ParameterToStateINS_5SFFR4EE9set_valueEbbb
FN:61,67,_ZN5neml216ParameterToStateINS_5SSFR5EE9set_valueEbbb
FN:61,67,_ZN5neml216ParameterToStateINS_6SSSSR8EE9set_valueEbbb
FN:61,67,_ZN5neml216ParameterToStateINS_6ScalarEE9set_valueEbbb
FNDA:2,_ZN5neml216ParameterToStateINS_10QuaternionEE16expected_optionsEv
FNDA:2,_ZN5neml216ParameterToStateINS_11MillerIndexEE16expected_optionsEv
FNDA:2,_ZN5neml216ParameterToStateINS_2R2EE16expected_optionsEv
FNDA:2,_ZN5neml216ParameterToStateINS_2R3EE16expected_optionsEv
FNDA:2,_ZN5neml216ParameterToStateINS_2R4EE16expected_optionsEv
FNDA:2,_ZN5neml216ParameterToStateINS_2R5EE16expected_optionsEv
FNDA:2,_ZN5neml216ParameterToStateINS_2R8EE16expected_optionsEv
FNDA:2,_ZN5neml216ParameterToStateINS_3RotEE16expected_optionsEv
FNDA:2,_ZN5neml216ParameterToStateINS_3SR2EE16expected_optionsEv
FNDA:2,_ZN5neml216ParameterToStateINS_3VecEE16expected_optionsEv
FNDA:2,_ZN5neml216ParameterToStateINS_3WR2EE16expected_optionsEv
FNDA:2,_ZN5neml216ParameterToStateINS_4SFR3EE16expected_optionsEv
FNDA:2,_ZN5neml216ParameterToStateINS_4SFR4EE16expected_optionsEv
FNDA:2,_ZN5neml216ParameterToStateINS_4SSR4EE16expected_optionsEv
FNDA:2,_ZN5neml216ParameterToStateINS_4SWR4EE16expected_optionsEv
FNDA:2,_ZN5neml216ParameterToStateINS_4WFR4EE16expected_optionsEv
FNDA:2,_ZN5neml216ParameterToStateINS_4WSR4EE16expected_optionsEv
FNDA:2,_ZN5neml216ParameterToStateINS_4WWR4EE16expected_optionsEv
FNDA:2,_ZN5neml216ParameterToStateINS_5SFFR4EE16expected_optionsEv
FNDA:2,_ZN5neml216ParameterToStateINS_5SSFR5EE16expected_optionsEv
FNDA:2,_ZN5neml216ParameterToStateINS_6SSSSR8EE16expected_optionsEv
FNDA:2,_ZN5neml216ParameterToStateINS_6ScalarEE16expected_optionsEv
FNDA:0,_ZN5neml216ParameterToStateINS_10QuaternionEEC2ERKNS_9OptionSetE
FNDA:0,_ZN5neml216ParameterToStateINS_11MillerIndexEEC2ERKNS_9OptionSetE
FNDA:0,_ZN5neml216ParameterToStateINS_2R2EEC2ERKNS_9OptionSetE
FNDA:0,_ZN5neml216ParameterToStateINS_2R3EEC2ERKNS_9OptionSetE
FNDA:0,_ZN5neml216ParameterToStateINS_2R4EEC2ERKNS_9OptionSetE
FNDA:0,_ZN5neml216ParameterToStateINS_2R5EEC2ERKNS_9OptionSetE
FNDA:0,_ZN5neml216ParameterToStateINS_2R8EEC2ERKNS_9OptionSetE
FNDA:0,_ZN5neml216ParameterToStateINS_3RotEEC2ERKNS_9OptionSetE
FNDA:0,_ZN5neml216ParameterToStateINS_3SR2EEC2ERKNS_9OptionSetE
FNDA:0,_ZN5neml216ParameterToStateINS_3VecEEC2ERKNS_9OptionSetE
FNDA:0,_ZN5neml216ParameterToStateINS_3WR2EEC2ERKNS_9OptionSetE
FNDA:0,_ZN5neml216ParameterToStateINS_4SFR3EEC2ERKNS_9OptionSetE
FNDA:0,_ZN5neml216ParameterToStateINS_4SFR4EEC2ERKNS_9OptionSetE
FNDA:0,_ZN5neml216ParameterToStateINS_4SSR4EEC2ERKNS_9OptionSetE
FNDA:0,_ZN5neml216ParameterToStateINS_4SWR4EEC2ERKNS_9OptionSetE
FNDA:0,_ZN5neml216ParameterToStateINS_4WFR4EEC2ERKNS_9OptionSetE
FNDA:0,_ZN5neml216ParameterToStateINS_4WSR4EEC2ERKNS_9OptionSetE
FNDA:0,_ZN5neml216ParameterToStateINS_4WWR4EEC2ERKNS_9OptionSetE
FNDA:0,_ZN5neml216ParameterToStateINS_5SFFR4EEC2ERKNS_9OptionSetE
FNDA:0,_ZN5neml216ParameterToStateINS_5SSFR5EEC2ERKNS_9OptionSetE
FNDA:0,_ZN5neml216ParameterToStateINS_6SSSSR8EEC2ERKNS_9OptionSetE
FNDA:1,_ZN5neml216ParameterToStateINS_6ScalarEEC2ERKNS_9OptionSetE
FNDA:0,_ZN5neml216ParameterToStateINS_10QuaternionEE9set_valueEbbb
FNDA:0,_ZN5neml216ParameterToStateINS_11MillerIndexEE9set_valueEbbb
FNDA:0,_ZN5neml216ParameterToStateINS_2R2EE9set_valueEbbb
FNDA:0,_ZN5neml216ParameterToStateINS_2R3EE9set_valueEbbb
FNDA:0,_ZN5neml216ParameterToStateINS_2R4EE9set_valueEbbb
FNDA:0,_ZN5neml216ParameterToStateINS_2R5EE9set_valueEbbb
FNDA:0,_ZN5neml216ParameterToStateINS_2R8EE9set_valueEbbb
FNDA:0,_ZN5neml216ParameterToStateINS_3RotEE9set_valueEbbb
FNDA:0,_ZN5neml216ParameterToStateINS_3SR2EE9set_valueEbbb
FNDA:0,_ZN5neml216ParameterToStateINS_3VecEE9set_valueEbbb
FNDA:0,_ZN5neml216ParameterToStateINS_3WR2EE9set_valueEbbb
FNDA:0,_ZN5neml216ParameterToStateINS_4SFR3EE9set_valueEbbb
FNDA:0,_ZN5neml216ParameterToStateINS_4SFR4EE9set_valueEbbb
FNDA:0,_ZN5neml216ParameterToStateINS_4SSR4EE9set_valueEbbb
FNDA:0,_ZN5neml216ParameterToStateINS_4SWR4EE9set_valueEbbb
FNDA:0,_ZN5neml216ParameterToStateINS_4WFR4EE9set_valueEbbb
FNDA:0,_ZN5neml216ParameterToStateINS_4WSR4EE9set_valueEbbb
FNDA:0,_ZN5neml216ParameterToStateINS_4WWR4EE9set_valueEbbb
FNDA:0,_ZN5neml216ParameterToStateINS_5SFFR4EE9set_valueEbbb
FNDA:0,_ZN5neml216ParameterToStateINS_5SSFR5EE9set_valueEbbb
FNDA:0,_ZN5neml216ParameterToStateINS_6SSSSR8EE9set_valueEbbb
FNDA:2,_ZN5neml216ParameterToStateINS_6ScalarEE9set_valueEbbb
FNF:66
FNH:24
DA:33,44
DA:35,44
DA:36,44
DA:38,88
DA:40,88
DA:41,88
DA:43,88
DA:44,44
DA:46,44
DA:47,0
DA:50,1
DA:52,4
DA:53,1
DA:54,1
DA:55,2
DA:57,1
DA:61,2
DA:63,2
DA:65,2
DA:67,2
LF:20
LH:19
end_of_record
TN:
SF:/home/runner/work/neml2/neml2/src/neml2/models/R2Multiplication.cxx
FN:32,60,_ZN5neml216R2Multiplication16expected_optionsEv
FN:62,72,_ZN5neml216R2MultiplicationC2ERKNS_9OptionSetE
FN:75,132,_ZN5neml216R2Multiplication9set_valueEbbb
FNDA:2,_ZN5neml216R2Multiplication16expected_optionsEv
FNDA:4,_ZN5neml216R2MultiplicationC2ERKNS_9OptionSetE
FNDA:8,_ZN5neml216R2Multiplication9set_valueEbbb
FNF:3
FNH:3
DA:32,2
DA:34,2
DA:35,2
DA:36,2
DA:38,4
DA:39,4
DA:41,4
DA:42,4
DA:44,4
DA:45,4
DA:47,4
DA:48,4
DA:50,4
DA:51,4
DA:53,4
DA:54,4
DA:56,4
DA:57,2
DA:59,2
DA:60,0
DA:62,4
DA:64,4
DA:65,4
DA:66,4
DA:67,8
DA:68,8
DA:69,8
DA:70,8
DA:72,4
DA:75,8
DA:77,8
DA:78,8
DA:79,0
DA:81,8
DA:82,8
DA:83,0
DA:85,8
DA:87,8
DA:88,4
DA:90,8
DA:92,4
DA:94,4
DA:96,2
DA:97,0
DA:98,0
DA:100,4
DA:101,6
DA:105,2
DA:106,0
DA:107,0
DA:109,4
DA:110,6
DA:113,4
DA:115,2
DA:116,0
DA:117,0
DA:119,4
DA:120,6
DA:124,2
DA:125,0
DA:126,0
DA:128,4
DA:129,6
DA:131,4
DA:132,8
LF:65
LH:54
end_of_record
TN:
SF:/home/runner/work/neml2/neml2/src/neml2/models/R2toSR2.cxx
FN:36,50,_ZN5neml27R2toSR216expected_optionsEv
FN:52,57,_ZN5neml27R2toSR2C2ERKNS_9OptionSetE
FN:60,72,_ZN5neml27R2toSR29set_valueEbbb
FNDA:2,_ZN5neml27R2toSR216expected_optionsEv
FNDA:1,_ZN5neml27R2toSR2C2ERKNS_9OptionSetE
FNDA:3,_ZN5neml27R2toSR29set_valueEbbb
FNF:3
FNH:3
DA:36,2
DA:38,2
DA:39,2
DA:41,4
DA:43,4
DA:44,4
DA:46,4
DA:47,2
DA:49,2
DA:50,0
DA:52,1
DA:54,1
DA:55,2
DA:57,1
DA:60,3
DA:62,3
DA:64,3
DA:65,1
DA:67,3
DA:68,1
DA:72,3
LF:21
LH:20
end_of_record
TN:
SF:/home/runner/work/neml2/neml2/src/neml2/models/R2toWR2.cxx
FN:35,49,_ZN5neml27R2toWR216expected_optionsEv
FN:51,56,_ZN5neml27R2toWR2C2ERKNS_9OptionSetE
FN:59,73,_ZN5neml27R2toWR29set_valueEbbb
FNDA:2,_ZN5neml27R2toWR216expected_optionsEv
FNDA:1,_ZN5neml27R2toWR2C2ERKNS_9OptionSetE
FNDA:3,_ZN5neml27R2toWR29set_valueEbbb
FNF:3
FNH:3
DA:35,2
DA:37,2
DA:38,2
DA:40,4
DA:42,4
DA:43,4
DA:45,4
DA:46,2
DA:48,2
DA:49,0
DA:51,1
DA:53,1
DA:54,2
DA:56,1
DA:59,3
DA:61,3
DA:63,3
DA:64,1
DA:66,3
DA:68,1
DA:73,3
LF:21
LH:20
end_of_record
TN:
SF:/home/runner/work/neml2/neml2/src/neml2/models/RotationMatrix.cxx
FN:35,48,_ZN5neml214RotationMatrix16expected_optionsEv
FN:50,55,_ZN5neml214RotationMatrixC2ERKNS_9OptionSetE
FN:58,66,_ZN5neml214RotationMatrix9set_valueEbbb
FNDA:2,_ZN5neml214RotationMatrix16expected_optionsEv
FNDA:5,_ZN5neml214RotationMatrixC2ERKNS_9OptionSetE
FNDA:10,_ZN5neml214RotationMatrix9set_valueEbbb
FNF:3
FNH:3
DA:35,2
DA:37,2
DA:38,2
DA:39,2
DA:41,4
DA:42,4
DA:44,4
DA:45,2
DA:47,2
DA:48,0
DA:50,5
DA:52,5
DA:53,10
DA:55,5
DA:58,10
DA:60,10
DA:61,10
DA:63,10
DA:64,5
DA:65,5
DA:66,10
LF:21
LH:20
end_of_record
TN:
SF:/home/runner/work/neml2/neml2/src/neml2/models/SR2Invariant.cxx
FN:36,61,_ZN5neml212SR2Invariant16expected_optionsEv
FN:63,69,_ZN5neml212SR2InvariantC2ERKNS_9OptionSetE
FN:72,168,_ZN5neml212SR2Invariant9set_valueEbbb
FNDA:2,_ZN5neml212SR2Invariant16expected_optionsEv
FNDA:21,_ZN5neml212SR2InvariantC2ERKNS_9OptionSetE
FNDA:52,_ZN5neml212SR2Invariant9set_valueEbbb
FNF:3
FNH:3
DA:36,2
DA:38,2
DA:39,2
DA:41,4
DA:43,4
DA:44,4
DA:46,4
DA:47,4
DA:55,12
DA:56,2
DA:57,4
DA:58,6
DA:60,4
DA:61,2
DA:63,21
DA:65,21
DA:66,21
DA:67,42
DA:69,21
DA:72,52
DA:74,52
DA:76,52
DA:78,8
DA:79,6
DA:81,8
DA:82,0
DA:84,8
DA:85,4
DA:92,44
DA:94,3
DA:95,1
DA:97,3
DA:98,0
DA:100,3
DA:102,2
DA:104,2
DA:105,1
DA:107,2
DA:109,1
DA:110,1
DA:111,1
DA:112,1
DA:113,2
DA:115,41
DA:117,38
DA:118,38
DA:119,38
DA:121,38
DA:122,36
DA:124,38
DA:125,0
DA:127,38
DA:129,27
DA:131,27
DA:132,26
DA:134,27
DA:136,12
DA:137,12
DA:138,12
DA:139,12
DA:140,27
DA:141,38
DA:142,3
DA:144,3
DA:145,3
DA:147,3
DA:148,1
DA:150,3
DA:151,0
DA:153,3
DA:155,2
DA:157,2
DA:158,1
DA:160,2
DA:161,2
DA:162,3
DA:163,2
DA:164,3
DA:166,0
DA:167,0
DA:168,52
LF:81
LH:75
end_of_record
TN:
SF:/home/runner/work/neml2/neml2/src/neml2/models/SR2toR2.cxx
FN:36,50,_ZN5neml27SR2toR216expected_optionsEv
FN:52,57,_ZN5neml27SR2toR2C2ERKNS_9OptionSetE
FN:60,72,_ZN5neml27SR2toR29set_valueEbbb
FNDA:2,_ZN5neml27SR2toR216expected_optionsEv
FNDA:1,_ZN5neml27SR2toR2C2ERKNS_9OptionSetE
FNDA:3,_ZN5neml27SR2toR29set_valueEbbb
FNF:3
FNH:3
DA:36,2
DA:38,2
DA:39,2
DA:41,4
DA:43,4
DA:44,4
DA:46,4
DA:47,2
DA:49,2
DA:50,0
DA:52,1
DA:54,1
DA:55,2
DA:57,1
DA:60,3
DA:62,3
DA:64,3
DA:65,1
DA:67,3
DA:68,1
DA:72,3
LF:21
LH:20
end_of_record
TN:
SF:/home/runner/work/neml2/neml2/src/neml2/models/ScalarMultiplication.cxx
FN:34,60,_ZN5neml220ScalarMultiplication16expected_optionsEv
FN:62,81,_ZN5neml220ScalarMultiplicationC2ERKNS_9OptionSetE
FN:84,148,_ZN5neml220ScalarMultiplication9set_valueEbbb
FNDA:2,_ZN5neml220ScalarMultiplication16expected_optionsEv
FNDA:6,_ZN5neml220ScalarMultiplicationC2ERKNS_9OptionSetE
FNDA:18,_ZN5neml220ScalarMultiplication9set_valueEbbb
FNF:3
FNH:3
DA:34,2
DA:37,2
DA:38,2
DA:40,2
DA:42,4
DA:43,4
DA:45,4
DA:46,4
DA:48,8
DA:49,2
DA:51,6
DA:52,6
DA:55,2
DA:57,2
DA:59,2
DA:60,0
DA:62,6
DA:64,6
DA:65,36
DA:67,36
DA:68,30
DA:70,6
DA:71,6
DA:73,6
DA:75,6
DA:79,6
DA:80,2
DA:81,6
DA:84,18
DA:86,18
DA:88,6
DA:89,24
DA:91,18
DA:92,9
DA:94,9
DA:96,6
DA:97,6
DA:99,18
DA:101,30
DA:102,24
DA:104,24
DA:105,120
DA:106,96
DA:108,72
DA:109,36
DA:111,36
DA:113,24
DA:114,24
DA:117,18
DA:119,30
DA:120,24
DA:122,24
DA:123,120
DA:125,96
DA:127,96
DA:128,96
DA:130,72
DA:131,360
DA:132,288
DA:133,144
DA:134,72
DA:135,72
DA:136,24
DA:138,12
DA:139,60
DA:140,48
DA:141,36
DA:142,12
DA:143,12
DA:148,18
LF:70
LH:69
end_of_record
TN:
SF:/home/runner/work/neml2/neml2/src/neml2/models/ScalarToDiagonalSR2.cxx
FN:33,47,_ZN5neml219ScalarToDiagonalSR216expected_optionsEv
FN:49,54,_ZN5neml219ScalarToDiagonalSR2C2ERKNS_9OptionSetE
FN:57,66,_ZN5neml219ScalarToDiagonalSR29set_valueEbbb
FNDA:2,_ZN5neml219ScalarToDiagonalSR216expected_optionsEv
FNDA:1,_ZN5neml219ScalarToDiagonalSR2C2ERKNS_9OptionSetE
FNDA:3,_ZN5neml219ScalarToDiagonalSR29set_valueEbbb
FNF:3
FNH:3
DA:33,2
DA:35,2
DA:36,2
DA:38,4
DA:40,4
DA:41,4
DA:43,4
DA:44,2
DA:46,2
DA:47,0
DA:49,1
DA:51,1
DA:52,2
DA:54,1
DA:57,3
DA:59,3
DA:61,3
DA:62,1
DA:64,3
DA:65,1
DA:66,3
LF:21
LH:20
end_of_record
TN:
SF:/home/runner/work/neml2/neml2/src/neml2/models/SymmetricHermiteInterpolation.cxx
FN:35,60,_ZN5neml229SymmetricHermiteInterpolation16expected_optionsEv
FN:62,69,_ZN5neml229SymmetricHermiteInterpolationC2ERKNS_9OptionSetE
FN:72,101,_ZN5neml229SymmetricHermiteInterpolation9set_valueEbbb
FNDA:2,_ZN5neml229SymmetricHermiteInterpolation16expected_optionsEv
FNDA:1,_ZN5neml229SymmetricHermiteInterpolationC2ERKNS_9OptionSetE
FNDA:3,_ZN5neml229SymmetricHermiteInterpolation9set_valueEbbb
FNF:3
FNH:3
DA:35,2
DA:37,2
DA:38,2
DA:43,2
DA:45,4
DA:46,4
DA:48,4
DA:50,4
DA:51,4
DA:53,4
DA:54,4
DA:56,4
DA:57,2
DA:59,2
DA:60,0
DA:62,1
DA:64,1
DA:65,1
DA:66,4
DA:67,5
DA:69,1
DA:72,3
DA:74,3
DA:75,3
DA:76,3
DA:78,3
DA:80,1
DA:81,1
DA:82,1
DA:83,1
DA:85,3
DA:87,1
DA:88,1
DA:90,1
DA:91,1
DA:93,3
DA:95,1
DA:96,1
DA:98,1
DA:99,1
DA:100,1
DA:101,3
LF:42
LH:41
end_of_record
TN:
SF:/home/runner/work/neml2/neml2/src/neml2/models/Variable.cxx
FN:100,103,_ZNK5neml212VariableBase12is_dependentEv
FN:106,109,_ZNK5neml212VariableBase7optionsEv
FN:112,115,_ZNK5neml212VariableBase11scalar_typeEv
FN:118,121,_ZNK5neml212VariableBase6deviceEv
FN:124,127,_ZNK5neml212VariableBase3dimEv
FN:130,133,_ZNK5neml212VariableBase5sizesEv
FN:136,139,_ZNK5neml212VariableBase4sizeEl
FN:142,145,_ZNK5neml212VariableBase7batchedEv
FN:148,151,_ZNK5neml212VariableBase9batch_dimEv
FN:154,157,_ZNK5neml212VariableBase8list_dimEv
FN:160,163,_ZNK5neml212VariableBase8base_dimEv
FN:166,169,_ZNK5neml212VariableBase11batch_sizesEv
FN:172,175,_ZNK5neml212VariableBase10list_sizesEv
FN:178,181,_ZNK5neml212VariableBase10batch_sizeEl
FN:184,187,_ZNK5neml212VariableBase9base_sizeEl
FN:190,193,_ZNK5neml212VariableBase9list_sizeEl
FN:196,199,_ZNK5neml212VariableBase12base_storageEv
FN:202,205,_ZNK5neml212VariableBase16assembly_storageEv
FN:208,211,_ZNK5neml212VariableBase13requires_gradEv
FN:214,223,_ZN5neml212VariableBase1dERKS0_
FN:226,238,_ZN5neml212VariableBase1dERKS0_S2_
FN:241,244,_ZN5neml212VariableBase10request_ADERKS0_
FN:247,254,_ZN5neml212VariableBase10request_ADERKSt6vectorIPKS0_SaIS3_EE
FN:257,260,_ZN5neml212VariableBase10request_ADERKS0_S2_
FN:263,273,_ZN5neml212VariableBase10request_ADERKSt6vectorIPKS0_SaIS3_EES7_
FN:276,280,_ZN5neml212VariableBase5clearEv
FN:283,287,_ZN5neml212VariableBase17clear_derivativesEv
FN:290,298,_ZN5neml212VariableBase16apply_chain_ruleERKNS_18DependencyResolverINS_5ModelENS_19LabeledAxisAccessorEEE
FN:301,309,_ZN5neml212VariableBase29apply_second_order_chain_ruleERKNS_18DependencyResolverINS_5ModelENS_19LabeledAxisAccessorEEE
FN:312,318,_ZN5neml2L13assign_or_addERNS_6TensorERKS0_
FN:321,338,_ZNK5neml212VariableBase17total_derivativesERKNS_18DependencyResolverINS_5ModelENS_19LabeledAxisAccessorEEEPS2_RKS3_
FN:341,385,_ZNK5neml212VariableBase24total_second_derivativesERKNS_18DependencyResolverINS_5ModelENS_19LabeledAxisAccessorEEEPS2_RKS3_
FN:36,41,_ZN5neml212VariableBaseC2ENS_19LabeledAxisAccessorEPNS_5ModelEN3c108ArrayRefIlEE
FN:389,392,_ZNK5neml28VariableINS_10QuaternionEE4typeEv
FN:389,392,_ZNK5neml28VariableINS_11MillerIndexEE4typeEv
FN:389,392,_ZNK5neml28VariableINS_2R2EE4typeEv
FN:389,392,_ZNK5neml28VariableINS_2R3EE4typeEv
FN:389,392,_ZNK5neml28VariableINS_2R4EE4typeEv
FN:389,392,_ZNK5neml28VariableINS_2R5EE4typeEv
FN:389,392,_ZNK5neml28VariableINS_2R8EE4typeEv
FN:389,392,_ZNK5neml28VariableINS_3RotEE4typeEv
FN:389,392,_ZNK5neml28VariableINS_3SR2EE4typeEv
FN:389,392,_ZNK5neml28VariableINS_3VecEE4typeEv
FN:389,392,_ZNK5neml28VariableINS_3WR2EE4typeEv
FN:389,392,_ZNK5neml28VariableINS_4SFR3EE4typeEv
FN:389,392,_ZNK5neml28VariableINS_4SFR4EE4typeEv
FN:389,392,_ZNK5neml28VariableINS_4SSR4EE4typeEv
FN:389,392,_ZNK5neml28VariableINS_4SWR4EE4typeEv
FN:389,392,_ZNK5neml28VariableINS_4WFR4EE4typeEv
FN:389,392,_ZNK5neml28VariableINS_4WSR4EE4typeEv
FN:389,392,_ZNK5neml28VariableINS_4WWR4EE4typeEv
FN:389,392,_ZNK5neml28VariableINS_5SFFR4EE4typeEv
FN:389,392,_ZNK5neml28VariableINS_5SSFR5EE4typeEv
FN:389,392,_ZNK5neml28VariableINS_6SSSSR8EE4typeEv
FN:389,392,_ZNK5neml28VariableINS_6ScalarEE4typeEv
FN:396,408,_ZNK5neml28VariableINS_10QuaternionEE5cloneERKNS_19LabeledAxisAccessorEPNS_5ModelE
FN:396,408,_ZNK5neml28VariableINS_11MillerIndexEE5cloneERKNS_19LabeledAxisAccessorEPNS_5ModelE
FN:396,408,_ZNK5neml28VariableINS_2R2EE5cloneERKNS_19LabeledAxisAccessorEPNS_5ModelE
FN:396,408,_ZNK5neml28VariableINS_2R3EE5cloneERKNS_19LabeledAxisAccessorEPNS_5ModelE
FN:396,408,_ZNK5neml28VariableINS_2R4EE5cloneERKNS_19LabeledAxisAccessorEPNS_5ModelE
FN:396,408,_ZNK5neml28VariableINS_2R5EE5cloneERKNS_19LabeledAxisAccessorEPNS_5ModelE
FN:396,408,_ZNK5neml28VariableINS_2R8EE5cloneERKNS_19LabeledAxisAccessorEPNS_5ModelE
FN:396,408,_ZNK5neml28VariableINS_3RotEE5cloneERKNS_19LabeledAxisAccessorEPNS_5ModelE
FN:396,408,_ZNK5neml28VariableINS_3SR2EE5cloneERKNS_19LabeledAxisAccessorEPNS_5ModelE
FN:396,408,_ZNK5neml28VariableINS_3VecEE5cloneERKNS_19LabeledAxisAccessorEPNS_5ModelE
FN:396,408,_ZNK5neml28VariableINS_3WR2EE5cloneERKNS_19LabeledAxisAccessorEPNS_5ModelE
FN:396,408,_ZNK5neml28VariableINS_4SFR3EE5cloneERKNS_19LabeledAxisAccessorEPNS_5ModelE
FN:396,408,_ZNK5neml28VariableINS_4SFR4EE5cloneERKNS_19LabeledAxisAccessorEPNS_5ModelE
FN:396,408,_ZNK5neml28VariableINS_4SSR4EE5cloneERKNS_19LabeledAxisAccessorEPNS_5ModelE
FN:396,408,_ZNK5neml28VariableINS_4SWR4EE5cloneERKNS_19LabeledAxisAccessorEPNS_5ModelE
FN:396,408,_ZNK5neml28VariableINS_4WFR4EE5cloneERKNS_19LabeledAxisAccessorEPNS_5ModelE
FN:396,408,_ZNK5neml28VariableINS_4WSR4EE5cloneERKNS_19LabeledAxisAccessorEPNS_5ModelE
FN:396,408,_ZNK5neml28VariableINS_4WWR4EE5cloneERKNS_19LabeledAxisAccessorEPNS_5ModelE
FN:396,408,_ZNK5neml28VariableINS_5SFFR4EE5cloneERKNS_19LabeledAxisAccessorEPNS_5ModelE
FN:396,408,_ZNK5neml28VariableINS_5SSFR5EE5cloneERKNS_19LabeledAxisAccessorEPNS_5ModelE
FN:396,408,_ZNK5neml28VariableINS_6SSSSR8EE5cloneERKNS_19LabeledAxisAccessorEPNS_5ModelE
FN:396,408,_ZNK5neml28VariableINS_6ScalarEE5cloneERKNS_19LabeledAxisAccessorEPNS_5ModelE
FN:412,445,_ZN5neml28VariableINS_10QuaternionEE3refERKNS_12VariableBaseEb
FN:412,445,_ZN5neml28VariableINS_11MillerIndexEE3refERKNS_12VariableBaseEb
FN:412,445,_ZN5neml28VariableINS_2R2EE3refERKNS_12VariableBaseEb
FN:412,445,_ZN5neml28VariableINS_2R3EE3refERKNS_12VariableBaseEb
FN:412,445,_ZN5neml28VariableINS_2R4EE3refERKNS_12VariableBaseEb
FN:412,445,_ZN5neml28VariableINS_2R5EE3refERKNS_12VariableBaseEb
FN:412,445,_ZN5neml28VariableINS_2R8EE3refERKNS_12VariableBaseEb
FN:412,445,_ZN5neml28VariableINS_3RotEE3refERKNS_12VariableBaseEb
FN:412,445,_ZN5neml28VariableINS_3SR2EE3refERKNS_12VariableBaseEb
FN:412,445,_ZN5neml28VariableINS_3VecEE3refERKNS_12VariableBaseEb
FN:412,445,_ZN5neml28VariableINS_3WR2EE3refERKNS_12VariableBaseEb
FN:412,445,_ZN5neml28VariableINS_4SFR3EE3refERKNS_12VariableBaseEb
FN:412,445,_ZN5neml28VariableINS_4SFR4EE3refERKNS_12VariableBaseEb
FN:412,445,_ZN5neml28VariableINS_4SSR4EE3refERKNS_12VariableBaseEb
FN:412,445,_ZN5neml28VariableINS_4SWR4EE3refERKNS_12VariableBaseEb
FN:412,445,_ZN5neml28VariableINS_4WFR4EE3refERKNS_12VariableBaseEb
FN:412,445,_ZN5neml28VariableINS_4WSR4EE3refERKNS_12VariableBaseEb
FN:412,445,_ZN5neml28VariableINS_4WWR4EE3refERKNS_12VariableBaseEb
FN:412,445,_ZN5neml28VariableINS_5SFFR4EE3refERKNS_12VariableBaseEb
FN:412,445,_ZN5neml28VariableINS_5SSFR5EE3refERKNS_12VariableBaseEb
FN:412,445,_ZN5neml28VariableINS_6SSSSR8EE3refERKNS_12VariableBaseEb
FN:412,445,_ZN5neml28VariableINS_6ScalarEE3refERKNS_12VariableBaseEb
FN:44,48,_ZNK5neml212VariableBase5ownerEv
FN:449,471,_ZN5neml28VariableINS_10QuaternionEE4zeroERKN3c1013TensorOptionsE
FN:449,471,_ZN5neml28VariableINS_11MillerIndexEE4zeroERKN3c1013TensorOptionsE
FN:449,471,_ZN5neml28VariableINS_2R2EE4zeroERKN3c1013TensorOptionsE
FN:449,471,_ZN5neml28VariableINS_2R3EE4zeroERKN3c1013TensorOptionsE
FN:449,471,_ZN5neml28VariableINS_2R4EE4zeroERKN3c1013TensorOptionsE
FN:449,471,_ZN5neml28VariableINS_2R5EE4zeroERKN3c1013TensorOptionsE
FN:449,471,_ZN5neml28VariableINS_2R8EE4zeroERKN3c1013TensorOptionsE
FN:449,471,_ZN5neml28VariableINS_3RotEE4zeroERKN3c1013TensorOptionsE
FN:449,471,_ZN5neml28VariableINS_3SR2EE4zeroERKN3c1013TensorOptionsE
FN:449,471,_ZN5neml28VariableINS_3VecEE4zeroERKN3c1013TensorOptionsE
FN:449,471,_ZN5neml28VariableINS_3WR2EE4zeroERKN3c1013TensorOptionsE
FN:449,471,_ZN5neml28VariableINS_4SFR3EE4zeroERKN3c1013TensorOptionsE
FN:449,471,_ZN5neml28VariableINS_4SFR4EE4zeroERKN3c1013TensorOptionsE
FN:449,471,_ZN5neml28VariableINS_4SSR4EE4zeroERKN3c1013TensorOptionsE
FN:449,471,_ZN5neml28VariableINS_4SWR4EE4zeroERKN3c1013TensorOptionsE
FN:449,471,_ZN5neml28VariableINS_4WFR4EE4zeroERKN3c1013TensorOptionsE
FN:449,471,_ZN5neml28VariableINS_4WSR4EE4zeroERKN3c1013TensorOptionsE
FN:449,471,_ZN5neml28VariableINS_4WWR4EE4zeroERKN3c1013TensorOptionsE
FN:449,471,_ZN5neml28VariableINS_5SFFR4EE4zeroERKN3c1013TensorOptionsE
FN:449,471,_ZN5neml28VariableINS_5SSFR5EE4zeroERKN3c1013TensorOptionsE
FN:449,471,_ZN5neml28VariableINS_6SSSSR8EE4zeroERKN3c1013TensorOptionsE
FN:449,471,_ZN5neml28VariableINS_6ScalarEE4zeroERKN3c1013TensorOptionsE
FN:475,493,_ZN5neml28VariableINS_10QuaternionEE3setERKNS_6TensorE
FN:475,493,_ZN5neml28VariableINS_11MillerIndexEE3setERKNS_6TensorE
FN:475,493,_ZN5neml28VariableINS_2R2EE3setERKNS_6TensorE
FN:475,493,_ZN5neml28VariableINS_2R3EE3setERKNS_6TensorE
FN:475,493,_ZN5neml28VariableINS_2R4EE3setERKNS_6TensorE
FN:475,493,_ZN5neml28VariableINS_2R5EE3setERKNS_6TensorE
FN:475,493,_ZN5neml28VariableINS_2R8EE3setERKNS_6TensorE
FN:475,493,_ZN5neml28VariableINS_3RotEE3setERKNS_6TensorE
FN:475,493,_ZN5neml28VariableINS_3SR2EE3setERKNS_6TensorE
FN:475,493,_ZN5neml28VariableINS_3VecEE3setERKNS_6TensorE
FN:475,493,_ZN5neml28VariableINS_3WR2EE3setERKNS_6TensorE
FN:475,493,_ZN5neml28VariableINS_4SFR3EE3setERKNS_6TensorE
FN:475,493,_ZN5neml28VariableINS_4SFR4EE3setERKNS_6TensorE
FN:475,493,_ZN5neml28VariableINS_4SSR4EE3setERKNS_6TensorE
FN:475,493,_ZN5neml28VariableINS_4SWR4EE3setERKNS_6TensorE
FN:475,493,_ZN5neml28VariableINS_4WFR4EE3setERKNS_6TensorE
FN:475,493,_ZN5neml28VariableINS_4WSR4EE3setERKNS_6TensorE
FN:475,493,_ZN5neml28VariableINS_4WWR4EE3setERKNS_6TensorE
FN:475,493,_ZN5neml28VariableINS_5SFFR4EE3setERKNS_6TensorE
FN:475,493,_ZN5neml28VariableINS_5SSFR5EE3setERKNS_6TensorE
FN:475,493,_ZN5neml28VariableINS_6SSSSR8EE3setERKNS_6TensorE
FN:475,493,_ZN5neml28VariableINS_6ScalarEE3setERKNS_6TensorE
FN:497,519,_ZN5neml28VariableINS_10QuaternionEE3setERKN2at6TensorEb
FN:497,519,_ZN5neml28VariableINS_11MillerIndexEE3setERKN2at6TensorEb
FN:497,519,_ZN5neml28VariableINS_2R2EE3setERKN2at6TensorEb
FN:497,519,_ZN5neml28VariableINS_2R3EE3setERKN2at6TensorEb
FN:497,519,_ZN5neml28VariableINS_2R4EE3setERKN2at6TensorEb
FN:497,519,_ZN5neml28VariableINS_2R5EE3setERKN2at6TensorEb
FN:497,519,_ZN5neml28VariableINS_2R8EE3setERKN2at6TensorEb
FN:497,519,_ZN5neml28VariableINS_3RotEE3setERKN2at6TensorEb
FN:497,519,_ZN5neml28VariableINS_3SR2EE3setERKN2at6TensorEb
FN:497,519,_ZN5neml28VariableINS_3VecEE3setERKN2at6TensorEb
FN:497,519,_ZN5neml28VariableINS_3WR2EE3setERKN2at6TensorEb
FN:497,519,_ZN5neml28VariableINS_4SFR3EE3setERKN2at6TensorEb
FN:497,519,_ZN5neml28VariableINS_4SFR4EE3setERKN2at6TensorEb
FN:497,519,_ZN5neml28VariableINS_4SSR4EE3setERKN2at6TensorEb
FN:497,519,_ZN5neml28VariableINS_4SWR4EE3setERKN2at6TensorEb
FN:497,519,_ZN5neml28VariableINS_4WFR4EE3setERKN2at6TensorEb
FN:497,519,_ZN5neml28VariableINS_4WSR4EE3setERKN2at6TensorEb
FN:497,519,_ZN5neml28VariableINS_4WWR4EE3setERKN2at6TensorEb
FN:497,519,_ZN5neml28VariableINS_5SFFR4EE3setERKN2at6TensorEb
FN:497,519,_ZN5neml28VariableINS_5SSFR5EE3setERKN2at6TensorEb
FN:497,519,_ZN5neml28VariableINS_6SSSSR8EE3setERKN2at6TensorEb
FN:497,519,_ZN5neml28VariableINS_6ScalarEE3setERKN2at6TensorEb
FN:51,55,_ZN5neml212VariableBase5ownerEv
FN:523,526,_ZNK5neml28VariableINS_10QuaternionEE3getEv
FN:523,526,_ZNK5neml28VariableINS_11MillerIndexEE3getEv
FN:523,526,_ZNK5neml28VariableINS_2R2EE3getEv
FN:523,526,_ZNK5neml28VariableINS_2R3EE3getEv
FN:523,526,_ZNK5neml28VariableINS_2R4EE3getEv
FN:523,526,_ZNK5neml28VariableINS_2R5EE3getEv
FN:523,526,_ZNK5neml28VariableINS_2R8EE3getEv
FN:523,526,_ZNK5neml28VariableINS_3RotEE3getEv
FN:523,526,_ZNK5neml28VariableINS_3SR2EE3getEv
FN:523,526,_ZNK5neml28VariableINS_3VecEE3getEv
FN:523,526,_ZNK5neml28VariableINS_3WR2EE3getEv
FN:523,526,_ZNK5neml28VariableINS_4SFR3EE3getEv
FN:523,526,_ZNK5neml28VariableINS_4SFR4EE3getEv
FN:523,526,_ZNK5neml28VariableINS_4SSR4EE3getEv
FN:523,526,_ZNK5neml28VariableINS_4SWR4EE3getEv
FN:523,526,_ZNK5neml28VariableINS_4WFR4EE3getEv
FN:523,526,_ZNK5neml28VariableINS_4WSR4EE3getEv
FN:523,526,_ZNK5neml28VariableINS_4WWR4EE3getEv
FN:523,526,_ZNK5neml28VariableINS_5SFFR4EE3getEv
FN:523,526,_ZNK5neml28VariableINS_5SSFR5EE3getEv
FN:523,526,_ZNK5neml28VariableINS_6SSSSR8EE3getEv
FN:523,526,_ZNK5neml28VariableINS_6ScalarEE3getEv
FN:530,540,_ZNK5neml28VariableINS_10QuaternionEE6tensorEv
FN:530,540,_ZNK5neml28VariableINS_11MillerIndexEE6tensorEv
FN:530,540,_ZNK5neml28VariableINS_2R2EE6tensorEv
FN:530,540,_ZNK5neml28VariableINS_2R3EE6tensorEv
FN:530,540,_ZNK5neml28VariableINS_2R4EE6tensorEv
FN:530,540,_ZNK5neml28VariableINS_2R5EE6tensorEv
FN:530,540,_ZNK5neml28VariableINS_2R8EE6tensorEv
FN:530,540,_ZNK5neml28VariableINS_3RotEE6tensorEv
FN:530,540,_ZNK5neml28VariableINS_3SR2EE6tensorEv
FN:530,540,_ZNK5neml28VariableINS_3VecEE6tensorEv
FN:530,540,_ZNK5neml28VariableINS_3WR2EE6tensorEv
FN:530,540,_ZNK5neml28VariableINS_4SFR3EE6tensorEv
FN:530,540,_ZNK5neml28VariableINS_4SFR4EE6tensorEv
FN:530,540,_ZNK5neml28VariableINS_4SSR4EE6tensorEv
FN:530,540,_ZNK5neml28VariableINS_4SWR4EE6tensorEv
FN:530,540,_ZNK5neml28VariableINS_4WFR4EE6tensorEv
FN:530,540,_ZNK5neml28VariableINS_4WSR4EE6tensorEv
FN:530,540,_ZNK5neml28VariableINS_4WWR4EE6tensorEv
FN:530,540,_ZNK5neml28VariableINS_5SFFR4EE6tensorEv
FN:530,540,_ZNK5neml28VariableINS_5SSFR5EE6tensorEv
FN:530,540,_ZNK5neml28VariableINS_6SSSSR8EE6tensorEv
FN:530,540,_ZNK5neml28VariableINS_6ScalarEE6tensorEv
FN:544,551,_ZN5neml28VariableINS_10QuaternionEE14requires_grad_Eb
FN:544,551,_ZN5neml28VariableINS_11MillerIndexEE14requires_grad_Eb
FN:544,551,_ZN5neml28VariableINS_2R2EE14requires_grad_Eb
FN:544,551,_ZN5neml28VariableINS_2R3EE14requires_grad_Eb
FN:544,551,_ZN5neml28VariableINS_2R4EE14requires_grad_Eb
FN:544,551,_ZN5neml28VariableINS_2R5EE14requires_grad_Eb
FN:544,551,_ZN5neml28VariableINS_2R8EE14requires_grad_Eb
FN:544,551,_ZN5neml28VariableINS_3RotEE14requires_grad_Eb
FN:544,551,_ZN5neml28VariableINS_3SR2EE14requires_grad_Eb
FN:544,551,_ZN5neml28VariableINS_3VecEE14requires_grad_Eb
FN:544,551,_ZN5neml28VariableINS_3WR2EE14requires_grad_Eb
FN:544,551,_ZN5neml28VariableINS_4SFR3EE14requires_grad_Eb
FN:544,551,_ZN5neml28VariableINS_4SFR4EE14requires_grad_Eb
FN:544,551,_ZN5neml28VariableINS_4SSR4EE14requires_grad_Eb
FN:544,551,_ZN5neml28VariableINS_4SWR4EE14requires_grad_Eb
FN:544,551,_ZN5neml28VariableINS_4WFR4EE14requires_grad_Eb
FN:544,551,_ZN5neml28VariableINS_4WSR4EE14requires_grad_Eb
FN:544,551,_ZN5neml28VariableINS_4WWR4EE14requires_grad_Eb
FN:544,551,_ZN5neml28VariableINS_5SFFR4EE14requires_grad_Eb
FN:544,551,_ZN5neml28VariableINS_5SSFR5EE14requires_grad_Eb
FN:544,551,_ZN5neml28VariableINS_6SSSSR8EE14requires_grad_Eb
FN:544,551,_ZN5neml28VariableINS_6ScalarEE14requires_grad_Eb
FN:555,572,_ZN5neml28VariableINS_10QuaternionEEaSERKNS_6TensorE
FN:555,572,_ZN5neml28VariableINS_11MillerIndexEEaSERKNS_6TensorE
FN:555,572,_ZN5neml28VariableINS_2R2EEaSERKNS_6TensorE
FN:555,572,_ZN5neml28VariableINS_2R3EEaSERKNS_6TensorE
FN:555,572,_ZN5neml28VariableINS_2R4EEaSERKNS_6TensorE
FN:555,572,_ZN5neml28VariableINS_2R5EEaSERKNS_6TensorE
FN:555,572,_ZN5neml28VariableINS_2R8EEaSERKNS_6TensorE
FN:555,572,_ZN5neml28VariableINS_3RotEEaSERKNS_6TensorE
FN:555,572,_ZN5neml28VariableINS_3SR2EEaSERKNS_6TensorE
FN:555,572,_ZN5neml28VariableINS_3VecEEaSERKNS_6TensorE
FN:555,572,_ZN5neml28VariableINS_3WR2EEaSERKNS_6TensorE
FN:555,572,_ZN5neml28VariableINS_4SFR3EEaSERKNS_6TensorE
FN:555,572,_ZN5neml28VariableINS_4SFR4EEaSERKNS_6TensorE
FN:555,572,_ZN5neml28VariableINS_4SSR4EEaSERKNS_6TensorE
FN:555,572,_ZN5neml28VariableINS_4SWR4EEaSERKNS_6TensorE
FN:555,572,_ZN5neml28VariableINS_4WFR4EEaSERKNS_6TensorE
FN:555,572,_ZN5neml28VariableINS_4WSR4EEaSERKNS_6TensorE
FN:555,572,_ZN5neml28VariableINS_4WWR4EEaSERKNS_6TensorE
FN:555,572,_ZN5neml28VariableINS_5SFFR4EEaSERKNS_6TensorE
FN:555,572,_ZN5neml28VariableINS_5SSFR5EEaSERKNS_6TensorE
FN:555,572,_ZN5neml28VariableINS_6SSSSR8EEaSERKNS_6TensorE
FN:555,572,_ZN5neml28VariableINS_6ScalarEEaSERKNS_6TensorE
FN:576,596,_ZN5neml28VariableINS_10QuaternionEE5clearEv
FN:576,596,_ZN5neml28VariableINS_11MillerIndexEE5clearEv
FN:576,596,_ZN5neml28VariableINS_2R2EE5clearEv
FN:576,596,_ZN5neml28VariableINS_2R3EE5clearEv
FN:576,596,_ZN5neml28VariableINS_2R4EE5clearEv
FN:576,596,_ZN5neml28VariableINS_2R5EE5clearEv
FN:576,596,_ZN5neml28VariableINS_2R8EE5clearEv
FN:576,596,_ZN5neml28VariableINS_3RotEE5clearEv
FN:576,596,_ZN5neml28VariableINS_3SR2EE5clearEv
FN:576,596,_ZN5neml28VariableINS_3VecEE5clearEv
FN:576,596,_ZN5neml28VariableINS_3WR2EE5clearEv
FN:576,596,_ZN5neml28VariableINS_4SFR3EE5clearEv
FN:576,596,_ZN5neml28VariableINS_4SFR4EE5clearEv
FN:576,596,_ZN5neml28VariableINS_4SSR4EE5clearEv
FN:576,596,_ZN5neml28VariableINS_4SWR4EE5clearEv
FN:576,596,_ZN5neml28VariableINS_4WFR4EE5clearEv
FN:576,596,_ZN5neml28VariableINS_4WSR4EE5clearEv
FN:576,596,_ZN5neml28VariableINS_4WWR4EE5clearEv
FN:576,596,_ZN5neml28VariableINS_5SFFR4EE5clearEv
FN:576,596,_ZN5neml28VariableINS_5SSFR5EE5clearEv
FN:576,596,_ZN5neml28VariableINS_6SSSSR8EE5clearEv
FN:576,596,_ZN5neml28VariableINS_6ScalarEE5clearEv
FN:58,61,_ZNK5neml212VariableBase8is_stateEv
FN:602,609,_ZN5neml210DerivativeaSERKNS_6TensorE
FN:64,67,_ZNK5neml212VariableBase12is_old_stateEv
FN:70,73,_ZNK5neml212VariableBase8is_forceEv
FN:76,79,_ZNK5neml212VariableBase12is_old_forceEv
FN:82,85,_ZNK5neml212VariableBase11is_residualEv
FN:88,91,_ZNK5neml212VariableBase12is_parameterEv
FN:94,97,_ZNK5neml212VariableBase18is_solve_dependentEv
FNDA:1569,_ZNK5neml212VariableBase12is_dependentEv
FNDA:399,_ZNK5neml212VariableBase7optionsEv
FNDA:48,_ZNK5neml212VariableBase11scalar_typeEv
FNDA:0,_ZNK5neml212VariableBase6deviceEv
FNDA:0,_ZNK5neml212VariableBase3dimEv
FNDA:0,_ZNK5neml212VariableBase5sizesEv
FNDA:0,_ZNK5neml212VariableBase4sizeEl
FNDA:0,_ZNK5neml212VariableBase7batchedEv
FNDA:36959,_ZNK5neml212VariableBase9batch_dimEv
FNDA:674592,_ZNK5neml212VariableBase8list_dimEv
FNDA:0,_ZNK5neml212VariableBase8base_dimEv
FNDA:1,_ZNK5neml212VariableBase11batch_sizesEv
FNDA:729855,_ZNK5neml212VariableBase10list_sizesEv
FNDA:0,_ZNK5neml212VariableBase10batch_sizeEl
FNDA:0,_ZNK5neml212VariableBase9base_sizeEl
FNDA:1,_ZNK5neml212VariableBase9list_sizeEl
FNDA:0,_ZNK5neml212VariableBase12base_storageEv
FNDA:2865,_ZNK5neml212VariableBase16assembly_storageEv
FNDA:0,_ZNK5neml212VariableBase13requires_gradEv
FNDA:814,_ZN5neml212VariableBase1dERKS0_
FNDA:233,_ZN5neml212VariableBase1dERKS0_S2_
FNDA:0,_ZN5neml212VariableBase10request_ADERKS0_
FNDA:4,_ZN5neml212VariableBase10request_ADERKSt6vectorIPKS0_SaIS3_EE
FNDA:0,_ZN5neml212VariableBase10request_ADERKS0_S2_
FNDA:3,_ZN5neml212VariableBase10request_ADERKSt6vectorIPKS0_SaIS3_EES7_
FNDA:20163,_ZN5neml212VariableBase5clearEv
FNDA:20767,_ZN5neml212VariableBase17clear_derivativesEv
FNDA:85,_ZN5neml212VariableBase16apply_chain_ruleERKNS_18DependencyResolverINS_5ModelENS_19LabeledAxisAccessorEEE
FNDA:16,_ZN5neml212VariableBase29apply_second_order_chain_ruleERKNS_18DependencyResolverINS_5ModelENS_19LabeledAxisAccessorEEE
FNDA:1025,_ZN5neml2L13assign_or_addERNS_6TensorERKS0_
FNDA:418,_ZNK5neml212VariableBase17total_derivativesERKNS_18DependencyResolverINS_5ModelENS_19LabeledAxisAccessorEEEPS2_RKS3_
FNDA:48,_ZNK5neml212VariableBase24total_second_derivativesERKNS_18DependencyResolverINS_5ModelENS_19LabeledAxisAccessorEEEPS2_RKS3_
FNDA:1760,_ZN5neml212VariableBaseC2ENS_19LabeledAxisAccessorEPNS_5ModelEN3c108ArrayRefIlEE
FNDA:0,_ZNK5neml28VariableINS_10QuaternionEE4typeEv
FNDA:0,_ZNK5neml28VariableINS_11MillerIndexEE4typeEv
FNDA:20,_ZNK5neml28VariableINS_2R2EE4typeEv
FNDA:0,_ZNK5neml28VariableINS_2R3EE4typeEv
FNDA:0,_ZNK5neml28VariableINS_2R4EE4typeEv
FNDA:0,_ZNK5neml28VariableINS_2R5EE4typeEv
FNDA:0,_ZNK5neml28VariableINS_2R8EE4typeEv
FNDA:32,_ZNK5neml28VariableINS_3RotEE4typeEv
FNDA:484,_ZNK5neml28VariableINS_3SR2EE4typeEv
FNDA:0,_ZNK5neml28VariableINS_3VecEE4typeEv
FNDA:14,_ZNK5neml28VariableINS_3WR2EE4typeEv
FNDA:0,_ZNK5neml28VariableINS_4SFR3EE4typeEv
FNDA:0,_ZNK5neml28VariableINS_4SFR4EE4typeEv
FNDA:16,_ZNK5neml28VariableINS_4SSR4EE4typeEv
FNDA:0,_ZNK5neml28VariableINS_4SWR4EE4typeEv
FNDA:0,_ZNK5neml28VariableINS_4WFR4EE4typeEv
FNDA:0,_ZNK5neml28VariableINS_4WSR4EE4typeEv
FNDA:0,_ZNK5neml28VariableINS_4WWR4EE4typeEv
FNDA:0,_ZNK5neml28VariableINS_5SFFR4EE4typeEv
FNDA:0,_ZNK5neml28VariableINS_5SSFR5EE4typeEv
FNDA:0,_ZNK5neml28VariableINS_6SSSSR8EE4typeEv
FNDA:1064,_ZNK5neml28VariableINS_6ScalarEE4typeEv
FNDA:0,_ZNK5neml28VariableINS_10QuaternionEE5cloneERKNS_19LabeledAxisAccessorEPNS_5ModelE
FNDA:0,_ZNK5neml28VariableINS_11MillerIndexEE5cloneERKNS_19LabeledAxisAccessorEPNS_5ModelE
FNDA:3,_ZNK5neml28VariableINS_2R2EE5cloneERKNS_19LabeledAxisAccessorEPNS_5ModelE
FNDA:0,_ZNK5neml28VariableINS_2R3EE5cloneERKNS_19LabeledAxisAccessorEPNS_5ModelE
FNDA:0,_ZNK5neml28VariableINS_2R4EE5cloneERKNS_19LabeledAxisAccessorEPNS_5ModelE
FNDA:0,_ZNK5neml28VariableINS_2R5EE5cloneERKNS_19LabeledAxisAccessorEPNS_5ModelE
FNDA:0,_ZNK5neml28VariableINS_2R8EE5cloneERKNS_19LabeledAxisAccessorEPNS_5ModelE
FNDA:15,_ZNK5neml28VariableINS_3RotEE5cloneERKNS_19LabeledAxisAccessorEPNS_5ModelE
FNDA:172,_ZNK5neml28VariableINS_3SR2EE5cloneERKNS_19LabeledAxisAccessorEPNS_5ModelE
FNDA:0,_ZNK5neml28VariableINS_3VecEE5cloneERKNS_19LabeledAxisAccessorEPNS_5ModelE
FNDA:4,_ZNK5neml28VariableINS_3WR2EE5cloneERKNS_19LabeledAxisAccessorEPNS_5ModelE
FNDA:0,_ZNK5neml28VariableINS_4SFR3EE5cloneERKNS_19LabeledAxisAccessorEPNS_5ModelE
FNDA:0,_ZNK5neml28VariableINS_4SFR4EE5cloneERKNS_19LabeledAxisAccessorEPNS_5ModelE
FNDA:6,_ZNK5neml28VariableINS_4SSR4EE5cloneERKNS_19LabeledAxisAccessorEPNS_5ModelE
FNDA:0,_ZNK5neml28VariableINS_4SWR4EE5cloneERKNS_19LabeledAxisAccessorEPNS_5ModelE
FNDA:0,_ZNK5neml28VariableINS_4WFR4EE5cloneERKNS_19LabeledAxisAccessorEPNS_5ModelE
FNDA:0,_ZNK5neml28VariableINS_4WSR4EE5cloneERKNS_19LabeledAxisAccessorEPNS_5ModelE
FNDA:0,_ZNK5neml28VariableINS_4WWR4EE5cloneERKNS_19LabeledAxisAccessorEPNS_5ModelE
FNDA:0,_ZNK5neml28VariableINS_5SFFR4EE5cloneERKNS_19LabeledAxisAccessorEPNS_5ModelE
FNDA:0,_ZNK5neml28VariableINS_5SSFR5EE5cloneERKNS_19LabeledAxisAccessorEPNS_5ModelE
FNDA:0,_ZNK5neml28VariableINS_6SSSSR8EE5cloneERKNS_19LabeledAxisAccessorEPNS_5ModelE
FNDA:338,_ZNK5neml28VariableINS_6ScalarEE5cloneERKNS_19LabeledAxisAccessorEPNS_5ModelE
FNDA:0,_ZN5neml28VariableINS_10QuaternionEE3refERKNS_12VariableBaseEb
FNDA:0,_ZN5neml28VariableINS_11MillerIndexEE3refERKNS_12VariableBaseEb
FNDA:10,_ZN5neml28VariableINS_2R2EE3refERKNS_12VariableBaseEb
FNDA:0,_ZN5neml28VariableINS_2R3EE3refERKNS_12VariableBaseEb
FNDA:0,_ZN5neml28VariableINS_2R4EE3refERKNS_12VariableBaseEb
FNDA:0,_ZN5neml28VariableINS_2R5EE3refERKNS_12VariableBaseEb
FNDA:0,_ZN5neml28VariableINS_2R8EE3refERKNS_12VariableBaseEb
FNDA:16,_ZN5neml28VariableINS_3RotEE3refERKNS_12VariableBaseEb
FNDA:240,_ZN5neml28VariableINS_3SR2EE3refERKNS_12VariableBaseEb
FNDA:0,_ZN5neml28VariableINS_3VecEE3refERKNS_12VariableBaseEb
FNDA:7,_ZN5neml28VariableINS_3WR2EE3refERKNS_12VariableBaseEb
FNDA:0,_ZN5neml28VariableINS_4SFR3EE3refERKNS_12VariableBaseEb
FNDA:0,_ZN5neml28VariableINS_4SFR4EE3refERKNS_12VariableBaseEb
FNDA:8,_ZN5neml28VariableINS_4SSR4EE3refERKNS_12VariableBaseEb
FNDA:0,_ZN5neml28VariableINS_4SWR4EE3refERKNS_12VariableBaseEb
FNDA:0,_ZN5neml28VariableINS_4WFR4EE3refERKNS_12VariableBaseEb
FNDA:0,_ZN5neml28VariableINS_4WSR4EE3refERKNS_12VariableBaseEb
FNDA:0,_ZN5neml28VariableINS_4WWR4EE3refERKNS_12VariableBaseEb
FNDA:0,_ZN5neml28VariableINS_5SFFR4EE3refERKNS_12VariableBaseEb
FNDA:0,_ZN5neml28VariableINS_5SSFR5EE3refERKNS_12VariableBaseEb
FNDA:0,_ZN5neml28VariableINS_6SSSSR8EE3refERKNS_12VariableBaseEb
FNDA:524,_ZN5neml28VariableINS_6ScalarEE3refERKNS_12VariableBaseEb
FNDA:12303,_ZNK5neml212VariableBase5ownerEv
FNDA:0,_ZN5neml28VariableINS_10QuaternionEE4zeroERKN3c1013TensorOptionsE
FNDA:0,_ZN5neml28VariableINS_11MillerIndexEE4zeroERKN3c1013TensorOptionsE
FNDA:593,_ZN5neml28VariableINS_2R2EE4zeroERKN3c1013TensorOptionsE
FNDA:0,_ZN5neml28VariableINS_2R3EE4zeroERKN3c1013TensorOptionsE
FNDA:0,_ZN5neml28VariableINS_2R4EE4zeroERKN3c1013TensorOptionsE
FNDA:0,_ZN5neml28VariableINS_2R5EE4zeroERKN3c1013TensorOptionsE
FNDA:0,_ZN5neml28VariableINS_2R8EE4zeroERKN3c1013TensorOptionsE
FNDA:457,_ZN5neml28VariableINS_3RotEE4zeroERKN3c1013TensorOptionsE
FNDA:4868,_ZN5neml28VariableINS_3SR2EE4zeroERKN3c1013TensorOptionsE
FNDA:22,_ZN5neml28VariableINS_3VecEE4zeroERKN3c1013TensorOptionsE
FNDA:208,_ZN5neml28VariableINS_3WR2EE4zeroERKN3c1013TensorOptionsE
FNDA:0,_ZN5neml28VariableINS_4SFR3EE4zeroERKN3c1013TensorOptionsE
FNDA:0,_ZN5neml28VariableINS_4SFR4EE4zeroERKN3c1013TensorOptionsE
FNDA:236,_ZN5neml28VariableINS_4SSR4EE4zeroERKN3c1013TensorOptionsE
FNDA:0,_ZN5neml28VariableINS_4SWR4EE4zeroERKN3c1013TensorOptionsE
FNDA:0,_ZN5neml28VariableINS_4WFR4EE4zeroERKN3c1013TensorOptionsE
FNDA:0,_ZN5neml28VariableINS_4WSR4EE4zeroERKN3c1013TensorOptionsE
FNDA:0,_ZN5neml28VariableINS_4WWR4EE4zeroERKN3c1013TensorOptionsE
FNDA:0,_ZN5neml28VariableINS_5SFFR4EE4zeroERKN3c1013TensorOptionsE
FNDA:0,_ZN5neml28VariableINS_5SSFR5EE4zeroERKN3c1013TensorOptionsE
FNDA:0,_ZN5neml28VariableINS_6SSSSR8EE4zeroERKN3c1013TensorOptionsE
FNDA:13779,_ZN5neml28VariableINS_6ScalarEE4zeroERKN3c1013TensorOptionsE
FNDA:0,_ZN5neml28VariableINS_10QuaternionEE3setERKNS_6TensorE
FNDA:0,_ZN5neml28VariableINS_11MillerIndexEE3setERKNS_6TensorE
FNDA:348,_ZN5neml28VariableINS_2R2EE3setERKNS_6TensorE
FNDA:0,_ZN5neml28VariableINS_2R3EE3setERKNS_6TensorE
FNDA:0,_ZN5neml28VariableINS_2R4EE3setERKNS_6TensorE
FNDA:0,_ZN5neml28VariableINS_2R5EE3setERKNS_6TensorE
FNDA:0,_ZN5neml28VariableINS_2R8EE3setERKNS_6TensorE
FNDA:861,_ZN5neml28VariableINS_3RotEE3setERKNS_6TensorE
FNDA:6209,_ZN5neml28VariableINS_3SR2EE3setERKNS_6TensorE
FNDA:11,_ZN5neml28VariableINS_3VecEE3setERKNS_6TensorE
FNDA:121,_ZN5neml28VariableINS_3WR2EE3setERKNS_6TensorE
FNDA:0,_ZN5neml28VariableINS_4SFR3EE3setERKNS_6TensorE
FNDA:0,_ZN5neml28VariableINS_4SFR4EE3setERKNS_6TensorE
FNDA:102,_ZN5neml28VariableINS_4SSR4EE3setERKNS_6TensorE
FNDA:0,_ZN5neml28VariableINS_4SWR4EE3setERKNS_6TensorE
FNDA:0,_ZN5neml28VariableINS_4WFR4EE3setERKNS_6TensorE
FNDA:0,_ZN5neml28VariableINS_4WSR4EE3setERKNS_6TensorE
FNDA:0,_ZN5neml28VariableINS_4WWR4EE3setERKNS_6TensorE
FNDA:0,_ZN5neml28VariableINS_5SFFR4EE3setERKNS_6TensorE
FNDA:0,_ZN5neml28VariableINS_5SSFR5EE3setERKNS_6TensorE
FNDA:0,_ZN5neml28VariableINS_6SSSSR8EE3setERKNS_6TensorE
FNDA:12853,_ZN5neml28VariableINS_6ScalarEE3setERKNS_6TensorE
FNDA:0,_ZN5neml28VariableINS_10QuaternionEE3setERKN2at6TensorEb
FNDA:0,_ZN5neml28VariableINS_11MillerIndexEE3setERKN2at6TensorEb
FNDA:199,_ZN5neml28VariableINS_2R2EE3setERKN2at6TensorEb
FNDA:0,_ZN5neml28VariableINS_2R3EE3setERKN2at6TensorEb
FNDA:0,_ZN5neml28VariableINS_2R4EE3setERKN2at6TensorEb
FNDA:0,_ZN5neml28VariableINS_2R5EE3setERKN2at6TensorEb
FNDA:0,_ZN5neml28VariableINS_2R8EE3setERKN2at6TensorEb
FNDA:526,_ZN5neml28VariableINS_3RotEE3setERKN2at6TensorEb
FNDA:5184,_ZN5neml28VariableINS_3SR2EE3setERKN2at6TensorEb
FNDA:12,_ZN5neml28VariableINS_3VecEE3setERKN2at6TensorEb
FNDA:88,_ZN5neml28VariableINS_3WR2EE3setERKN2at6TensorEb
FNDA:0,_ZN5neml28VariableINS_4SFR3EE3setERKN2at6TensorEb
FNDA:0,_ZN5neml28VariableINS_4SFR4EE3setERKN2at6TensorEb
FNDA:60,_ZN5neml28VariableINS_4SSR4EE3setERKN2at6TensorEb
FNDA:0,_ZN5neml28VariableINS_4SWR4EE3setERKN2at6TensorEb
FNDA:0,_ZN5neml28VariableINS_4WFR4EE3setERKN2at6TensorEb
FNDA:0,_ZN5neml28VariableINS_4WSR4EE3setERKN2at6TensorEb
FNDA:0,_ZN5neml28VariableINS_4WWR4EE3setERKN2at6TensorEb
FNDA:0,_ZN5neml28VariableINS_5SFFR4EE3setERKN2at6TensorEb
FNDA:0,_ZN5neml28VariableINS_5SSFR5EE3setERKN2at6TensorEb
FNDA:0,_ZN5neml28VariableINS_6SSSSR8EE3setERKN2at6TensorEb
FNDA:8312,_ZN5neml28VariableINS_6ScalarEE3setERKN2at6TensorEb
FNDA:10217,_ZN5neml212VariableBase5ownerEv
FNDA:0,_ZNK5neml28VariableINS_10QuaternionEE3getEv
FNDA:0,_ZNK5neml28VariableINS_11MillerIndexEE3getEv
FNDA:0,_ZNK5neml28VariableINS_2R2EE3getEv
FNDA:0,_ZNK5neml28VariableINS_2R3EE3getEv
FNDA:0,_ZNK5neml28VariableINS_2R4EE3getEv
FNDA:0,_ZNK5neml28VariableINS_2R5EE3getEv
FNDA:0,_ZNK5neml28VariableINS_2R8EE3getEv
FNDA:0,_ZNK5neml28VariableINS_3RotEE3getEv
FNDA:0,_ZNK5neml28VariableINS_3SR2EE3getEv
FNDA:0,_ZNK5neml28VariableINS_3VecEE3getEv
FNDA:0,_ZNK5neml28VariableINS_3WR2EE3getEv
FNDA:0,_ZNK5neml28VariableINS_4SFR3EE3getEv
FNDA:0,_ZNK5neml28VariableINS_4SFR4EE3getEv
FNDA:0,_ZNK5neml28VariableINS_4SSR4EE3getEv
FNDA:0,_ZNK5neml28VariableINS_4SWR4EE3getEv
FNDA:0,_ZNK5neml28VariableINS_4WFR4EE3getEv
FNDA:0,_ZNK5neml28VariableINS_4WSR4EE3getEv
FNDA:0,_ZNK5neml28VariableINS_4WWR4EE3getEv
FNDA:0,_ZNK5neml28VariableINS_5SFFR4EE3getEv
FNDA:0,_ZNK5neml28VariableINS_5SSFR5EE3getEv
FNDA:0,_ZNK5neml28VariableINS_6SSSSR8EE3getEv
FNDA:0,_ZNK5neml28VariableINS_6ScalarEE3getEv
FNDA:0,_ZNK5neml28VariableINS_10QuaternionEE6tensorEv
FNDA:0,_ZNK5neml28VariableINS_11MillerIndexEE6tensorEv
FNDA:26401,_ZNK5neml28VariableINS_2R2EE6tensorEv
FNDA:0,_ZNK5neml28VariableINS_2R3EE6tensorEv
FNDA:0,_ZNK5neml28VariableINS_2R4EE6tensorEv
FNDA:0,_ZNK5neml28VariableINS_2R5EE6tensorEv
FNDA:0,_ZNK5neml28VariableINS_2R8EE6tensorEv
FNDA:48398,_ZNK5neml28VariableINS_3RotEE6tensorEv
FNDA:396332,_ZNK5neml28VariableINS_3SR2EE6tensorEv
FNDA:88,_ZNK5neml28VariableINS_3VecEE6tensorEv
FNDA:30482,_ZNK5neml28VariableINS_3WR2EE6tensorEv
FNDA:0,_ZNK5neml28VariableINS_4SFR3EE6tensorEv
FNDA:0,_ZNK5neml28VariableINS_4SFR4EE6tensorEv
FNDA:17186,_ZNK5neml28VariableINS_4SSR4EE6tensorEv
FNDA:0,_ZNK5neml28VariableINS_4SWR4EE6tensorEv
FNDA:0,_ZNK5neml28VariableINS_4WFR4EE6tensorEv
FNDA:0,_ZNK5neml28VariableINS_4WSR4EE6tensorEv
FNDA:0,_ZNK5neml28VariableINS_4WWR4EE6tensorEv
FNDA:0,_ZNK5neml28VariableINS_5SFFR4EE6tensorEv
FNDA:0,_ZNK5neml28VariableINS_5SSFR5EE6tensorEv
FNDA:0,_ZNK5neml28VariableINS_6SSSSR8EE6tensorEv
FNDA:573547,_ZNK5neml28VariableINS_6ScalarEE6tensorEv
FNDA:0,_ZN5neml28VariableINS_10QuaternionEE14requires_grad_Eb
FNDA:0,_ZN5neml28VariableINS_11MillerIndexEE14requires_grad_Eb
FNDA:0,_ZN5neml28VariableINS_2R2EE14requires_grad_Eb
FNDA:0,_ZN5neml28VariableINS_2R3EE14requires_grad_Eb
FNDA:0,_ZN5neml28VariableINS_2R4EE14requires_grad_Eb
FNDA:0,_ZN5neml28VariableINS_2R5EE14requires_grad_Eb
FNDA:0,_ZN5neml28VariableINS_2R8EE14requires_grad_Eb
FNDA:0,_ZN5neml28VariableINS_3RotEE14requires_grad_Eb
FNDA:1,_ZN5neml28VariableINS_3SR2EE14requires_grad_Eb
FNDA:0,_ZN5neml28VariableINS_3VecEE14requires_grad_Eb
FNDA:0,_ZN5neml28VariableINS_3WR2EE14requires_grad_Eb
FNDA:0,_ZN5neml28VariableINS_4SFR3EE14requires_grad_Eb
FNDA:0,_ZN5neml28VariableINS_4SFR4EE14requires_grad_Eb
FNDA:0,_ZN5neml28VariableINS_4SSR4EE14requires_grad_Eb
FNDA:0,_ZN5neml28VariableINS_4SWR4EE14requires_grad_Eb
FNDA:0,_ZN5neml28VariableINS_4WFR4EE14requires_grad_Eb
FNDA:0,_ZN5neml28VariableINS_4WSR4EE14requires_grad_Eb
FNDA:0,_ZN5neml28VariableINS_4WWR4EE14requires_grad_Eb
FNDA:0,_ZN5neml28VariableINS_5SFFR4EE14requires_grad_Eb
FNDA:0,_ZN5neml28VariableINS_5SSFR5EE14requires_grad_Eb
FNDA:0,_ZN5neml28VariableINS_6SSSSR8EE14requires_grad_Eb
FNDA:5,_ZN5neml28VariableINS_6ScalarEE14requires_grad_Eb
FNDA:0,_ZN5neml28VariableINS_10QuaternionEEaSERKNS_6TensorE
FNDA:0,_ZN5neml28VariableINS_11MillerIndexEEaSERKNS_6TensorE
FNDA:19,_ZN5neml28VariableINS_2R2EEaSERKNS_6TensorE
FNDA:0,_ZN5neml28VariableINS_2R3EEaSERKNS_6TensorE
FNDA:0,_ZN5neml28VariableINS_2R4EEaSERKNS_6TensorE
FNDA:0,_ZN5neml28VariableINS_2R5EEaSERKNS_6TensorE
FNDA:0,_ZN5neml28VariableINS_2R8EEaSERKNS_6TensorE
FNDA:5,_ZN5neml28VariableINS_3RotEEaSERKNS_6TensorE
FNDA:167,_ZN5neml28VariableINS_3SR2EEaSERKNS_6TensorE
FNDA:1,_ZN5neml28VariableINS_3VecEEaSERKNS_6TensorE
FNDA:8,_ZN5neml28VariableINS_3WR2EEaSERKNS_6TensorE
FNDA:0,_ZN5neml28VariableINS_4SFR3EEaSERKNS_6TensorE
FNDA:0,_ZN5neml28VariableINS_4SFR4EEaSERKNS_6TensorE
FNDA:12,_ZN5neml28VariableINS_4SSR4EEaSERKNS_6TensorE
FNDA:0,_ZN5neml28VariableINS_4SWR4EEaSERKNS_6TensorE
FNDA:0,_ZN5neml28VariableINS_4WFR4EEaSERKNS_6TensorE
FNDA:0,_ZN5neml28VariableINS_4WSR4EEaSERKNS_6TensorE
FNDA:0,_ZN5neml28VariableINS_4WWR4EEaSERKNS_6TensorE
FNDA:0,_ZN5neml28VariableINS_5SFFR4EEaSERKNS_6TensorE
FNDA:0,_ZN5neml28VariableINS_5SSFR5EEaSERKNS_6TensorE
FNDA:0,_ZN5neml28VariableINS_6SSSSR8EEaSERKNS_6TensorE
FNDA:470,_ZN5neml28VariableINS_6ScalarEEaSERKNS_6TensorE
FNDA:0,_ZN5neml28VariableINS_10QuaternionEE5clearEv
FNDA:0,_ZN5neml28VariableINS_11MillerIndexEE5clearEv
FNDA:593,_ZN5neml28VariableINS_2R2EE5clearEv
FNDA:0,_ZN5neml28VariableINS_2R3EE5clearEv
FNDA:0,_ZN5neml28VariableINS_2R4EE5clearEv
FNDA:0,_ZN5neml28VariableINS_2R5EE5clearEv
FNDA:0,_ZN5neml28VariableINS_2R8EE5clearEv
FNDA:457,_ZN5neml28VariableINS_3RotEE5clearEv
FNDA:4868,_ZN5neml28VariableINS_3SR2EE5clearEv
FNDA:22,_ZN5neml28VariableINS_3VecEE5clearEv
FNDA:208,_ZN5neml28VariableINS_3WR2EE5clearEv
FNDA:0,_ZN5neml28VariableINS_4SFR3EE5clearEv
FNDA:0,_ZN5neml28VariableINS_4SFR4EE5clearEv
FNDA:236,_ZN5neml28VariableINS_4SSR4EE5clearEv
FNDA:0,_ZN5neml28VariableINS_4SWR4EE5clearEv
FNDA:0,_ZN5neml28VariableINS_4WFR4EE5clearEv
FNDA:0,_ZN5neml28VariableINS_4WSR4EE5clearEv
FNDA:0,_ZN5neml28VariableINS_4WWR4EE5clearEv
FNDA:0,_ZN5neml28VariableINS_5SFFR4EE5clearEv
FNDA:0,_ZN5neml28VariableINS_5SSFR5EE5clearEv
FNDA:0,_ZN5neml28VariableINS_6SSSSR8EE5clearEv
FNDA:13779,_ZN5neml28VariableINS_6ScalarEE5clearEv
FNDA:845,_ZNK5neml212VariableBase8is_stateEv
FNDA:1047,_ZN5neml210DerivativeaSERKNS_6TensorE
FNDA:166,_ZNK5neml212VariableBase12is_old_stateEv
FNDA:171,_ZNK5neml212VariableBase8is_forceEv
FNDA:48,_ZNK5neml212VariableBase12is_old_forceEv
FNDA:136,_ZNK5neml212VariableBase11is_residualEv
FNDA:90,_ZNK5neml212VariableBase12is_parameterEv
FNDA:397,_ZNK5neml212VariableBase18is_solve_dependentEv
FNF:285
FNH:93
DA:36,1760
DA:37,1760
DA:38,1760
DA:39,3520
DA:41,1760
DA:44,12303
DA:46,12303
DA:47,12303
DA:51,10217
DA:53,10217
DA:54,10217
DA:58,845
DA:60,845
DA:64,166
DA:66,166
DA:70,171
DA:72,171
DA:76,48
DA:78,48
DA:82,136
DA:84,136
DA:88,90
DA:90,90
DA:94,397
DA:96,397
DA:100,1569
DA:102,1569
DA:106,399
DA:108,399
DA:112,48
DA:114,48
DA:118,0
DA:120,0
DA:124,0
DA:126,0
DA:130,0
DA:132,0
DA:136,0
DA:138,0
DA:142,0
DA:144,0
DA:148,36959
DA:150,36959
DA:154,674592
DA:156,674592
DA:160,0
DA:162,0
DA:166,1
DA:168,1
DA:172,729855
DA:174,729855
DA:178,0
DA:180,0
DA:184,0
DA:186,0
DA:190,1
DA:192,1
DA:196,0
DA:198,0
DA:202,2865
DA:204,2865
DA:208,0
DA:210,0
DA:214,814
DA:216,814
DA:218,814
DA:220,814
DA:222,814
DA:226,233
DA:228,233
DA:230,233
DA:232,233
DA:234,233
DA:236,932
DA:237,233
DA:241,0
DA:243,0
DA:244,0
DA:247,4
DA:249,18
DA:251,14
DA:252,14
DA:254,4
DA:257,0
DA:259,0
DA:260,0
DA:263,3
DA:266,15
DA:267,60
DA:269,48
DA:270,48
DA:271,48
DA:273,3
DA:276,20163
DA:278,20163
DA:279,20163
DA:280,20163
DA:283,20767
DA:285,20767
DA:286,20767
DA:287,20767
DA:290,85
DA:292,109
DA:293,109
DA:295,85
DA:296,85
DA:301,16
DA:303,16
DA:304,16
DA:306,16
DA:307,16
DA:312,1025
DA:314,1025
DA:315,72
DA:317,953
DA:318,1025
DA:321,418
DA:325,418
DA:327,1121
DA:329,703
DA:330,479
DA:332,448
DA:333,639
DA:334,639
DA:337,418
DA:338,0
DA:341,48
DA:345,48
DA:347,83
DA:348,131
DA:350,96
DA:351,25
DA:352,71
DA:353,38
DA:354,38
DA:355,19
DA:356,95
DA:357,19
DA:358,52
DA:359,36
DA:360,36
DA:361,18
DA:362,90
DA:363,18
DA:365,68
DA:366,72
DA:367,76
DA:368,84
DA:369,46
DA:370,46
DA:371,276
DA:372,72
DA:375,124
DA:376,76
DA:377,64
DA:378,47
DA:379,38
DA:380,23
DA:381,115
DA:382,32
DA:384,48
DA:385,106
DA:389,1630
DA:391,1630
DA:396,538
DA:405,1614
DA:406,2152
DA:412,805
DA:414,805
DA:416,805
DA:418,805
DA:421,805
DA:423,805
DA:425,805
DA:427,805
DA:428,805
DA:430,805
DA:432,805
DA:433,805
DA:435,805
DA:437,805
DA:439,805
DA:441,805
DA:443,805
DA:444,805
DA:445,805
DA:449,20163
DA:451,20163
DA:456,20163
DA:460,0
DA:462,0
DA:464,0
DA:466,0
DA:469,0
DA:471,20163
DA:475,20505
DA:477,20505
DA:478,15841
DA:479,31682
DA:482,4664
DA:484,4664
DA:486,4664
DA:488,4664
DA:491,4664
DA:493,20505
DA:497,14381
DA:499,14381
DA:504,8890
DA:508,5491
DA:510,5491
DA:512,5491
DA:514,5491
DA:517,5491
DA:519,14381
DA:523,0
DA:525,0
DA:530,1092434
DA:532,1092434
DA:534,674592
DA:535,674592
DA:536,674592
DA:537,674592
DA:539,417842
DA:544,6
DA:546,6
DA:547,6
DA:550,0
DA:551,6
DA:555,682
DA:557,682
DA:558,682
DA:561,0
DA:563,0
DA:565,0
DA:567,0
DA:570,0
DA:572,682
DA:576,20163
DA:578,20163
DA:580,20163
DA:581,20163
DA:585,0
DA:587,0
DA:589,0
DA:591,0
DA:594,0
DA:596,20163
DA:602,1047
DA:604,1047
DA:605,1045
DA:607,2
DA:608,1047
LF:252
LH:207
end_of_record
TN:
SF:/home/runner/work/neml2/neml2/src/neml2/models/VariableRate.cxx
FN:35,52,_ZN5neml212VariableRateINS_3SR2EE16expected_optionsEv
FN:35,52,_ZN5neml212VariableRateINS_3VecEE16expected_optionsEv
FN:35,52,_ZN5neml212VariableRateINS_6ScalarEE16expected_optionsEv
FN:55,65,_ZN5neml212VariableRateINS_3SR2EEC2ERKNS_9OptionSetE
FN:55,65,_ZN5neml212VariableRateINS_3VecEEC2ERKNS_9OptionSetE
FN:55,65,_ZN5neml212VariableRateINS_6ScalarEEC2ERKNS_9OptionSetE
FN:69,73,_ZNK5neml212VariableRateINS_3SR2EE8diagnoseEv
FN:69,73,_ZNK5neml212VariableRateINS_3VecEE8diagnoseEv
FN:69,73,_ZNK5neml212VariableRateINS_6ScalarEE8diagnoseEv
FN:77,101,_ZN5neml212VariableRateINS_3SR2EE9set_valueEbbb
FN:77,101,_ZN5neml212VariableRateINS_3VecEE9set_valueEbbb
FN:77,101,_ZN5neml212VariableRateINS_6ScalarEE9set_valueEbbb
FNDA:2,_ZN5neml212VariableRateINS_3SR2EE16expected_optionsEv
FNDA:2,_ZN5neml212VariableRateINS_3VecEE16expected_optionsEv
FNDA:2,_ZN5neml212VariableRateINS_6ScalarEE16expected_optionsEv
FNDA:6,_ZN5neml212VariableRateINS_3SR2EEC2ERKNS_9OptionSetE
FNDA:0,_ZN5neml212VariableRateINS_3VecEEC2ERKNS_9OptionSetE
FNDA:2,_ZN5neml212VariableRateINS_6ScalarEEC2ERKNS_9OptionSetE
FNDA:6,_ZNK5neml212VariableRateINS_3SR2EE8diagnoseEv
FNDA:0,_ZNK5neml212VariableRateINS_3VecEE8diagnoseEv
FNDA:0,_ZNK5neml212VariableRateINS_6ScalarEE8diagnoseEv
FNDA:9,_ZN5neml212VariableRateINS_3SR2EE9set_valueEbbb
FNDA:0,_ZN5neml212VariableRateINS_3VecEE9set_valueEbbb
FNDA:4,_ZN5neml212VariableRateINS_6ScalarEE9set_valueEbbb
FNF:12
FNH:8
DA:35,6
DA:37,6
DA:38,6
DA:42,12
DA:43,12
DA:45,12
DA:46,6
DA:48,18
DA:49,6
DA:51,6
DA:52,0
DA:55,8
DA:57,8
DA:58,8
DA:59,8
DA:60,8
DA:61,16
DA:62,18
DA:63,16
DA:65,8
DA:69,6
DA:71,6
DA:72,6
DA:73,6
DA:77,13
DA:79,13
DA:80,13
DA:82,13
DA:83,11
DA:85,13
DA:87,5
DA:89,5
DA:90,3
DA:92,5
DA:93,2
DA:95,5
DA:96,3
DA:98,2
DA:99,2
DA:100,5
DA:101,16
LF:41
LH:40
end_of_record
TN:
SF:/home/runner/work/neml2/neml2/src/neml2/models/VariableStore.cxx
FN:100,106,_ZN5neml213VariableStore23declare_output_variableINS_10QuaternionEEERNS_8VariableIT_EEPKcN3c108ArrayRefIlEE
FN:100,106,_ZN5neml213VariableStore23declare_output_variableINS_11MillerIndexEEERNS_8VariableIT_EEPKcN3c108ArrayRefIlEE
FN:100,106,_ZN5neml213VariableStore23declare_output_variableINS_2R2EEERNS_8VariableIT_EEPKcN3c108ArrayRefIlEE
FN:100,106,_ZN5neml213VariableStore23declare_output_variableINS_2R3EEERNS_8VariableIT_EEPKcN3c108ArrayRefIlEE
FN:100,106,_ZN5neml213VariableStore23declare_output_variableINS_2R4EEERNS_8VariableIT_EEPKcN3c108ArrayRefIlEE
FN:100,106,_ZN5neml213VariableStore23declare_output_variableINS_2R5EEERNS_8VariableIT_EEPKcN3c108ArrayRefIlEE
FN:100,106,_ZN5neml213VariableStore23declare_output_variableINS_2R8EEERNS_8VariableIT_EEPKcN3c108ArrayRefIlEE
FN:100,106,_ZN5neml213VariableStore23declare_output_variableINS_3RotEEERNS_8VariableIT_EEPKcN3c108ArrayRefIlEE
FN:100,106,_ZN5neml213VariableStore23declare_output_variableINS_3SR2EEERNS_8VariableIT_EEPKcN3c108ArrayRefIlEE
FN:100,106,_ZN5neml213VariableStore23declare_output_variableINS_3VecEEERNS_8VariableIT_EEPKcN3c108ArrayRefIlEE
FN:100,106,_ZN5neml213VariableStore23declare_output_variableINS_3WR2EEERNS_8VariableIT_EEPKcN3c108ArrayRefIlEE
FN:100,106,_ZN5neml213VariableStore23declare_output_variableINS_4SFR3EEERNS_8VariableIT_EEPKcN3c108ArrayRefIlEE
FN:100,106,_ZN5neml213VariableStore23declare_output_variableINS_4SFR4EEERNS_8VariableIT_EEPKcN3c108ArrayRefIlEE
FN:100,106,_ZN5neml213VariableStore23declare_output_variableINS_4SSR4EEERNS_8VariableIT_EEPKcN3c108ArrayRefIlEE
FN:100,106,_ZN5neml213VariableStore23declare_output_variableINS_4SWR4EEERNS_8VariableIT_EEPKcN3c108ArrayRefIlEE
FN:100,106,_ZN5neml213VariableStore23declare_output_variableINS_4WFR4EEERNS_8VariableIT_EEPKcN3c108ArrayRefIlEE
FN:100,106,_ZN5neml213VariableStore23declare_output_variableINS_4WSR4EEERNS_8VariableIT_EEPKcN3c108ArrayRefIlEE
FN:100,106,_ZN5neml213VariableStore23declare_output_variableINS_4WWR4EEERNS_8VariableIT_EEPKcN3c108ArrayRefIlEE
FN:100,106,_ZN5neml213VariableStore23declare_output_variableINS_5SFFR4EEERNS_8VariableIT_EEPKcN3c108ArrayRefIlEE
FN:100,106,_ZN5neml213VariableStore23declare_output_variableINS_5SSFR5EEERNS_8VariableIT_EEPKcN3c108ArrayRefIlEE
FN:100,106,_ZN5neml213VariableStore23declare_output_variableINS_6SSSSR8EEERNS_8VariableIT_EEPKcN3c108ArrayRefIlEE
FN:100,106,_ZN5neml213VariableStore23declare_output_variableINS_6ScalarEEERNS_8VariableIT_EEPKcN3c108ArrayRefIlEE
FN:110,118,_ZN5neml213VariableStore23declare_output_variableINS_10QuaternionEEERNS_8VariableIT_EERKNS_19LabeledAxisAccessorEN3c108ArrayRefIlEE
FN:110,118,_ZN5neml213VariableStore23declare_output_variableINS_11MillerIndexEEERNS_8VariableIT_EERKNS_19LabeledAxisAccessorEN3c108ArrayRefIlEE
FN:110,118,_ZN5neml213VariableStore23declare_output_variableINS_2R2EEERNS_8VariableIT_EERKNS_19LabeledAxisAccessorEN3c108ArrayRefIlEE
FN:110,118,_ZN5neml213VariableStore23declare_output_variableINS_2R3EEERNS_8VariableIT_EERKNS_19LabeledAxisAccessorEN3c108ArrayRefIlEE
FN:110,118,_ZN5neml213VariableStore23declare_output_variableINS_2R4EEERNS_8VariableIT_EERKNS_19LabeledAxisAccessorEN3c108ArrayRefIlEE
FN:110,118,_ZN5neml213VariableStore23declare_output_variableINS_2R5EEERNS_8VariableIT_EERKNS_19LabeledAxisAccessorEN3c108ArrayRefIlEE
FN:110,118,_ZN5neml213VariableStore23declare_output_variableINS_2R8EEERNS_8VariableIT_EERKNS_19LabeledAxisAccessorEN3c108ArrayRefIlEE
FN:110,118,_ZN5neml213VariableStore23declare_output_variableINS_3RotEEERNS_8VariableIT_EERKNS_19LabeledAxisAccessorEN3c108ArrayRefIlEE
FN:110,118,_ZN5neml213VariableStore23declare_output_variableINS_3SR2EEERNS_8VariableIT_EERKNS_19LabeledAxisAccessorEN3c108ArrayRefIlEE
FN:110,118,_ZN5neml213VariableStore23declare_output_variableINS_3VecEEERNS_8VariableIT_EERKNS_19LabeledAxisAccessorEN3c108ArrayRefIlEE
FN:110,118,_ZN5neml213VariableStore23declare_output_variableINS_3WR2EEERNS_8VariableIT_EERKNS_19LabeledAxisAccessorEN3c108ArrayRefIlEE
FN:110,118,_ZN5neml213VariableStore23declare_output_variableINS_4SFR3EEERNS_8VariableIT_EERKNS_19LabeledAxisAccessorEN3c108ArrayRefIlEE
FN:110,118,_ZN5neml213VariableStore23declare_output_variableINS_4SFR4EEERNS_8VariableIT_EERKNS_19LabeledAxisAccessorEN3c108ArrayRefIlEE
FN:110,118,_ZN5neml213VariableStore23declare_output_variableINS_4SSR4EEERNS_8VariableIT_EERKNS_19LabeledAxisAccessorEN3c108ArrayRefIlEE
FN:110,118,_ZN5neml213VariableStore23declare_output_variableINS_4SWR4EEERNS_8VariableIT_EERKNS_19LabeledAxisAccessorEN3c108ArrayRefIlEE
FN:110,118,_ZN5neml213VariableStore23declare_output_variableINS_4WFR4EEERNS_8VariableIT_EERKNS_19LabeledAxisAccessorEN3c108ArrayRefIlEE
FN:110,118,_ZN5neml213VariableStore23declare_output_variableINS_4WSR4EEERNS_8VariableIT_EERKNS_19LabeledAxisAccessorEN3c108ArrayRefIlEE
FN:110,118,_ZN5neml213VariableStore23declare_output_variableINS_4WWR4EEERNS_8VariableIT_EERKNS_19LabeledAxisAccessorEN3c108ArrayRefIlEE
FN:110,118,_ZN5neml213VariableStore23declare_output_variableINS_5SFFR4EEERNS_8VariableIT_EERKNS_19LabeledAxisAccessorEN3c108ArrayRefIlEE
FN:110,118,_ZN5neml213VariableStore23declare_output_variableINS_5SSFR5EEERNS_8VariableIT_EERKNS_19LabeledAxisAccessorEN3c108ArrayRefIlEE
FN:110,118,_ZN5neml213VariableStore23declare_output_variableINS_6SSSSR8EEERNS_8VariableIT_EERKNS_19LabeledAxisAccessorEN3c108ArrayRefIlEE
FN:110,118,_ZN5neml213VariableStore23declare_output_variableINS_6ScalarEEERNS_8VariableIT_EERKNS_19LabeledAxisAccessorEN3c108ArrayRefIlEE
FN:126,138,_ZN5neml213VariableStore20clone_input_variableERKNS_12VariableBaseERKNS_19LabeledAxisAccessorE
FN:141,153,_ZN5neml213VariableStore21clone_output_variableERKNS_12VariableBaseERKNS_19LabeledAxisAccessorE
FN:157,189,_ZN5neml213VariableStore15create_variableINS_10QuaternionEEEPNS_8VariableIT_EERSt3mapINS_19LabeledAxisAccessorESt10unique_ptrINS_12VariableBaseESt14default_deleteISA_EESt4lessIS8_ESaISt4pairIKS8_SD_EEERSH_N3c108ArrayRefIlEEb
FN:157,189,_ZN5neml213VariableStore15create_variableINS_11MillerIndexEEEPNS_8VariableIT_EERSt3mapINS_19LabeledAxisAccessorESt10unique_ptrINS_12VariableBaseESt14default_deleteISA_EESt4lessIS8_ESaISt4pairIKS8_SD_EEERSH_N3c108ArrayRefIlEEb
FN:157,189,_ZN5neml213VariableStore15create_variableINS_2R2EEEPNS_8VariableIT_EERSt3mapINS_19LabeledAxisAccessorESt10unique_ptrINS_12VariableBaseESt14default_deleteISA_EESt4lessIS8_ESaISt4pairIKS8_SD_EEERSH_N3c108ArrayRefIlEEb
FN:157,189,_ZN5neml213VariableStore15create_variableINS_2R3EEEPNS_8VariableIT_EERSt3mapINS_19LabeledAxisAccessorESt10unique_ptrINS_12VariableBaseESt14default_deleteISA_EESt4lessIS8_ESaISt4pairIKS8_SD_EEERSH_N3c108ArrayRefIlEEb
FN:157,189,_ZN5neml213VariableStore15create_variableINS_2R4EEEPNS_8VariableIT_EERSt3mapINS_19LabeledAxisAccessorESt10unique_ptrINS_12VariableBaseESt14default_deleteISA_EESt4lessIS8_ESaISt4pairIKS8_SD_EEERSH_N3c108ArrayRefIlEEb
FN:157,189,_ZN5neml213VariableStore15create_variableINS_2R5EEEPNS_8VariableIT_EERSt3mapINS_19LabeledAxisAccessorESt10unique_ptrINS_12VariableBaseESt14default_deleteISA_EESt4lessIS8_ESaISt4pairIKS8_SD_EEERSH_N3c108ArrayRefIlEEb
FN:157,189,_ZN5neml213VariableStore15create_variableINS_2R8EEEPNS_8VariableIT_EERSt3mapINS_19LabeledAxisAccessorESt10unique_ptrINS_12VariableBaseESt14default_deleteISA_EESt4lessIS8_ESaISt4pairIKS8_SD_EEERSH_N3c108ArrayRefIlEEb
FN:157,189,_ZN5neml213VariableStore15create_variableINS_3RotEEEPNS_8VariableIT_EERSt3mapINS_19LabeledAxisAccessorESt10unique_ptrINS_12VariableBaseESt14default_deleteISA_EESt4lessIS8_ESaISt4pairIKS8_SD_EEERSH_N3c108ArrayRefIlEEb
FN:157,189,_ZN5neml213VariableStore15create_variableINS_3SR2EEEPNS_8VariableIT_EERSt3mapINS_19LabeledAxisAccessorESt10unique_ptrINS_12VariableBaseESt14default_deleteISA_EESt4lessIS8_ESaISt4pairIKS8_SD_EEERSH_N3c108ArrayRefIlEEb
FN:157,189,_ZN5neml213VariableStore15create_variableINS_3VecEEEPNS_8VariableIT_EERSt3mapINS_19LabeledAxisAccessorESt10unique_ptrINS_12VariableBaseESt14default_deleteISA_EESt4lessIS8_ESaISt4pairIKS8_SD_EEERSH_N3c108ArrayRefIlEEb
FN:157,189,_ZN5neml213VariableStore15create_variableINS_3WR2EEEPNS_8VariableIT_EERSt3mapINS_19LabeledAxisAccessorESt10unique_ptrINS_12VariableBaseESt14default_deleteISA_EESt4lessIS8_ESaISt4pairIKS8_SD_EEERSH_N3c108ArrayRefIlEEb
FN:157,189,_ZN5neml213VariableStore15create_variableINS_4SFR3EEEPNS_8VariableIT_EERSt3mapINS_19LabeledAxisAccessorESt10unique_ptrINS_12VariableBaseESt14default_deleteISA_EESt4lessIS8_ESaISt4pairIKS8_SD_EEERSH_N3c108ArrayRefIlEEb
FN:157,189,_ZN5neml213VariableStore15create_variableINS_4SFR4EEEPNS_8VariableIT_EERSt3mapINS_19LabeledAxisAccessorESt10unique_ptrINS_12VariableBaseESt14default_deleteISA_EESt4lessIS8_ESaISt4pairIKS8_SD_EEERSH_N3c108ArrayRefIlEEb
FN:157,189,_ZN5neml213VariableStore15create_variableINS_4SSR4EEEPNS_8VariableIT_EERSt3mapINS_19LabeledAxisAccessorESt10unique_ptrINS_12VariableBaseESt14default_deleteISA_EESt4lessIS8_ESaISt4pairIKS8_SD_EEERSH_N3c108ArrayRefIlEEb
FN:157,189,_ZN5neml213VariableStore15create_variableINS_4SWR4EEEPNS_8VariableIT_EERSt3mapINS_19LabeledAxisAccessorESt10unique_ptrINS_12VariableBaseESt14default_deleteISA_EESt4lessIS8_ESaISt4pairIKS8_SD_EEERSH_N3c108ArrayRefIlEEb
FN:157,189,_ZN5neml213VariableStore15create_variableINS_4WFR4EEEPNS_8VariableIT_EERSt3mapINS_19LabeledAxisAccessorESt10unique_ptrINS_12VariableBaseESt14default_deleteISA_EESt4lessIS8_ESaISt4pairIKS8_SD_EEERSH_N3c108ArrayRefIlEEb
FN:157,189,_ZN5neml213VariableStore15create_variableINS_4WSR4EEEPNS_8VariableIT_EERSt3mapINS_19LabeledAxisAccessorESt10unique_ptrINS_12VariableBaseESt14default_deleteISA_EESt4lessIS8_ESaISt4pairIKS8_SD_EEERSH_N3c108ArrayRefIlEEb
FN:157,189,_ZN5neml213VariableStore15create_variableINS_4WWR4EEEPNS_8VariableIT_EERSt3mapINS_19LabeledAxisAccessorESt10unique_ptrINS_12VariableBaseESt14default_deleteISA_EESt4lessIS8_ESaISt4pairIKS8_SD_EEERSH_N3c108ArrayRefIlEEb
FN:157,189,_ZN5neml213VariableStore15create_variableINS_5SFFR4EEEPNS_8VariableIT_EERSt3mapINS_19LabeledAxisAccessorESt10unique_ptrINS_12VariableBaseESt14default_deleteISA_EESt4lessIS8_ESaISt4pairIKS8_SD_EEERSH_N3c108ArrayRefIlEEb
FN:157,189,_ZN5neml213VariableStore15create_variableINS_5SSFR5EEEPNS_8VariableIT_EERSt3mapINS_19LabeledAxisAccessorESt10unique_ptrINS_12VariableBaseESt14default_deleteISA_EESt4lessIS8_ESaISt4pairIKS8_SD_EEERSH_N3c108ArrayRefIlEEb
FN:157,189,_ZN5neml213VariableStore15create_variableINS_6SSSSR8EEEPNS_8VariableIT_EERSt3mapINS_19LabeledAxisAccessorESt10unique_ptrINS_12VariableBaseESt14default_deleteISA_EESt4lessIS8_ESaISt4pairIKS8_SD_EEERSH_N3c108ArrayRefIlEEb
FN:157,189,_ZN5neml213VariableStore15create_variableINS_6ScalarEEEPNS_8VariableIT_EERSt3mapINS_19LabeledAxisAccessorESt10unique_ptrINS_12VariableBaseESt14default_deleteISA_EESt4lessIS8_ESaISt4pairIKS8_SD_EEERSH_N3c108ArrayRefIlEEb
FN:196,205,_ZN5neml213VariableStore14input_variableERKNS_19LabeledAxisAccessorE
FN:208,212,_ZNK5neml213VariableStore14input_variableERKNS_19LabeledAxisAccessorE
FN:215,224,_ZN5neml213VariableStore15output_variableERKNS_19LabeledAxisAccessorE
FN:227,231,_ZNK5neml213VariableStore15output_variableERKNS_19LabeledAxisAccessorE
FN:234,237,_ZN5neml213VariableStore17send_variables_toERKN3c1013TensorOptionsE
FN:240,245,_ZN5neml213VariableStore11clear_inputEv
FN:248,253,_ZN5neml213VariableStore12clear_outputEv
FN:256,260,_ZN5neml213VariableStore17clear_derivativesEv
FN:263,268,_ZN5neml213VariableStore10zero_inputEv
FN:271,276,_ZN5neml213VariableStore11zero_outputEv
FN:279,284,_ZN5neml213VariableStore12assign_inputERKSt3mapINS_19LabeledAxisAccessorENS_6TensorESt4lessIS2_ESaISt4pairIKS2_S3_EEE
FN:287,292,_ZN5neml213VariableStore12assign_inputEOSt3mapINS_19LabeledAxisAccessorENS_6TensorESt4lessIS2_ESaISt4pairIKS2_S3_EEE
FN:295,299,_ZN5neml213VariableStore13assign_outputERKSt3mapINS_19LabeledAxisAccessorENS_6TensorESt4lessIS2_ESaISt4pairIKS2_S3_EEE
FN:302,310,_ZN5neml213VariableStore25assign_output_derivativesERKSt3mapINS_19LabeledAxisAccessorES1_IS2_NS_6TensorESt4lessIS2_ESaISt4pairIKS2_S3_EEES5_SaIS6_IS7_SA_EEE
FN:313,329,_ZN5neml213VariableStore18assign_input_stackERSt6vectorIN3c106IValueESaIS3_EE
FN:332,417,_ZN5neml213VariableStore19assign_output_stackERSt6vectorIN3c106IValueESaIS3_EEbbb
FN:36,42,_ZN5neml213VariableStoreC2EPNS_5ModelE
FN:420,426,_ZNK5neml213VariableStore13collect_inputEv
FN:429,435,_ZNK5neml213VariableStore14collect_outputEv
FN:438,444,_ZNK5neml213VariableStore26collect_output_derivativesEv
FN:447,453,_ZNK5neml213VariableStore33collect_output_second_derivativesEv
FN:45,55,_ZN5neml213VariableStore12declare_axisERKNSt7__cxx1112basic_stringIcSt11char_traitsIcESaIcEEE
FN:456,464,_ZNK5neml213VariableStore19collect_input_stackEv
FN:467,534,_ZNK5neml213VariableStore20collect_output_stackEbbb
FN:58,62,_ZN5neml213VariableStore12setup_layoutEv
FN:66,75,_ZN5neml213VariableStore22declare_input_variableINS_10QuaternionEEERKNS_8VariableIT_EEPKcN3c108ArrayRefIlEEb
FN:66,75,_ZN5neml213VariableStore22declare_input_variableINS_11MillerIndexEEERKNS_8VariableIT_EEPKcN3c108ArrayRefIlEEb
FN:66,75,_ZN5neml213VariableStore22declare_input_variableINS_2R2EEERKNS_8VariableIT_EEPKcN3c108ArrayRefIlEEb
FN:66,75,_ZN5neml213VariableStore22declare_input_variableINS_2R3EEERKNS_8VariableIT_EEPKcN3c108ArrayRefIlEEb
FN:66,75,_ZN5neml213VariableStore22declare_input_variableINS_2R4EEERKNS_8VariableIT_EEPKcN3c108ArrayRefIlEEb
FN:66,75,_ZN5neml213VariableStore22declare_input_variableINS_2R5EEERKNS_8VariableIT_EEPKcN3c108ArrayRefIlEEb
FN:66,75,_ZN5neml213VariableStore22declare_input_variableINS_2R8EEERKNS_8VariableIT_EEPKcN3c108ArrayRefIlEEb
FN:66,75,_ZN5neml213VariableStore22declare_input_variableINS_3RotEEERKNS_8VariableIT_EEPKcN3c108ArrayRefIlEEb
FN:66,75,_ZN5neml213VariableStore22declare_input_variableINS_3SR2EEERKNS_8VariableIT_EEPKcN3c108ArrayRefIlEEb
FN:66,75,_ZN5neml213VariableStore22declare_input_variableINS_3VecEEERKNS_8VariableIT_EEPKcN3c108ArrayRefIlEEb
FN:66,75,_ZN5neml213VariableStore22declare_input_variableINS_3WR2EEERKNS_8VariableIT_EEPKcN3c108ArrayRefIlEEb
FN:66,75,_ZN5neml213VariableStore22declare_input_variableINS_4SFR3EEERKNS_8VariableIT_EEPKcN3c108ArrayRefIlEEb
FN:66,75,_ZN5neml213VariableStore22declare_input_variableINS_4SFR4EEERKNS_8VariableIT_EEPKcN3c108ArrayRefIlEEb
FN:66,75,_ZN5neml213VariableStore22declare_input_variableINS_4SSR4EEERKNS_8VariableIT_EEPKcN3c108ArrayRefIlEEb
FN:66,75,_ZN5neml213VariableStore22declare_input_variableINS_4SWR4EEERKNS_8VariableIT_EEPKcN3c108ArrayRefIlEEb
FN:66,75,_ZN5neml213VariableStore22declare_input_variableINS_4WFR4EEERKNS_8VariableIT_EEPKcN3c108ArrayRefIlEEb
FN:66,75,_ZN5neml213VariableStore22declare_input_variableINS_4WSR4EEERKNS_8VariableIT_EEPKcN3c108ArrayRefIlEEb
FN:66,75,_ZN5neml213VariableStore22declare_input_variableINS_4WWR4EEERKNS_8VariableIT_EEPKcN3c108ArrayRefIlEEb
FN:66,75,_ZN5neml213VariableStore22declare_input_variableINS_5SFFR4EEERKNS_8VariableIT_EEPKcN3c108ArrayRefIlEEb
FN:66,75,_ZN5neml213VariableStore22declare_input_variableINS_5SSFR5EEERKNS_8VariableIT_EEPKcN3c108ArrayRefIlEEb
FN:66,75,_ZN5neml213VariableStore22declare_input_variableINS_6SSSSR8EEERKNS_8VariableIT_EEPKcN3c108ArrayRefIlEEb
FN:66,75,_ZN5neml213VariableStore22declare_input_variableINS_6ScalarEEERKNS_8VariableIT_EEPKcN3c108ArrayRefIlEEb
FN:79,90,_ZN5neml213VariableStore22declare_input_variableINS_10QuaternionEEERKNS_8VariableIT_EERKNS_19LabeledAxisAccessorEN3c108ArrayRefIlEEb
FN:79,90,_ZN5neml213VariableStore22declare_input_variableINS_11MillerIndexEEERKNS_8VariableIT_EERKNS_19LabeledAxisAccessorEN3c108ArrayRefIlEEb
FN:79,90,_ZN5neml213VariableStore22declare_input_variableINS_2R2EEERKNS_8VariableIT_EERKNS_19LabeledAxisAccessorEN3c108ArrayRefIlEEb
FN:79,90,_ZN5neml213VariableStore22declare_input_variableINS_2R3EEERKNS_8VariableIT_EERKNS_19LabeledAxisAccessorEN3c108ArrayRefIlEEb
FN:79,90,_ZN5neml213VariableStore22declare_input_variableINS_2R4EEERKNS_8VariableIT_EERKNS_19LabeledAxisAccessorEN3c108ArrayRefIlEEb
FN:79,90,_ZN5neml213VariableStore22declare_input_variableINS_2R5EEERKNS_8VariableIT_EERKNS_19LabeledAxisAccessorEN3c108ArrayRefIlEEb
FN:79,90,_ZN5neml213VariableStore22declare_input_variableINS_2R8EEERKNS_8VariableIT_EERKNS_19LabeledAxisAccessorEN3c108ArrayRefIlEEb
FN:79,90,_ZN5neml213VariableStore22declare_input_variableINS_3RotEEERKNS_8VariableIT_EERKNS_19LabeledAxisAccessorEN3c108ArrayRefIlEEb
FN:79,90,_ZN5neml213VariableStore22declare_input_variableINS_3SR2EEERKNS_8VariableIT_EERKNS_19LabeledAxisAccessorEN3c108ArrayRefIlEEb
FN:79,90,_ZN5neml213VariableStore22declare_input_variableINS_3VecEEERKNS_8VariableIT_EERKNS_19LabeledAxisAccessorEN3c108ArrayRefIlEEb
FN:79,90,_ZN5neml213VariableStore22declare_input_variableINS_3WR2EEERKNS_8VariableIT_EERKNS_19LabeledAxisAccessorEN3c108ArrayRefIlEEb
FN:79,90,_ZN5neml213VariableStore22declare_input_variableINS_4SFR3EEERKNS_8VariableIT_EERKNS_19LabeledAxisAccessorEN3c108ArrayRefIlEEb
FN:79,90,_ZN5neml213VariableStore22declare_input_variableINS_4SFR4EEERKNS_8VariableIT_EERKNS_19LabeledAxisAccessorEN3c108ArrayRefIlEEb
FN:79,90,_ZN5neml213VariableStore22declare_input_variableINS_4SSR4EEERKNS_8VariableIT_EERKNS_19LabeledAxisAccessorEN3c108ArrayRefIlEEb
FN:79,90,_ZN5neml213VariableStore22declare_input_variableINS_4SWR4EEERKNS_8VariableIT_EERKNS_19LabeledAxisAccessorEN3c108ArrayRefIlEEb
FN:79,90,_ZN5neml213VariableStore22declare_input_variableINS_4WFR4EEERKNS_8VariableIT_EERKNS_19LabeledAxisAccessorEN3c108ArrayRefIlEEb
FN:79,90,_ZN5neml213VariableStore22declare_input_variableINS_4WSR4EEERKNS_8VariableIT_EERKNS_19LabeledAxisAccessorEN3c108ArrayRefIlEEb
FN:79,90,_ZN5neml213VariableStore22declare_input_variableINS_4WWR4EEERKNS_8VariableIT_EERKNS_19LabeledAxisAccessorEN3c108ArrayRefIlEEb
FN:79,90,_ZN5neml213VariableStore22declare_input_variableINS_5SFFR4EEERKNS_8VariableIT_EERKNS_19LabeledAxisAccessorEN3c108ArrayRefIlEEb
FN:79,90,_ZN5neml213VariableStore22declare_input_variableINS_5SSFR5EEERKNS_8VariableIT_EERKNS_19LabeledAxisAccessorEN3c108ArrayRefIlEEb
FN:79,90,_ZN5neml213VariableStore22declare_input_variableINS_6SSSSR8EEERKNS_8VariableIT_EERKNS_19LabeledAxisAccessorEN3c108ArrayRefIlEEb
FN:79,90,_ZN5neml213VariableStore22declare_input_variableINS_6ScalarEEERKNS_8VariableIT_EERKNS_19LabeledAxisAccessorEN3c108ArrayRefIlEEb
FNDA:0,_ZN5neml213VariableStore23declare_output_variableINS_10QuaternionEEERNS_8VariableIT_EEPKcN3c108ArrayRefIlEE
FNDA:0,_ZN5neml213VariableStore23declare_output_variableINS_11MillerIndexEEERNS_8VariableIT_EEPKcN3c108ArrayRefIlEE
FNDA:13,_ZN5neml213VariableStore23declare_output_variableINS_2R2EEERNS_8VariableIT_EEPKcN3c108ArrayRefIlEE
FNDA:0,_ZN5neml213VariableStore23declare_output_variableINS_2R3EEERNS_8VariableIT_EEPKcN3c108ArrayRefIlEE
FNDA:0,_ZN5neml213VariableStore23declare_output_variableINS_2R4EEERNS_8VariableIT_EEPKcN3c108ArrayRefIlEE
FNDA:0,_ZN5neml213VariableStore23declare_output_variableINS_2R5EEERNS_8VariableIT_EEPKcN3c108ArrayRefIlEE
FNDA:0,_ZN5neml213VariableStore23declare_output_variableINS_2R8EEERNS_8VariableIT_EEPKcN3c108ArrayRefIlEE
FNDA:2,_ZN5neml213VariableStore23declare_output_variableINS_3RotEEERNS_8VariableIT_EEPKcN3c108ArrayRefIlEE
FNDA:53,_ZN5neml213VariableStore23declare_output_variableINS_3SR2EEERNS_8VariableIT_EEPKcN3c108ArrayRefIlEE
FNDA:1,_ZN5neml213VariableStore23declare_output_variableINS_3VecEEERNS_8VariableIT_EEPKcN3c108ArrayRefIlEE
FNDA:5,_ZN5neml213VariableStore23declare_output_variableINS_3WR2EEERNS_8VariableIT_EEPKcN3c108ArrayRefIlEE
FNDA:0,_ZN5neml213VariableStore23declare_output_variableINS_4SFR3EEERNS_8VariableIT_EEPKcN3c108ArrayRefIlEE
FNDA:0,_ZN5neml213VariableStore23declare_output_variableINS_4SFR4EEERNS_8VariableIT_EEPKcN3c108ArrayRefIlEE
FNDA:0,_ZN5neml213VariableStore23declare_output_variableINS_4SSR4EEERNS_8VariableIT_EEPKcN3c108ArrayRefIlEE
FNDA:0,_ZN5neml213VariableStore23declare_output_variableINS_4SWR4EEERNS_8VariableIT_EEPKcN3c108ArrayRefIlEE
FNDA:0,_ZN5neml213VariableStore23declare_output_variableINS_4WFR4EEERNS_8VariableIT_EEPKcN3c108ArrayRefIlEE
FNDA:0,_ZN5neml213VariableStore23declare_output_variableINS_4WSR4EEERNS_8VariableIT_EEPKcN3c108ArrayRefIlEE
FNDA:0,_ZN5neml213VariableStore23declare_output_variableINS_4WWR4EEERNS_8VariableIT_EEPKcN3c108ArrayRefIlEE
FNDA:0,_ZN5neml213VariableStore23declare_output_variableINS_5SFFR4EEERNS_8VariableIT_EEPKcN3c108ArrayRefIlEE
FNDA:0,_ZN5neml213VariableStore23declare_output_variableINS_5SSFR5EEERNS_8VariableIT_EEPKcN3c108ArrayRefIlEE
FNDA:0,_ZN5neml213VariableStore23declare_output_variableINS_6SSSSR8EEERNS_8VariableIT_EEPKcN3c108ArrayRefIlEE
FNDA:215,_ZN5neml213VariableStore23declare_output_variableINS_6ScalarEEERNS_8VariableIT_EEPKcN3c108ArrayRefIlEE
FNDA:0,_ZN5neml213VariableStore23declare_output_variableINS_10QuaternionEEERNS_8VariableIT_EERKNS_19LabeledAxisAccessorEN3c108ArrayRefIlEE
FNDA:0,_ZN5neml213VariableStore23declare_output_variableINS_11MillerIndexEEERNS_8VariableIT_EERKNS_19LabeledAxisAccessorEN3c108ArrayRefIlEE
FNDA:13,_ZN5neml213VariableStore23declare_output_variableINS_2R2EEERNS_8VariableIT_EERKNS_19LabeledAxisAccessorEN3c108ArrayRefIlEE
FNDA:0,_ZN5neml213VariableStore23declare_output_variableINS_2R3EEERNS_8VariableIT_EERKNS_19LabeledAxisAccessorEN3c108ArrayRefIlEE
FNDA:0,_ZN5neml213VariableStore23declare_output_variableINS_2R4EEERNS_8VariableIT_EERKNS_19LabeledAxisAccessorEN3c108ArrayRefIlEE
FNDA:0,_ZN5neml213VariableStore23declare_output_variableINS_2R5EEERNS_8VariableIT_EERKNS_19LabeledAxisAccessorEN3c108ArrayRefIlEE
FNDA:0,_ZN5neml213VariableStore23declare_output_variableINS_2R8EEERNS_8VariableIT_EERKNS_19LabeledAxisAccessorEN3c108ArrayRefIlEE
FNDA:4,_ZN5neml213VariableStore23declare_output_variableINS_3RotEEERNS_8VariableIT_EERKNS_19LabeledAxisAccessorEN3c108ArrayRefIlEE
FNDA:111,_ZN5neml213VariableStore23declare_output_variableINS_3SR2EEERNS_8VariableIT_EERKNS_19LabeledAxisAccessorEN3c108ArrayRefIlEE
FNDA:1,_ZN5neml213VariableStore23declare_output_variableINS_3VecEEERNS_8VariableIT_EERKNS_19LabeledAxisAccessorEN3c108ArrayRefIlEE
FNDA:5,_ZN5neml213VariableStore23declare_output_variableINS_3WR2EEERNS_8VariableIT_EERKNS_19LabeledAxisAccessorEN3c108ArrayRefIlEE
FNDA:0,_ZN5neml213VariableStore23declare_output_variableINS_4SFR3EEERNS_8VariableIT_EERKNS_19LabeledAxisAccessorEN3c108ArrayRefIlEE
FNDA:0,_ZN5neml213VariableStore23declare_output_variableINS_4SFR4EEERNS_8VariableIT_EERKNS_19LabeledAxisAccessorEN3c108ArrayRefIlEE
FNDA:6,_ZN5neml213VariableStore23declare_output_variableINS_4SSR4EEERNS_8VariableIT_EERKNS_19LabeledAxisAccessorEN3c108ArrayRefIlEE
FNDA:0,_ZN5neml213VariableStore23declare_output_variableINS_4SWR4EEERNS_8VariableIT_EERKNS_19LabeledAxisAccessorEN3c108ArrayRefIlEE
FNDA:0,_ZN5neml213VariableStore23declare_output_variableINS_4WFR4EEERNS_8VariableIT_EERKNS_19LabeledAxisAccessorEN3c108ArrayRefIlEE
FNDA:0,_ZN5neml213VariableStore23declare_output_variableINS_4WSR4EEERNS_8VariableIT_EERKNS_19LabeledAxisAccessorEN3c108ArrayRefIlEE
FNDA:0,_ZN5neml213VariableStore23declare_output_variableINS_4WWR4EEERNS_8VariableIT_EERKNS_19LabeledAxisAccessorEN3c108ArrayRefIlEE
FNDA:0,_ZN5neml213VariableStore23declare_output_variableINS_5SFFR4EEERNS_8VariableIT_EERKNS_19LabeledAxisAccessorEN3c108ArrayRefIlEE
FNDA:0,_ZN5neml213VariableStore23declare_output_variableINS_5SSFR5EEERNS_8VariableIT_EERKNS_19LabeledAxisAccessorEN3c108ArrayRefIlEE
FNDA:0,_ZN5neml213VariableStore23declare_output_variableINS_6SSSSR8EEERNS_8VariableIT_EERKNS_19LabeledAxisAccessorEN3c108ArrayRefIlEE
FNDA:280,_ZN5neml213VariableStore23declare_output_variableINS_6ScalarEEERNS_8VariableIT_EERKNS_19LabeledAxisAccessorEN3c108ArrayRefIlEE
FNDA:405,_ZN5neml213VariableStore20clone_input_variableERKNS_12VariableBaseERKNS_19LabeledAxisAccessorE
FNDA:133,_ZN5neml213VariableStore21clone_output_variableERKNS_12VariableBaseERKNS_19LabeledAxisAccessorE
FNDA:0,_ZN5neml213VariableStore15create_variableINS_10QuaternionEEEPNS_8VariableIT_EERSt3mapINS_19LabeledAxisAccessorESt10unique_ptrINS_12VariableBaseESt14default_deleteISA_EESt4lessIS8_ESaISt4pairIKS8_SD_EEERSH_N3c108ArrayRefIlEEb
FNDA:0,_ZN5neml213VariableStore15create_variableINS_11MillerIndexEEEPNS_8VariableIT_EERSt3mapINS_19LabeledAxisAccessorESt10unique_ptrINS_12VariableBaseESt14default_deleteISA_EESt4lessIS8_ESaISt4pairIKS8_SD_EEERSH_N3c108ArrayRefIlEEb
FNDA:36,_ZN5neml213VariableStore15create_variableINS_2R2EEEPNS_8VariableIT_EERSt3mapINS_19LabeledAxisAccessorESt10unique_ptrINS_12VariableBaseESt14default_deleteISA_EESt4lessIS8_ESaISt4pairIKS8_SD_EEERSH_N3c108ArrayRefIlEEb
FNDA:0,_ZN5neml213VariableStore15create_variableINS_2R3EEEPNS_8VariableIT_EERSt3mapINS_19LabeledAxisAccessorESt10unique_ptrINS_12VariableBaseESt14default_deleteISA_EESt4lessIS8_ESaISt4pairIKS8_SD_EEERSH_N3c108ArrayRefIlEEb
FNDA:0,_ZN5neml213VariableStore15create_variableINS_2R4EEEPNS_8VariableIT_EERSt3mapINS_19LabeledAxisAccessorESt10unique_ptrINS_12VariableBaseESt14default_deleteISA_EESt4lessIS8_ESaISt4pairIKS8_SD_EEERSH_N3c108ArrayRefIlEEb
FNDA:0,_ZN5neml213VariableStore15create_variableINS_2R5EEEPNS_8VariableIT_EERSt3mapINS_19LabeledAxisAccessorESt10unique_ptrINS_12VariableBaseESt14default_deleteISA_EESt4lessIS8_ESaISt4pairIKS8_SD_EEERSH_N3c108ArrayRefIlEEb
FNDA:0,_ZN5neml213VariableStore15create_variableINS_2R8EEEPNS_8VariableIT_EERSt3mapINS_19LabeledAxisAccessorESt10unique_ptrINS_12VariableBaseESt14default_deleteISA_EESt4lessIS8_ESaISt4pairIKS8_SD_EEERSH_N3c108ArrayRefIlEEb
FNDA:20,_ZN5neml213VariableStore15create_variableINS_3RotEEEPNS_8VariableIT_EERSt3mapINS_19LabeledAxisAccessorESt10unique_ptrINS_12VariableBaseESt14default_deleteISA_EESt4lessIS8_ESaISt4pairIKS8_SD_EEERSH_N3c108ArrayRefIlEEb
FNDA:302,_ZN5neml213VariableStore15create_variableINS_3SR2EEEPNS_8VariableIT_EERSt3mapINS_19LabeledAxisAccessorESt10unique_ptrINS_12VariableBaseESt14default_deleteISA_EESt4lessIS8_ESaISt4pairIKS8_SD_EEERSH_N3c108ArrayRefIlEEb
FNDA:2,_ZN5neml213VariableStore15create_variableINS_3VecEEEPNS_8VariableIT_EERSt3mapINS_19LabeledAxisAccessorESt10unique_ptrINS_12VariableBaseESt14default_deleteISA_EESt4lessIS8_ESaISt4pairIKS8_SD_EEERSH_N3c108ArrayRefIlEEb
FNDA:14,_ZN5neml213VariableStore15create_variableINS_3WR2EEEPNS_8VariableIT_EERSt3mapINS_19LabeledAxisAccessorESt10unique_ptrINS_12VariableBaseESt14default_deleteISA_EESt4lessIS8_ESaISt4pairIKS8_SD_EEERSH_N3c108ArrayRefIlEEb
FNDA:0,_ZN5neml213VariableStore15create_variableINS_4SFR3EEEPNS_8VariableIT_EERSt3mapINS_19LabeledAxisAccessorESt10unique_ptrINS_12VariableBaseESt14default_deleteISA_EESt4lessIS8_ESaISt4pairIKS8_SD_EEERSH_N3c108ArrayRefIlEEb
FNDA:0,_ZN5neml213VariableStore15create_variableINS_4SFR4EEEPNS_8VariableIT_EERSt3mapINS_19LabeledAxisAccessorESt10unique_ptrINS_12VariableBaseESt14default_deleteISA_EESt4lessIS8_ESaISt4pairIKS8_SD_EEERSH_N3c108ArrayRefIlEEb
FNDA:10,_ZN5neml213VariableStore15create_variableINS_4SSR4EEEPNS_8VariableIT_EERSt3mapINS_19LabeledAxisAccessorESt10unique_ptrINS_12VariableBaseESt14default_deleteISA_EESt4lessIS8_ESaISt4pairIKS8_SD_EEERSH_N3c108ArrayRefIlEEb
FNDA:0,_ZN5neml213VariableStore15create_variableINS_4SWR4EEEPNS_8VariableIT_EERSt3mapINS_19LabeledAxisAccessorESt10unique_ptrINS_12VariableBaseESt14default_deleteISA_EESt4lessIS8_ESaISt4pairIKS8_SD_EEERSH_N3c108ArrayRefIlEEb
FNDA:0,_ZN5neml213VariableStore15create_variableINS_4WFR4EEEPNS_8VariableIT_EERSt3mapINS_19LabeledAxisAccessorESt10unique_ptrINS_12VariableBaseESt14default_deleteISA_EESt4lessIS8_ESaISt4pairIKS8_SD_EEERSH_N3c108ArrayRefIlEEb
FNDA:0,_ZN5neml213VariableStore15create_variableINS_4WSR4EEEPNS_8VariableIT_EERSt3mapINS_19LabeledAxisAccessorESt10unique_ptrINS_12VariableBaseESt14default_deleteISA_EESt4lessIS8_ESaISt4pairIKS8_SD_EEERSH_N3c108ArrayRefIlEEb
FNDA:0,_ZN5neml213VariableStore15create_variableINS_4WWR4EEEPNS_8VariableIT_EERSt3mapINS_19LabeledAxisAccessorESt10unique_ptrINS_12VariableBaseESt14default_deleteISA_EESt4lessIS8_ESaISt4pairIKS8_SD_EEERSH_N3c108ArrayRefIlEEb
FNDA:0,_ZN5neml213VariableStore15create_variableINS_5SFFR4EEEPNS_8VariableIT_EERSt3mapINS_19LabeledAxisAccessorESt10unique_ptrINS_12VariableBaseESt14default_deleteISA_EESt4lessIS8_ESaISt4pairIKS8_SD_EEERSH_N3c108ArrayRefIlEEb
FNDA:0,_ZN5neml213VariableStore15create_variableINS_5SSFR5EEEPNS_8VariableIT_EERSt3mapINS_19LabeledAxisAccessorESt10unique_ptrINS_12VariableBaseESt14default_deleteISA_EESt4lessIS8_ESaISt4pairIKS8_SD_EEERSH_N3c108ArrayRefIlEEb
FNDA:0,_ZN5neml213VariableStore15create_variableINS_6SSSSR8EEEPNS_8VariableIT_EERSt3mapINS_19LabeledAxisAccessorESt10unique_ptrINS_12VariableBaseESt14default_deleteISA_EESt4lessIS8_ESaISt4pairIKS8_SD_EEERSH_N3c108ArrayRefIlEEb
FNDA:840,_ZN5neml213VariableStore15create_variableINS_6ScalarEEEPNS_8VariableIT_EERSt3mapINS_19LabeledAxisAccessorESt10unique_ptrINS_12VariableBaseESt14default_deleteISA_EESt4lessIS8_ESaISt4pairIKS8_SD_EEERSH_N3c108ArrayRefIlEEb
FNDA:56112,_ZN5neml213VariableStore14input_variableERKNS_19LabeledAxisAccessorE
FNDA:37804,_ZNK5neml213VariableStore14input_variableERKNS_19LabeledAxisAccessorE
FNDA:14480,_ZN5neml213VariableStore15output_variableERKNS_19LabeledAxisAccessorE
FNDA:525,_ZNK5neml213VariableStore15output_variableERKNS_19LabeledAxisAccessorE
FNDA:91,_ZN5neml213VariableStore17send_variables_toERKN3c1013TensorOptionsE
FNDA:9213,_ZN5neml213VariableStore11clear_inputEv
FNDA:9213,_ZN5neml213VariableStore12clear_outputEv
FNDA:545,_ZN5neml213VariableStore17clear_derivativesEv
FNDA:9213,_ZN5neml213VariableStore10zero_inputEv
FNDA:9213,_ZN5neml213VariableStore11zero_outputEv
FNDA:3784,_ZN5neml213VariableStore12assign_inputERKSt3mapINS_19LabeledAxisAccessorENS_6TensorESt4lessIS2_ESaISt4pairIKS2_S3_EEE
FNDA:1574,_ZN5neml213VariableStore12assign_inputEOSt3mapINS_19LabeledAxisAccessorENS_6TensorESt4lessIS2_ESaISt4pairIKS2_S3_EEE
FNDA:26,_ZN5neml213VariableStore13assign_outputERKSt3mapINS_19LabeledAxisAccessorENS_6TensorESt4lessIS2_ESaISt4pairIKS2_S3_EEE
FNDA:9,_ZN5neml213VariableStore25assign_output_derivativesERKSt3mapINS_19LabeledAxisAccessorES1_IS2_NS_6TensorESt4lessIS2_ESaISt4pairIKS2_S3_EEES5_SaIS6_IS7_SA_EEE
FNDA:450,_ZN5neml213VariableStore18assign_input_stackERSt6vectorIN3c106IValueESaIS3_EE
FNDA:6506,_ZN5neml213VariableStore19assign_output_stackERSt6vectorIN3c106IValueESaIS3_EEbbb
FNDA:479,_ZN5neml213VariableStoreC2EPNS_5ModelE
FNDA:191,_ZNK5neml213VariableStore13collect_inputEv
FNDA:4246,_ZNK5neml213VariableStore14collect_outputEv
FNDA:2304,_ZNK5neml213VariableStore26collect_output_derivativesEv
FNDA:62,_ZNK5neml213VariableStore33collect_output_second_derivativesEv
FNDA:958,_ZN5neml213VariableStore12declare_axisERKNSt7__cxx1112basic_stringIcSt11char_traitsIcESaIcEEE
FNDA:6956,_ZNK5neml213VariableStore19collect_input_stackEv
FNDA:450,_ZNK5neml213VariableStore20collect_output_stackEbbb
FNDA:479,_ZN5neml213VariableStore12setup_layoutEv
FNDA:0,_ZN5neml213VariableStore22declare_input_variableINS_10QuaternionEEERKNS_8VariableIT_EEPKcN3c108ArrayRefIlEEb
FNDA:0,_ZN5neml213VariableStore22declare_input_variableINS_11MillerIndexEEERKNS_8VariableIT_EEPKcN3c108ArrayRefIlEEb
FNDA:23,_ZN5neml213VariableStore22declare_input_variableINS_2R2EEERKNS_8VariableIT_EEPKcN3c108ArrayRefIlEEb
FNDA:0,_ZN5neml213VariableStore22declare_input_variableINS_2R3EEERKNS_8VariableIT_EEPKcN3c108ArrayRefIlEEb
FNDA:0,_ZN5neml213VariableStore22declare_input_variableINS_2R4EEERKNS_8VariableIT_EEPKcN3c108ArrayRefIlEEb
FNDA:0,_ZN5neml213VariableStore22declare_input_variableINS_2R5EEERKNS_8VariableIT_EEPKcN3c108ArrayRefIlEEb
FNDA:0,_ZN5neml213VariableStore22declare_input_variableINS_2R8EEERKNS_8VariableIT_EEPKcN3c108ArrayRefIlEEb
FNDA:13,_ZN5neml213VariableStore22declare_input_variableINS_3RotEEERKNS_8VariableIT_EEPKcN3c108ArrayRefIlEEb
FNDA:100,_ZN5neml213VariableStore22declare_input_variableINS_3SR2EEERKNS_8VariableIT_EEPKcN3c108ArrayRefIlEEb
FNDA:1,_ZN5neml213VariableStore22declare_input_variableINS_3VecEEERKNS_8VariableIT_EEPKcN3c108ArrayRefIlEEb
FNDA:6,_ZN5neml213VariableStore22declare_input_variableINS_3WR2EEERKNS_8VariableIT_EEPKcN3c108ArrayRefIlEEb
FNDA:0,_ZN5neml213VariableStore22declare_input_variableINS_4SFR3EEERKNS_8VariableIT_EEPKcN3c108ArrayRefIlEEb
FNDA:0,_ZN5neml213VariableStore22declare_input_variableINS_4SFR4EEERKNS_8VariableIT_EEPKcN3c108ArrayRefIlEEb
FNDA:2,_ZN5neml213VariableStore22declare_input_variableINS_4SSR4EEERKNS_8VariableIT_EEPKcN3c108ArrayRefIlEEb
FNDA:0,_ZN5neml213VariableStore22declare_input_variableINS_4SWR4EEERKNS_8VariableIT_EEPKcN3c108ArrayRefIlEEb
FNDA:0,_ZN5neml213VariableStore22declare_input_variableINS_4WFR4EEERKNS_8VariableIT_EEPKcN3c108ArrayRefIlEEb
FNDA:0,_ZN5neml213VariableStore22declare_input_variableINS_4WSR4EEERKNS_8VariableIT_EEPKcN3c108ArrayRefIlEEb
FNDA:0,_ZN5neml213VariableStore22declare_input_variableINS_4WWR4EEERKNS_8VariableIT_EEPKcN3c108ArrayRefIlEEb
FNDA:0,_ZN5neml213VariableStore22declare_input_variableINS_5SFFR4EEERKNS_8VariableIT_EEPKcN3c108ArrayRefIlEEb
FNDA:0,_ZN5neml213VariableStore22declare_input_variableINS_5SSFR5EEERKNS_8VariableIT_EEPKcN3c108ArrayRefIlEEb
FNDA:0,_ZN5neml213VariableStore22declare_input_variableINS_6SSSSR8EEERKNS_8VariableIT_EEPKcN3c108ArrayRefIlEEb
FNDA:315,_ZN5neml213VariableStore22declare_input_variableINS_6ScalarEEERKNS_8VariableIT_EEPKcN3c108ArrayRefIlEEb
FNDA:0,_ZN5neml213VariableStore22declare_input_variableINS_10QuaternionEEERKNS_8VariableIT_EERKNS_19LabeledAxisAccessorEN3c108ArrayRefIlEEb
FNDA:0,_ZN5neml213VariableStore22declare_input_variableINS_11MillerIndexEEERKNS_8VariableIT_EERKNS_19LabeledAxisAccessorEN3c108ArrayRefIlEEb
FNDA:23,_ZN5neml213VariableStore22declare_input_variableINS_2R2EEERKNS_8VariableIT_EERKNS_19LabeledAxisAccessorEN3c108ArrayRefIlEEb
FNDA:0,_ZN5neml213VariableStore22declare_input_variableINS_2R3EEERKNS_8VariableIT_EERKNS_19LabeledAxisAccessorEN3c108ArrayRefIlEEb
FNDA:0,_ZN5neml213VariableStore22declare_input_variableINS_2R4EEERKNS_8VariableIT_EERKNS_19LabeledAxisAccessorEN3c108ArrayRefIlEEb
FNDA:0,_ZN5neml213VariableStore22declare_input_variableINS_2R5EEERKNS_8VariableIT_EERKNS_19LabeledAxisAccessorEN3c108ArrayRefIlEEb
FNDA:0,_ZN5neml213VariableStore22declare_input_variableINS_2R8EEERKNS_8VariableIT_EERKNS_19LabeledAxisAccessorEN3c108ArrayRefIlEEb
FNDA:16,_ZN5neml213VariableStore22declare_input_variableINS_3RotEEERKNS_8VariableIT_EERKNS_19LabeledAxisAccessorEN3c108ArrayRefIlEEb
FNDA:191,_ZN5neml213VariableStore22declare_input_variableINS_3SR2EEERKNS_8VariableIT_EERKNS_19LabeledAxisAccessorEN3c108ArrayRefIlEEb
FNDA:1,_ZN5neml213VariableStore22declare_input_variableINS_3VecEEERKNS_8VariableIT_EERKNS_19LabeledAxisAccessorEN3c108ArrayRefIlEEb
FNDA:9,_ZN5neml213VariableStore22declare_input_variableINS_3WR2EEERKNS_8VariableIT_EERKNS_19LabeledAxisAccessorEN3c108ArrayRefIlEEb
FNDA:0,_ZN5neml213VariableStore22declare_input_variableINS_4SFR3EEERKNS_8VariableIT_EERKNS_19LabeledAxisAccessorEN3c108ArrayRefIlEEb
FNDA:0,_ZN5neml213VariableStore22declare_input_variableINS_4SFR4EEERKNS_8VariableIT_EERKNS_19LabeledAxisAccessorEN3c108ArrayRefIlEEb
FNDA:4,_ZN5neml213VariableStore22declare_input_variableINS_4SSR4EEERKNS_8VariableIT_EERKNS_19LabeledAxisAccessorEN3c108ArrayRefIlEEb
FNDA:0,_ZN5neml213VariableStore22declare_input_variableINS_4SWR4EEERKNS_8VariableIT_EERKNS_19LabeledAxisAccessorEN3c108ArrayRefIlEEb
FNDA:0,_ZN5neml213VariableStore22declare_input_variableINS_4WFR4EEERKNS_8VariableIT_EERKNS_19LabeledAxisAccessorEN3c108ArrayRefIlEEb
FNDA:0,_ZN5neml213VariableStore22declare_input_variableINS_4WSR4EEERKNS_8VariableIT_EERKNS_19LabeledAxisAccessorEN3c108ArrayRefIlEEb
FNDA:0,_ZN5neml213VariableStore22declare_input_variableINS_4WWR4EEERKNS_8VariableIT_EERKNS_19LabeledAxisAccessorEN3c108ArrayRefIlEEb
FNDA:0,_ZN5neml213VariableStore22declare_input_variableINS_5SFFR4EEERKNS_8VariableIT_EERKNS_19LabeledAxisAccessorEN3c108ArrayRefIlEEb
FNDA:0,_ZN5neml213VariableStore22declare_input_variableINS_5SSFR5EEERKNS_8VariableIT_EERKNS_19LabeledAxisAccessorEN3c108ArrayRefIlEEb
FNDA:0,_ZN5neml213VariableStore22declare_input_variableINS_6SSSSR8EEERKNS_8VariableIT_EERKNS_19LabeledAxisAccessorEN3c108ArrayRefIlEEb
FNDA:560,_ZN5neml213VariableStore22declare_input_variableINS_6ScalarEEERKNS_8VariableIT_EERKNS_19LabeledAxisAccessorEN3c108ArrayRefIlEEb
FNF:137
FNH:61
DA:36,479
DA:37,479
DA:38,958
DA:39,479
DA:40,958
DA:42,479
DA:45,958
DA:47,958
DA:52,958
DA:53,958
DA:54,1916
DA:55,958
DA:58,479
DA:60,479
DA:61,479
DA:62,479
DA:66,460
DA:70,1380
DA:71,1380
DA:72,920
DA:74,0
DA:79,804
DA:83,804
DA:84,804
DA:85,804
DA:87,804
DA:88,802
DA:89,804
DA:100,289
DA:102,867
DA:103,867
DA:105,0
DA:110,420
DA:112,420
DA:113,420
DA:114,420
DA:116,420
DA:117,420
DA:126,405
DA:128,405
DA:130,405
DA:131,405
DA:132,405
DA:133,405
DA:135,405
DA:136,405
DA:137,810
DA:138,405
DA:141,133
DA:143,133
DA:145,133
DA:146,133
DA:147,133
DA:148,133
DA:150,133
DA:151,133
DA:152,266
DA:153,133
DA:157,1224
DA:163,1224
DA:164,1146
DA:169,1224
DA:171,1224
DA:172,2
DA:176,1222
DA:177,1222
DA:178,1222
DA:179,1222
DA:180,1222
DA:183,1224
DA:184,1224
DA:185,0
DA:188,1224
DA:196,56112
DA:198,56112
DA:199,56112
DA:203,56112
DA:204,112224
DA:208,37804
DA:211,37804
DA:215,14480
DA:217,14480
DA:218,14480
DA:222,14480
DA:223,28960
DA:227,525
DA:230,525
DA:234,91
DA:236,91
DA:237,91
DA:240,9213
DA:242,35253
DA:243,26040
DA:244,11564
DA:245,9213
DA:248,9213
DA:250,20271
DA:251,11058
DA:252,8599
DA:253,9213
DA:256,545
DA:258,1149
DA:259,604
DA:260,545
DA:263,9213
DA:265,35253
DA:266,26040
DA:267,11564
DA:268,9213
DA:271,9213
DA:273,20271
DA:274,11058
DA:275,8599
DA:276,9213
DA:279,3784
DA:281,14959
DA:282,11175
DA:283,11175
DA:284,3784
DA:287,1574
DA:289,6162
DA:290,4588
DA:291,4588
DA:292,1574
DA:295,26
DA:297,104
DA:298,78
DA:299,26
DA:302,9
DA:304,30
DA:306,21
DA:307,60
DA:308,39
DA:310,9
DA:313,450
DA:315,450
DA:316,450
DA:318,450
DA:320,450
DA:324,1549
DA:325,1099
DA:328,450
DA:329,450
DA:332,6506
DA:334,6506
DA:337,6506
DA:338,6506
DA:341,6506
DA:342,6506
DA:344,13012
DA:346,13012
DA:348,6506
DA:350,6506
DA:351,6506
DA:353,6506
DA:354,6506
DA:356,6506
DA:358,11935
DA:360,7791
DA:361,7791
DA:365,6506
DA:367,7187
DA:369,4885
DA:370,42679
DA:372,37794
DA:374,14668
DA:375,14668
DA:381,14668
DA:383,14668
DA:389,6506
DA:391,134
DA:393,72
DA:394,191
DA:395,432
DA:397,313
DA:399,231
DA:400,231
DA:408,231
DA:410,231
DA:416,6506
DA:417,6506
DA:420,191
DA:422,191
DA:423,1846
DA:424,1655
DA:425,191
DA:426,0
DA:429,4246
DA:431,4246
DA:432,12414
DA:433,8168
DA:434,4246
DA:435,0
DA:438,2304
DA:440,2304
DA:441,7193
DA:442,4889
DA:443,2304
DA:444,0
DA:447,62
DA:449,62
DA:450,134
DA:451,72
DA:452,62
DA:453,0
DA:456,6956
DA:458,6956
DA:459,6956
DA:460,6956
DA:461,43897
DA:462,36941
DA:463,6956
DA:464,0
DA:467,450
DA:469,450
DA:472,450
DA:473,450
DA:475,450
DA:476,450
DA:478,450
DA:480,198
DA:481,426
DA:482,228
DA:485,450
DA:487,417
DA:489,225
DA:490,906
DA:492,681
DA:493,681
DA:494,681
DA:495,532
DA:500,450
DA:502,134
DA:504,72
DA:505,191
DA:507,119
DA:508,119
DA:509,389
DA:511,289
DA:512,289
DA:513,289
DA:515,289
DA:516,231
DA:519,19
DA:524,450
DA:525,450
DA:526,450
DA:530,450
DA:531,450
DA:533,1800
DA:534,900
LF:251
LH:243
end_of_record
TN:
SF:/home/runner/work/neml2/neml2/src/neml2/models/WR2ExplicitExponentialTimeIntegration.cxx
FN:36,53,_ZN5neml237WR2ExplicitExponentialTimeIntegration16expected_optionsEv
FN:55,66,_ZN5neml237WR2ExplicitExponentialTimeIntegrationC2ERKNS_9OptionSetE
FN:69,75,_ZNK5neml237WR2ExplicitExponentialTimeIntegration8diagnoseEv
FN:78,100,_ZN5neml237WR2ExplicitExponentialTimeIntegration9set_valueEbbb
FNDA:2,_ZN5neml237WR2ExplicitExponentialTimeIntegration16expected_optionsEv
FNDA:1,_ZN5neml237WR2ExplicitExponentialTimeIntegrationC2ERKNS_9OptionSetE
FNDA:0,_ZNK5neml237WR2ExplicitExponentialTimeIntegration8diagnoseEv
FNDA:2,_ZN5neml237WR2ExplicitExponentialTimeIntegration9set_valueEbbb
FNF:4
FNH:3
DA:36,2
DA:38,2
DA:39,2
DA:41,2
DA:43,4
DA:44,4
DA:46,4
DA:47,2
DA:49,6
DA:50,2
DA:52,2
DA:53,0
DA:55,1
DA:56,1
DA:58,1
DA:59,1
DA:60,2
DA:61,4
DA:62,1
DA:63,1
DA:64,2
DA:66,1
DA:69,0
DA:71,0
DA:72,0
DA:73,0
DA:74,0
DA:75,0
DA:78,2
DA:80,2
DA:83,2
DA:85,2
DA:86,1
DA:88,2
DA:90,1
DA:91,1
DA:93,1
DA:94,0
DA:96,1
DA:97,1
DA:98,1
DA:99,1
DA:100,2
LF:43
LH:35
end_of_record
TN:
SF:/home/runner/work/neml2/neml2/src/neml2/models/WR2ImplicitExponentialTimeIntegration.cxx
FN:38,58,_ZN5neml237WR2ImplicitExponentialTimeIntegration16expected_optionsEv
FN:60,72,_ZN5neml237WR2ImplicitExponentialTimeIntegrationC2ERKNS_9OptionSetE
FN:75,81,_ZNK5neml237WR2ImplicitExponentialTimeIntegration8diagnoseEv
FN:84,105,_ZN5neml237WR2ImplicitExponentialTimeIntegration9set_valueEbbb
FNDA:2,_ZN5neml237WR2ImplicitExponentialTimeIntegration16expected_optionsEv
FNDA:2,_ZN5neml237WR2ImplicitExponentialTimeIntegrationC2ERKNS_9OptionSetE
FNDA:1,_ZNK5neml237WR2ImplicitExponentialTimeIntegration8diagnoseEv
FNDA:4,_ZN5neml237WR2ImplicitExponentialTimeIntegration9set_valueEbbb
FNF:4
FNH:4
DA:38,2
DA:40,2
DA:41,2
DA:44,2
DA:46,2
DA:48,4
DA:49,4
DA:51,4
DA:52,2
DA:54,6
DA:55,2
DA:57,2
DA:58,0
DA:60,2
DA:61,2
DA:63,2
DA:64,2
DA:65,4
DA:66,8
DA:67,2
DA:68,2
DA:69,2
DA:70,4
DA:72,2
DA:75,1
DA:77,1
DA:78,1
DA:79,1
DA:80,1
DA:81,1
DA:84,4
DA:86,4
DA:87,4
DA:89,4
DA:90,3
DA:92,4
DA:94,2
DA:95,2
DA:96,2
DA:98,2
DA:99,1
DA:101,1
DA:102,1
DA:103,1
DA:104,2
DA:105,5
LF:46
LH:45
end_of_record
TN:
SF:/home/runner/work/neml2/neml2/src/neml2/models/chemical_reactions/AvramiErofeevNucleation.cxx
FN:34,49,_ZN5neml223AvramiErofeevNucleation16expected_optionsEv
FN:51,56,_ZN5neml223AvramiErofeevNucleationC2ERKNS_9OptionSetE
FN:59,66,_ZN5neml223AvramiErofeevNucleation9set_valueEbbb
FNDA:2,_ZN5neml223AvramiErofeevNucleation16expected_optionsEv
FNDA:1,_ZN5neml223AvramiErofeevNucleationC2ERKNS_9OptionSetE
FNDA:2,_ZN5neml223AvramiErofeevNucleation9set_valueEbbb
FNF:3
FNH:3
DA:34,2
DA:36,2
DA:37,2
DA:40,2
DA:42,4
DA:43,4
DA:45,4
DA:46,2
DA:48,2
DA:49,0
DA:51,1
DA:53,3
DA:54,5
DA:56,1
DA:59,2
DA:61,2
DA:62,1
DA:64,2
DA:65,1
DA:66,2
LF:20
LH:19
end_of_record
TN:
SF:/home/runner/work/neml2/neml2/src/neml2/models/chemical_reactions/ContractingGeometry.cxx
FN:33,49,_ZN5neml219ContractingGeometry16expected_optionsEv
FN:51,56,_ZN5neml219ContractingGeometryC2ERKNS_9OptionSetE
FN:59,75,_ZN5neml219ContractingGeometry9set_valueEbbb
FNDA:2,_ZN5neml219ContractingGeometry16expected_optionsEv
FNDA:1,_ZN5neml219ContractingGeometryC2ERKNS_9OptionSetE
FNDA:2,_ZN5neml219ContractingGeometry9set_valueEbbb
FNF:3
FNH:3
DA:33,2
DA:35,2
DA:36,2
DA:40,2
DA:42,4
DA:43,4
DA:45,4
DA:46,2
DA:48,2
DA:49,0
DA:51,1
DA:53,3
DA:54,5
DA:56,1
DA:59,2
DA:61,2
DA:62,2
DA:64,2
DA:65,1
DA:67,2
DA:69,1
DA:70,1
DA:72,3
DA:73,0
DA:75,2
LF:25
LH:23
end_of_record
TN:
SF:/home/runner/work/neml2/neml2/src/neml2/models/chemical_reactions/CylindricalChannelGeometry.cxx
FN:36,52,_ZN5neml226CylindricalChannelGeometry16expected_optionsEv
FN:54,61,_ZN5neml226CylindricalChannelGeometryC2ERKNS_9OptionSetE
FN:64,87,_ZN5neml226CylindricalChannelGeometry9set_valueEbbb
FNDA:2,_ZN5neml226CylindricalChannelGeometry16expected_optionsEv
FNDA:1,_ZN5neml226CylindricalChannelGeometryC2ERKNS_9OptionSetE
FNDA:2,_ZN5neml226CylindricalChannelGeometry9set_valueEbbb
FNF:3
FNH:3
DA:36,2
DA:38,2
DA:39,2
DA:41,6
DA:42,2
DA:43,6
DA:44,2
DA:46,6
DA:47,2
DA:48,6
DA:49,2
DA:51,2
DA:52,0
DA:54,1
DA:56,1
DA:57,1
DA:58,1
DA:59,2
DA:61,1
DA:64,2
DA:66,2
DA:67,2
DA:70,2
DA:71,2
DA:72,2
DA:73,2
DA:75,2
DA:77,1
DA:78,1
DA:81,2
DA:83,1
DA:84,1
DA:85,1
DA:87,2
LF:34
LH:33
end_of_record
TN:
SF:/home/runner/work/neml2/neml2/src/neml2/models/chemical_reactions/DiffusionLimitedReaction.cxx
FN:33,61,_ZN5neml224DiffusionLimitedReaction16expected_optionsEv
FN:63,74,_ZN5neml224DiffusionLimitedReactionC2ERKNS_9OptionSetE
FN:77,98,_ZN5neml224DiffusionLimitedReaction9set_valueEbbb
FNDA:2,_ZN5neml224DiffusionLimitedReaction16expected_optionsEv
FNDA:1,_ZN5neml224DiffusionLimitedReactionC2ERKNS_9OptionSetE
FNDA:2,_ZN5neml224DiffusionLimitedReaction9set_valueEbbb
FNF:3
FNH:3
DA:33,2
DA:35,2
DA:36,2
DA:38,6
DA:39,2
DA:40,6
DA:41,4
DA:42,4
DA:43,2
DA:45,6
DA:46,2
DA:47,6
DA:48,2
DA:50,6
DA:51,4
DA:53,4
DA:54,6
DA:55,2
DA:57,4
DA:58,2
DA:60,2
DA:61,0
DA:63,1
DA:65,1
DA:66,1
DA:67,1
DA:68,1
DA:69,1
DA:70,1
DA:71,5
DA:72,2
DA:74,1
DA:77,2
DA:79,2
DA:81,2
DA:82,2
DA:84,2
DA:86,1
DA:89,2
DA:91,1
DA:93,1
DA:94,1
DA:95,1
DA:96,1
DA:97,1
DA:98,2
LF:46
LH:45
end_of_record
TN:
SF:/home/runner/work/neml2/neml2/src/neml2/models/chemical_reactions/EffectiveVolume.cxx
FN:33,59,_ZN5neml215EffectiveVolume16expected_optionsEv
FN:61,88,_ZN5neml215EffectiveVolumeC2ERKNS_9OptionSetE
FN:91,112,_ZN5neml215EffectiveVolume9set_valueEbbb
FNDA:2,_ZN5neml215EffectiveVolume16expected_optionsEv
FNDA:1,_ZN5neml215EffectiveVolumeC2ERKNS_9OptionSetE
FNDA:2,_ZN5neml215EffectiveVolume9set_valueEbbb
FNF:3
FNH:3
DA:33,2
DA:35,2
DA:36,2
DA:41,2
DA:43,4
DA:44,4
DA:46,4
DA:47,4
DA:49,4
DA:50,4
DA:52,4
DA:53,2
DA:55,6
DA:56,2
DA:58,2
DA:59,0
DA:61,1
DA:63,4
DA:64,1
DA:65,1
DA:67,2
DA:69,6
DA:70,5
DA:73,1
DA:76,1
DA:78,1
DA:80,1
DA:84,1
DA:85,5
DA:86,4
DA:87,8
DA:88,1
DA:91,2
DA:93,2
DA:95,10
DA:96,8
DA:98,2
DA:100,2
DA:101,1
DA:103,2
DA:105,5
DA:106,4
DA:107,4
DA:109,1
DA:110,1
DA:112,2
LF:46
LH:45
end_of_record
TN:
SF:/home/runner/work/neml2/neml2/src/neml2/models/chemical_reactions/ReactionMechanism.cxx
FN:30,41,_ZN5neml217ReactionMechanism16expected_optionsEv
FN:43,48,_ZN5neml217ReactionMechanismC2ERKNS_9OptionSetE
FNDA:4,_ZN5neml217ReactionMechanism16expected_optionsEv
FNDA:2,_ZN5neml217ReactionMechanismC2ERKNS_9OptionSetE
FNF:2
FNH:2
DA:30,4
DA:32,4
DA:34,12
DA:35,4
DA:37,12
DA:38,4
DA:40,4
DA:41,0
DA:43,2
DA:45,2
DA:46,4
DA:48,2
LF:12
LH:11
end_of_record
TN:
SF:/home/runner/work/neml2/neml2/src/neml2/models/crystallography/CrystalGeometry.cxx
FN:118,121,_ZNK5neml215crystallography15CrystalGeometry2a1Ev
FN:124,127,_ZNK5neml215crystallography15CrystalGeometry2a2Ev
FN:130,133,_ZNK5neml215crystallography15CrystalGeometry2a3Ev
FN:136,139,_ZNK5neml215crystallography15CrystalGeometry2b1Ev
FN:142,145,_ZNK5neml215crystallography15CrystalGeometry2b2Ev
FN:148,151,_ZNK5neml215crystallography15CrystalGeometry2b3Ev
FN:154,157,_ZNK5neml215crystallography15CrystalGeometry5nslipEv
FN:160,164,_ZNK5neml215crystallography15CrystalGeometry12nslip_groupsEv
FN:167,171,_ZNK5neml215crystallography15CrystalGeometry14nslip_in_groupEl
FN:174,185,_ZN5neml215crystallography15CrystalGeometry23make_reciprocal_latticeERKNS_3VecE
FN:188,192,_ZN5neml215crystallography15CrystalGeometry19miller_to_cartesianERKNS_3VecERKNS_11MillerIndexE
FN:195,253,_ZN5neml215crystallography15CrystalGeometry20setup_schmid_tensorsERKNS_3VecERKNS_2R2ERKNS_11MillerIndexESA_
FN:44,65,_ZN5neml215crystallography15CrystalGeometry16expected_optionsEv
FN:67,70,_ZN5neml215crystallography15CrystalGeometryC2ERKNS_9OptionSetE
FN:72,79,_ZN5neml215crystallography15CrystalGeometryC2ERKNS_9OptionSetEPNS_7FactoryE
FN:81,91,_ZN5neml215crystallography15CrystalGeometryC2ERKNS_9OptionSetERKNS_2R2ERKNS_3VecERKNS_11MillerIndexESD_
FN:93,115,_ZN5neml215crystallography15CrystalGeometryC2ERKNS_9OptionSetERKNS_2R2ERKNS_3VecESt5tupleIJS8_S8_NS_6ScalarESt6vectorIlSaIlEEEE
FNDA:2,_ZNK5neml215crystallography15CrystalGeometry2a1Ev
FNDA:2,_ZNK5neml215crystallography15CrystalGeometry2a2Ev
FNDA:2,_ZNK5neml215crystallography15CrystalGeometry2a3Ev
FNDA:2,_ZNK5neml215crystallography15CrystalGeometry2b1Ev
FNDA:2,_ZNK5neml215crystallography15CrystalGeometry2b2Ev
FNDA:2,_ZNK5neml215crystallography15CrystalGeometry2b3Ev
FNDA:33,_ZNK5neml215crystallography15CrystalGeometry5nslipEv
FNDA:6,_ZNK5neml215crystallography15CrystalGeometry12nslip_groupsEv
FNDA:2,_ZNK5neml215crystallography15CrystalGeometry14nslip_in_groupEl
FNDA:66,_ZN5neml215crystallography15CrystalGeometry23make_reciprocal_latticeERKNS_3VecE
FNDA:66,_ZN5neml215crystallography15CrystalGeometry19miller_to_cartesianERKNS_3VecERKNS_11MillerIndexE
FNDA:33,_ZN5neml215crystallography15CrystalGeometry20setup_schmid_tensorsERKNS_3VecERKNS_2R2ERKNS_11MillerIndexESA_
FNDA:4,_ZN5neml215crystallography15CrystalGeometry16expected_optionsEv
FNDA:11,_ZN5neml215crystallography15CrystalGeometryC2ERKNS_9OptionSetE
FNDA:11,_ZN5neml215crystallography15CrystalGeometryC2ERKNS_9OptionSetEPNS_7FactoryE
FNDA:33,_ZN5neml215crystallography15CrystalGeometryC2ERKNS_9OptionSetERKNS_2R2ERKNS_3VecERKNS_11MillerIndexESD_
FNDA:33,_ZN5neml215crystallography15CrystalGeometryC2ERKNS_9OptionSetERKNS_2R2ERKNS_3VecESt5tupleIJS8_S8_NS_6ScalarESt6vectorIlSaIlEEEE
FNF:17
FNH:17
DA:44,4
DA:46,4
DA:48,4
DA:49,4
DA:51,8
DA:52,8
DA:54,8
DA:55,12
DA:56,4
DA:58,8
DA:59,8
DA:61,8
DA:62,4
DA:64,4
DA:65,0
DA:67,11
DA:68,11
DA:70,11
DA:72,11
DA:74,22
DA:75,22
DA:76,22
DA:77,55
DA:79,11
DA:81,33
DA:85,33
DA:89,33
DA:91,33
DA:93,33
DA:96,33
DA:98,33
DA:99,33
DA:100,33
DA:101,66
DA:102,132
DA:103,132
DA:104,33
DA:105,66
DA:106,66
DA:107,66
DA:108,33
DA:109,33
DA:110,66
DA:111,66
DA:112,99
DA:113,132
DA:115,33
DA:118,2
DA:120,6
DA:121,2
DA:124,2
DA:126,6
DA:127,2
DA:130,2
DA:132,6
DA:133,2
DA:136,2
DA:138,6
DA:139,2
DA:142,2
DA:144,6
DA:145,2
DA:148,2
DA:150,6
DA:151,2
DA:154,33
DA:156,33
DA:160,6
DA:163,6
DA:167,2
DA:169,2
DA:170,2
DA:174,66
DA:176,132
DA:177,132
DA:178,132
DA:180,462
DA:181,132
DA:182,198
DA:184,132
DA:185,528
DA:188,66
DA:191,66
DA:195,33
DA:201,33
DA:204,33
DA:205,0
DA:207,33
DA:208,33
DA:211,33
DA:212,33
DA:213,33
DA:214,66
DA:216,66
DA:219,99
DA:220,99
DA:223,33
DA:224,33
DA:229,33
DA:230,231
DA:232,594
DA:233,198
DA:234,198
DA:236,594
DA:238,792
DA:239,1188
DA:240,396
DA:241,396
DA:242,396
DA:243,396
DA:244,396
DA:245,198
DA:246,33
DA:247,33
DA:249,66
DA:250,66
DA:251,66
DA:252,66
DA:253,1089
LF:119
LH:117
end_of_record
TN:
SF:/home/runner/work/neml2/neml2/src/neml2/models/crystallography/CubicCrystal.cxx
FN:37,50,_ZN5neml215crystallography12CubicCrystal16expected_optionsEv
FN:52,55,_ZN5neml215crystallography12CubicCrystalC2ERKNS_9OptionSetE
FN:57,65,_ZN5neml215crystallography12CubicCrystalC2ERKNS_9OptionSetEPNS_7FactoryE
FNDA:2,_ZN5neml215crystallography12CubicCrystal16expected_optionsEv
FNDA:22,_ZN5neml215crystallography12CubicCrystalC2ERKNS_9OptionSetE
FNDA:22,_ZN5neml215crystallography12CubicCrystalC2ERKNS_9OptionSetEPNS_7FactoryE
FNF:3
FNH:3
DA:37,2
DA:39,2
DA:40,2
DA:41,2
DA:43,4
DA:44,4
DA:46,4
DA:47,2
DA:49,2
DA:50,0
DA:52,22
DA:53,22
DA:55,22
DA:57,22
DA:59,88
DA:60,44
DA:61,44
DA:62,44
DA:63,110
DA:65,22
LF:20
LH:19
end_of_record
TN:
SF:/home/runner/work/neml2/neml2/src/neml2/models/phase_field_fracture/CrackGeometricFunction.cxx
FN:31,42,_ZN5neml222CrackGeometricFunction16expected_optionsEv
FN:44,49,_ZN5neml222CrackGeometricFunctionC2ERKNS_9OptionSetE
FNDA:4,_ZN5neml222CrackGeometricFunction16expected_optionsEv
FNDA:2,_ZN5neml222CrackGeometricFunctionC2ERKNS_9OptionSetE
FNF:2
FNH:2
DA:31,4
DA:33,4
DA:35,12
DA:36,4
DA:38,12
DA:39,4
DA:41,4
DA:42,0
DA:44,2
DA:46,2
DA:47,4
DA:49,2
LF:12
LH:11
end_of_record
TN:
SF:/home/runner/work/neml2/neml2/src/neml2/models/phase_field_fracture/CrackGeometricFunctionAT1.cxx
FN:33,41,_ZN5neml225CrackGeometricFunctionAT116expected_optionsEv
FN:43,46,_ZN5neml225CrackGeometricFunctionAT1C2ERKNS_9OptionSetE
FN:49,60,_ZN5neml225CrackGeometricFunctionAT19set_valueEbbb
FNDA:2,_ZN5neml225CrackGeometricFunctionAT116expected_optionsEv
FNDA:1,_ZN5neml225CrackGeometricFunctionAT1C2ERKNS_9OptionSetE
FNDA:3,_ZN5neml225CrackGeometricFunctionAT19set_valueEbbb
FNF:3
FNH:3
DA:33,2
DA:35,2
DA:36,2
DA:37,2
DA:38,2
DA:40,2
DA:41,0
DA:43,1
DA:44,1
DA:46,1
DA:49,3
DA:51,3
DA:53,1
DA:56,3
DA:58,1
DA:60,3
LF:16
LH:15
end_of_record
TN:
SF:/home/runner/work/neml2/neml2/src/neml2/models/phase_field_fracture/CrackGeometricFunctionAT2.cxx
FN:33,41,_ZN5neml225CrackGeometricFunctionAT216expected_optionsEv
FN:43,46,_ZN5neml225CrackGeometricFunctionAT2C2ERKNS_9OptionSetE
FN:49,65,_ZN5neml225CrackGeometricFunctionAT29set_valueEbbb
FNDA:2,_ZN5neml225CrackGeometricFunctionAT216expected_optionsEv
FNDA:1,_ZN5neml225CrackGeometricFunctionAT2C2ERKNS_9OptionSetE
FNDA:3,_ZN5neml225CrackGeometricFunctionAT29set_valueEbbb
FNF:3
FNH:3
DA:33,2
DA:35,2
DA:36,2
DA:37,2
DA:39,2
DA:40,2
DA:41,0
DA:43,1
DA:44,1
DA:46,1
DA:49,3
DA:51,3
DA:53,1
DA:56,3
DA:58,1
DA:61,3
DA:63,1
DA:65,3
LF:18
LH:17
end_of_record
TN:
SF:/home/runner/work/neml2/neml2/src/neml2/models/phase_field_fracture/DegradationFunction.cxx
FN:31,41,_ZN5neml219DegradationFunction16expected_optionsEv
FN:43,48,_ZN5neml219DegradationFunctionC2ERKNS_9OptionSetE
FNDA:4,_ZN5neml219DegradationFunction16expected_optionsEv
FNDA:2,_ZN5neml219DegradationFunctionC2ERKNS_9OptionSetE
FNF:2
FNH:2
DA:31,4
DA:33,4
DA:34,12
DA:35,4
DA:37,12
DA:38,4
DA:40,4
DA:41,0
DA:43,2
DA:45,2
DA:46,4
DA:48,2
LF:12
LH:11
end_of_record
TN:
SF:/home/runner/work/neml2/neml2/src/neml2/models/phase_field_fracture/LinearIsotropicStrainEnergyDensity.cxx
FN:112,142,_ZN5neml234LinearIsotropicStrainEnergyDensity20voldev_decompositionEbbb
FN:145,180,_ZN5neml234LinearIsotropicStrainEnergyDensity22spectral_decompositionEbbb
FN:43,56,_ZN5neml234LinearIsotropicStrainEnergyDensity16expected_optionsEv
FN:58,63,_ZN5neml234LinearIsotropicStrainEnergyDensityC2ERKNS_9OptionSetE
FN:66,82,_ZN5neml234LinearIsotropicStrainEnergyDensity9set_valueEbbb
FN:85,109,_ZN5neml234LinearIsotropicStrainEnergyDensity16no_decompositionEbbb
FNDA:12,_ZN5neml234LinearIsotropicStrainEnergyDensity20voldev_decompositionEbbb
FNDA:15,_ZN5neml234LinearIsotropicStrainEnergyDensity22spectral_decompositionEbbb
FNDA:2,_ZN5neml234LinearIsotropicStrainEnergyDensity16expected_optionsEv
FNDA:10,_ZN5neml234LinearIsotropicStrainEnergyDensityC2ERKNS_9OptionSetE
FNDA:30,_ZN5neml234LinearIsotropicStrainEnergyDensity9set_valueEbbb
FNDA:3,_ZN5neml234LinearIsotropicStrainEnergyDensity16no_decompositionEbbb
FNF:6
FNH:6
DA:43,2
DA:45,2
DA:46,2
DA:47,2
DA:48,4
DA:50,8
DA:51,2
DA:52,4
DA:53,6
DA:55,4
DA:56,2
DA:58,10
DA:60,10
DA:61,20
DA:63,10
DA:66,30
DA:68,30
DA:70,3
DA:71,3
DA:72,3
DA:73,12
DA:74,12
DA:75,12
DA:76,15
DA:77,15
DA:78,15
DA:79,0
DA:80,0
DA:82,30
DA:85,3
DA:87,3
DA:88,3
DA:89,3
DA:90,3
DA:91,3
DA:92,3
DA:93,3
DA:94,3
DA:96,3
DA:98,1
DA:99,1
DA:101,3
DA:103,1
DA:105,3
DA:107,1
DA:109,3
DA:112,12
DA:114,12
DA:115,12
DA:116,12
DA:117,12
DA:118,12
DA:119,12
DA:120,12
DA:121,12
DA:124,12
DA:125,12
DA:127,12
DA:129,4
DA:130,4
DA:132,12
DA:134,4
DA:135,4
DA:137,12
DA:139,4
DA:140,4
DA:142,12
DA:145,15
DA:147,15
DA:148,15
DA:149,15
DA:150,15
DA:151,15
DA:152,15
DA:153,15
DA:156,15
DA:157,15
DA:158,15
DA:159,15
DA:160,15
DA:161,15
DA:163,15
DA:165,5
DA:166,5
DA:168,15
DA:170,5
DA:171,5
DA:173,15
DA:175,5
DA:176,5
DA:177,5
DA:178,5
DA:179,5
DA:180,15
LF:94
LH:92
end_of_record
TN:
SF:/home/runner/work/neml2/neml2/src/neml2/models/phase_field_fracture/PowerDegradationFunction.cxx
FN:34,47,_ZN5neml224PowerDegradationFunction16expected_optionsEv
FN:49,54,_ZN5neml224PowerDegradationFunctionC2ERKNS_9OptionSetE
FN:57,73,_ZN5neml224PowerDegradationFunction9set_valueEbbb
FNDA:2,_ZN5neml224PowerDegradationFunction16expected_optionsEv
FNDA:1,_ZN5neml224PowerDegradationFunctionC2ERKNS_9OptionSetE
FNDA:3,_ZN5neml224PowerDegradationFunction9set_valueEbbb
FNF:3
FNH:3
DA:34,2
DA:36,2
DA:37,2
DA:38,2
DA:39,4
DA:40,4
DA:41,4
DA:42,4
DA:44,2
DA:46,2
DA:47,0
DA:49,1
DA:51,4
DA:52,2
DA:54,1
DA:57,3
DA:59,3
DA:61,1
DA:64,3
DA:66,1
DA:69,3
DA:71,1
DA:73,3
LF:23
LH:22
end_of_record
TN:
SF:/home/runner/work/neml2/neml2/src/neml2/models/phase_field_fracture/RationalDegradationFunction.cxx
FN:34,59,_ZN5neml227RationalDegradationFunction16expected_optionsEv
FN:61,70,_ZN5neml227RationalDegradationFunctionC2ERKNS_9OptionSetE
FN:73,103,_ZN5neml227RationalDegradationFunction9set_valueEbbb
FNDA:2,_ZN5neml227RationalDegradationFunction16expected_optionsEv
FNDA:1,_ZN5neml227RationalDegradationFunctionC2ERKNS_9OptionSetE
FNDA:3,_ZN5neml227RationalDegradationFunction9set_valueEbbb
FNF:3
FNH:3
DA:34,2
DA:36,2
DA:37,2
DA:40,2
DA:41,4
DA:42,4
DA:44,4
DA:45,4
DA:47,4
DA:48,4
DA:50,4
DA:51,4
DA:53,4
DA:54,4
DA:56,2
DA:58,2
DA:59,0
DA:61,1
DA:63,4
DA:64,1
DA:65,4
DA:66,4
DA:67,5
DA:70,1
DA:73,3
DA:75,3
DA:76,3
DA:78,1
DA:81,3
DA:82,6
DA:83,9
DA:84,3
DA:86,3
DA:88,1
DA:91,3
DA:93,6
DA:94,12
DA:95,6
DA:96,9
DA:97,3
DA:99,3
DA:101,1
DA:103,3
LF:43
LH:42
end_of_record
TN:
SF:/home/runner/work/neml2/neml2/src/neml2/models/phase_field_fracture/StrainEnergyDensity.cxx
FN:31,46,_ZN5neml219StrainEnergyDensity16expected_optionsEv
FN:48,54,_ZN5neml219StrainEnergyDensityC2ERKNS_9OptionSetE
FNDA:2,_ZN5neml219StrainEnergyDensity16expected_optionsEv
FNDA:10,_ZN5neml219StrainEnergyDensityC2ERKNS_9OptionSetE
FNF:2
FNH:2
DA:31,2
DA:33,2
DA:35,6
DA:36,2
DA:38,6
DA:39,2
DA:41,6
DA:42,4
DA:43,2
DA:45,2
DA:46,0
DA:48,10
DA:50,10
DA:51,10
DA:52,20
DA:54,10
LF:16
LH:15
end_of_record
TN:
SF:/home/runner/work/neml2/neml2/src/neml2/models/porous_flow/AdvectiveStress.cxx
FN:34,64,_ZN5neml215AdvectiveStress16expected_optionsEv
FN:66,75,_ZN5neml215AdvectiveStressC2ERKNS_9OptionSetE
FN:78,106,_ZN5neml215AdvectiveStress9set_valueEbbb
FNDA:2,_ZN5neml215AdvectiveStress16expected_optionsEv
FNDA:1,_ZN5neml215AdvectiveStressC2ERKNS_9OptionSetE
FNDA:2,_ZN5neml215AdvectiveStress9set_valueEbbb
FNF:3
FNH:3
DA:34,2
DA:36,2
DA:37,2
DA:41,2
DA:43,4
DA:44,4
DA:46,4
DA:47,6
DA:48,2
DA:50,4
DA:51,4
DA:52,2
DA:54,6
DA:55,2
DA:57,6
DA:58,2
DA:60,6
DA:61,2
DA:63,2
DA:64,0
DA:66,1
DA:68,4
DA:69,2
DA:70,1
DA:71,1
DA:72,1
DA:73,2
DA:75,1
DA:78,2
DA:80,2
DA:81,2
DA:83,2
DA:85,2
DA:88,2
DA:90,1
DA:92,1
DA:93,4
DA:94,5
DA:96,1
DA:97,4
DA:98,5
DA:100,1
DA:101,1
DA:103,1
DA:104,1
DA:105,1
DA:106,2
LF:47
LH:46
end_of_record
TN:
SF:/home/runner/work/neml2/neml2/src/neml2/models/porous_flow/BrooksCoreyCapillaryPressure.cxx
FN:32,49,_ZN5neml228BrooksCoreyCapillaryPressure16expected_optionsEv
FN:51,56,_ZN5neml228BrooksCoreyCapillaryPressureC2ERKNS_9OptionSetE
FN:59,69,_ZNK5neml228BrooksCoreyCapillaryPressure18calculate_pressureERKNS_6ScalarEbbb
FNDA:2,_ZN5neml228BrooksCoreyCapillaryPressure16expected_optionsEv
FNDA:1,_ZN5neml228BrooksCoreyCapillaryPressureC2ERKNS_9OptionSetE
FNDA:6,_ZNK5neml228BrooksCoreyCapillaryPressure18calculate_pressureERKNS_6ScalarEbbb
FNF:3
FNH:3
DA:32,2
DA:34,2
DA:35,2
DA:38,2
DA:40,4
DA:42,4
DA:43,4
DA:45,4
DA:46,2
DA:48,2
DA:49,0
DA:51,1
DA:53,3
DA:54,5
DA:56,1
DA:59,6
DA:64,6
DA:65,6
DA:66,6
DA:68,12
DA:69,6
LF:21
LH:20
end_of_record
TN:
SF:/home/runner/work/neml2/neml2/src/neml2/models/porous_flow/CapillaryPressure.cxx
FN:32,51,_ZN5neml217CapillaryPressure16expected_optionsEv
FN:53,72,_ZN5neml217CapillaryPressureC2ERKNS_9OptionSetE
FN:75,109,_ZN5neml217CapillaryPressure9set_valueEbbb
FNDA:4,_ZN5neml217CapillaryPressure16expected_optionsEv
FNDA:2,_ZN5neml217CapillaryPressureC2ERKNS_9OptionSetE
FNDA:6,_ZN5neml217CapillaryPressure9set_valueEbbb
FNF:3
FNH:3
DA:32,4
DA:34,4
DA:35,4
DA:37,12
DA:38,4
DA:40,12
DA:41,8
DA:43,8
DA:44,8
DA:46,8
DA:47,8
DA:48,4
DA:50,4
DA:51,0
DA:53,2
DA:55,2
DA:56,2
DA:57,4
DA:58,4
DA:59,4
DA:61,2
DA:63,0
DA:65,2
DA:67,0
DA:69,2
DA:71,0
DA:72,2
DA:75,6
DA:77,6
DA:79,6
DA:82,6
DA:83,6
DA:84,6
DA:85,6
DA:86,6
DA:87,6
DA:89,6
DA:90,2
DA:92,6
DA:93,2
DA:95,6
DA:96,2
DA:97,6
DA:100,0
DA:101,0
DA:103,0
DA:104,0
DA:106,0
DA:107,0
DA:109,6
LF:50
LH:40
end_of_record
TN:
SF:/home/runner/work/neml2/neml2/src/neml2/models/porous_flow/EffectiveSaturation.cxx
FN:31,53,_ZN5neml219EffectiveSaturation16expected_optionsEv
FN:55,62,_ZN5neml219EffectiveSaturationC2ERKNS_9OptionSetE
FN:65,80,_ZN5neml219EffectiveSaturation9set_valueEbbb
FNDA:2,_ZN5neml219EffectiveSaturation16expected_optionsEv
FNDA:1,_ZN5neml219EffectiveSaturationC2ERKNS_9OptionSetE
FNDA:2,_ZN5neml219EffectiveSaturation9set_valueEbbb
FNF:3
FNH:3
DA:31,2
DA:33,2
DA:34,2
DA:38,2
DA:40,8
DA:41,2
DA:43,6
DA:44,4
DA:46,8
DA:47,2
DA:49,6
DA:50,2
DA:52,2
DA:53,0
DA:55,1
DA:57,3
DA:58,1
DA:59,4
DA:60,2
DA:62,1
DA:65,2
DA:67,2
DA:69,2
DA:72,2
DA:74,1
DA:75,1
DA:77,3
DA:78,1
DA:80,2
LF:29
LH:28
end_of_record
TN:
SF:/home/runner/work/neml2/neml2/src/neml2/models/porous_flow/ExponentialLawPermeability.cxx
FN:33,51,_ZN5neml226ExponentialLawPermeability16expected_optionsEv
FN:53,59,_ZN5neml226ExponentialLawPermeabilityC2ERKNS_9OptionSetE
FN:62,69,_ZN5neml226ExponentialLawPermeability9set_valueEbbb
FNDA:2,_ZN5neml226ExponentialLawPermeability16expected_optionsEv
FNDA:1,_ZN5neml226ExponentialLawPermeabilityC2ERKNS_9OptionSetE
FNDA:2,_ZN5neml226ExponentialLawPermeability9set_valueEbbb
FNF:3
FNH:3
DA:33,2
DA:35,2
DA:36,2
DA:39,2
DA:41,4
DA:42,4
DA:44,4
DA:45,4
DA:47,4
DA:48,2
DA:50,2
DA:51,0
DA:53,1
DA:55,3
DA:56,4
DA:57,5
DA:59,1
DA:62,2
DA:64,2
DA:65,1
DA:67,2
DA:68,1
DA:69,2
LF:23
LH:22
end_of_record
TN:
SF:/home/runner/work/neml2/neml2/src/neml2/models/porous_flow/KozenyCarmanPermeability.cxx
FN:32,54,_ZN5neml224KozenyCarmanPermeability16expected_optionsEv
FN:56,63,_ZN5neml224KozenyCarmanPermeabilityC2ERKNS_9OptionSetE
FN:66,74,_ZN5neml224KozenyCarmanPermeability9set_valueEbbb
FNDA:2,_ZN5neml224KozenyCarmanPermeability16expected_optionsEv
FNDA:1,_ZN5neml224KozenyCarmanPermeabilityC2ERKNS_9OptionSetE
FNDA:2,_ZN5neml224KozenyCarmanPermeability9set_valueEbbb
FNF:3
FNH:3
DA:32,2
DA:34,2
DA:35,2
DA:39,2
DA:41,4
DA:42,4
DA:44,4
DA:45,4
DA:47,4
DA:48,4
DA:50,4
DA:51,2
DA:53,2
DA:54,0
DA:56,1
DA:58,3
DA:59,4
DA:60,4
DA:61,5
DA:63,1
DA:66,2
DA:68,2
DA:69,1
DA:71,2
DA:72,4
DA:73,5
DA:74,2
LF:27
LH:26
end_of_record
TN:
SF:/home/runner/work/neml2/neml2/src/neml2/models/porous_flow/PorosityPermeabilityRelation.cxx
FN:30,42,_ZN5neml228PorosityPermeabilityRelation16expected_optionsEv
FN:44,49,_ZN5neml228PorosityPermeabilityRelationC2ERKNS_9OptionSetE
FNDA:6,_ZN5neml228PorosityPermeabilityRelation16expected_optionsEv
FNDA:3,_ZN5neml228PorosityPermeabilityRelationC2ERKNS_9OptionSetE
FNF:2
FNH:2
DA:30,6
DA:32,6
DA:33,6
DA:35,18
DA:36,6
DA:38,18
DA:39,6
DA:41,6
DA:42,0
DA:44,3
DA:46,3
DA:47,6
DA:49,3
LF:13
LH:12
end_of_record
TN:
SF:/home/runner/work/neml2/neml2/src/neml2/models/porous_flow/PowerLawPermeability.cxx
FN:32,49,_ZN5neml220PowerLawPermeability16expected_optionsEv
FN:51,57,_ZN5neml220PowerLawPermeabilityC2ERKNS_9OptionSetE
FN:60,67,_ZN5neml220PowerLawPermeability9set_valueEbbb
FNDA:2,_ZN5neml220PowerLawPermeability16expected_optionsEv
FNDA:1,_ZN5neml220PowerLawPermeabilityC2ERKNS_9OptionSetE
FNDA:2,_ZN5neml220PowerLawPermeability9set_valueEbbb
FNF:3
FNH:3
DA:32,2
DA:34,2
DA:35,2
DA:37,2
DA:39,4
DA:40,4
DA:42,4
DA:43,4
DA:45,4
DA:46,2
DA:48,2
DA:49,0
DA:51,1
DA:53,3
DA:54,4
DA:55,5
DA:57,1
DA:60,2
DA:62,2
DA:63,1
DA:65,2
DA:66,1
DA:67,2
LF:23
LH:22
end_of_record
TN:
SF:/home/runner/work/neml2/neml2/src/neml2/models/porous_flow/VanGenuchtenCapillaryPressure.cxx
FN:36,53,_ZN5neml229VanGenuchtenCapillaryPressure16expected_optionsEv
FN:55,60,_ZN5neml229VanGenuchtenCapillaryPressureC2ERKNS_9OptionSetE
FN:63,79,_ZNK5neml229VanGenuchtenCapillaryPressure18calculate_pressureERKNS_6ScalarEbbb
FNDA:2,_ZN5neml229VanGenuchtenCapillaryPressure16expected_optionsEv
FNDA:1,_ZN5neml229VanGenuchtenCapillaryPressureC2ERKNS_9OptionSetE
FNDA:6,_ZNK5neml229VanGenuchtenCapillaryPressure18calculate_pressureERKNS_6ScalarEbbb
FNF:3
FNH:3
DA:36,2
DA:38,2
DA:39,2
DA:42,2
DA:44,4
DA:46,4
DA:47,4
DA:49,4
DA:50,2
DA:52,2
DA:53,0
DA:55,1
DA:57,3
DA:58,5
DA:60,1
DA:63,6
DA:68,6
DA:69,6
DA:71,6
DA:72,6
DA:73,12
DA:74,12
DA:75,18
DA:78,12
DA:79,6
LF:25
LH:24
end_of_record
TN:
SF:/home/runner/work/neml2/neml2/src/neml2/models/solid_mechanics/AssociativeIsotropicPlasticHardening.cxx
FN:33,51,_ZN5neml236AssociativeIsotropicPlasticHardening16expected_optionsEv
FN:53,59,_ZN5neml236AssociativeIsotropicPlasticHardeningC2ERKNS_9OptionSetE
FN:62,79,_ZN5neml236AssociativeIsotropicPlasticHardening9set_valueEbbb
FNDA:2,_ZN5neml236AssociativeIsotropicPlasticHardening16expected_optionsEv
FNDA:2,_ZN5neml236AssociativeIsotropicPlasticHardeningC2ERKNS_9OptionSetE
FNDA:4,_ZN5neml236AssociativeIsotropicPlasticHardening9set_valueEbbb
FNF:3
FNH:3
DA:33,2
DA:35,2
DA:36,2
DA:41,2
DA:43,6
DA:44,4
DA:45,2
DA:47,6
DA:48,2
DA:50,2
DA:51,0
DA:53,2
DA:54,2
DA:56,2
DA:57,4
DA:59,2
DA:62,4
DA:68,4
DA:69,3
DA:71,4
DA:73,2
DA:74,2
DA:76,2
DA:77,2
DA:79,4
LF:25
LH:24
end_of_record
TN:
SF:/home/runner/work/neml2/neml2/src/neml2/models/solid_mechanics/AssociativeJ2FlowDirection.cxx
FN:35,47,_ZN5neml226AssociativeJ2FlowDirection16expected_optionsEv
FN:49,54,_ZN5neml226AssociativeJ2FlowDirectionC2ERKNS_9OptionSetE
FN:57,77,_ZN5neml226AssociativeJ2FlowDirection9set_valueEbbb
FNDA:2,_ZN5neml226AssociativeJ2FlowDirection16expected_optionsEv
FNDA:1,_ZN5neml226AssociativeJ2FlowDirectionC2ERKNS_9OptionSetE
FNDA:2,_ZN5neml226AssociativeJ2FlowDirection9set_valueEbbb
FNF:3
FNH:3
DA:35,2
DA:37,2
DA:38,2
DA:40,6
DA:41,2
DA:43,6
DA:44,2
DA:46,2
DA:47,0
DA:49,1
DA:51,1
DA:52,2
DA:54,1
DA:57,2
DA:59,2
DA:60,2
DA:61,2
DA:62,2
DA:64,2
DA:66,1
DA:69,2
DA:70,1
DA:72,1
DA:73,1
DA:75,1
DA:76,1
DA:77,2
LF:27
LH:26
end_of_record
TN:
SF:/home/runner/work/neml2/neml2/src/neml2/models/solid_mechanics/AssociativeKinematicPlasticHardening.cxx
FN:35,53,_ZN5neml236AssociativeKinematicPlasticHardening16expected_optionsEv
FN:55,61,_ZN5neml236AssociativeKinematicPlasticHardeningC2ERKNS_9OptionSetE
FN:64,83,_ZN5neml236AssociativeKinematicPlasticHardening9set_valueEbbb
FNDA:2,_ZN5neml236AssociativeKinematicPlasticHardening16expected_optionsEv
FNDA:1,_ZN5neml236AssociativeKinematicPlasticHardeningC2ERKNS_9OptionSetE
FNDA:2,_ZN5neml236AssociativeKinematicPlasticHardening9set_valueEbbb
FNF:3
FNH:3
DA:35,2
DA:37,2
DA:38,2
DA:43,2
DA:45,6
DA:46,4
DA:47,2
DA:49,6
DA:50,2
DA:52,2
DA:53,0
DA:55,1
DA:56,1
DA:58,1
DA:59,2
DA:61,1
DA:64,2
DA:70,2
DA:71,1
DA:73,2
DA:75,1
DA:77,1
DA:78,1
DA:80,1
DA:81,1
DA:82,1
DA:83,2
LF:27
LH:26
end_of_record
TN:
SF:/home/runner/work/neml2/neml2/src/neml2/models/solid_mechanics/AssociativePlasticFlow.cxx
FN:35,52,_ZN5neml222AssociativePlasticFlow16expected_optionsEv
FN:54,59,_ZN5neml222AssociativePlasticFlowC2ERKNS_9OptionSetE
FN:62,81,_ZN5neml222AssociativePlasticFlow9set_valueEbbb
FNDA:2,_ZN5neml222AssociativePlasticFlow16expected_optionsEv
FNDA:4,_ZN5neml222AssociativePlasticFlowC2ERKNS_9OptionSetE
FNDA:8,_ZN5neml222AssociativePlasticFlow9set_valueEbbb
FNF:3
FNH:3
DA:35,2
DA:37,2
DA:38,2
DA:43,2
DA:45,6
DA:46,2
DA:48,6
DA:49,2
DA:51,2
DA:52,0
DA:54,4
DA:56,4
DA:57,8
DA:59,4
DA:62,8
DA:68,8
DA:69,7
DA:71,8
DA:73,4
DA:75,4
DA:76,4
DA:78,4
DA:79,4
DA:80,4
DA:81,8
LF:25
LH:24
end_of_record
TN:
SF:/home/runner/work/neml2/neml2/src/neml2/models/solid_mechanics/ChabochePlasticHardening.cxx
FN:37,53,_ZN5neml224ChabochePlasticHardening16expected_optionsEv
FN:55,60,_ZN5neml224ChabochePlasticHardeningC2ERKNS_9OptionSetE
FN:63,102,_ZN5neml224ChabochePlasticHardening9set_valueEbbb
FNDA:2,_ZN5neml224ChabochePlasticHardening16expected_optionsEv
FNDA:4,_ZN5neml224ChabochePlasticHardeningC2ERKNS_9OptionSetE
FNDA:8,_ZN5neml224ChabochePlasticHardening9set_valueEbbb
FNF:3
FNH:3
DA:37,2
DA:39,2
DA:40,2
DA:44,2
DA:46,4
DA:47,4
DA:49,4
DA:50,2
DA:52,2
DA:53,0
DA:55,4
DA:57,12
DA:58,20
DA:60,4
DA:63,8
DA:65,8
DA:67,8
DA:69,8
DA:71,8
DA:73,8
DA:74,7
DA:76,8
DA:78,4
DA:80,4
DA:81,4
DA:83,4
DA:84,4
DA:86,4
DA:87,16
DA:88,20
DA:90,12
DA:91,1
DA:93,12
DA:94,1
DA:96,12
DA:97,1
DA:99,12
DA:100,1
DA:101,4
DA:102,8
LF:40
LH:39
end_of_record
TN:
SF:/home/runner/work/neml2/neml2/src/neml2/models/solid_mechanics/Eigenstrain.cxx
FN:31,39,_ZN5neml211Eigenstrain16expected_optionsEv
FN:41,45,_ZN5neml211EigenstrainC2ERKNS_9OptionSetE
FNDA:6,_ZN5neml211Eigenstrain16expected_optionsEv
FNDA:4,_ZN5neml211EigenstrainC2ERKNS_9OptionSetE
FNF:2
FNH:2
DA:31,6
DA:33,6
DA:35,18
DA:36,6
DA:38,6
DA:39,0
DA:41,4
DA:43,4
DA:45,4
LF:9
LH:8
end_of_record
TN:
SF:/home/runner/work/neml2/neml2/src/neml2/models/solid_mechanics/FlowRule.cxx
FN:31,41,_ZN5neml28FlowRule16expected_optionsEv
FN:43,47,_ZN5neml28FlowRuleC2ERKNS_9OptionSetE
FNDA:12,_ZN5neml28FlowRule16expected_optionsEv
FNDA:17,_ZN5neml28FlowRuleC2ERKNS_9OptionSetE
FNF:2
FNH:2
DA:31,12
DA:33,12
DA:34,12
DA:35,12
DA:37,36
DA:38,12
DA:40,12
DA:41,0
DA:43,17
DA:45,17
DA:47,17
LF:11
LH:10
end_of_record
TN:
SF:/home/runner/work/neml2/neml2/src/neml2/models/solid_mechanics/FredrickArmstrongPlasticHardening.cxx
FN:35,63,_ZN5neml233FredrickArmstrongPlasticHardening16expected_optionsEv
FN:65,75,_ZN5neml233FredrickArmstrongPlasticHardeningC2ERKNS_9OptionSetE
FN:78,108,_ZN5neml233FredrickArmstrongPlasticHardening9set_valueEbbb
FNDA:4,_ZN5neml233FredrickArmstrongPlasticHardening16expected_optionsEv
FNDA:6,_ZN5neml233FredrickArmstrongPlasticHardeningC2ERKNS_9OptionSetE
FNDA:4,_ZN5neml233FredrickArmstrongPlasticHardening9set_valueEbbb
FNF:3
FNH:3
DA:35,4
DA:37,4
DA:38,4
DA:45,4
DA:47,12
DA:48,8
DA:50,8
DA:51,4
DA:53,12
DA:54,8
DA:56,8
DA:57,8
DA:59,8
DA:60,4
DA:62,4
DA:63,0
DA:65,6
DA:67,6
DA:68,6
DA:69,24
DA:70,24
DA:72,24
DA:73,30
DA:75,6
DA:78,4
DA:80,4
DA:82,4
DA:84,4
DA:86,4
DA:87,3
DA:89,4
DA:91,2
DA:93,2
DA:94,2
DA:96,2
DA:97,2
DA:99,2
DA:100,2
DA:102,6
DA:103,1
DA:105,6
DA:106,1
DA:107,2
DA:108,4
LF:44
LH:43
end_of_record
TN:
SF:/home/runner/work/neml2/neml2/src/neml2/models/solid_mechanics/GTNYieldFunction.cxx
FN:36,80,_ZN5neml216GTNYieldFunction16expected_optionsEv
FN:82,96,_ZN5neml216GTNYieldFunctionC2ERKNS_9OptionSetE
FN:99,406,_ZN5neml216GTNYieldFunction9set_valueEbbb
FNDA:2,_ZN5neml216GTNYieldFunction16expected_optionsEv
FNDA:3,_ZN5neml216GTNYieldFunctionC2ERKNS_9OptionSetE
FNDA:9,_ZN5neml216GTNYieldFunction9set_valueEbbb
FNF:3
FNH:3
DA:36,2
DA:38,2
DA:39,2
DA:47,2
DA:49,4
DA:51,4
DA:52,4
DA:54,4
DA:55,6
DA:56,2
DA:58,4
DA:59,4
DA:61,4
DA:62,2
DA:64,6
DA:65,2
DA:67,6
DA:68,4
DA:70,4
DA:71,2
DA:73,6
DA:74,2
DA:76,6
DA:77,2
DA:79,2
DA:80,0
DA:82,3
DA:84,3
DA:85,3
DA:86,3
DA:87,3
DA:88,6
DA:89,3
DA:90,3
DA:91,12
DA:92,12
DA:93,12
DA:94,15
DA:96,3
DA:99,9
DA:102,9
DA:104,9
DA:105,14
DA:106,21
DA:108,9
DA:110,5
DA:111,5
DA:113,5
DA:114,5
DA:116,5
DA:117,5
DA:119,5
DA:120,20
DA:121,25
DA:124,15
DA:125,8
DA:126,10
DA:128,15
DA:129,2
DA:131,15
DA:132,2
DA:134,15
DA:135,2
DA:138,9
DA:140,6
DA:141,6
DA:142,6
DA:143,6
DA:174,3
DA:176,3
DA:178,3
DA:179,3
DA:181,3
DA:182,1
DA:192,3
DA:194,6
DA:195,9
DA:197,3
DA:198,3
DA:200,3
DA:201,6
DA:202,6
DA:203,12
DA:204,15
DA:205,3
DA:206,2
DA:207,2
DA:208,4
DA:209,5
DA:211,3
DA:212,1
DA:214,3
DA:215,2
DA:216,2
DA:217,4
DA:218,5
DA:228,3
DA:230,3
DA:231,3
DA:233,3
DA:235,3
DA:236,3
DA:238,3
DA:239,1
DA:241,3
DA:242,1
DA:244,3
DA:245,1
DA:247,3
DA:248,1
DA:258,3
DA:260,3
DA:261,3
DA:263,3
DA:264,6
DA:265,6
DA:266,12
DA:267,15
DA:269,3
DA:270,3
DA:272,12
DA:273,6
DA:274,12
DA:275,15
DA:277,3
DA:278,2
DA:279,2
DA:280,2
DA:281,4
DA:282,5
DA:284,3
DA:285,1
DA:287,3
DA:288,2
DA:289,2
DA:290,4
DA:291,5
DA:301,3
DA:303,1
DA:304,1
DA:306,1
DA:307,1
DA:309,1
DA:310,2
DA:311,2
DA:312,2
DA:313,4
DA:314,5
DA:316,4
DA:317,2
DA:318,4
DA:319,5
DA:321,1
DA:322,1
DA:324,1
DA:325,2
DA:326,2
DA:327,4
DA:328,5
DA:338,3
DA:340,1
DA:341,1
DA:343,1
DA:344,1
DA:346,1
DA:347,1
DA:349,1
DA:350,1
DA:352,1
DA:353,1
DA:363,3
DA:365,1
DA:366,2
DA:367,2
DA:368,4
DA:369,5
DA:371,1
DA:372,1
DA:374,1
DA:375,2
DA:376,2
DA:377,4
DA:378,5
DA:380,1
DA:381,2
DA:382,2
DA:383,4
DA:384,5
DA:386,1
DA:387,1
DA:389,2
DA:390,3
DA:400,3
DA:402,1
DA:403,1
DA:406,9
LF:196
LH:195
end_of_record
TN:
SF:/home/runner/work/neml2/neml2/src/neml2/models/solid_mechanics/GursonCavitation.cxx
FN:35,51,_ZN5neml216GursonCavitation16expected_optionsEv
FN:53,59,_ZN5neml216GursonCavitationC2ERKNS_9OptionSetE
FN:62,79,_ZN5neml216GursonCavitation9set_valueEbbb
FNDA:2,_ZN5neml216GursonCavitation16expected_optionsEv
FNDA:1,_ZN5neml216GursonCavitationC2ERKNS_9OptionSetE
FNDA:2,_ZN5neml216GursonCavitation9set_valueEbbb
FNF:3
FNH:3
DA:35,2
DA:37,2
DA:38,2
DA:39,2
DA:41,6
DA:42,2
DA:44,6
DA:45,2
DA:47,6
DA:48,2
DA:50,2
DA:51,0
DA:53,1
DA:55,1
DA:56,1
DA:57,2
DA:59,1
DA:62,2
DA:64,2
DA:66,2
DA:67,1
DA:69,2
DA:71,1
DA:73,1
DA:74,1
DA:76,1
DA:77,1
DA:78,1
DA:79,2
LF:29
LH:28
end_of_record
TN:
SF:/home/runner/work/neml2/neml2/src/neml2/models/solid_mechanics/IsotropicHardening.cxx
FN:31,43,_ZN5neml218IsotropicHardening16expected_optionsEv
FN:45,50,_ZN5neml218IsotropicHardeningC2ERKNS_9OptionSetE
FNDA:4,_ZN5neml218IsotropicHardening16expected_optionsEv
FNDA:4,_ZN5neml218IsotropicHardeningC2ERKNS_9OptionSetE
FNF:2
FNH:2
DA:31,4
DA:33,4
DA:34,4
DA:36,12
DA:37,4
DA:39,12
DA:40,4
DA:42,4
DA:43,0
DA:45,4
DA:47,4
DA:48,8
DA:50,4
LF:13
LH:12
end_of_record
TN:
SF:/home/runner/work/neml2/neml2/src/neml2/models/solid_mechanics/IsotropicHardeningStaticRecovery.cxx
FN:31,44,_ZN5neml232IsotropicHardeningStaticRecovery16expected_optionsEv
FN:46,54,_ZN5neml232IsotropicHardeningStaticRecoveryC2ERKNS_9OptionSetE
FNDA:2,_ZN5neml232IsotropicHardeningStaticRecovery16expected_optionsEv
FNDA:1,_ZN5neml232IsotropicHardeningStaticRecoveryC2ERKNS_9OptionSetE
FNF:2
FNH:2
DA:31,2
DA:33,2
DA:34,2
DA:36,6
DA:37,4
DA:39,4
DA:40,4
DA:41,2
DA:43,2
DA:44,0
DA:46,1
DA:48,1
DA:49,2
DA:50,2
DA:51,4
DA:52,1
DA:54,1
LF:17
LH:16
end_of_record
TN:
SF:/home/runner/work/neml2/neml2/src/neml2/models/solid_mechanics/IsotropicMandelStress.cxx
FN:34,41,_ZN5neml221IsotropicMandelStress16expected_optionsEv
FN:44,59,_ZN5neml221IsotropicMandelStress9set_valueEbbb
FNDA:2,_ZN5neml221IsotropicMandelStress16expected_optionsEv
FNDA:8,_ZN5neml221IsotropicMandelStress9set_valueEbbb
FNF:2
FNH:2
DA:34,2
DA:36,2
DA:37,2
DA:38,2
DA:40,2
DA:41,0
DA:44,8
DA:48,8
DA:49,7
DA:51,8
DA:52,4
DA:53,4
DA:59,8
LF:13
LH:12
end_of_record
TN:
SF:/home/runner/work/neml2/neml2/src/neml2/models/solid_mechanics/KinematicHardening.cxx
FN:31,43,_ZN5neml218KinematicHardening16expected_optionsEv
FN:45,50,_ZN5neml218KinematicHardeningC2ERKNS_9OptionSetE
FNDA:2,_ZN5neml218KinematicHardening16expected_optionsEv
FNDA:2,_ZN5neml218KinematicHardeningC2ERKNS_9OptionSetE
FNF:2
FNH:2
DA:31,2
DA:33,2
DA:34,2
DA:36,6
DA:37,2
DA:39,6
DA:40,2
DA:42,2
DA:43,0
DA:45,2
DA:47,2
DA:48,4
DA:50,2
LF:13
LH:12
end_of_record
TN:
SF:/home/runner/work/neml2/neml2/src/neml2/models/solid_mechanics/KinematicHardeningStaticRecovery.cxx
FN:32,45,_ZN5neml232KinematicHardeningStaticRecovery16expected_optionsEv
FN:47,54,_ZN5neml232KinematicHardeningStaticRecoveryC2ERKNS_9OptionSetE
FNDA:2,_ZN5neml232KinematicHardeningStaticRecovery16expected_optionsEv
FNDA:1,_ZN5neml232KinematicHardeningStaticRecoveryC2ERKNS_9OptionSetE
FNF:2
FNH:2
DA:32,2
DA:34,2
DA:35,2
DA:37,6
DA:38,4
DA:40,4
DA:41,4
DA:42,2
DA:44,2
DA:45,0
DA:47,1
DA:49,1
DA:50,4
DA:51,4
DA:52,1
DA:54,1
LF:16
LH:15
end_of_record
TN:
SF:/home/runner/work/neml2/neml2/src/neml2/models/solid_mechanics/KocksMeckingActivationEnergy.cxx
FN:34,64,_ZN5neml228KocksMeckingActivationEnergy16expected_optionsEv
FN:66,76,_ZN5neml228KocksMeckingActivationEnergyC2ERKNS_9OptionSetE
FN:79,95,_ZN5neml228KocksMeckingActivationEnergy9set_valueEbbb
FNDA:2,_ZN5neml228KocksMeckingActivationEnergy16expected_optionsEv
FNDA:2,_ZN5neml228KocksMeckingActivationEnergyC2ERKNS_9OptionSetE
FNDA:4,_ZN5neml228KocksMeckingActivationEnergy9set_valueEbbb
FNF:3
FNH:3
DA:34,2
DA:36,2
DA:37,2
DA:42,2
DA:44,4
DA:45,4
DA:47,4
DA:48,4
DA:50,4
DA:51,4
DA:52,4
DA:53,2
DA:55,6
DA:56,2
DA:58,6
DA:59,2
DA:61,6
DA:62,2
DA:63,2
DA:64,0
DA:66,2
DA:68,8
DA:69,4
DA:70,4
DA:71,10
DA:72,2
DA:73,2
DA:74,4
DA:76,2
DA:79,4
DA:81,4
DA:82,3
DA:84,4
DA:86,2
DA:87,2
DA:89,2
DA:90,2
DA:92,6
DA:93,1
DA:95,4
LF:40
LH:39
end_of_record
TN:
SF:/home/runner/work/neml2/neml2/src/neml2/models/solid_mechanics/KocksMeckingFlowSwitch.cxx
FN:36,63,_ZN5neml222KocksMeckingFlowSwitch16expected_optionsEv
FN:65,74,_ZN5neml222KocksMeckingFlowSwitchC2ERKNS_9OptionSetE
FN:77,98,_ZN5neml222KocksMeckingFlowSwitch9set_valueEbbb
FNDA:2,_ZN5neml222KocksMeckingFlowSwitch16expected_optionsEv
FNDA:2,_ZN5neml222KocksMeckingFlowSwitchC2ERKNS_9OptionSetE
FNDA:4,_ZN5neml222KocksMeckingFlowSwitch9set_valueEbbb
FNF:3
FNH:3
DA:36,2
DA:38,2
DA:39,2
DA:43,2
DA:45,4
DA:46,2
DA:48,6
DA:49,4
DA:51,4
DA:52,4
DA:53,2
DA:55,6
DA:56,2
DA:57,6
DA:58,2
DA:60,6
DA:61,2
DA:62,2
DA:63,0
DA:65,2
DA:67,6
DA:68,2
DA:69,2
DA:70,2
DA:71,2
DA:72,4
DA:74,2
DA:77,4
DA:79,4
DA:81,4
DA:82,3
DA:84,4
DA:86,2
DA:87,2
DA:89,2
DA:90,2
DA:92,2
DA:93,2
DA:95,6
DA:96,1
DA:97,2
DA:98,4
LF:42
LH:41
end_of_record
TN:
SF:/home/runner/work/neml2/neml2/src/neml2/models/solid_mechanics/KocksMeckingFlowViscosity.cxx
FN:35,69,_ZN5neml225KocksMeckingFlowViscosity16expected_optionsEv
FN:71,82,_ZN5neml225KocksMeckingFlowViscosityC2ERKNS_9OptionSetE
FN:85,174,_ZN5neml225KocksMeckingFlowViscosity9set_valueEbbb
FNDA:2,_ZN5neml225KocksMeckingFlowViscosity16expected_optionsEv
FNDA:2,_ZN5neml225KocksMeckingFlowViscosityC2ERKNS_9OptionSetE
FNDA:6,_ZN5neml225KocksMeckingFlowViscosity9set_valueEbbb
FNF:3
FNH:3
DA:35,2
DA:37,2
DA:38,2
DA:46,2
DA:48,4
DA:50,4
DA:51,4
DA:52,4
DA:53,4
DA:54,4
DA:55,4
DA:57,4
DA:58,4
DA:60,4
DA:61,4
DA:62,4
DA:63,2
DA:65,6
DA:66,2
DA:68,2
DA:69,0
DA:71,2
DA:73,6
DA:74,8
DA:75,10
DA:76,4
DA:77,4
DA:78,10
DA:79,2
DA:80,4
DA:82,2
DA:85,6
DA:87,6
DA:89,6
DA:90,4
DA:92,6
DA:94,3
DA:95,3
DA:97,9
DA:98,2
DA:100,9
DA:101,2
DA:103,9
DA:104,2
DA:107,6
DA:110,2
DA:112,2
DA:114,6
DA:115,4
DA:116,5
DA:118,6
DA:119,1
DA:121,6
DA:122,1
DA:126,6
DA:128,1
DA:129,4
DA:130,5
DA:132,1
DA:134,3
DA:135,1
DA:137,3
DA:138,1
DA:142,6
DA:144,1
DA:145,1
DA:147,3
DA:148,1
DA:150,1
DA:152,3
DA:153,2
DA:154,3
DA:158,6
DA:160,1
DA:161,1
DA:163,3
DA:164,1
DA:166,3
DA:167,2
DA:168,3
DA:170,2
DA:171,3
DA:174,6
LF:83
LH:82
end_of_record
TN:
SF:/home/runner/work/neml2/neml2/src/neml2/models/solid_mechanics/KocksMeckingIntercept.cxx
FN:34,55,_ZN5neml221KocksMeckingIntercept16expected_optionsEv
FN:57,64,_ZN5neml221KocksMeckingInterceptC2ERKNS_9OptionSetE
FN:67,103,_ZN5neml221KocksMeckingIntercept9set_valueEbbb
FNDA:2,_ZN5neml221KocksMeckingIntercept16expected_optionsEv
FNDA:2,_ZN5neml221KocksMeckingInterceptC2ERKNS_9OptionSetE
FNDA:6,_ZN5neml221KocksMeckingIntercept9set_valueEbbb
FNF:3
FNH:3
DA:34,2
DA:36,2
DA:37,2
DA:38,2
DA:40,4
DA:42,4
DA:43,4
DA:45,4
DA:46,4
DA:48,4
DA:49,4
DA:51,4
DA:52,2
DA:54,2
DA:55,0
DA:57,2
DA:59,6
DA:60,8
DA:61,8
DA:62,4
DA:64,2
DA:67,6
DA:69,6
DA:70,4
DA:72,6
DA:74,9
DA:75,2
DA:77,9
DA:78,2
DA:80,9
DA:81,2
DA:84,6
DA:86,6
DA:88,1
DA:89,3
DA:90,1
DA:91,3
DA:92,1
DA:95,6
DA:96,3
DA:97,1
DA:99,6
DA:100,3
DA:101,1
DA:103,6
LF:45
LH:44
end_of_record
TN:
SF:/home/runner/work/neml2/neml2/src/neml2/models/solid_mechanics/KocksMeckingRateSensitivity.cxx
FN:33,58,_ZN5neml227KocksMeckingRateSensitivity16expected_optionsEv
FN:60,69,_ZN5neml227KocksMeckingRateSensitivityC2ERKNS_9OptionSetE
FN:72,125,_ZN5neml227KocksMeckingRateSensitivity9set_valueEbbb
FNDA:2,_ZN5neml227KocksMeckingRateSensitivity16expected_optionsEv
FNDA:2,_ZN5neml227KocksMeckingRateSensitivityC2ERKNS_9OptionSetE
FNDA:6,_ZN5neml227KocksMeckingRateSensitivity9set_valueEbbb
FNF:3
FNH:3
DA:33,2
DA:35,2
DA:36,2
DA:40,2
DA:42,4
DA:44,4
DA:45,4
DA:46,4
DA:47,4
DA:49,4
DA:50,4
DA:51,4
DA:52,2
DA:54,6
DA:55,2
DA:57,2
DA:58,0
DA:60,2
DA:62,6
DA:63,10
DA:64,4
DA:65,10
DA:66,2
DA:67,4
DA:69,2
DA:72,6
DA:74,6
DA:75,4
DA:77,6
DA:79,3
DA:80,3
DA:81,9
DA:82,2
DA:83,9
DA:84,2
DA:87,6
DA:90,2
DA:91,2
DA:93,6
DA:96,1
DA:98,1
DA:100,1
DA:101,1
DA:102,1
DA:103,1
DA:106,6
DA:109,1
DA:111,1
DA:112,1
DA:113,1
DA:114,1
DA:116,3
DA:119,1
DA:120,1
DA:121,1
DA:122,1
DA:125,6
LF:57
LH:56
end_of_record
TN:
SF:/home/runner/work/neml2/neml2/src/neml2/models/solid_mechanics/KocksMeckingYieldStress.cxx
FN:34,50,_ZN5neml223KocksMeckingYieldStress16expected_optionsEv
FN:52,58,_ZN5neml223KocksMeckingYieldStressC2ERKNS_9OptionSetE
FN:61,88,_ZN5neml223KocksMeckingYieldStress9set_valueEbbb
FNDA:2,_ZN5neml223KocksMeckingYieldStress16expected_optionsEv
FNDA:2,_ZN5neml223KocksMeckingYieldStressC2ERKNS_9OptionSetE
FNDA:5,_ZN5neml223KocksMeckingYieldStress9set_valueEbbb
FNF:3
FNH:3
DA:34,2
DA:36,2
DA:38,2
DA:40,2
DA:42,4
DA:44,4
DA:45,4
DA:46,4
DA:47,2
DA:49,2
DA:50,0
DA:52,2
DA:54,6
DA:55,8
DA:56,4
DA:58,2
DA:61,5
DA:63,5
DA:64,4
DA:66,5
DA:68,9
DA:69,2
DA:71,9
DA:72,2
DA:75,5
DA:77,3
DA:79,1
DA:81,3
DA:83,1
DA:84,1
DA:88,5
LF:31
LH:30
end_of_record
TN:
SF:/home/runner/work/neml2/neml2/src/neml2/models/solid_mechanics/LinearIsotropicElasticJ2TrialStressUpdate.cxx
FN:32,51,_ZN5neml241LinearIsotropicElasticJ2TrialStressUpdate16expected_optionsEv
FN:53,62,_ZN5neml241LinearIsotropicElasticJ2TrialStressUpdateC2ERKNS_9OptionSetE
FN:65,97,_ZN5neml241LinearIsotropicElasticJ2TrialStressUpdate9set_valueEbbb
FNDA:2,_ZN5neml241LinearIsotropicElasticJ2TrialStressUpdate16expected_optionsEv
FNDA:1,_ZN5neml241LinearIsotropicElasticJ2TrialStressUpdateC2ERKNS_9OptionSetE
FNDA:2,_ZN5neml241LinearIsotropicElasticJ2TrialStressUpdate9set_valueEbbb
FNF:3
FNH:3
DA:32,2
DA:34,2
DA:36,2
DA:37,2
DA:39,6
DA:40,2
DA:42,6
DA:43,4
DA:44,2
DA:46,6
DA:47,4
DA:48,2
DA:50,2
DA:51,0
DA:53,1
DA:54,1
DA:56,1
DA:57,1
DA:58,1
DA:59,1
DA:60,2
DA:62,1
DA:65,2
DA:67,2
DA:68,2
DA:70,2
DA:71,2
DA:72,3
DA:74,2
DA:76,1
DA:77,2
DA:78,3
DA:80,1
DA:81,1
DA:83,1
DA:84,1
DA:86,1
DA:87,0
DA:89,1
DA:90,0
DA:97,2
LF:41
LH:38
end_of_record
TN:
SF:/home/runner/work/neml2/neml2/src/neml2/models/solid_mechanics/LinearIsotropicHardening.cxx
FN:33,46,_ZN5neml224LinearIsotropicHardening16expected_optionsEv
FN:48,52,_ZN5neml224LinearIsotropicHardeningC2ERKNS_9OptionSetE
FN:55,68,_ZN5neml224LinearIsotropicHardening9set_valueEbbb
FNDA:2,_ZN5neml224LinearIsotropicHardening16expected_optionsEv
FNDA:1,_ZN5neml224LinearIsotropicHardeningC2ERKNS_9OptionSetE
FNDA:2,_ZN5neml224LinearIsotropicHardening9set_valueEbbb
FNF:3
FNH:3
DA:33,2
DA:35,2
DA:36,2
DA:38,2
DA:40,4
DA:42,4
DA:43,2
DA:45,2
DA:46,0
DA:48,1
DA:50,4
DA:52,1
DA:55,2
DA:57,2
DA:58,1
DA:60,2
DA:61,1
DA:62,1
DA:68,2
LF:19
LH:18
end_of_record
TN:
SF:/home/runner/work/neml2/neml2/src/neml2/models/solid_mechanics/LinearKinematicHardening.cxx
FN:35,47,_ZN5neml224LinearKinematicHardening16expected_optionsEv
FN:49,53,_ZN5neml224LinearKinematicHardeningC2ERKNS_9OptionSetE
FN:56,74,_ZN5neml224LinearKinematicHardening9set_valueEbbb
FNDA:2,_ZN5neml224LinearKinematicHardening16expected_optionsEv
FNDA:2,_ZN5neml224LinearKinematicHardeningC2ERKNS_9OptionSetE
FNDA:4,_ZN5neml224LinearKinematicHardening9set_valueEbbb
FNF:3
FNH:3
DA:35,2
DA:37,2
DA:38,2
DA:39,2
DA:41,4
DA:43,4
DA:44,2
DA:46,2
DA:47,0
DA:49,2
DA:51,8
DA:53,2
DA:56,4
DA:58,4
DA:59,3
DA:61,4
DA:63,2
DA:64,2
DA:66,6
DA:67,1
DA:74,4
LF:21
LH:20
end_of_record
TN:
SF:/home/runner/work/neml2/neml2/src/neml2/models/solid_mechanics/MandelStress.cxx
FN:31,43,_ZN5neml212MandelStress16expected_optionsEv
FN:45,50,_ZN5neml212MandelStressC2ERKNS_9OptionSetE
FNDA:2,_ZN5neml212MandelStress16expected_optionsEv
FNDA:4,_ZN5neml212MandelStressC2ERKNS_9OptionSetE
FNF:2
FNH:2
DA:31,2
DA:33,2
DA:34,2
DA:36,6
DA:37,2
DA:39,6
DA:40,2
DA:42,2
DA:43,0
DA:45,4
DA:47,4
DA:48,8
DA:50,4
LF:13
LH:12
end_of_record
TN:
SF:/home/runner/work/neml2/neml2/src/neml2/models/solid_mechanics/MixedControlSetup.cxx
FN:111,124,_ZNK5neml217MixedControlSetup14make_operatorsERKNS_3SR2E
FN:35,66,_ZN5neml217MixedControlSetup16expected_optionsEv
FN:68,77,_ZN5neml217MixedControlSetupC2ERKNS_9OptionSetE
FN:80,108,_ZN5neml217MixedControlSetup9set_valueEbbb
FNDA:5,_ZNK5neml217MixedControlSetup14make_operatorsERKNS_3SR2E
FNDA:2,_ZN5neml217MixedControlSetup16expected_optionsEv
FNDA:3,_ZN5neml217MixedControlSetupC2ERKNS_9OptionSetE
FNDA:5,_ZN5neml217MixedControlSetup9set_valueEbbb
FNF:4
FNH:4
DA:35,2
DA:37,2
DA:38,2
DA:41,2
DA:43,6
DA:44,6
DA:46,2
DA:48,8
DA:49,2
DA:51,6
DA:52,4
DA:53,2
DA:55,6
DA:56,4
DA:57,2
DA:59,6
DA:60,2
DA:62,6
DA:63,2
DA:65,2
DA:66,0
DA:68,3
DA:70,9
DA:71,3
DA:72,3
DA:73,3
DA:74,3
DA:75,6
DA:77,3
DA:80,5
DA:82,5
DA:84,5
DA:87,4
DA:88,4
DA:91,5
DA:93,2
DA:95,1
DA:96,1
DA:99,2
DA:101,2
DA:102,2
DA:108,5
DA:111,5
DA:113,5
DA:114,5
DA:117,5
DA:118,5
DA:120,5
DA:121,5
DA:123,10
DA:124,5
LF:51
LH:50
end_of_record
TN:
SF:/home/runner/work/neml2/neml2/src/neml2/models/solid_mechanics/Normality.cxx
FN:34,53,_ZN5neml29Normality16expected_optionsEv
FN:55,73,_ZN5neml29NormalityC2ERKNS_9OptionSetE
FN:76,104,_ZN5neml29Normality9set_valueEbbb
FNDA:2,_ZN5neml29Normality16expected_optionsEv
FNDA:4,_ZN5neml29NormalityC2ERKNS_9OptionSetE
FNDA:8,_ZN5neml29Normality9set_valueEbbb
FNF:3
FNH:3
DA:34,2
DA:36,2
DA:37,2
DA:38,2
DA:40,4
DA:41,4
DA:43,4
DA:44,4
DA:46,4
DA:47,4
DA:49,4
DA:50,2
DA:52,2
DA:53,0
DA:55,4
DA:57,8
DA:58,12
DA:61,8
DA:62,4
DA:63,4
DA:65,4
DA:67,4
DA:71,11
DA:72,7
DA:73,4
DA:76,8
DA:79,8
DA:83,8
DA:84,8
DA:86,8
DA:87,22
DA:89,14
DA:91,0
DA:92,0
DA:95,14
DA:96,11
DA:98,14
DA:99,24
DA:100,28
DA:101,11
DA:102,8
DA:104,8
LF:42
LH:39
end_of_record
TN:
SF:/home/runner/work/neml2/neml2/src/neml2/models/solid_mechanics/OlevskySinteringStress.cxx
FN:33,57,_ZN5neml222OlevskySinteringStress16expected_optionsEv
FN:59,66,_ZN5neml222OlevskySinteringStressC2ERKNS_9OptionSetE
FN:69,81,_ZN5neml222OlevskySinteringStress9set_valueEbbb
FNDA:2,_ZN5neml222OlevskySinteringStress16expected_optionsEv
FNDA:1,_ZN5neml222OlevskySinteringStressC2ERKNS_9OptionSetE
FNDA:3,_ZN5neml222OlevskySinteringStress9set_valueEbbb
FNF:3
FNH:3
DA:33,2
DA:35,2
DA:36,2
DA:40,2
DA:42,2
DA:44,6
DA:45,2
DA:47,6
DA:48,4
DA:50,4
DA:51,4
DA:53,4
DA:54,2
DA:56,2
DA:57,0
DA:59,1
DA:61,1
DA:62,1
DA:63,4
DA:64,5
DA:66,1
DA:69,3
DA:71,3
DA:72,1
DA:74,3
DA:75,1
DA:76,1
DA:78,3
DA:79,1
DA:80,1
DA:81,3
LF:31
LH:30
end_of_record
TN:
SF:/home/runner/work/neml2/neml2/src/neml2/models/solid_mechanics/PerzynaPlasticFlowRate.cxx
FN:37,53,_ZN5neml222PerzynaPlasticFlowRate16expected_optionsEv
FN:55,60,_ZN5neml222PerzynaPlasticFlowRateC2ERKNS_9OptionSetE
FN:63,87,_ZN5neml222PerzynaPlasticFlowRate9set_valueEbbb
FNDA:2,_ZN5neml222PerzynaPlasticFlowRate16expected_optionsEv
FNDA:5,_ZN5neml222PerzynaPlasticFlowRateC2ERKNS_9OptionSetE
FNDA:10,_ZN5neml222PerzynaPlasticFlowRate9set_valueEbbb
FNF:3
FNH:3
DA:37,2
DA:39,2
DA:40,2
DA:44,2
DA:46,4
DA:47,4
DA:49,4
DA:50,2
DA:52,2
DA:53,0
DA:55,5
DA:57,15
DA:58,25
DA:60,5
DA:63,10
DA:66,10
DA:67,10
DA:68,10
DA:69,10
DA:71,10
DA:72,9
DA:74,10
DA:76,5
DA:78,5
DA:79,5
DA:81,15
DA:82,1
DA:84,15
DA:85,1
DA:86,5
DA:87,10
LF:31
LH:30
end_of_record
TN:
SF:/home/runner/work/neml2/neml2/src/neml2/models/solid_mechanics/PhaseTransformationEigenstrain.cxx
FN:32,49,_ZN5neml230PhaseTransformationEigenstrain16expected_optionsEv
FN:51,56,_ZN5neml230PhaseTransformationEigenstrainC2ERKNS_9OptionSetE
FN:59,75,_ZN5neml230PhaseTransformationEigenstrain9set_valueEbbb
FNDA:2,_ZN5neml230PhaseTransformationEigenstrain16expected_optionsEv
FNDA:1,_ZN5neml230PhaseTransformationEigenstrainC2ERKNS_9OptionSetE
FNDA:2,_ZN5neml230PhaseTransformationEigenstrain9set_valueEbbb
FNF:3
FNH:3
DA:32,2
DA:34,2
DA:35,2
DA:39,2
DA:41,6
DA:42,4
DA:43,2
DA:45,6
DA:46,2
DA:48,2
DA:49,0
DA:51,1
DA:53,1
DA:54,2
DA:56,1
DA:59,2
DA:61,2
DA:62,1
DA:64,2
DA:66,1
DA:67,1
DA:70,2
DA:72,0
DA:73,0
DA:75,2
LF:25
LH:22
end_of_record
TN:
SF:/home/runner/work/neml2/neml2/src/neml2/models/solid_mechanics/PlasticFlowRate.cxx
FN:31,42,_ZN5neml215PlasticFlowRate16expected_optionsEv
FN:44,49,_ZN5neml215PlasticFlowRateC2ERKNS_9OptionSetE
FNDA:2,_ZN5neml215PlasticFlowRate16expected_optionsEv
FNDA:5,_ZN5neml215PlasticFlowRateC2ERKNS_9OptionSetE
FNF:2
FNH:2
DA:31,2
DA:33,2
DA:35,6
DA:36,2
DA:38,6
DA:39,2
DA:41,2
DA:42,0
DA:44,5
DA:46,5
DA:47,10
DA:49,5
LF:12
LH:11
end_of_record
TN:
SF:/home/runner/work/neml2/neml2/src/neml2/models/solid_mechanics/PowerLawIsotropicHardeningStaticRecovery.cxx
FN:36,49,_ZN5neml240PowerLawIsotropicHardeningStaticRecovery16expected_optionsEv
FN:51,57,_ZN5neml240PowerLawIsotropicHardeningStaticRecoveryC2ERKNS_9OptionSetE
FN:60,77,_ZN5neml240PowerLawIsotropicHardeningStaticRecovery9set_valueEbbb
FNDA:2,_ZN5neml240PowerLawIsotropicHardeningStaticRecovery16expected_optionsEv
FNDA:1,_ZN5neml240PowerLawIsotropicHardeningStaticRecoveryC2ERKNS_9OptionSetE
FNDA:2,_ZN5neml240PowerLawIsotropicHardeningStaticRecovery9set_valueEbbb
FNF:3
FNH:3
DA:36,2
DA:38,2
DA:39,2
DA:41,2
DA:43,4
DA:44,4
DA:45,4
DA:46,2
DA:48,2
DA:49,0
DA:51,1
DA:52,1
DA:54,3
DA:55,5
DA:57,1
DA:60,2
DA:62,2
DA:63,2
DA:65,2
DA:67,1
DA:68,1
DA:70,3
DA:71,1
DA:73,3
DA:74,4
DA:75,5
DA:77,2
LF:27
LH:26
end_of_record
TN:
SF:/home/runner/work/neml2/neml2/src/neml2/models/solid_mechanics/PowerLawKinematicHardeningStaticRecovery.cxx
FN:37,54,_ZN5neml240PowerLawKinematicHardeningStaticRecovery16expected_optionsEv
FN:56,62,_ZN5neml240PowerLawKinematicHardeningStaticRecoveryC2ERKNS_9OptionSetE
FN:65,88,_ZN5neml240PowerLawKinematicHardeningStaticRecovery9set_valueEbbb
FNDA:2,_ZN5neml240PowerLawKinematicHardeningStaticRecovery16expected_optionsEv
FNDA:1,_ZN5neml240PowerLawKinematicHardeningStaticRecoveryC2ERKNS_9OptionSetE
FNDA:2,_ZN5neml240PowerLawKinematicHardeningStaticRecovery9set_valueEbbb
FNF:3
FNH:3
DA:37,2
DA:39,2
DA:40,2
DA:45,2
DA:47,4
DA:48,4
DA:50,4
DA:51,2
DA:53,2
DA:54,0
DA:56,1
DA:57,1
DA:59,3
DA:60,5
DA:62,1
DA:65,2
DA:67,2
DA:69,2
DA:71,2
DA:72,2
DA:74,2
DA:76,1
DA:78,1
DA:79,2
DA:80,3
DA:82,3
DA:83,1
DA:85,3
DA:86,1
DA:87,1
DA:88,2
LF:31
LH:30
end_of_record
TN:
SF:/home/runner/work/neml2/neml2/src/neml2/models/solid_mechanics/RateIndependentPlasticFlowConstraint.cxx
FN:34,48,_ZN5neml236RateIndependentPlasticFlowConstraint16expected_optionsEv
FN:50,57,_ZN5neml236RateIndependentPlasticFlowConstraintC2ERKNS_9OptionSetE
FN:60,78,_ZN5neml236RateIndependentPlasticFlowConstraint9set_valueEbbb
FNDA:2,_ZN5neml236RateIndependentPlasticFlowConstraint16expected_optionsEv
FNDA:1,_ZN5neml236RateIndependentPlasticFlowConstraintC2ERKNS_9OptionSetE
FNDA:2,_ZN5neml236RateIndependentPlasticFlowConstraint9set_valueEbbb
FNF:3
FNH:3
DA:34,2
DA:36,2
DA:37,2
DA:39,2
DA:41,6
DA:42,2
DA:44,6
DA:45,2
DA:47,2
DA:48,0
DA:50,1
DA:51,1
DA:53,1
DA:54,1
DA:55,2
DA:57,1
DA:60,2
DA:62,2
DA:64,2
DA:65,1
DA:67,2
DA:69,1
DA:70,1
DA:72,1
DA:73,1
DA:75,1
DA:76,1
DA:77,1
DA:78,2
LF:29
LH:28
end_of_record
TN:
SF:/home/runner/work/neml2/neml2/src/neml2/models/solid_mechanics/SlopeSaturationVoceIsotropicHardening.cxx
FN:34,59,_ZN5neml237SlopeSaturationVoceIsotropicHardening16expected_optionsEv
FN:61,72,_ZN5neml237SlopeSaturationVoceIsotropicHardeningC2ERKNS_9OptionSetE
FN:75,94,_ZN5neml237SlopeSaturationVoceIsotropicHardening9set_valueEbbb
FNDA:2,_ZN5neml237SlopeSaturationVoceIsotropicHardening16expected_optionsEv
FNDA:4,_ZN5neml237SlopeSaturationVoceIsotropicHardeningC2ERKNS_9OptionSetE
FNDA:8,_ZN5neml237SlopeSaturationVoceIsotropicHardening9set_valueEbbb
FNF:3
FNH:3
DA:34,2
DA:36,2
DA:37,2
DA:44,2
DA:46,6
DA:47,4
DA:49,4
DA:50,6
DA:51,2
DA:53,4
DA:54,4
DA:55,4
DA:56,2
DA:58,2
DA:59,0
DA:61,4
DA:62,4
DA:64,4
DA:65,8
DA:66,8
DA:67,16
DA:69,16
DA:70,20
DA:72,4
DA:75,8
DA:77,8
DA:78,6
DA:80,8
DA:82,4
DA:83,4
DA:85,4
DA:86,4
DA:88,16
DA:89,2
DA:91,12
DA:92,2
DA:94,8
LF:37
LH:36
end_of_record
TN:
SF:/home/runner/work/neml2/neml2/src/neml2/models/solid_mechanics/SwellingAndPhaseChangeDeformationJacobian.cxx
FN:33,62,_ZN5neml241SwellingAndPhaseChangeDeformationJacobian16expected_optionsEv
FN:64,73,_ZN5neml241SwellingAndPhaseChangeDeformationJacobianC2ERKNS_9OptionSetE
FN:76,89,_ZN5neml241SwellingAndPhaseChangeDeformationJacobian9set_valueEbbb
FNDA:2,_ZN5neml241SwellingAndPhaseChangeDeformationJacobian16expected_optionsEv
FNDA:1,_ZN5neml241SwellingAndPhaseChangeDeformationJacobianC2ERKNS_9OptionSetE
FNDA:2,_ZN5neml241SwellingAndPhaseChangeDeformationJacobian9set_valueEbbb
FNF:3
FNH:3
DA:33,2
DA:35,2
DA:36,2
DA:42,2
DA:44,6
DA:45,4
DA:47,4
DA:48,6
DA:49,2
DA:51,4
DA:52,4
DA:54,4
DA:55,4
DA:56,2
DA:58,6
DA:59,2
DA:61,2
DA:62,0
DA:64,1
DA:65,1
DA:67,1
DA:68,4
DA:69,4
DA:70,4
DA:71,2
DA:73,1
DA:76,2
DA:78,2
DA:79,2
DA:81,2
DA:83,1
DA:84,1
DA:86,3
DA:87,1
DA:89,2
LF:35
LH:34
end_of_record
TN:
SF:/home/runner/work/neml2/neml2/src/neml2/models/solid_mechanics/ThermalDeformationJacobian.cxx
FN:33,54,_ZN5neml226ThermalDeformationJacobian16expected_optionsEv
FN:56,63,_ZN5neml226ThermalDeformationJacobianC2ERKNS_9OptionSetE
FN:66,79,_ZN5neml226ThermalDeformationJacobian9set_valueEbbb
FNDA:2,_ZN5neml226ThermalDeformationJacobian16expected_optionsEv
FNDA:1,_ZN5neml226ThermalDeformationJacobianC2ERKNS_9OptionSetE
FNDA:2,_ZN5neml226ThermalDeformationJacobian9set_valueEbbb
FNF:3
FNH:3
DA:33,2
DA:35,2
DA:36,2
DA:39,2
DA:41,6
DA:42,4
DA:44,4
DA:45,4
DA:47,4
DA:48,2
DA:50,6
DA:51,2
DA:53,2
DA:54,0
DA:56,1
DA:58,1
DA:59,4
DA:60,4
DA:61,2
DA:63,1
DA:66,2
DA:68,2
DA:69,1
DA:71,2
DA:73,1
DA:74,1
DA:76,3
DA:77,0
DA:79,2
LF:29
LH:27
end_of_record
TN:
SF:/home/runner/work/neml2/neml2/src/neml2/models/solid_mechanics/ThermalEigenstrain.cxx
FN:34,53,_ZN5neml218ThermalEigenstrain16expected_optionsEv
FN:55,61,_ZN5neml218ThermalEigenstrainC2ERKNS_9OptionSetE
FN:64,87,_ZN5neml218ThermalEigenstrain9set_valueEbbb
FNDA:2,_ZN5neml218ThermalEigenstrain16expected_optionsEv
FNDA:2,_ZN5neml218ThermalEigenstrainC2ERKNS_9OptionSetE
FNDA:4,_ZN5neml218ThermalEigenstrain9set_valueEbbb
FNF:3
FNH:3
DA:34,2
DA:36,2
DA:37,2
DA:41,2
DA:43,6
DA:44,4
DA:46,4
DA:47,4
DA:49,4
DA:50,2
DA:52,2
DA:53,0
DA:55,2
DA:57,2
DA:58,8
DA:59,10
DA:61,2
DA:64,4
DA:66,4
DA:67,3
DA:69,4
DA:71,2
DA:72,2
DA:74,6
DA:75,1
DA:78,4
DA:80,0
DA:81,0
DA:83,0
DA:84,0
DA:87,4
LF:31
LH:26
end_of_record
TN:
SF:/home/runner/work/neml2/neml2/src/neml2/models/solid_mechanics/TwoStageThermalAnnealing.cxx
FN:43,81,_ZN5neml224TwoStageThermalAnnealingINS_3SR2EE16expected_optionsEv
FN:43,81,_ZN5neml224TwoStageThermalAnnealingINS_6ScalarEE16expected_optionsEv
FN:84,94,_ZN5neml224TwoStageThermalAnnealingINS_3SR2EEC2ERKNS_9OptionSetE
FN:84,94,_ZN5neml224TwoStageThermalAnnealingINS_6ScalarEEC2ERKNS_9OptionSetE
FN:98,118,_ZN5neml224TwoStageThermalAnnealingINS_3SR2EE9set_valueEbbb
FN:98,118,_ZN5neml224TwoStageThermalAnnealingINS_6ScalarEE9set_valueEbbb
FNDA:2,_ZN5neml224TwoStageThermalAnnealingINS_3SR2EE16expected_optionsEv
FNDA:2,_ZN5neml224TwoStageThermalAnnealingINS_6ScalarEE16expected_optionsEv
FNDA:1,_ZN5neml224TwoStageThermalAnnealingINS_3SR2EEC2ERKNS_9OptionSetE
FNDA:1,_ZN5neml224TwoStageThermalAnnealingINS_6ScalarEEC2ERKNS_9OptionSetE
FNDA:2,_ZN5neml224TwoStageThermalAnnealingINS_3SR2EE9set_valueEbbb
FNDA:2,_ZN5neml224TwoStageThermalAnnealingINS_6ScalarEE9set_valueEbbb
FNF:6
FNH:6
DA:43,4
DA:47,4
DA:49,4
DA:50,4
DA:59,8
DA:60,8
DA:62,8
DA:63,8
DA:65,8
DA:66,4
DA:68,12
DA:69,8
DA:71,8
DA:72,8
DA:74,8
DA:75,8
DA:77,8
DA:78,4
DA:80,8
DA:81,4
DA:84,2
DA:86,2
DA:87,2
DA:88,2
DA:89,2
DA:90,8
DA:91,8
DA:92,10
DA:94,2
DA:98,4
DA:100,4
DA:101,4
DA:102,4
DA:103,4
DA:105,4
DA:106,2
DA:108,4
DA:110,2
DA:112,2
DA:113,2
DA:115,2
DA:116,2
DA:117,2
DA:118,4
LF:44
LH:44
end_of_record
TN:
SF:/home/runner/work/neml2/neml2/src/neml2/models/solid_mechanics/VoceIsotropicHardening.cxx
FN:34,50,_ZN5neml222VoceIsotropicHardening16expected_optionsEv
FN:52,57,_ZN5neml222VoceIsotropicHardeningC2ERKNS_9OptionSetE
FN:60,80,_ZN5neml222VoceIsotropicHardening9set_valueEbbb
FNDA:2,_ZN5neml222VoceIsotropicHardening16expected_optionsEv
FNDA:3,_ZN5neml222VoceIsotropicHardeningC2ERKNS_9OptionSetE
FNDA:7,_ZN5neml222VoceIsotropicHardening9set_valueEbbb
FNF:3
FNH:3
DA:34,2
DA:36,2
DA:37,2
DA:40,2
DA:42,4
DA:44,4
DA:45,4
DA:46,4
DA:47,2
DA:49,2
DA:50,0
DA:52,3
DA:54,9
DA:55,15
DA:57,3
DA:60,7
DA:62,7
DA:63,5
DA:65,7
DA:67,3
DA:68,3
DA:70,9
DA:71,1
DA:73,9
DA:74,1
DA:77,7
DA:78,1
DA:79,1
DA:80,7
LF:29
LH:28
end_of_record
TN:
SF:/home/runner/work/neml2/neml2/src/neml2/models/solid_mechanics/VolumeAdjustDeformationGradient.cxx
FN:35,54,_ZN5neml231VolumeAdjustDeformationGradient16expected_optionsEv
FN:56,62,_ZN5neml231VolumeAdjustDeformationGradientC2ERKNS_9OptionSetE
FN:65,81,_ZN5neml231VolumeAdjustDeformationGradient9set_valueEbbb
FNDA:2,_ZN5neml231VolumeAdjustDeformationGradient16expected_optionsEv
FNDA:1,_ZN5neml231VolumeAdjustDeformationGradientC2ERKNS_9OptionSetE
FNDA:2,_ZN5neml231VolumeAdjustDeformationGradient9set_valueEbbb
FNF:3
FNH:3
DA:35,2
DA:37,2
DA:38,2
DA:41,2
DA:43,4
DA:44,4
DA:46,4
DA:47,6
DA:48,2
DA:50,4
DA:51,2
DA:53,2
DA:54,0
DA:56,1
DA:58,1
DA:59,1
DA:60,2
DA:62,1
DA:65,2
DA:67,2
DA:68,1
DA:70,2
DA:72,1
DA:73,1
DA:75,1
DA:77,1
DA:78,1
DA:79,1
DA:81,2
LF:29
LH:28
end_of_record
TN:
SF:/home/runner/work/neml2/neml2/src/neml2/models/solid_mechanics/VolumeChangeEigenstrain.cxx
FN:33,51,_ZN5neml223VolumeChangeEigenstrain16expected_optionsEv
FN:53,58,_ZN5neml223VolumeChangeEigenstrainC2ERKNS_9OptionSetE
FN:61,78,_ZN5neml223VolumeChangeEigenstrain9set_valueEbbb
FNDA:2,_ZN5neml223VolumeChangeEigenstrain16expected_optionsEv
FNDA:1,_ZN5neml223VolumeChangeEigenstrainC2ERKNS_9OptionSetE
FNDA:2,_ZN5neml223VolumeChangeEigenstrain9set_valueEbbb
FNF:3
FNH:3
DA:33,2
DA:35,2
DA:36,2
DA:42,2
DA:44,6
DA:45,4
DA:47,4
DA:48,2
DA:50,2
DA:51,0
DA:53,1
DA:55,3
DA:56,2
DA:58,1
DA:61,2
DA:63,2
DA:64,1
DA:66,2
DA:68,1
DA:69,1
DA:72,2
DA:74,0
DA:75,0
DA:76,0
DA:78,2
LF:25
LH:21
end_of_record
TN:
SF:/home/runner/work/neml2/neml2/src/neml2/models/solid_mechanics/YieldFunction.cxx
FN:33,56,_ZN5neml213YieldFunction16expected_optionsEv
FN:58,67,_ZN5neml213YieldFunctionC2ERKNS_9OptionSetE
FN:70,98,_ZN5neml213YieldFunction9set_valueEbbb
FNDA:2,_ZN5neml213YieldFunction16expected_optionsEv
FNDA:13,_ZN5neml213YieldFunctionC2ERKNS_9OptionSetE
FNDA:32,_ZN5neml213YieldFunction9set_valueEbbb
FNF:3
FNH:3
DA:33,2
DA:35,2
DA:36,2
DA:39,2
DA:41,4
DA:43,4
DA:44,2
DA:46,6
DA:47,4
DA:49,4
DA:50,2
DA:52,6
DA:53,2
DA:55,2
DA:56,0
DA:58,13
DA:60,13
DA:61,26
DA:62,13
DA:63,13
DA:64,13
DA:65,65
DA:67,13
DA:70,32
DA:72,32
DA:74,32
DA:75,12
DA:77,20
DA:80,32
DA:82,23
DA:84,23
DA:85,23
DA:87,23
DA:88,9
DA:90,69
DA:91,4
DA:92,23
DA:98,32
LF:38
LH:37
end_of_record
TN:
SF:/home/runner/work/neml2/neml2/src/neml2/models/solid_mechanics/crystal_plasticity/CrystalMean.cxx
FN:37,54,_ZN5neml211CrystalMeanINS_3SR2EE16expected_optionsEv
FN:57,64,_ZN5neml211CrystalMeanINS_3SR2EEC2ERKNS_9OptionSetE
FN:68,81,_ZN5neml211CrystalMeanINS_3SR2EE9set_valueEbbb
FNDA:2,_ZN5neml211CrystalMeanINS_3SR2EE16expected_optionsEv
FNDA:1,_ZN5neml211CrystalMeanINS_3SR2EEC2ERKNS_9OptionSetE
FNDA:2,_ZN5neml211CrystalMeanINS_3SR2EE9set_valueEbbb
FNF:3
FNH:3
DA:37,2
DA:39,2
DA:41,2
DA:43,4
DA:44,4
DA:46,4
DA:47,4
DA:49,4
DA:50,2
DA:53,2
DA:54,0
DA:57,1
DA:59,1
DA:61,1
DA:62,2
DA:64,1
DA:68,2
DA:70,2
DA:71,1
DA:73,2
DA:74,1
DA:76,3
DA:78,2
DA:79,1
DA:80,1
DA:81,2
LF:26
LH:25
end_of_record
TN:
SF:/home/runner/work/neml2/neml2/src/neml2/models/solid_mechanics/crystal_plasticity/ElasticStrainRate.cxx
FN:106,127,_ZN5neml217ElasticStrainRate9set_valueEbbb
FN:38,65,_ZN5neml217ElasticStrainRate16expected_optionsEv
FN:67,75,_ZN5neml217ElasticStrainRateC2ERKNS_9OptionSetE
FN:78,85,_ZN5neml219skew_and_sym_to_symERKNS_3SR2ERKNS_3WR2E
FN:88,94,_ZN5neml227d_skew_and_sym_to_sym_d_symERKNS_3WR2E
FN:97,103,_ZN5neml228d_skew_and_sym_to_sym_d_skewERKNS_3SR2E
FNDA:4,_ZN5neml217ElasticStrainRate9set_valueEbbb
FNDA:2,_ZN5neml217ElasticStrainRate16expected_optionsEv
FNDA:2,_ZN5neml217ElasticStrainRateC2ERKNS_9OptionSetE
FNDA:3,_ZN5neml219skew_and_sym_to_symERKNS_3SR2ERKNS_3WR2E
FNDA:2,_ZN5neml227d_skew_and_sym_to_sym_d_symERKNS_3WR2E
FNDA:1,_ZN5neml228d_skew_and_sym_to_sym_d_skewERKNS_3SR2E
FNF:6
FNH:6
DA:38,2
DA:40,2
DA:42,2
DA:46,2
DA:48,6
DA:49,2
DA:51,6
DA:52,2
DA:54,6
DA:55,2
DA:57,6
DA:58,2
DA:60,4
DA:61,6
DA:62,2
DA:64,2
DA:65,0
DA:67,2
DA:69,2
DA:70,2
DA:71,2
DA:72,2
DA:73,4
DA:75,2
DA:78,3
DA:82,3
DA:83,3
DA:84,6
DA:85,3
DA:88,2
DA:90,2
DA:91,2
DA:93,16
DA:94,6
DA:97,1
DA:99,1
DA:100,1
DA:102,8
DA:103,3
DA:106,4
DA:108,4
DA:109,3
DA:111,4
DA:113,2
DA:115,2
DA:116,2
DA:118,2
DA:119,1
DA:121,2
DA:122,1
DA:124,2
DA:125,2
DA:126,2
DA:127,4
LF:54
LH:53
end_of_record
TN:
SF:/home/runner/work/neml2/neml2/src/neml2/models/solid_mechanics/crystal_plasticity/FixOrientation.cxx
FN:35,55,_ZN5neml214FixOrientation16expected_optionsEv
FN:57,63,_ZN5neml214FixOrientationC2ERKNS_9OptionSetE
FN:66,80,_ZN5neml214FixOrientation9set_valueEbbb
FNDA:2,_ZN5neml214FixOrientation16expected_optionsEv
FNDA:1,_ZN5neml214FixOrientationC2ERKNS_9OptionSetE
FNDA:2,_ZN5neml214FixOrientation9set_valueEbbb
FNF:3
FNH:3
DA:35,2
DA:37,2
DA:39,2
DA:43,2
DA:45,6
DA:46,2
DA:48,6
DA:49,4
DA:51,4
DA:52,2
DA:54,2
DA:55,0
DA:57,1
DA:59,1
DA:60,1
DA:61,2
DA:63,1
DA:66,2
DA:68,2
DA:69,2
DA:70,3
DA:72,2
DA:73,1
DA:75,1
DA:76,4
DA:78,5
DA:79,1
DA:80,2
LF:28
LH:27
end_of_record
TN:
SF:/home/runner/work/neml2/neml2/src/neml2/models/solid_mechanics/crystal_plasticity/LinearSingleSlipHardeningRule.cxx
FN:33,45,_ZN5neml229LinearSingleSlipHardeningRule16expected_optionsEv
FN:47,51,_ZN5neml229LinearSingleSlipHardeningRuleC2ERKNS_9OptionSetE
FN:54,67,_ZN5neml229LinearSingleSlipHardeningRule9set_valueEbbb
FNDA:2,_ZN5neml229LinearSingleSlipHardeningRule16expected_optionsEv
FNDA:2,_ZN5neml229LinearSingleSlipHardeningRuleC2ERKNS_9OptionSetE
FNDA:4,_ZN5neml229LinearSingleSlipHardeningRule9set_valueEbbb
FNF:3
FNH:3
DA:33,2
DA:35,2
DA:37,2
DA:39,2
DA:41,4
DA:42,2
DA:44,2
DA:45,0
DA:47,2
DA:49,8
DA:51,2
DA:54,4
DA:56,4
DA:57,3
DA:59,4
DA:61,2
DA:62,2
DA:64,6
DA:65,1
DA:67,4
LF:20
LH:19
end_of_record
TN:
SF:/home/runner/work/neml2/neml2/src/neml2/models/solid_mechanics/crystal_plasticity/OrientationRate.cxx
FN:105,126,_ZN5neml215OrientationRate9set_valueEbbb
FN:38,65,_ZN5neml215OrientationRate16expected_optionsEv
FN:67,75,_ZN5neml215OrientationRateC2ERKNS_9OptionSetE
FN:78,84,_ZN5neml222multiply_and_make_skewERKNS_3SR2ES2_
FN:87,93,_ZN5neml232d_multiply_and_make_skew_d_firstERKNS_3SR2E
FN:96,102,_ZN5neml233d_multiply_and_make_skew_d_secondERKNS_3SR2E
FNDA:4,_ZN5neml215OrientationRate9set_valueEbbb
FNDA:2,_ZN5neml215OrientationRate16expected_optionsEv
FNDA:2,_ZN5neml215OrientationRateC2ERKNS_9OptionSetE
FNDA:3,_ZN5neml222multiply_and_make_skewERKNS_3SR2ES2_
FNDA:2,_ZN5neml232d_multiply_and_make_skew_d_firstERKNS_3SR2E
FNDA:2,_ZN5neml233d_multiply_and_make_skew_d_secondERKNS_3SR2E
FNF:6
FNH:6
DA:38,2
DA:40,2
DA:42,2
DA:47,2
DA:49,6
DA:50,2
DA:52,6
DA:53,2
DA:55,6
DA:56,2
DA:58,4
DA:59,6
DA:60,2
DA:62,6
DA:63,2
DA:64,2
DA:65,0
DA:67,2
DA:69,2
DA:70,2
DA:71,2
DA:72,2
DA:73,4
DA:75,2
DA:78,3
DA:80,3
DA:81,3
DA:83,6
DA:84,3
DA:87,2
DA:89,2
DA:90,2
DA:92,16
DA:93,6
DA:96,2
DA:98,2
DA:99,2
DA:101,16
DA:102,6
DA:105,4
DA:107,4
DA:108,3
DA:110,4
DA:112,2
DA:114,2
DA:115,2
DA:117,2
DA:118,1
DA:120,2
DA:121,2
DA:123,2
DA:124,2
DA:125,2
DA:126,4
LF:54
LH:53
end_of_record
TN:
SF:/home/runner/work/neml2/neml2/src/neml2/models/solid_mechanics/crystal_plasticity/PlasticDeformationRate.cxx
FN:40,65,_ZN5neml222PlasticDeformationRate16expected_optionsEv
FN:67,75,_ZN5neml222PlasticDeformationRateC2ERKNS_9OptionSetE
FN:78,96,_ZN5neml222PlasticDeformationRate9set_valueEbbb
FNDA:2,_ZN5neml222PlasticDeformationRate16expected_optionsEv
FNDA:2,_ZN5neml222PlasticDeformationRateC2ERKNS_9OptionSetE
FNDA:4,_ZN5neml222PlasticDeformationRate9set_valueEbbb
FNF:3
FNH:3
DA:40,2
DA:42,2
DA:44,2
DA:48,2
DA:50,4
DA:51,6
DA:52,2
DA:54,6
DA:55,2
DA:57,6
DA:58,4
DA:60,4
DA:61,4
DA:62,2
DA:64,2
DA:65,0
DA:67,2
DA:69,2
DA:70,4
DA:71,2
DA:72,2
DA:73,4
DA:75,2
DA:78,4
DA:80,4
DA:82,4
DA:83,4
DA:85,4
DA:87,2
DA:89,2
DA:90,2
DA:91,2
DA:93,2
DA:94,2
DA:96,4
LF:35
LH:34
end_of_record
TN:
SF:/home/runner/work/neml2/neml2/src/neml2/models/solid_mechanics/crystal_plasticity/PlasticSpatialVelocityGradient.cxx
FN:40,67,_ZN5neml230PlasticSpatialVelocityGradient16expected_optionsEv
FN:69,77,_ZN5neml230PlasticSpatialVelocityGradientC2ERKNS_9OptionSetE
FN:80,98,_ZN5neml230PlasticSpatialVelocityGradient9set_valueEbbb
FNDA:2,_ZN5neml230PlasticSpatialVelocityGradient16expected_optionsEv
FNDA:1,_ZN5neml230PlasticSpatialVelocityGradientC2ERKNS_9OptionSetE
FNDA:2,_ZN5neml230PlasticSpatialVelocityGradient9set_valueEbbb
FNF:3
FNH:3
DA:40,2
DA:42,2
DA:44,2
DA:49,2
DA:51,4
DA:52,6
DA:53,4
DA:54,2
DA:56,6
DA:57,2
DA:59,6
DA:60,4
DA:62,4
DA:63,4
DA:64,2
DA:66,2
DA:67,0
DA:69,1
DA:71,1
DA:72,2
DA:73,1
DA:74,1
DA:75,2
DA:77,1
DA:80,2
DA:82,2
DA:84,2
DA:85,2
DA:87,2
DA:89,1
DA:91,1
DA:92,1
DA:93,1
DA:95,1
DA:96,1
DA:98,2
LF:36
LH:35
end_of_record
TN:
SF:/home/runner/work/neml2/neml2/src/neml2/models/solid_mechanics/crystal_plasticity/PlasticVorticity.cxx
FN:40,64,_ZN5neml216PlasticVorticity16expected_optionsEv
FN:66,74,_ZN5neml216PlasticVorticityC2ERKNS_9OptionSetE
FN:77,96,_ZN5neml216PlasticVorticity9set_valueEbbb
FNDA:2,_ZN5neml216PlasticVorticity16expected_optionsEv
FNDA:2,_ZN5neml216PlasticVorticityC2ERKNS_9OptionSetE
FNDA:4,_ZN5neml216PlasticVorticity9set_valueEbbb
FNF:3
FNH:3
DA:40,2
DA:42,2
DA:44,2
DA:48,2
DA:50,6
DA:51,2
DA:53,6
DA:54,2
DA:56,6
DA:57,4
DA:59,4
DA:60,4
DA:61,2
DA:63,2
DA:64,0
DA:66,2
DA:68,2
DA:69,4
DA:70,2
DA:71,2
DA:72,4
DA:74,2
DA:77,4
DA:79,4
DA:81,4
DA:82,4
DA:84,4
DA:86,2
DA:88,2
DA:89,2
DA:90,2
DA:91,2
DA:93,2
DA:94,2
DA:96,4
LF:35
LH:34
end_of_record
TN:
SF:/home/runner/work/neml2/neml2/src/neml2/models/solid_mechanics/crystal_plasticity/PowerLawSlipRule.cxx
FN:39,56,_ZN5neml216PowerLawSlipRule16expected_optionsEv
FN:58,63,_ZN5neml216PowerLawSlipRuleC2ERKNS_9OptionSetE
FN:66,91,_ZN5neml216PowerLawSlipRule9set_valueEbbb
FNDA:2,_ZN5neml216PowerLawSlipRule16expected_optionsEv
FNDA:3,_ZN5neml216PowerLawSlipRuleC2ERKNS_9OptionSetE
FNDA:6,_ZN5neml216PowerLawSlipRule9set_valueEbbb
FNF:3
FNH:3
DA:39,2
DA:41,2
DA:42,2
DA:47,2
DA:49,4
DA:50,4
DA:52,4
DA:53,2
DA:55,2
DA:56,0
DA:58,3
DA:60,9
DA:61,15
DA:63,3
DA:66,6
DA:68,6
DA:70,6
DA:71,5
DA:73,6
DA:75,3
DA:76,6
DA:77,9
DA:79,3
DA:80,6
DA:81,6
DA:82,3
DA:84,9
DA:85,1
DA:87,9
DA:88,2
DA:89,3
DA:91,6
LF:32
LH:31
end_of_record
TN:
SF:/home/runner/work/neml2/neml2/src/neml2/models/solid_mechanics/crystal_plasticity/ResolvedShear.cxx
FN:39,62,_ZN5neml213ResolvedShear16expected_optionsEv
FN:64,72,_ZN5neml213ResolvedShearC2ERKNS_9OptionSetE
FN:75,98,_ZN5neml213ResolvedShear9set_valueEbbb
FNDA:2,_ZN5neml213ResolvedShear16expected_optionsEv
FNDA:2,_ZN5neml213ResolvedShearC2ERKNS_9OptionSetE
FNDA:4,_ZN5neml213ResolvedShear9set_valueEbbb
FNF:3
FNH:3
DA:39,2
DA:41,2
DA:43,2
DA:47,2
DA:49,6
DA:50,2
DA:52,6
DA:53,2
DA:55,6
DA:56,4
DA:58,4
DA:59,4
DA:60,2
DA:61,2
DA:62,0
DA:64,2
DA:66,2
DA:67,4
DA:68,2
DA:69,2
DA:70,4
DA:72,2
DA:75,4
DA:78,4
DA:79,4
DA:81,4
DA:82,4
DA:84,4
DA:86,2
DA:88,2
DA:89,2
DA:90,2
DA:92,2
DA:94,2
DA:95,10
DA:98,8
LF:36
LH:35
end_of_record
TN:
SF:/home/runner/work/neml2/neml2/src/neml2/models/solid_mechanics/crystal_plasticity/SingleSlipHardeningRule.cxx
FN:33,52,_ZN5neml223SingleSlipHardeningRule16expected_optionsEv
FN:54,60,_ZN5neml223SingleSlipHardeningRuleC2ERKNS_9OptionSetE
FNDA:4,_ZN5neml223SingleSlipHardeningRule16expected_optionsEv
FNDA:5,_ZN5neml223SingleSlipHardeningRuleC2ERKNS_9OptionSetE
FNF:2
FNH:2
DA:33,4
DA:35,4
DA:37,4
DA:38,4
DA:40,8
DA:41,12
DA:42,8
DA:43,4
DA:45,12
DA:46,4
DA:48,12
DA:49,4
DA:51,4
DA:52,0
DA:54,5
DA:56,5
DA:57,5
DA:58,10
DA:60,5
LF:19
LH:18
end_of_record
TN:
SF:/home/runner/work/neml2/neml2/src/neml2/models/solid_mechanics/crystal_plasticity/SingleSlipStrengthMap.cxx
FN:33,50,_ZN5neml221SingleSlipStrengthMap16expected_optionsEv
FN:52,57,_ZN5neml221SingleSlipStrengthMapC2ERKNS_9OptionSetE
FN:60,73,_ZN5neml221SingleSlipStrengthMap9set_valueEbbb
FNDA:2,_ZN5neml221SingleSlipStrengthMap16expected_optionsEv
FNDA:3,_ZN5neml221SingleSlipStrengthMapC2ERKNS_9OptionSetE
FNDA:6,_ZN5neml221SingleSlipStrengthMap9set_valueEbbb
FNF:3
FNH:3
DA:33,2
DA:35,2
DA:37,2
DA:41,2
DA:43,6
DA:44,4
DA:46,4
DA:47,2
DA:49,2
DA:50,0
DA:52,3
DA:54,3
DA:55,15
DA:57,3
DA:60,6
DA:62,6
DA:63,5
DA:65,6
DA:67,3
DA:68,3
DA:70,9
DA:71,1
DA:73,6
LF:23
LH:22
end_of_record
TN:
SF:/home/runner/work/neml2/neml2/src/neml2/models/solid_mechanics/crystal_plasticity/SlipRule.cxx
FN:34,55,_ZN5neml28SlipRule16expected_optionsEv
FN:57,65,_ZN5neml28SlipRuleC2ERKNS_9OptionSetE
FNDA:2,_ZN5neml28SlipRule16expected_optionsEv
FNDA:3,_ZN5neml28SlipRuleC2ERKNS_9OptionSetE
FNF:2
FNH:2
DA:34,2
DA:36,2
DA:38,2
DA:39,2
DA:41,6
DA:42,2
DA:44,6
DA:45,2
DA:47,6
DA:48,4
DA:50,4
DA:51,4
DA:52,2
DA:54,2
DA:55,0
DA:57,3
DA:59,3
DA:60,6
DA:61,3
DA:62,3
DA:63,6
DA:65,3
LF:22
LH:21
end_of_record
TN:
SF:/home/runner/work/neml2/neml2/src/neml2/models/solid_mechanics/crystal_plasticity/SlipStrengthMap.cxx
FN:34,47,_ZN5neml215SlipStrengthMap16expected_optionsEv
FN:49,55,_ZN5neml215SlipStrengthMapC2ERKNS_9OptionSetE
FNDA:2,_ZN5neml215SlipStrengthMap16expected_optionsEv
FNDA:3,_ZN5neml215SlipStrengthMapC2ERKNS_9OptionSetE
FNF:2
FNH:2
DA:34,2
DA:36,2
DA:37,2
DA:39,6
DA:40,4
DA:42,4
DA:43,4
DA:44,2
DA:46,2
DA:47,0
DA:49,3
DA:51,3
DA:52,6
DA:53,6
DA:55,3
LF:15
LH:14
end_of_record
TN:
SF:/home/runner/work/neml2/neml2/src/neml2/models/solid_mechanics/crystal_plasticity/SumSlipRates.cxx
FN:40,57,_ZN5neml212SumSlipRates16expected_optionsEv
FN:59,66,_ZN5neml212SumSlipRatesC2ERKNS_9OptionSetE
FN:69,77,_ZN5neml212SumSlipRates9set_valueEbbb
FNDA:2,_ZN5neml212SumSlipRates16expected_optionsEv
FNDA:2,_ZN5neml212SumSlipRatesC2ERKNS_9OptionSetE
FNDA:4,_ZN5neml212SumSlipRates9set_valueEbbb
FNF:3
FNH:3
DA:40,2
DA:42,2
DA:43,2
DA:44,2
DA:46,6
DA:47,2
DA:49,6
DA:50,4
DA:52,4
DA:53,4
DA:54,2
DA:56,2
DA:57,0
DA:59,2
DA:61,2
DA:62,4
DA:63,2
DA:64,4
DA:66,2
DA:69,4
DA:71,4
DA:72,3
DA:74,4
DA:75,2
DA:76,2
DA:77,4
LF:26
LH:25
end_of_record
TN:
SF:/home/runner/work/neml2/neml2/src/neml2/models/solid_mechanics/crystal_plasticity/VoceSingleSlipHardeningRule.cxx
FN:33,49,_ZN5neml227VoceSingleSlipHardeningRule16expected_optionsEv
FN:51,56,_ZN5neml227VoceSingleSlipHardeningRuleC2ERKNS_9OptionSetE
FN:59,78,_ZN5neml227VoceSingleSlipHardeningRule9set_valueEbbb
FNDA:2,_ZN5neml227VoceSingleSlipHardeningRule16expected_optionsEv
FNDA:3,_ZN5neml227VoceSingleSlipHardeningRuleC2ERKNS_9OptionSetE
FNDA:6,_ZN5neml227VoceSingleSlipHardeningRule9set_valueEbbb
FNF:3
FNH:3
DA:33,2
DA:35,2
DA:36,2
DA:41,2
DA:43,4
DA:44,4
DA:45,4
DA:46,4
DA:47,2
DA:48,2
DA:49,0
DA:51,3
DA:53,9
DA:54,15
DA:56,3
DA:59,6
DA:61,6
DA:62,5
DA:64,6
DA:66,3
DA:67,3
DA:69,3
DA:70,3
DA:72,9
DA:73,1
DA:75,9
DA:76,1
DA:78,6
LF:28
LH:27
end_of_record
TN:
SF:/home/runner/work/neml2/neml2/src/neml2/models/solid_mechanics/elasticity/AnisotropicElasticity.cxx
FN:30,39,_ZN5neml221AnisotropicElasticity16expected_optionsEv
FN:41,45,_ZN5neml221AnisotropicElasticityC2ERKNS_9OptionSetE
FNDA:2,_ZN5neml221AnisotropicElasticity16expected_optionsEv
FNDA:5,_ZN5neml221AnisotropicElasticityC2ERKNS_9OptionSetE
FNF:2
FNH:2
DA:30,2
DA:32,2
DA:33,2
DA:35,6
DA:36,2
DA:38,2
DA:39,0
DA:41,5
DA:43,5
DA:45,5
LF:10
LH:9
end_of_record
TN:
SF:/home/runner/work/neml2/neml2/src/neml2/models/solid_mechanics/elasticity/CubicElasticityConverter.cxx
FN:39,53,_ZN5neml224CubicElasticityConverter12G_E_nu_to_C1ERKSt5arrayINS_6ScalarELm3EERKS1_IbLm3EE
FN:56,70,_ZN5neml224CubicElasticityConverter12G_E_nu_to_C2ERKSt5arrayINS_6ScalarELm3EERKS1_IbLm3EE
FN:73,85,_ZN5neml224CubicElasticityConverter12G_E_nu_to_C3ERKSt5arrayINS_6ScalarELm3EERKS1_IbLm3EE
FNDA:4,_ZN5neml224CubicElasticityConverter12G_E_nu_to_C1ERKSt5arrayINS_6ScalarELm3EERKS1_IbLm3EE
FNDA:4,_ZN5neml224CubicElasticityConverter12G_E_nu_to_C2ERKSt5arrayINS_6ScalarELm3EERKS1_IbLm3EE
FNDA:4,_ZN5neml224CubicElasticityConverter12G_E_nu_to_C3ERKSt5arrayINS_6ScalarELm3EERKS1_IbLm3EE
FNF:3
FNH:3
DA:39,4
DA:41,4
DA:42,4
DA:43,4
DA:45,4
DA:46,4
DA:47,4
DA:48,12
DA:49,8
DA:50,12
DA:52,8
DA:53,8
DA:56,4
DA:58,4
DA:59,4
DA:60,4
DA:62,4
DA:63,4
DA:64,4
DA:66,16
DA:67,12
DA:69,8
DA:70,8
DA:73,4
DA:75,4
DA:76,4
DA:77,4
DA:79,4
DA:80,4
DA:81,4
DA:82,4
DA:84,8
DA:85,8
LF:33
LH:33
end_of_record
TN:
SF:/home/runner/work/neml2/neml2/src/neml2/models/solid_mechanics/elasticity/CubicElasticityTensor.cxx
FN:33,40,_ZN5neml221CubicElasticityTensor16expected_optionsEv
FN:42,47,_ZN5neml221CubicElasticityTensorC2ERKNS_9OptionSetE
FN:50,75,_ZN5neml221CubicElasticityTensor9set_valueEbbb
FNDA:2,_ZN5neml221CubicElasticityTensor16expected_optionsEv
FNDA:2,_ZN5neml221CubicElasticityTensorC2ERKNS_9OptionSetE
FNDA:4,_ZN5neml221CubicElasticityTensor9set_valueEbbb
FNF:3
FNH:3
DA:33,2
DA:35,2
DA:36,2
DA:37,2
DA:39,2
DA:40,0
DA:42,2
DA:44,2
DA:45,2
DA:47,2
DA:50,4
DA:52,4
DA:53,4
DA:54,4
DA:55,4
DA:57,4
DA:58,4
DA:59,4
DA:61,4
DA:62,4
DA:64,4
DA:66,2
DA:67,2
DA:69,2
DA:70,2
DA:72,2
DA:73,2
DA:75,4
LF:28
LH:27
end_of_record
TN:
SF:/home/runner/work/neml2/neml2/src/neml2/models/solid_mechanics/elasticity/Elasticity.cxx
FN:30,52,_ZN5neml210Elasticity16expected_optionsEv
FN:54,63,_ZN5neml210ElasticityC2ERKNS_9OptionSetE
FNDA:4,_ZN5neml210Elasticity16expected_optionsEv
FNDA:26,_ZN5neml210ElasticityC2ERKNS_9OptionSetE
FNF:2
FNH:2
DA:30,4
DA:32,4
DA:33,4
DA:35,12
DA:36,4
DA:38,12
DA:39,8
DA:41,8
DA:42,12
DA:44,4
DA:46,8
DA:47,8
DA:49,4
DA:51,4
DA:52,0
DA:54,26
DA:56,52
DA:57,52
DA:58,104
DA:59,78
DA:60,26
DA:61,52
DA:63,26
LF:23
LH:22
end_of_record
TN:
SF:/home/runner/work/neml2/neml2/src/neml2/models/solid_mechanics/elasticity/ElasticityConverter.cxx
FN:30,55,_ZN5neml24nameB5cxx11ENS_15ElasticConstantE
FNDA:180,_ZN5neml24nameB5cxx11ENS_15ElasticConstantE
FNF:1
FNH:1
DA:30,180
DA:32,180
DA:34,20
DA:35,40
DA:36,67
DA:37,134
DA:38,0
DA:39,0
DA:40,26
DA:41,52
DA:42,67
DA:43,134
DA:44,0
DA:45,0
DA:46,0
DA:47,0
DA:48,0
DA:49,0
DA:50,0
DA:51,0
DA:52,0
DA:53,0
LF:22
LH:10
end_of_record
TN:
SF:/home/runner/work/neml2/neml2/src/neml2/models/solid_mechanics/elasticity/GeneralElasticity.cxx
FN:35,45,_ZN5neml217GeneralElasticity16expected_optionsEv
FN:47,51,_ZN5neml217GeneralElasticityC2ERKNS_9OptionSetE
FN:54,89,_ZN5neml217GeneralElasticity9set_valueEbbb
FNDA:2,_ZN5neml217GeneralElasticity16expected_optionsEv
FNDA:5,_ZN5neml217GeneralElasticityC2ERKNS_9OptionSetE
FNDA:10,_ZN5neml217GeneralElasticity9set_valueEbbb
FNF:3
FNH:3
DA:35,2
DA:37,2
DA:38,2
DA:39,2
DA:41,4
DA:42,2
DA:44,2
DA:45,0
DA:47,5
DA:49,20
DA:51,5
DA:54,10
DA:56,10
DA:57,10
DA:59,10
DA:60,7
DA:62,10
DA:64,5
DA:65,5
DA:67,5
DA:69,5
DA:70,20
DA:71,5
DA:72,4
DA:73,16
DA:75,12
DA:76,5
DA:78,15
DA:80,2
DA:81,8
DA:82,2
DA:83,2
DA:84,8
DA:86,4
DA:87,2
DA:89,31
LF:36
LH:35
end_of_record
TN:
SF:/home/runner/work/neml2/neml2/src/neml2/models/solid_mechanics/elasticity/GreenLagrangeStrain.cxx
FN:35,49,_ZN5neml219GreenLagrangeStrain16expected_optionsEv
FN:51,56,_ZN5neml219GreenLagrangeStrainC2ERKNS_9OptionSetE
FN:59,74,_ZN5neml219GreenLagrangeStrain9set_valueEbbb
FNDA:2,_ZN5neml219GreenLagrangeStrain16expected_optionsEv
FNDA:1,_ZN5neml219GreenLagrangeStrainC2ERKNS_9OptionSetE
FNDA:2,_ZN5neml219GreenLagrangeStrain9set_valueEbbb
FNF:3
FNH:3
DA:35,2
DA:37,2
DA:38,2
DA:40,2
DA:42,6
DA:43,2
DA:45,6
DA:46,2
DA:48,2
DA:49,0
DA:51,1
DA:53,1
DA:54,2
DA:56,1
DA:59,2
DA:61,2
DA:63,1
DA:64,1
DA:65,1
DA:67,2
DA:69,1
DA:70,6
DA:71,7
DA:72,1
DA:73,1
DA:74,6
LF:26
LH:25
end_of_record
TN:
SF:/home/runner/work/neml2/neml2/src/neml2/models/solid_mechanics/elasticity/IsotropicElasticityConverter.cxx
FN:36,44,_ZN5neml228IsotropicElasticityConverter8K_G_to_KERKSt5arrayINS_6ScalarELm2EERKS1_IbLm2EE
FN:47,55,_ZN5neml228IsotropicElasticityConverter8K_G_to_GERKSt5arrayINS_6ScalarELm2EERKS1_IbLm2EE
FN:58,68,_ZN5neml228IsotropicElasticityConverter9E_nu_to_KERKSt5arrayINS_6ScalarELm2EERKS1_IbLm2EE
FN:71,81,_ZN5neml228IsotropicElasticityConverter9E_nu_to_GERKSt5arrayINS_6ScalarELm2EERKS1_IbLm2EE
FNDA:30,_ZN5neml228IsotropicElasticityConverter8K_G_to_KERKSt5arrayINS_6ScalarELm2EERKS1_IbLm2EE
FNDA:30,_ZN5neml228IsotropicElasticityConverter8K_G_to_GERKSt5arrayINS_6ScalarELm2EERKS1_IbLm2EE
FNDA:29,_ZN5neml228IsotropicElasticityConverter9E_nu_to_KERKSt5arrayINS_6ScalarELm2EERKS1_IbLm2EE
FNDA:31,_ZN5neml228IsotropicElasticityConverter9E_nu_to_GERKSt5arrayINS_6ScalarELm2EERKS1_IbLm2EE
FNF:4
FNH:4
DA:36,30
DA:38,30
DA:40,30
DA:41,30
DA:43,60
DA:44,60
DA:47,30
DA:49,30
DA:51,30
DA:52,30
DA:54,60
DA:55,60
DA:58,29
DA:60,29
DA:61,29
DA:63,29
DA:64,29
DA:65,29
DA:67,58
DA:68,58
DA:71,31
DA:73,31
DA:74,31
DA:76,31
DA:77,31
DA:78,31
DA:80,62
DA:81,62
LF:28
LH:28
end_of_record
TN:
SF:/home/runner/work/neml2/neml2/src/neml2/models/solid_mechanics/elasticity/IsotropicElasticityTensor.cxx
FN:33,40,_ZN5neml225IsotropicElasticityTensor16expected_optionsEv
FN:42,47,_ZN5neml225IsotropicElasticityTensorC2ERKNS_9OptionSetE
FN:50,70,_ZN5neml225IsotropicElasticityTensor9set_valueEbbb
FNDA:2,_ZN5neml225IsotropicElasticityTensor16expected_optionsEv
FNDA:2,_ZN5neml225IsotropicElasticityTensorC2ERKNS_9OptionSetE
FNDA:4,_ZN5neml225IsotropicElasticityTensor9set_valueEbbb
FNF:3
FNH:3
DA:33,2
DA:35,2
DA:36,2
DA:37,2
DA:39,2
DA:40,0
DA:42,2
DA:44,2
DA:45,2
DA:47,2
DA:50,4
DA:52,4
DA:53,4
DA:54,4
DA:56,4
DA:57,4
DA:59,4
DA:60,4
DA:62,4
DA:64,2
DA:65,2
DA:67,2
DA:68,2
DA:70,4
LF:24
LH:23
end_of_record
TN:
SF:/home/runner/work/neml2/neml2/src/neml2/models/solid_mechanics/elasticity/LinearIsotropicElasticity.cxx
FN:33,42,_ZN5neml225LinearIsotropicElasticity16expected_optionsEv
FN:44,48,_ZN5neml225LinearIsotropicElasticityC2ERKNS_9OptionSetE
FN:51,81,_ZN5neml225LinearIsotropicElasticity9set_valueEbbb
FNDA:2,_ZN5neml225LinearIsotropicElasticity16expected_optionsEv
FNDA:21,_ZN5neml225LinearIsotropicElasticityC2ERKNS_9OptionSetE
FNDA:25,_ZN5neml225LinearIsotropicElasticity9set_valueEbbb
FNF:3
FNH:3
DA:33,2
DA:35,2
DA:36,2
DA:39,2
DA:41,2
DA:42,0
DA:44,21
DA:46,21
DA:48,21
DA:51,25
DA:53,25
DA:54,25
DA:55,25
DA:56,25
DA:57,25
DA:59,25
DA:60,21
DA:62,25
DA:64,10
DA:65,10
DA:67,10
DA:68,10
DA:70,10
DA:71,10
DA:72,10
DA:73,10
DA:75,10
DA:76,2
DA:78,10
DA:79,2
DA:80,10
DA:81,25
LF:32
LH:31
end_of_record
TN:
SF:/home/runner/work/neml2/neml2/src/neml2/solvers/Newton.cxx
FN:101,111,_ZNK5neml26Newton9convergedEmRKN2at6TensorES4_
FN:114,120,_ZN5neml26Newton6updateERNS_15NonlinearSystemERNS1_3SolILb1EEERKNS1_3ResILb1EEERKNS1_3JacILb1EEE
FN:123,129,_ZN5neml26Newton12final_updateERNS_15NonlinearSystemERNS1_3SolILb1EEERKNS1_3ResILb1EEERKNS1_3JacILb1EEE
FN:132,138,_ZN5neml26Newton15solve_directionERKNS_15NonlinearSystem3ResILb1EEERKNS1_3JacILb1EEE
FN:38,44,_ZN5neml26Newton16expected_optionsEv
FN:46,49,_ZN5neml26NewtonC2ERKNS_9OptionSetE
FN:52,98,_ZN5neml26Newton5solveERNS_15NonlinearSystemERKNS1_3SolILb0EEE
FNDA:1546,_ZNK5neml26Newton9convergedEmRKN2at6TensorES4_
FNDA:1231,_ZN5neml26Newton6updateERNS_15NonlinearSystemERNS1_3SolILb1EEERKNS1_3ResILb1EEERKNS1_3JacILb1EEE
FNDA:26,_ZN5neml26Newton12final_updateERNS_15NonlinearSystemERNS1_3SolILb1EEERKNS1_3ResILb1EEERKNS1_3JacILb1EEE
FNDA:1354,_ZN5neml26Newton15solve_directionERKNS_15NonlinearSystem3ResILb1EEERKNS1_3JacILb1EEE
FNDA:18,_ZN5neml26Newton16expected_optionsEv
FNDA:22,_ZN5neml26NewtonC2ERKNS_9OptionSetE
FNDA:218,_ZN5neml26Newton5solveERNS_15NonlinearSystemERKNS1_3SolILb0EEE
FNF:7
FNH:7
DA:38,18
DA:40,18
DA:41,18
DA:43,18
DA:44,0
DA:46,22
DA:47,22
DA:49,22
DA:52,218
DA:55,218
DA:58,218
DA:59,218
DA:60,218
DA:63,218
DA:66,1
DA:67,0
DA:69,1
DA:73,217
DA:79,1329
DA:81,1328
DA:82,1328
DA:83,1328
DA:84,1328
DA:87,1328
DA:90,216
DA:91,26
DA:93,216
DA:95,1328
DA:97,1
DA:98,434
DA:101,1546
DA:110,1546
DA:114,1231
DA:119,1231
DA:120,1231
DA:123,26
DA:128,26
DA:129,26
DA:132,1354
DA:134,1354
DA:135,51
DA:137,1303
LF:42
LH:40
end_of_record
TN:
SF:/home/runner/work/neml2/neml2/src/neml2/solvers/NewtonWithLineSearch.cxx
FN:38,67,_ZN5neml220NewtonWithLineSearch16expected_optionsEv
FN:69,77,_ZN5neml220NewtonWithLineSearchC2ERKNS_9OptionSetE
FN:80,88,_ZN5neml220NewtonWithLineSearch6updateERNS_15NonlinearSystemERNS1_3SolILb1EEERKNS1_3ResILb1EEERKNS1_3JacILb1EEE
FN:91,135,_ZNK5neml220NewtonWithLineSearch10linesearchERNS_15NonlinearSystemERKNS1_3SolILb1EEES6_RKNS1_3ResILb1EEE
FNDA:5,_ZN5neml220NewtonWithLineSearch16expected_optionsEv
FNDA:4,_ZN5neml220NewtonWithLineSearchC2ERKNS_9OptionSetE
FNDA:79,_ZN5neml220NewtonWithLineSearch6updateERNS_15NonlinearSystemERNS1_3SolILb1EEERKNS1_3ResILb1EEERKNS1_3JacILb1EEE
FNDA:79,_ZNK5neml220NewtonWithLineSearch10linesearchERNS_15NonlinearSystemERKNS1_3SolILb1EEES6_RKNS1_3ResILb1EEE
FNF:4
FNH:4
DA:38,5
DA:40,5
DA:41,5
DA:43,20
DA:44,5
DA:45,10
DA:46,10
DA:47,15
DA:49,10
DA:50,15
DA:52,5
DA:54,10
DA:55,15
DA:56,5
DA:58,10
DA:59,15
DA:60,5
DA:62,10
DA:63,10
DA:64,5
DA:66,10
DA:67,5
DA:69,4
DA:71,8
DA:72,8
DA:73,8
DA:74,8
DA:75,8
DA:77,4
DA:80,79
DA:85,79
DA:86,79
DA:87,79
DA:88,79
DA:91,79
DA:96,79
DA:97,79
DA:98,79
DA:100,192
DA:102,173
DA:103,173
DA:104,173
DA:106,346
DA:107,173
DA:108,0
DA:109,0
DA:111,173
DA:112,0
DA:113,0
DA:114,0
DA:115,0
DA:117,173
DA:119,173
DA:120,60
DA:122,226
DA:123,452
DA:124,353
DA:126,79
DA:127,0
DA:131,0
DA:132,0
DA:134,158
DA:135,305
LF:63
LH:54
end_of_record
TN:
SF:/home/runner/work/neml2/neml2/src/neml2/solvers/NewtonWithTrustRegion.cxx
FN:101,105,_ZNK5neml221NewtonWithTrustRegion18subproblem_optionsERKNS_9OptionSetE
FN:108,115,_ZNK5neml221NewtonWithTrustRegion25subproblem_solver_optionsERKNS_9OptionSetE
FN:118,122,_ZN5neml221NewtonWithTrustRegion7prepareERKNS_15NonlinearSystemERKNS1_3SolILb1EEE
FN:125,169,_ZN5neml221NewtonWithTrustRegion6updateERNS_15NonlinearSystemERNS1_3SolILb1EEERKNS1_3ResILb1EEERKNS1_3JacILb1EEE
FN:172,200,_ZN5neml221NewtonWithTrustRegion15solve_directionERKNS_15NonlinearSystem3ResILb1EEERKNS1_3JacILb1EEE
FN:203,209,_ZNK5neml221NewtonWithTrustRegion24merit_function_reductionERKNS_15NonlinearSystem3ResILb1EEERKNS1_3JacILb1EEERKNS1_3SolILb1EEE
FN:40,84,_ZN5neml221NewtonWithTrustRegion16expected_optionsEv
FN:86,98,_ZN5neml221NewtonWithTrustRegionC2ERKNS_9OptionSetE
FNDA:3,_ZNK5neml221NewtonWithTrustRegion18subproblem_optionsERKNS_9OptionSetE
FNDA:3,_ZNK5neml221NewtonWithTrustRegion25subproblem_solver_optionsERKNS_9OptionSetE
FNDA:3,_ZN5neml221NewtonWithTrustRegion7prepareERKNS_15NonlinearSystemERKNS1_3SolILb1EEE
FNDA:18,_ZN5neml221NewtonWithTrustRegion6updateERNS_15NonlinearSystemERNS1_3SolILb1EEERKNS1_3ResILb1EEERKNS1_3JacILb1EEE
FNDA:18,_ZN5neml221NewtonWithTrustRegion15solve_directionERKNS_15NonlinearSystem3ResILb1EEERKNS1_3JacILb1EEE
FNDA:18,_ZNK5neml221NewtonWithTrustRegion24merit_function_reductionERKNS_15NonlinearSystem3ResILb1EEERKNS1_3JacILb1EEERKNS1_3SolILb1EEE
FNDA:5,_ZN5neml221NewtonWithTrustRegion16expected_optionsEv
FNDA:3,_ZN5neml221NewtonWithTrustRegionC2ERKNS_9OptionSetE
FNF:8
FNH:8
DA:40,5
DA:42,5
DA:43,5
DA:47,5
DA:49,10
DA:50,10
DA:52,10
DA:53,10
DA:55,10
DA:56,15
DA:57,5
DA:59,10
DA:60,15
DA:61,5
DA:63,10
DA:64,10
DA:66,10
DA:67,10
DA:69,10
DA:70,15
DA:71,5
DA:73,10
DA:74,10
DA:76,10
DA:77,10
DA:79,10
DA:80,10
DA:81,5
DA:83,5
DA:84,0
DA:86,3
DA:88,3
DA:89,3
DA:90,6
DA:91,6
DA:92,6
DA:93,6
DA:94,6
DA:95,6
DA:96,9
DA:98,3
DA:101,3
DA:104,3
DA:108,3
DA:110,3
DA:111,12
DA:112,12
DA:113,9
DA:114,3
DA:115,0
DA:118,3
DA:121,3
DA:122,3
DA:125,18
DA:130,18
DA:133,18
DA:134,18
DA:137,18
DA:138,18
DA:139,18
DA:140,18
DA:143,18
DA:146,54
DA:147,72
DA:148,54
DA:149,90
DA:151,18
DA:154,18
DA:157,18
DA:159,0
DA:160,0
DA:161,0
DA:162,0
DA:163,0
DA:164,0
DA:165,0
DA:168,18
DA:169,162
DA:172,18
DA:176,18
DA:179,18
DA:181,18
DA:184,18
DA:186,0
DA:187,0
DA:188,0
DA:191,18
DA:192,18
DA:196,18
DA:199,36
DA:200,18
DA:203,18
DA:207,18
DA:208,36
DA:209,18
LF:95
LH:83
end_of_record
TN:
SF:/home/runner/work/neml2/neml2/src/neml2/solvers/NonlinearSolver.cxx
FN:30,45,_ZN5neml215NonlinearSolver16expected_optionsEv
FN:47,53,_ZN5neml215NonlinearSolverC2ERKNS_9OptionSetE
FNDA:18,_ZN5neml215NonlinearSolver16expected_optionsEv
FNDA:22,_ZN5neml215NonlinearSolverC2ERKNS_9OptionSetE
FNF:2
FNH:2
DA:30,18
DA:32,18
DA:34,36
DA:35,36
DA:37,36
DA:38,36
DA:40,36
DA:41,36
DA:42,18
DA:44,18
DA:45,0
DA:47,22
DA:49,44
DA:50,44
DA:51,44
DA:53,22
LF:16
LH:15
end_of_record
TN:
SF:/home/runner/work/neml2/neml2/src/neml2/solvers/NonlinearSystem.cxx
FN:155,161,_ZNK5neml215NonlinearSystem39ensure_scaling_matrices_initialized_dbgEv
FN:164,171,_ZNK5neml215NonlinearSystem5scaleERKNS0_3ResILb0EEE
FN:174,181,_ZNK5neml215NonlinearSystem7unscaleERKNS0_3ResILb1EEE
FN:184,191,_ZNK5neml215NonlinearSystem5scaleERKNS0_3JacILb0EEE
FN:194,202,_ZNK5neml215NonlinearSystem7unscaleERKNS0_3JacILb1EEE
FN:205,212,_ZNK5neml215NonlinearSystem5scaleERKNS0_3SolILb0EEE
FN:215,222,_ZNK5neml215NonlinearSystem7unscaleERKNS0_3SolILb1EEE
FN:225,228,_ZN5neml215NonlinearSystem9set_guessERKNS0_3SolILb1EEE
FN:35,39,_ZN5neml234currently_solving_nonlinear_systemEv
FN:41,45,_ZN5neml222SolvingNonlinearSystemC2Eb
FN:47,50,_ZN5neml222SolvingNonlinearSystemD2Ev
FN:53,73,_ZN5neml215NonlinearSystem16expected_optionsEv
FN:76,81,_ZN5neml215NonlinearSystem25disable_automatic_scalingERNS_9OptionSetE
FN:84,89,_ZN5neml215NonlinearSystem24enable_automatic_scalingERNS_9OptionSetE
FN:91,96,_ZN5neml215NonlinearSystemC2ERKNS_9OptionSetE
FN:99,152,_ZN5neml215NonlinearSystem12init_scalingERKNS0_3SolILb0EEEb
FNDA:98,_ZNK5neml215NonlinearSystem39ensure_scaling_matrices_initialized_dbgEv
FNDA:1737,_ZNK5neml215NonlinearSystem5scaleERKNS0_3ResILb0EEE
FNDA:0,_ZNK5neml215NonlinearSystem7unscaleERKNS0_3ResILb1EEE
FNDA:1355,_ZNK5neml215NonlinearSystem5scaleERKNS0_3JacILb0EEE
FNDA:0,_ZNK5neml215NonlinearSystem7unscaleERKNS0_3JacILb1EEE
FNDA:219,_ZNK5neml215NonlinearSystem5scaleERKNS0_3SolILb0EEE
FNDA:1956,_ZNK5neml215NonlinearSystem7unscaleERKNS0_3SolILb1EEE
FNDA:1738,_ZN5neml215NonlinearSystem9set_guessERKNS0_3SolILb1EEE
FNDA:9168,_ZN5neml234currently_solving_nonlinear_systemEv
FNDA:199,_ZN5neml222SolvingNonlinearSystemC2Eb
FNDA:199,_ZN5neml222SolvingNonlinearSystemD2Ev
FNDA:494,_ZN5neml215NonlinearSystem16expected_optionsEv
FNDA:481,_ZN5neml215NonlinearSystem25disable_automatic_scalingERNS_9OptionSetE
FNDA:12,_ZN5neml215NonlinearSystem24enable_automatic_scalingERNS_9OptionSetE
FNDA:492,_ZN5neml215NonlinearSystemC2ERKNS_9OptionSetE
FNDA:195,_ZN5neml215NonlinearSystem12init_scalingERKNS0_3SolILb0EEEb
FNF:16
FNH:14
DA:35,9168
DA:38,9168
DA:41,199
DA:42,199
DA:44,199
DA:45,199
DA:47,199
DA:49,199
DA:50,199
DA:53,494
DA:55,494
DA:57,988
DA:58,1482
DA:60,494
DA:62,988
DA:63,1482
DA:64,494
DA:66,988
DA:67,988
DA:70,494
DA:72,494
DA:73,0
DA:76,481
DA:78,962
DA:79,962
DA:80,481
DA:81,481
DA:84,12
DA:86,24
DA:87,24
DA:88,12
DA:89,12
DA:91,492
DA:92,984
DA:93,984
DA:94,1476
DA:96,492
DA:99,195
DA:101,195
DA:102,191
DA:104,4
DA:105,0
DA:108,4
DA:111,4
DA:112,4
DA:113,4
DA:115,4
DA:116,0
DA:117,0
DA:119,4
DA:121,8
DA:124,16
DA:125,8
DA:126,16
DA:127,8
DA:129,8
DA:130,0
DA:131,0
DA:132,8
DA:133,4
DA:136,20
DA:138,32
DA:139,64
DA:140,32
DA:141,32
DA:142,32
DA:143,64
DA:144,16
DA:147,4
DA:149,4
DA:150,0
DA:151,0
DA:152,132
DA:155,98
DA:157,98
DA:158,98
DA:159,98
DA:161,98
DA:164,1737
DA:166,1737
DA:167,1702
DA:169,35
DA:170,35
DA:174,0
DA:176,0
DA:177,0
DA:179,0
DA:180,0
DA:184,1355
DA:186,1355
DA:187,1335
DA:189,20
DA:190,20
DA:194,0
DA:196,0
DA:197,0
DA:199,0
DA:201,0
DA:205,219
DA:207,219
DA:208,215
DA:210,4
DA:211,4
DA:215,1956
DA:217,1956
DA:218,1917
DA:220,39
DA:221,39
DA:225,1738
DA:227,1738
DA:228,1738
LF:111
LH:93
end_of_record
TN:
SF:/home/runner/work/neml2/neml2/src/neml2/solvers/Solver.cxx
FN:30,39,_ZN5neml26Solver16expected_optionsEv
FN:41,45,_ZN5neml26SolverC2ERKNS_9OptionSetE
FNDA:18,_ZN5neml26Solver16expected_optionsEv
FNDA:22,_ZN5neml26SolverC2ERKNS_9OptionSetE
FNF:2
FNH:2
DA:30,18
DA:32,18
DA:33,18
DA:35,36
DA:36,18
DA:38,18
DA:39,0
DA:41,22
DA:43,44
DA:45,22
LF:10
LH:9
end_of_record
TN:
SF:/home/runner/work/neml2/neml2/src/neml2/solvers/TrustRegionSubProblem.cxx
FN:35,38,_ZN5neml221TrustRegionSubProblemC2ERKNS_9OptionSetE
FN:41,48,_ZN5neml221TrustRegionSubProblem6reinitERKNS_15NonlinearSystem3ResILb1EEERKNS1_3JacILb1EEERKNS_6ScalarE
FN:51,54,_ZN5neml221TrustRegionSubProblem9set_guessERKNS_15NonlinearSystem3SolILb0EEE
FN:57,69,_ZN5neml221TrustRegionSubProblem8assembleEPNS_15NonlinearSystem3ResILb0EEEPNS1_3JacILb0EEE
FN:72,75,_ZNK5neml221TrustRegionSubProblem20preconditioned_solveERKNS_6ScalarERKNS_6TensorE
FN:78,81,_ZNK5neml221TrustRegionSubProblem24preconditioned_directionERKNS_6ScalarE
FNDA:3,_ZN5neml221TrustRegionSubProblemC2ERKNS_9OptionSetE
FNDA:18,_ZN5neml221TrustRegionSubProblem6reinitERKNS_15NonlinearSystem3ResILb1EEERKNS1_3JacILb1EEERKNS_6ScalarE
FNDA:69,_ZN5neml221TrustRegionSubProblem9set_guessERKNS_15NonlinearSystem3SolILb0EEE
FNDA:120,_ZN5neml221TrustRegionSubProblem8assembleEPNS_15NonlinearSystem3ResILb0EEEPNS1_3JacILb0EEE
FNDA:189,_ZNK5neml221TrustRegionSubProblem20preconditioned_solveERKNS_6ScalarERKNS_6TensorE
FNDA:138,_ZNK5neml221TrustRegionSubProblem24preconditioned_directionERKNS_6ScalarE
FNF:6
FNH:6
DA:35,3
DA:36,3
DA:38,3
DA:41,18
DA:45,18
DA:46,18
DA:47,18
DA:48,18
DA:51,69
DA:53,69
DA:54,69
DA:57,120
DA:60,120
DA:61,120
DA:63,120
DA:64,69
DA:66,120
DA:68,51
DA:69,120
DA:72,189
DA:74,189
DA:78,138
DA:80,138
LF:23
LH:23
end_of_record
TN:
SF:/home/runner/work/neml2/neml2/src/neml2/tensors/MillerIndex.cxx
FN:33,36,_ZNK5neml211MillerIndexclEl
FN:39,42,_ZN5neml211MillerIndex4fillElllRKN3c1013TensorOptionsE
FN:45,49,_ZNK5neml211MillerIndex6reduceEv
FN:52,55,_ZNK5neml211MillerIndex6to_vecERKN3c1013TensorOptionsE
FN:58,62,_ZNK5neml211MillerIndex17to_normalized_vecERKN3c1013TensorOptionsE
FNDA:207,_ZNK5neml211MillerIndexclEl
FNDA:10,_ZN5neml211MillerIndex4fillElllRKN3c1013TensorOptionsE
FNDA:69,_ZNK5neml211MillerIndex6reduceEv
FNDA:70,_ZNK5neml211MillerIndex6to_vecERKN3c1013TensorOptionsE
FNDA:2,_ZNK5neml211MillerIndex17to_normalized_vecERKN3c1013TensorOptionsE
FNF:5
FNH:5
DA:33,207
DA:35,828
DA:36,207
DA:39,10
DA:41,40
DA:42,10
DA:45,69
DA:47,69
DA:48,138
DA:49,69
DA:52,70
DA:54,70
DA:58,2
DA:60,2
DA:61,4
DA:62,2
LF:16
LH:16
end_of_record
TN:
SF:/home/runner/work/neml2/neml2/src/neml2/tensors/Quaternion.cxx
FN:101,105,_ZNK5neml210Quaternion4distERKS0_
FN:44,49,_ZN5neml210QuaternionC2ERKNS_3RotE
FN:52,60,_ZN5neml210Quaternion4fillERKN3c106ScalarES4_S4_S4_RKNS1_13TensorOptionsE
FN:63,66,_ZN5neml210Quaternion4fillERKNS_6ScalarES3_S3_S3_
FN:69,72,_ZNK5neml210QuaternionclEl
FN:75,92,_ZNK5neml210Quaternion5to_R2Ev
FN:95,98,_ZNK5neml210Quaternion3dotERKS0_
FNDA:0,_ZNK5neml210Quaternion4distERKS0_
FNDA:0,_ZN5neml210QuaternionC2ERKNS_3RotE
FNDA:2,_ZN5neml210Quaternion4fillERKN3c106ScalarES4_S4_S4_RKNS1_13TensorOptionsE
FNDA:2,_ZN5neml210Quaternion4fillERKNS_6ScalarES3_S3_S3_
FNDA:2430,_ZNK5neml210QuaternionclEl
FNDA:81,_ZNK5neml210Quaternion5to_R2Ev
FNDA:0,_ZNK5neml210Quaternion3dotERKS0_
FNF:7
FNH:4
DA:44,0
DA:45,0
DA:46,0
DA:47,0
DA:49,0
DA:52,2
DA:59,2
DA:63,2
DA:65,12
DA:66,2
DA:69,2430
DA:71,4860
DA:72,2430
DA:75,81
DA:77,81
DA:79,81
DA:80,81
DA:81,81
DA:83,162
DA:84,162
DA:85,162
DA:86,162
DA:87,162
DA:88,162
DA:89,162
DA:90,162
DA:91,324
DA:92,81
DA:95,0
DA:97,0
DA:101,0
DA:103,0
DA:104,0
DA:105,0
LF:34
LH:23
end_of_record
TN:
SF:/home/runner/work/neml2/neml2/src/neml2/tensors/R2.cxx
FN:38,41,_ZN5neml22R2C2ERKNS_3SR2E
FN:43,46,_ZN5neml22R2C2ERKNS_3WR2E
FN:48,51,_ZN5neml22R2C2ERKNS_3RotE
FN:54,57,_ZN5neml22R212identity_mapERKN3c1013TensorOptionsE
FNDA:88,_ZN5neml22R2C2ERKNS_3SR2E
FNDA:32,_ZN5neml22R2C2ERKNS_3WR2E
FNDA:7,_ZN5neml22R2C2ERKNS_3RotE
FNDA:2,_ZN5neml22R212identity_mapERKN3c1013TensorOptionsE
FNF:4
FNH:4
DA:38,88
DA:39,88
DA:41,88
DA:43,32
DA:44,32
DA:46,32
DA:48,7
DA:49,7
DA:51,7
DA:54,2
DA:56,2
LF:11
LH:11
end_of_record
TN:
SF:/home/runner/work/neml2/neml2/src/neml2/tensors/R2Base.cxx
FN:114,134,_ZN5neml26R2BaseINS_2R2EE4fillERKN3c106ScalarES6_S6_S6_S6_S6_S6_S6_S6_RKNS3_13TensorOptionsE
FN:138,152,_ZN5neml26R2BaseINS_2R2EE4fillERKNS_6ScalarES5_S5_S5_S5_S5_S5_S5_S5_
FN:156,163,_ZN5neml26R2BaseINS_2R2EE4skewERKNS_3VecE
FN:167,170,_ZN5neml26R2BaseINS_2R2EE8identityERKN3c1013TensorOptionsE
FN:174,177,_ZNK5neml26R2BaseINS_2R2EE6rotateERKNS_3RotE
FN:181,184,_ZNK5neml26R2BaseINS_2R2EE6rotateERKS1_
FN:188,195,_ZNK5neml26R2BaseINS_2R2EE7drotateERKNS_3RotE
FN:199,204,_ZNK5neml26R2BaseINS_2R2EE7drotateERKS1_
FN:208,211,_ZNK5neml26R2BaseINS_2R2EEclEll
FN:215,218,_ZNK5neml26R2BaseINS_2R2EE3rowEl
FN:222,225,_ZNK5neml26R2BaseINS_2R2EE3colEl
FN:229,243,_ZNK5neml26R2BaseINS_2R2EE3detEv
FN:247,250,_ZNK5neml26R2BaseINS_2R2EE5innerERKS1_
FN:254,257,_ZNK5neml26R2BaseINS_2R2EE5outerERKS1_
FN:261,289,_ZNK5neml26R2BaseINS_2R2EE7inverseEv
FN:293,296,_ZNK5neml26R2BaseINS_2R2EE9transposeEv
FN:300,304,_ZN5neml2mlINS_2R2ENS_3VecEvvEES2_RKT_RKT0_
FN:308,312,_ZN5neml2mlINS_2R2ES1_vvEES1_RKT_RKT0_
FN:42,45,_ZN5neml26R2BaseINS_2R2EE4fillERKN3c106ScalarERKNS3_13TensorOptionsE
FN:49,56,_ZN5neml26R2BaseINS_2R2EE4fillERKNS_6ScalarE
FN:60,66,_ZN5neml26R2BaseINS_2R2EE4fillERKN3c106ScalarES6_S6_RKNS3_13TensorOptionsE
FN:70,77,_ZN5neml26R2BaseINS_2R2EE4fillERKNS_6ScalarES5_S5_
FN:81,95,_ZN5neml26R2BaseINS_2R2EE4fillERKN3c106ScalarES6_S6_S6_S6_S6_RKNS3_13TensorOptionsE
FN:99,110,_ZN5neml26R2BaseINS_2R2EE4fillERKNS_6ScalarES5_S5_S5_S5_S5_
FNDA:35,_ZN5neml26R2BaseINS_2R2EE4fillERKN3c106ScalarES6_S6_S6_S6_S6_S6_S6_S6_RKNS3_13TensorOptionsE
FNDA:143,_ZN5neml26R2BaseINS_2R2EE4fillERKNS_6ScalarES5_S5_S5_S5_S5_S5_S5_S5_
FNDA:305,_ZN5neml26R2BaseINS_2R2EE4skewERKNS_3VecE
FNDA:381,_ZN5neml26R2BaseINS_2R2EE8identityERKN3c1013TensorOptionsE
FNDA:18,_ZNK5neml26R2BaseINS_2R2EE6rotateERKNS_3RotE
FNDA:43,_ZNK5neml26R2BaseINS_2R2EE6rotateERKS1_
FNDA:11,_ZNK5neml26R2BaseINS_2R2EE7drotateERKNS_3RotE
FNDA:9,_ZNK5neml26R2BaseINS_2R2EE7drotateERKS1_
FNDA:81,_ZNK5neml26R2BaseINS_2R2EEclEll
FNDA:0,_ZNK5neml26R2BaseINS_2R2EE3rowEl
FNDA:60,_ZNK5neml26R2BaseINS_2R2EE3colEl
FNDA:4,_ZNK5neml26R2BaseINS_2R2EE3detEv
FNDA:4,_ZNK5neml26R2BaseINS_2R2EE5innerERKS1_
FNDA:15,_ZNK5neml26R2BaseINS_2R2EE5outerERKS1_
FNDA:97,_ZNK5neml26R2BaseINS_2R2EE7inverseEv
FNDA:262,_ZNK5neml26R2BaseINS_2R2EE9transposeEv
FNDA:185,_ZN5neml2mlINS_2R2ENS_3VecEvvEES2_RKT_RKT0_
FNDA:1479,_ZN5neml2mlINS_2R2ES1_vvEES1_RKT_RKT0_
FNDA:26,_ZN5neml26R2BaseINS_2R2EE4fillERKN3c106ScalarERKNS3_13TensorOptionsE
FNDA:51,_ZN5neml26R2BaseINS_2R2EE4fillERKNS_6ScalarE
FNDA:2,_ZN5neml26R2BaseINS_2R2EE4fillERKN3c106ScalarES6_S6_RKNS3_13TensorOptionsE
FNDA:5,_ZN5neml26R2BaseINS_2R2EE4fillERKNS_6ScalarES5_S5_
FNDA:2,_ZN5neml26R2BaseINS_2R2EE4fillERKN3c106ScalarES6_S6_S6_S6_S6_RKNS3_13TensorOptionsE
FNDA:5,_ZN5neml26R2BaseINS_2R2EE4fillERKNS_6ScalarES5_S5_S5_S5_S5_
FNF:24
FNH:23
DA:42,26
DA:44,26
DA:49,51
DA:51,51
DA:52,306
DA:53,204
DA:54,204
DA:55,306
DA:56,765
DA:60,2
DA:65,2
DA:70,5
DA:72,5
DA:73,30
DA:74,20
DA:75,20
DA:76,30
DA:77,75
DA:81,2
DA:89,4
DA:90,4
DA:91,4
DA:92,4
DA:93,4
DA:94,6
DA:99,5
DA:106,30
DA:107,20
DA:108,20
DA:109,30
DA:110,75
DA:114,35
DA:125,70
DA:126,70
DA:127,70
DA:128,70
DA:129,70
DA:130,70
DA:131,70
DA:132,70
DA:133,105
DA:138,143
DA:148,858
DA:149,572
DA:150,572
DA:151,858
DA:152,2145
DA:156,305
DA:158,305
DA:159,1830
DA:160,1220
DA:161,1220
DA:162,1830
DA:163,4575
DA:167,381
DA:169,381
DA:174,18
DA:176,18
DA:181,43
DA:183,43
DA:188,11
DA:190,11
DA:191,11
DA:193,44
DA:194,110
DA:195,33
DA:199,9
DA:201,9
DA:202,27
DA:203,90
DA:204,45
DA:208,81
DA:210,243
DA:211,81
DA:215,0
DA:217,0
DA:218,0
DA:222,60
DA:224,300
DA:225,120
DA:229,4
DA:231,4
DA:232,4
DA:233,4
DA:234,4
DA:235,4
DA:236,4
DA:237,4
DA:238,4
DA:239,4
DA:240,4
DA:241,4
DA:242,8
DA:243,4
DA:247,4
DA:249,4
DA:254,15
DA:256,15
DA:261,97
DA:263,97
DA:264,97
DA:265,97
DA:266,97
DA:267,97
DA:268,97
DA:269,97
DA:270,97
DA:271,97
DA:272,97
DA:273,97
DA:274,97
DA:275,97
DA:276,97
DA:277,97
DA:278,97
DA:279,97
DA:280,97
DA:281,97
DA:282,97
DA:283,388
DA:284,388
DA:285,388
DA:286,388
DA:287,97
DA:288,194
DA:289,485
DA:293,262
DA:295,262
DA:300,185
DA:302,185
DA:303,740
DA:304,185
DA:308,1479
DA:310,1479
DA:311,5916
DA:312,1479
LF:136
LH:133
end_of_record
TN:
SF:/home/runner/work/neml2/neml2/src/neml2/tensors/R3.cxx
FN:35,41,_ZN5neml22R311levi_civitaERKN3c1013TensorOptionsE
FN:44,47,_ZNK5neml22R3clElll
FN:50,54,_ZNK5neml22R310contract_kERKNS_3VecE
FNDA:290,_ZN5neml22R311levi_civitaERKN3c1013TensorOptionsE
FNDA:54,_ZNK5neml22R3clElll
FNDA:4,_ZNK5neml22R310contract_kERKNS_3VecE
FNF:3
FNH:3
DA:35,290
DA:37,12760
DA:40,1740
DA:41,11890
DA:44,54
DA:46,216
DA:47,54
DA:50,4
DA:52,4
DA:53,20
DA:54,4
LF:11
LH:11
end_of_record
TN:
SF:/home/runner/work/neml2/neml2/src/neml2/tensors/R4.cxx
FN:102,105,_ZNK5neml22R415transpose_minorEv
FN:108,111,_ZNK5neml22R415transpose_majorEv
FN:40,43,_ZN5neml22R4C2ERKNS_4SSR4E
FN:45,48,_ZN5neml22R4C2ERKNS_4WWR4E
FN:51,58,_ZNK5neml22R46rotateERKNS_3RotE
FN:61,74,_ZNK5neml22R47drotateERKNS_3RotE
FN:77,87,_ZNK5neml22R412drotate_selfERKNS_3RotE
FN:90,93,_ZNK5neml22R4clEllll
FN:96,99,_ZNK5neml22R49transposeEll
FNDA:83,_ZNK5neml22R415transpose_minorEv
FNDA:1,_ZNK5neml22R415transpose_majorEv
FNDA:66,_ZN5neml22R4C2ERKNS_4SSR4E
FNDA:0,_ZN5neml22R4C2ERKNS_4WWR4E
FNDA:145,_ZNK5neml22R46rotateERKNS_3RotE
FNDA:13,_ZNK5neml22R47drotateERKNS_3RotE
FNDA:4,_ZNK5neml22R412drotate_selfERKNS_3RotE
FNDA:486,_ZNK5neml22R4clEllll
FNDA:169,_ZNK5neml22R49transposeEll
FNF:9
FNH:8
DA:40,66
DA:41,66
DA:43,66
DA:45,0
DA:46,0
DA:48,0
DA:51,145
DA:53,145
DA:54,145
DA:56,1015
DA:57,290
DA:58,290
DA:61,13
DA:63,13
DA:64,13
DA:65,13
DA:67,91
DA:68,91
DA:69,91
DA:70,91
DA:71,13
DA:73,26
DA:74,65
DA:77,4
DA:79,4
DA:80,4
DA:82,24
DA:84,4
DA:85,2
DA:86,2
DA:87,8
DA:90,486
DA:92,2430
DA:93,486
DA:96,169
DA:98,169
DA:102,83
DA:104,83
DA:108,1
DA:110,1
LF:40
LH:37
end_of_record
TN:
SF:/home/runner/work/neml2/neml2/src/neml2/tensors/Rot.cxx
FN:112,126,_ZN5neml23Rot11fill_matrixERKNS_2R2E
FN:129,137,_ZN5neml23Rot14fill_rodriguesERKNS_6ScalarES3_S3_
FN:140,154,_ZN5neml23Rot11fill_randomEj
FN:157,166,_ZN5neml23Rot16rotation_from_toERKNS_3VecES3_
FN:169,175,_ZN5neml23Rot15from_axis_angleERKNS_3VecERKNS_6ScalarE
FN:178,182,_ZN5neml23Rot24from_axis_angle_standardERKNS_3VecERKNS_6ScalarE
FN:185,188,_ZNK5neml23Rot7inverseEv
FN:191,199,_ZNK5neml23Rot15euler_rodriguesEv
FN:202,214,_ZNK5neml23Rot16deuler_rodriguesEv
FN:217,220,_ZNK5neml23Rot6rotateERKS0_
FN:223,236,_ZNK5neml23Rot7drotateERKS0_
FN:239,252,_ZNK5neml23Rot12drotate_selfERKS0_
FN:255,258,_ZNK5neml23Rot6shadowEv
FN:261,265,_ZNK5neml23Rot7dshadowEv
FN:268,278,_ZNK5neml23Rot4distERKS0_
FN:281,287,_ZNK5neml23Rot5gdistERKS0_
FN:290,293,_ZNK5neml23Rot2dVEv
FN:296,303,_ZN5neml2mlERKNS_3RotES2_
FN:52,55,_ZN5neml23RotC2ERKNS_3VecE
FN:58,61,_ZN5neml23Rot8identityERKN3c1013TensorOptionsE
FN:64,109,_ZN5neml23Rot17fill_euler_anglesERKNS_3VecERKNSt7__cxx1112basic_stringIcSt11char_traitsIcESaIcEEESB_
FNDA:6,_ZN5neml23Rot11fill_matrixERKNS_2R2E
FNDA:6,_ZN5neml23Rot14fill_rodriguesERKNS_6ScalarES3_S3_
FNDA:0,_ZN5neml23Rot11fill_randomEj
FNDA:1,_ZN5neml23Rot16rotation_from_toERKNS_3VecES3_
FNDA:3,_ZN5neml23Rot15from_axis_angleERKNS_3VecERKNS_6ScalarE
FNDA:1,_ZN5neml23Rot24from_axis_angle_standardERKNS_3VecERKNS_6ScalarE
FNDA:2,_ZNK5neml23Rot7inverseEv
FNDA:252,_ZNK5neml23Rot15euler_rodriguesEv
FNDA:37,_ZNK5neml23Rot16deuler_rodriguesEv
FNDA:30,_ZNK5neml23Rot6rotateERKS0_
FNDA:11,_ZNK5neml23Rot7drotateERKS0_
FNDA:3,_ZNK5neml23Rot12drotate_selfERKS0_
FNDA:7,_ZNK5neml23Rot6shadowEv
FNDA:2,_ZNK5neml23Rot7dshadowEv
FNDA:0,_ZNK5neml23Rot4distERKS0_
FNDA:0,_ZNK5neml23Rot5gdistERKS0_
FNDA:0,_ZNK5neml23Rot2dVEv
FNDA:34,_ZN5neml2mlERKNS_3RotES2_
FNDA:38,_ZN5neml23RotC2ERKNS_3VecE
FNDA:3,_ZN5neml23Rot8identityERKN3c1013TensorOptionsE
FNDA:6,_ZN5neml23Rot17fill_euler_anglesERKNS_3VecERKNSt7__cxx1112basic_stringIcSt11char_traitsIcESaIcEEESB_
FNF:21
FNH:17
DA:52,38
DA:53,38
DA:55,38
DA:58,3
DA:60,3
DA:64,6
DA:68,6
DA:70,6
DA:71,3
DA:73,3
DA:75,6
DA:77,10
DA:78,10
DA:79,10
DA:81,4
DA:83,8
DA:86,2
DA:89,6
DA:90,12
DA:91,12
DA:92,12
DA:93,18
DA:94,12
DA:95,18
DA:96,12
DA:97,24
DA:98,18
DA:99,12
DA:100,18
DA:101,12
DA:102,24
DA:103,24
DA:104,24
DA:105,24
DA:108,12
DA:109,94
DA:112,6
DA:115,6
DA:116,6
DA:119,6
DA:120,24
DA:121,6
DA:122,6
DA:123,6
DA:125,12
DA:126,18
DA:129,6
DA:132,6
DA:133,6
DA:136,36
DA:137,12
DA:140,0
DA:142,0
DA:143,0
DA:144,0
DA:146,0
DA:147,0
DA:148,0
DA:149,0
DA:151,0
DA:153,0
DA:154,0
DA:157,1
DA:159,1
DA:160,1
DA:162,1
DA:163,1
DA:165,2
DA:166,1
DA:169,3
DA:171,3
DA:172,3
DA:174,6
DA:175,3
DA:178,1
DA:180,1
DA:181,2
DA:182,1
DA:185,2
DA:187,2
DA:191,252
DA:193,252
DA:194,252
DA:195,252
DA:197,504
DA:198,1008
DA:199,252
DA:202,37
DA:204,37
DA:205,37
DA:206,37
DA:207,37
DA:209,185
DA:210,259
DA:211,148
DA:212,74
DA:213,370
DA:214,222
DA:217,30
DA:219,30
DA:223,11
DA:225,11
DA:227,11
DA:228,11
DA:229,11
DA:230,11
DA:231,11
DA:233,22
DA:234,22
DA:235,66
DA:236,11
DA:239,3
DA:241,3
DA:243,3
DA:244,3
DA:245,3
DA:246,3
DA:247,3
DA:249,6
DA:250,6
DA:251,18
DA:252,3
DA:255,7
DA:257,7
DA:261,2
DA:263,2
DA:264,4
DA:265,2
DA:268,0
DA:270,0
DA:271,0
DA:272,0
DA:273,0
DA:274,0
DA:275,0
DA:277,0
DA:278,0
DA:281,0
DA:283,0
DA:284,0
DA:285,0
DA:286,0
DA:290,0
DA:292,0
DA:296,34
DA:298,34
DA:299,34
DA:301,68
DA:302,136
DA:303,34
LF:150
LH:123
end_of_record
TN:
SF:/home/runner/work/neml2/neml2/src/neml2/tensors/SR2.cxx
FN:111,114,_ZN5neml23SR28identityERKN3c1013TensorOptionsE
FN:117,120,_ZN5neml23SR212identity_mapERKN3c1013TensorOptionsE
FN:123,126,_ZNK5neml23SR26rotateERKNS_3RotE
FN:129,132,_ZNK5neml23SR26rotateERKNS_2R2E
FN:135,139,_ZNK5neml23SR27drotateERKNS_3RotE
FN:142,146,_ZNK5neml23SR27drotateERKNS_2R2E
FN:149,153,_ZNK5neml23SR2clEll
FN:156,159,_ZNK5neml23SR22trEv
FN:162,165,_ZNK5neml23SR23volEv
FN:168,171,_ZNK5neml23SR23devEv
FN:174,177,_ZNK5neml23SR25innerERKS0_
FN:180,183,_ZNK5neml23SR27norm_sqEv
FN:186,189,_ZNK5neml23SR24normERKN3c106ScalarE
FN:192,196,_ZNK5neml23SR25outerERKS0_
FN:199,210,_ZNK5neml23SR23detEv
FN:213,238,_ZNK5neml23SR27inverseEv
FN:241,244,_ZNK5neml23SR29transposeEv
FN:47,50,_ZN5neml23SR2C2ERKNS_2R2E
FN:53,56,_ZN5neml23SR24fillERKN3c106ScalarERKNS1_13TensorOptionsE
FN:59,63,_ZN5neml23SR24fillERKNS_6ScalarE
FN:66,72,_ZN5neml23SR24fillERKN3c106ScalarES4_S4_RKNS1_13TensorOptionsE
FN:75,79,_ZN5neml23SR24fillERKNS_6ScalarES3_S3_
FN:82,96,_ZN5neml23SR24fillERKN3c106ScalarES4_S4_S4_S4_S4_RKNS1_13TensorOptionsE
FN:99,108,_ZN5neml23SR24fillERKNS_6ScalarES3_S3_S3_S3_S3_
FNDA:59,_ZN5neml23SR28identityERKN3c1013TensorOptionsE
FNDA:59,_ZN5neml23SR212identity_mapERKN3c1013TensorOptionsE
FNDA:8,_ZNK5neml23SR26rotateERKNS_3RotE
FNDA:22,_ZNK5neml23SR26rotateERKNS_2R2E
FNDA:4,_ZNK5neml23SR27drotateERKNS_3RotE
FNDA:8,_ZNK5neml23SR27drotateERKNS_2R2E
FNDA:9,_ZNK5neml23SR2clEll
FNDA:190,_ZNK5neml23SR22trEv
FNDA:125,_ZNK5neml23SR23volEv
FNDA:97,_ZNK5neml23SR23devEv
FNDA:85,_ZNK5neml23SR25innerERKS0_
FNDA:61,_ZNK5neml23SR27norm_sqEv
FNDA:59,_ZNK5neml23SR24normERKN3c106ScalarE
FNDA:38,_ZNK5neml23SR25outerERKS0_
FNDA:2,_ZNK5neml23SR23detEv
FNDA:2,_ZNK5neml23SR27inverseEv
FNDA:2,_ZNK5neml23SR29transposeEv
FNDA:153,_ZN5neml23SR2C2ERKNS_2R2E
FNDA:3,_ZN5neml23SR24fillERKN3c106ScalarERKNS1_13TensorOptionsE
FNDA:143,_ZN5neml23SR24fillERKNS_6ScalarE
FNDA:18,_ZN5neml23SR24fillERKN3c106ScalarES4_S4_RKNS1_13TensorOptionsE
FNDA:49,_ZN5neml23SR24fillERKNS_6ScalarES3_S3_
FNDA:24,_ZN5neml23SR24fillERKN3c106ScalarES4_S4_S4_S4_S4_RKNS1_13TensorOptionsE
FNDA:124,_ZN5neml23SR24fillERKNS_6ScalarES3_S3_S3_S3_S3_
FNF:24
FNH:24
DA:47,153
DA:48,153
DA:50,153
DA:53,3
DA:55,3
DA:59,143
DA:61,143
DA:62,1287
DA:63,286
DA:66,18
DA:71,18
DA:75,49
DA:77,49
DA:78,441
DA:79,98
DA:82,24
DA:90,48
DA:91,48
DA:92,48
DA:93,48
DA:94,48
DA:95,72
DA:99,124
DA:106,1116
DA:107,620
DA:108,496
DA:111,59
DA:113,413
DA:114,59
DA:117,59
DA:119,59
DA:123,8
DA:125,8
DA:129,22
DA:131,22
DA:135,4
DA:137,4
DA:138,8
DA:139,4
DA:142,8
DA:144,8
DA:145,16
DA:146,8
DA:149,9
DA:151,9
DA:152,27
DA:153,9
DA:156,190
DA:158,950
DA:159,380
DA:162,125
DA:164,250
DA:168,97
DA:170,97
DA:174,85
DA:176,85
DA:180,61
DA:182,61
DA:186,59
DA:188,59
DA:192,38
DA:194,38
DA:195,190
DA:196,38
DA:199,2
DA:201,2
DA:202,2
DA:203,2
DA:204,2
DA:205,2
DA:206,2
DA:207,2
DA:208,2
DA:209,6
DA:210,2
DA:213,2
DA:215,2
DA:216,2
DA:217,2
DA:218,2
DA:219,2
DA:220,2
DA:221,2
DA:222,2
DA:223,2
DA:224,2
DA:225,2
DA:226,2
DA:227,2
DA:228,2
DA:229,14
DA:235,16
DA:236,2
DA:237,4
DA:238,6
DA:241,2
DA:243,2
LF:97
LH:97
end_of_record
TN:
SF:/home/runner/work/neml2/neml2/src/neml2/tensors/SSR4.cxx
FN:105,108,_ZN5neml24SSR412identity_volERKN3c1013TensorOptionsE
FN:111,114,_ZN5neml24SSR412identity_devERKN3c1013TensorOptionsE
FN:117,128,_ZN5neml24SSR414isotropic_E_nuERKNS_6ScalarES3_
FN:131,134,_ZN5neml24SSR414isotropic_E_nuERKdS2_RKN3c1013TensorOptionsE
FN:137,143,_ZN5neml24SSR413fill_C1_C2_C3ERKNS_6ScalarES3_S3_
FN:146,152,_ZN5neml24SSR413fill_C1_C2_C3ERKdS2_S2_RKN3c1013TensorOptionsE
FN:155,159,_ZN5neml24SSR412identity_mapERKN3c1013TensorOptionsE
FN:162,165,_ZNK5neml24SSR46rotateERKNS_3RotE
FN:168,172,_ZNK5neml24SSR47drotateERKNS_3RotE
FN:175,184,_ZNK5neml24SSR412drotate_selfERKNS_3RotE
FN:187,192,_ZNK5neml24SSR4clEllll
FN:195,198,_ZNK5neml24SSR47inverseEv
FN:201,205,_ZNK5neml24SSR48dinverseEv
FN:208,211,_ZNK5neml24SSR415transpose_minorEv
FN:214,217,_ZNK5neml24SSR415transpose_majorEv
FN:220,223,_ZN5neml2mlERKNS_4SSR4ERKNS_3SR2E
FN:226,229,_ZN5neml2mlERKNS_3SR2ERKNS_4SSR4E
FN:232,235,_ZN5neml2mlERKNS_4SSR4ES2_
FN:42,48,_ZN5neml24SSR4C2ERKNS_2R4E
FN:51,60,_ZN5neml24SSR48identityERKN3c1013TensorOptionsE
FN:63,72,_ZN5neml24SSR411identity_C1ERKN3c1013TensorOptionsE
FN:75,84,_ZN5neml24SSR411identity_C2ERKN3c1013TensorOptionsE
FN:87,96,_ZN5neml24SSR411identity_C3ERKN3c1013TensorOptionsE
FN:99,102,_ZN5neml24SSR412identity_symERKN3c1013TensorOptionsE
FNDA:15,_ZN5neml24SSR412identity_volERKN3c1013TensorOptionsE
FNDA:43,_ZN5neml24SSR412identity_devERKN3c1013TensorOptionsE
FNDA:5,_ZN5neml24SSR414isotropic_E_nuERKNS_6ScalarES3_
FNDA:3,_ZN5neml24SSR414isotropic_E_nuERKdS2_RKN3c1013TensorOptionsE
FNDA:5,_ZN5neml24SSR413fill_C1_C2_C3ERKNS_6ScalarES3_S3_
FNDA:0,_ZN5neml24SSR413fill_C1_C2_C3ERKdS2_S2_RKN3c1013TensorOptionsE
FNDA:3,_ZN5neml24SSR412identity_mapERKN3c1013TensorOptionsE
FNDA:55,_ZNK5neml24SSR46rotateERKNS_3RotE
FNDA:9,_ZNK5neml24SSR47drotateERKNS_3RotE
FNDA:6,_ZNK5neml24SSR412drotate_selfERKNS_3RotE
FNDA:324,_ZNK5neml24SSR4clEllll
FNDA:47,_ZNK5neml24SSR47inverseEv
FNDA:5,_ZNK5neml24SSR48dinverseEv
FNDA:0,_ZNK5neml24SSR415transpose_minorEv
FNDA:4,_ZNK5neml24SSR415transpose_majorEv
FNDA:27,_ZN5neml2mlERKNS_4SSR4ERKNS_3SR2E
FNDA:4,_ZN5neml2mlERKNS_3SR2ERKNS_4SSR4E
FNDA:18,_ZN5neml2mlERKNS_4SSR4ES2_
FNDA:76,_ZN5neml24SSR4C2ERKNS_2R4E
FNDA:90,_ZN5neml24SSR48identityERKN3c1013TensorOptionsE
FNDA:9,_ZN5neml24SSR411identity_C1ERKN3c1013TensorOptionsE
FNDA:9,_ZN5neml24SSR411identity_C2ERKN3c1013TensorOptionsE
FNDA:9,_ZN5neml24SSR411identity_C3ERKN3c1013TensorOptionsE
FNDA:127,_ZN5neml24SSR412identity_symERKN3c1013TensorOptionsE
FNF:24
FNH:22
DA:42,76
DA:43,152
DA:44,152
DA:46,76
DA:48,76
DA:51,90
DA:53,3960
DA:59,810
DA:60,3420
DA:63,9
DA:65,396
DA:71,81
DA:72,342
DA:75,9
DA:77,396
DA:83,81
DA:84,342
DA:87,9
DA:89,396
DA:95,81
DA:96,342
DA:99,127
DA:101,127
DA:105,15
DA:107,30
DA:111,43
DA:113,43
DA:117,5
DA:119,5
DA:121,5
DA:122,5
DA:123,5
DA:124,5
DA:125,5
DA:127,10
DA:128,5
DA:131,3
DA:133,3
DA:137,5
DA:139,5
DA:141,10
DA:142,15
DA:146,0
DA:151,0
DA:155,3
DA:157,3
DA:158,15
DA:159,6
DA:162,55
DA:164,55
DA:168,9
DA:170,9
DA:171,18
DA:172,9
DA:175,6
DA:177,6
DA:178,42
DA:179,54
DA:180,48
DA:181,48
DA:182,12
DA:183,24
DA:184,30
DA:187,324
DA:189,324
DA:190,324
DA:191,1296
DA:192,324
DA:195,47
DA:197,47
DA:201,5
DA:203,5
DA:204,25
DA:205,10
DA:208,0
DA:210,0
DA:214,4
DA:216,4
DA:220,27
DA:222,27
DA:226,4
DA:228,4
DA:232,18
DA:234,18
LF:84
LH:80
end_of_record
TN:
SF:/home/runner/work/neml2/neml2/src/neml2/tensors/SWR4.cxx
FN:32,35,_ZN5neml24SWR4C2ERKNS_2R4E
FNDA:1,_ZN5neml24SWR4C2ERKNS_2R4E
FNF:1
FNH:1
DA:32,1
DA:33,1
DA:35,1
LF:3
LH:3
end_of_record
TN:
SF:/home/runner/work/neml2/neml2/src/neml2/tensors/Scalar.cxx
FN:30,37,_ZN5neml26ScalarC2ERKN3c106ScalarERKNS1_13TensorOptionsE
FN:40,43,_ZN5neml26Scalar12identity_mapERKN3c1013TensorOptionsE
FN:46,51,_ZNK5neml26Scalar17base_unsqueeze_toEl
FNDA:2103,_ZN5neml26ScalarC2ERKN3c106ScalarERKNS1_13TensorOptionsE
FNDA:142,_ZN5neml26Scalar12identity_mapERKN3c1013TensorOptionsE
FNDA:9103,_ZNK5neml26Scalar17base_unsqueeze_toEl
FNF:3
FNH:3
DA:30,2103
DA:31,2103
DA:33,2103
DA:34,2103
DA:37,2103
DA:40,142
DA:42,142
DA:46,9103
DA:48,18206
DA:49,9103
DA:50,27309
DA:51,18206
LF:12
LH:12
end_of_record
TN:
SF:/home/runner/work/neml2/neml2/src/neml2/tensors/Tensor.cxx
FN:114,117,_ZN5neml26Tensor5zerosEN3c108ArrayRefIlEERKNS1_13TensorOptionsE
FN:120,132,_ZN5neml26Tensor5zerosERKNS_20TraceableTensorShapeEN3c108ArrayRefIlEERKNS4_13TensorOptionsE
FN:135,138,_ZN5neml26Tensor4onesEN3c108ArrayRefIlEERKNS1_13TensorOptionsE
FN:141,153,_ZN5neml26Tensor4onesERKNS_20TraceableTensorShapeEN3c108ArrayRefIlEERKNS4_13TensorOptionsE
FN:156,159,_ZN5neml26Tensor4fullEN3c108ArrayRefIlEERKNS1_6ScalarERKNS1_13TensorOptionsE
FN:162,175,_ZN5neml26Tensor4fullERKNS_20TraceableTensorShapeEN3c108ArrayRefIlEERKNS4_6ScalarERKNS4_13TensorOptionsE
FN:178,181,_ZN5neml26Tensor8identityElRKN3c1013TensorOptionsE
FN:184,187,_ZN5neml26Tensor8identityERKNS_20TraceableTensorShapeElRKN3c1013TensorOptionsE
FN:190,201,_ZNK5neml26Tensor17base_unsqueeze_toEl
FN:36,42,_ZN5neml25utils11pad_prependERKN2at6TensorEll
FN:45,65,_ZN5neml25utils21broadcast_batch_sizesERKSt6vectorINS_6TensorESaIS2_EE
FN:68,71,_ZN5neml26TensorC2ERKN2at6TensorEl
FN:73,76,_ZN5neml26TensorC2ERKN2at6TensorERKNS_20TraceableTensorShapeE
FN:79,82,_ZN5neml26Tensor6createERKN5torch6detail19TensorDataContainerERKN3c1013TensorOptionsE
FN:85,90,_ZN5neml26Tensor6createERKN5torch6detail19TensorDataContainerElRKN3c1013TensorOptionsE
FN:93,96,_ZN5neml26Tensor5emptyEN3c108ArrayRefIlEERKNS1_13TensorOptionsE
FN:99,111,_ZN5neml26Tensor5emptyERKNS_20TraceableTensorShapeEN3c108ArrayRefIlEERKNS4_13TensorOptionsE
FNDA:58,_ZN5neml26Tensor5zerosEN3c108ArrayRefIlEERKNS1_13TensorOptionsE
FNDA:20409,_ZN5neml26Tensor5zerosERKNS_20TraceableTensorShapeEN3c108ArrayRefIlEERKNS4_13TensorOptionsE
FNDA:148,_ZN5neml26Tensor4onesEN3c108ArrayRefIlEERKNS1_13TensorOptionsE
FNDA:105,_ZN5neml26Tensor4onesERKNS_20TraceableTensorShapeEN3c108ArrayRefIlEERKNS4_13TensorOptionsE
FNDA:1824,_ZN5neml26Tensor4fullEN3c108ArrayRefIlEERKNS1_6ScalarERKNS1_13TensorOptionsE
FNDA:280,_ZN5neml26Tensor4fullERKNS_20TraceableTensorShapeEN3c108ArrayRefIlEERKNS4_6ScalarERKNS4_13TensorOptionsE
FNDA:193,_ZN5neml26Tensor8identityElRKN3c1013TensorOptionsE
FNDA:3,_ZN5neml26Tensor8identityERKNS_20TraceableTensorShapeElRKN3c1013TensorOptionsE
FNDA:4,_ZNK5neml26Tensor17base_unsqueeze_toEl
FNDA:3875,_ZN5neml25utils11pad_prependERKN2at6TensorEll
FNDA:6761,_ZN5neml25utils21broadcast_batch_sizesERKSt6vectorINS_6TensorESaIS2_EE
FNDA:32023,_ZN5neml26TensorC2ERKN2at6TensorEl
FNDA:2471402,_ZN5neml26TensorC2ERKN2at6TensorERKNS_20TraceableTensorShapeE
FNDA:941,_ZN5neml26Tensor6createERKN5torch6detail19TensorDataContainerERKN3c1013TensorOptionsE
FNDA:948,_ZN5neml26Tensor6createERKN5torch6detail19TensorDataContainerElRKN3c1013TensorOptionsE
FNDA:2,_ZN5neml26Tensor5emptyEN3c108ArrayRefIlEERKNS1_13TensorOptionsE
FNDA:209,_ZN5neml26Tensor5emptyERKNS_20TraceableTensorShapeEN3c108ArrayRefIlEERKNS4_13TensorOptionsE
FNF:17
FNH:17
DA:36,3875
DA:38,3875
DA:39,3875
DA:40,3875
DA:41,23250
DA:42,11625
DA:45,6761
DA:47,6761
DA:48,6761
DA:49,26926
DA:50,20165
DA:52,20150
DA:53,20150
DA:54,20150
DA:55,3875
DA:56,20150
DA:57,6761
DA:58,5432
DA:60,5204
DA:61,3875
DA:63,1329
DA:64,1329
DA:65,6761
DA:68,32023
DA:69,32023
DA:71,32023
DA:73,2471402
DA:74,2471402
DA:76,2471402
DA:79,941
DA:81,941
DA:85,948
DA:87,1896
DA:88,948
DA:89,1896
DA:93,2
DA:95,2
DA:99,209
DA:104,430
DA:105,221
DA:106,0
DA:107,0
DA:109,418
DA:110,418
DA:114,58
DA:116,58
DA:120,20409
DA:125,20942
DA:126,533
DA:127,27
DA:128,9
DA:130,40818
DA:131,40818
DA:135,148
DA:137,148
DA:141,105
DA:146,240
DA:147,135
DA:148,27
DA:149,9
DA:151,210
DA:152,210
DA:156,1824
DA:158,1824
DA:162,280
DA:168,863
DA:169,583
DA:170,0
DA:171,0
DA:173,560
DA:174,560
DA:178,193
DA:180,193
DA:184,3
DA:186,3
DA:190,4
DA:192,4
DA:196,4
DA:198,8
DA:199,4
DA:200,12
DA:201,8
LF:82
LH:78
end_of_record
TN:
SF:/home/runner/work/neml2/neml2/src/neml2/tensors/TensorCache.cxx
FN:29,32,_ZN5neml211TensorCacheC2EOSt8functionIFNS_6TensorERKN3c1013TensorOptionsEEE
FN:35,42,_ZN5neml211TensorCacheclERKN3c1013TensorOptionsE
FNDA:8,_ZN5neml211TensorCacheC2EOSt8functionIFNS_6TensorERKN3c1013TensorOptionsEEE
FNDA:1342,_ZN5neml211TensorCacheclERKN3c1013TensorOptionsE
FNF:2
FNH:2
DA:29,8
DA:30,8
DA:32,8
DA:35,1342
DA:37,1342
DA:38,1342
DA:39,1342
DA:40,8
DA:41,1334
LF:9
LH:9
end_of_record
TN:
SF:/home/runner/work/neml2/neml2/src/neml2/tensors/TensorValue.cxx
FN:32,35,_ZN5neml211TensorValueINS_10QuaternionEE3to_ERKN3c1013TensorOptionsE
FN:32,35,_ZN5neml211TensorValueINS_11MillerIndexEE3to_ERKN3c1013TensorOptionsE
FN:32,35,_ZN5neml211TensorValueINS_2R2EE3to_ERKN3c1013TensorOptionsE
FN:32,35,_ZN5neml211TensorValueINS_2R3EE3to_ERKN3c1013TensorOptionsE
FN:32,35,_ZN5neml211TensorValueINS_2R4EE3to_ERKN3c1013TensorOptionsE
FN:32,35,_ZN5neml211TensorValueINS_2R5EE3to_ERKN3c1013TensorOptionsE
FN:32,35,_ZN5neml211TensorValueINS_2R8EE3to_ERKN3c1013TensorOptionsE
FN:32,35,_ZN5neml211TensorValueINS_3RotEE3to_ERKN3c1013TensorOptionsE
FN:32,35,_ZN5neml211TensorValueINS_3SR2EE3to_ERKN3c1013TensorOptionsE
FN:32,35,_ZN5neml211TensorValueINS_3VecEE3to_ERKN3c1013TensorOptionsE
FN:32,35,_ZN5neml211TensorValueINS_3WR2EE3to_ERKN3c1013TensorOptionsE
FN:32,35,_ZN5neml211TensorValueINS_4SFR3EE3to_ERKN3c1013TensorOptionsE
FN:32,35,_ZN5neml211TensorValueINS_4SFR4EE3to_ERKN3c1013TensorOptionsE
FN:32,35,_ZN5neml211TensorValueINS_4SSR4EE3to_ERKN3c1013TensorOptionsE
FN:32,35,_ZN5neml211TensorValueINS_4SWR4EE3to_ERKN3c1013TensorOptionsE
FN:32,35,_ZN5neml211TensorValueINS_4WFR4EE3to_ERKN3c1013TensorOptionsE
FN:32,35,_ZN5neml211TensorValueINS_4WSR4EE3to_ERKN3c1013TensorOptionsE
FN:32,35,_ZN5neml211TensorValueINS_4WWR4EE3to_ERKN3c1013TensorOptionsE
FN:32,35,_ZN5neml211TensorValueINS_5SFFR4EE3to_ERKN3c1013TensorOptionsE
FN:32,35,_ZN5neml211TensorValueINS_5SSFR5EE3to_ERKN3c1013TensorOptionsE
FN:32,35,_ZN5neml211TensorValueINS_6SSSSR8EE3to_ERKN3c1013TensorOptionsE
FN:32,35,_ZN5neml211TensorValueINS_6ScalarEE3to_ERKN3c1013TensorOptionsE
FN:32,35,_ZN5neml211TensorValueINS_6TensorEE3to_ERKN3c1013TensorOptionsE
FN:39,42,_ZN5neml211TensorValueINS_10QuaternionEE14requires_grad_Eb
FN:39,42,_ZN5neml211TensorValueINS_11MillerIndexEE14requires_grad_Eb
FN:39,42,_ZN5neml211TensorValueINS_2R2EE14requires_grad_Eb
FN:39,42,_ZN5neml211TensorValueINS_2R3EE14requires_grad_Eb
FN:39,42,_ZN5neml211TensorValueINS_2R4EE14requires_grad_Eb
FN:39,42,_ZN5neml211TensorValueINS_2R5EE14requires_grad_Eb
FN:39,42,_ZN5neml211TensorValueINS_2R8EE14requires_grad_Eb
FN:39,42,_ZN5neml211TensorValueINS_3RotEE14requires_grad_Eb
FN:39,42,_ZN5neml211TensorValueINS_3SR2EE14requires_grad_Eb
FN:39,42,_ZN5neml211TensorValueINS_3VecEE14requires_grad_Eb
FN:39,42,_ZN5neml211TensorValueINS_3WR2EE14requires_grad_Eb
FN:39,42,_ZN5neml211TensorValueINS_4SFR3EE14requires_grad_Eb
FN:39,42,_ZN5neml211TensorValueINS_4SFR4EE14requires_grad_Eb
FN:39,42,_ZN5neml211TensorValueINS_4SSR4EE14requires_grad_Eb
FN:39,42,_ZN5neml211TensorValueINS_4SWR4EE14requires_grad_Eb
FN:39,42,_ZN5neml211TensorValueINS_4WFR4EE14requires_grad_Eb
FN:39,42,_ZN5neml211TensorValueINS_4WSR4EE14requires_grad_Eb
FN:39,42,_ZN5neml211TensorValueINS_4WWR4EE14requires_grad_Eb
FN:39,42,_ZN5neml211TensorValueINS_5SFFR4EE14requires_grad_Eb
FN:39,42,_ZN5neml211TensorValueINS_5SSFR5EE14requires_grad_Eb
FN:39,42,_ZN5neml211TensorValueINS_6SSSSR8EE14requires_grad_Eb
FN:39,42,_ZN5neml211TensorValueINS_6ScalarEE14requires_grad_Eb
FN:39,42,_ZN5neml211TensorValueINS_6TensorEE14requires_grad_Eb
FN:45,48,_ZNK5neml211TensorValueINS_10QuaternionEEcvNS_6TensorEEv
FN:45,48,_ZNK5neml211TensorValueINS_11MillerIndexEEcvNS_6TensorEEv
FN:45,48,_ZNK5neml211TensorValueINS_2R2EEcvNS_6TensorEEv
FN:45,48,_ZNK5neml211TensorValueINS_2R3EEcvNS_6TensorEEv
FN:45,48,_ZNK5neml211TensorValueINS_2R4EEcvNS_6TensorEEv
FN:45,48,_ZNK5neml211TensorValueINS_2R5EEcvNS_6TensorEEv
FN:45,48,_ZNK5neml211TensorValueINS_2R8EEcvNS_6TensorEEv
FN:45,48,_ZNK5neml211TensorValueINS_3RotEEcvNS_6TensorEEv
FN:45,48,_ZNK5neml211TensorValueINS_3SR2EEcvNS_6TensorEEv
FN:45,48,_ZNK5neml211TensorValueINS_3VecEEcvNS_6TensorEEv
FN:45,48,_ZNK5neml211TensorValueINS_3WR2EEcvNS_6TensorEEv
FN:45,48,_ZNK5neml211TensorValueINS_4SFR3EEcvNS_6TensorEEv
FN:45,48,_ZNK5neml211TensorValueINS_4SFR4EEcvNS_6TensorEEv
FN:45,48,_ZNK5neml211TensorValueINS_4SSR4EEcvNS_6TensorEEv
FN:45,48,_ZNK5neml211TensorValueINS_4SWR4EEcvNS_6TensorEEv
FN:45,48,_ZNK5neml211TensorValueINS_4WFR4EEcvNS_6TensorEEv
FN:45,48,_ZNK5neml211TensorValueINS_4WSR4EEcvNS_6TensorEEv
FN:45,48,_ZNK5neml211TensorValueINS_4WWR4EEcvNS_6TensorEEv
FN:45,48,_ZNK5neml211TensorValueINS_5SFFR4EEcvNS_6TensorEEv
FN:45,48,_ZNK5neml211TensorValueINS_5SSFR5EEcvNS_6TensorEEv
FN:45,48,_ZNK5neml211TensorValueINS_6SSSSR8EEcvNS_6TensorEEv
FN:45,48,_ZNK5neml211TensorValueINS_6ScalarEEcvNS_6TensorEEv
FN:45,48,_ZNK5neml211TensorValueINS_6TensorEEcvS1_Ev
FN:52,55,_ZN5neml211TensorValueINS_10QuaternionEEaSERKNS_6TensorE
FN:52,55,_ZN5neml211TensorValueINS_11MillerIndexEEaSERKNS_6TensorE
FN:52,55,_ZN5neml211TensorValueINS_2R2EEaSERKNS_6TensorE
FN:52,55,_ZN5neml211TensorValueINS_2R3EEaSERKNS_6TensorE
FN:52,55,_ZN5neml211TensorValueINS_2R4EEaSERKNS_6TensorE
FN:52,55,_ZN5neml211TensorValueINS_2R5EEaSERKNS_6TensorE
FN:52,55,_ZN5neml211TensorValueINS_2R8EEaSERKNS_6TensorE
FN:52,55,_ZN5neml211TensorValueINS_3RotEEaSERKNS_6TensorE
FN:52,55,_ZN5neml211TensorValueINS_3SR2EEaSERKNS_6TensorE
FN:52,55,_ZN5neml211TensorValueINS_3VecEEaSERKNS_6TensorE
FN:52,55,_ZN5neml211TensorValueINS_3WR2EEaSERKNS_6TensorE
FN:52,55,_ZN5neml211TensorValueINS_4SFR3EEaSERKNS_6TensorE
FN:52,55,_ZN5neml211TensorValueINS_4SFR4EEaSERKNS_6TensorE
FN:52,55,_ZN5neml211TensorValueINS_4SSR4EEaSERKNS_6TensorE
FN:52,55,_ZN5neml211TensorValueINS_4SWR4EEaSERKNS_6TensorE
FN:52,55,_ZN5neml211TensorValueINS_4WFR4EEaSERKNS_6TensorE
FN:52,55,_ZN5neml211TensorValueINS_4WSR4EEaSERKNS_6TensorE
FN:52,55,_ZN5neml211TensorValueINS_4WWR4EEaSERKNS_6TensorE
FN:52,55,_ZN5neml211TensorValueINS_5SFFR4EEaSERKNS_6TensorE
FN:52,55,_ZN5neml211TensorValueINS_5SSFR5EEaSERKNS_6TensorE
FN:52,55,_ZN5neml211TensorValueINS_6SSSSR8EEaSERKNS_6TensorE
FN:52,55,_ZN5neml211TensorValueINS_6ScalarEEaSERKNS_6TensorE
FN:52,55,_ZN5neml211TensorValueINS_6TensorEEaSERKS1_
FN:59,62,_ZNK5neml211TensorValueINS_10QuaternionEE4typeEv
FN:59,62,_ZNK5neml211TensorValueINS_11MillerIndexEE4typeEv
FN:59,62,_ZNK5neml211TensorValueINS_2R2EE4typeEv
FN:59,62,_ZNK5neml211TensorValueINS_2R3EE4typeEv
FN:59,62,_ZNK5neml211TensorValueINS_2R4EE4typeEv
FN:59,62,_ZNK5neml211TensorValueINS_2R5EE4typeEv
FN:59,62,_ZNK5neml211TensorValueINS_2R8EE4typeEv
FN:59,62,_ZNK5neml211TensorValueINS_3RotEE4typeEv
FN:59,62,_ZNK5neml211TensorValueINS_3SR2EE4typeEv
FN:59,62,_ZNK5neml211TensorValueINS_3VecEE4typeEv
FN:59,62,_ZNK5neml211TensorValueINS_3WR2EE4typeEv
FN:59,62,_ZNK5neml211TensorValueINS_4SFR3EE4typeEv
FN:59,62,_ZNK5neml211TensorValueINS_4SFR4EE4typeEv
FN:59,62,_ZNK5neml211TensorValueINS_4SSR4EE4typeEv
FN:59,62,_ZNK5neml211TensorValueINS_4SWR4EE4typeEv
FN:59,62,_ZNK5neml211TensorValueINS_4WFR4EE4typeEv
FN:59,62,_ZNK5neml211TensorValueINS_4WSR4EE4typeEv
FN:59,62,_ZNK5neml211TensorValueINS_4WWR4EE4typeEv
FN:59,62,_ZNK5neml211TensorValueINS_5SFFR4EE4typeEv
FN:59,62,_ZNK5neml211TensorValueINS_5SSFR5EE4typeEv
FN:59,62,_ZNK5neml211TensorValueINS_6SSSSR8EE4typeEv
FN:59,62,_ZNK5neml211TensorValueINS_6ScalarEE4typeEv
FN:59,62,_ZNK5neml211TensorValueINS_6TensorEE4typeEv
